(dp1
Velectivire
p2
VElectivire
p3
sVcherrim
p4
VCherrim
p5
sVcolorchange
p6
VColor Change
p7
sVpersimberry
p8
VPersim Berry
p9
sVpalkia
p10
VPalkia
p11
sVtickle
p12
VTickle
p13
sS'arceuselectric'
p14
S'Arceus-Electric'
p15
sVabra
p16
VAbra
p17
sVreuniclus
p18
VReuniclus
p19
sVrecycle
p20
VRecycle
p21
sVmeditite
p22
VMeditite
p23
sVsharpbeak
p24
VSharp Beak
p25
sVquickclaw
p26
VQuick Claw
p27
sVdoubleslap
p28
VDoubleSlap
p29
sVeviolite
p30
VEviolite
p31
sVsquirtle
p32
VSquirtle
p33
sVnastyplot
p34
VNasty Plot
p35
sVwormadam
p36
VWormadam
p37
sVwhirlwind
p38
VWhirlwind
p39
sVplumefossil
p40
VPlume Fossil
p41
sVheracross
p42
VHeracross
p43
sVhiddenpowerelectric
p44
VHidden Power Electric
p45
sVhiddenpowerfire
p46
VHidden Power Fire
p47
sVguillotine
p48
VGuillotine
p49
sVlevitate
p50
VLevitate
p51
sVrhyperior
p52
VRhyperior
p53
sVpomegberry
p54
VPomeg Berry
p55
sVmasquerain
p56
VMasquerain
p57
sVthunder
p58
VThunder
p59
sVhaze
p60
VHaze
p61
sVdarkgem
p62
VDark Gem
p63
sVsteelwing
p64
VSteel Wing
p65
sVfraxure
p66
VFraxure
p67
sVmoldbreaker
p68
VMold Breaker
p69
sVcrunch
p70
VCrunch
p71
sVrindoberry
p72
VRindo Berry
p73
sVreflecttype
p74
VReflect Type
p75
sVsnivy
p76
VSnivy
p77
sVmefirst
p78
VMe First
p79
sVkrokorok
p80
VKrokorok
p81
sVstunfisk
p82
VStunfisk
p83
sVmew
p84
VMew
p85
sVpursuit
p86
VPursuit
p87
sVheadsmash
p88
VHead Smash
p89
sVaftermath
p90
VAftermath
p91
sS'tornadustherian'
p92
S'Tornadus-Therian'
p93
sVlunatone
p94
VLunatone
p95
sVpunishment
p96
VPunishment
p97
sVpoisontouch
p98
VPoison Touch
p99
sVfeebas
p100
VFeebas
p101
sVneedlearm
p102
VNeedle Arm
p103
sVblastburn
p104
VBlast Burn
p105
sVhonchkrow
p106
VHonchkrow
p107
sVtirtouga
p108
VTirtouga
p109
sVampharos
p110
VAmpharos
p111
sVdusclops
p112
VDusclops
p113
sVpoisonbarb
p114
VPoison Barb
p115
sVmorningsun
p116
VMorning Sun
p117
sVmandibuzz
p118
VMandibuzz
p119
sVoverheat
p120
VOverheat
p121
sVspiritomb
p122
VSpiritomb
p123
sVvoltabsorb
p124
VVolt Absorb
p125
sVpurugly
p126
VPurugly
p127
sVshiftgear
p128
VShift Gear
p129
sS'calm'
p130
S'Calm'
p131
sVbigroot
p132
VBig Root
p133
sVgardevoir
p134
VGardevoir
p135
sVmagnetrise
p136
VMagnet Rise
p137
sS'naive'
p138
S'Naive'
p139
sVkyogre
p140
VKyogre
p141
sS'adamant'
p142
S'Adamant'
p143
sVkitsunoh
p144
VKitsunoh
p145
sS'arceusbug'
p146
S'Arceus-Bug'
p147
sVgranbull
p148
VGranbull
p149
sVpidgeot
p150
VPidgeot
p151
sVtangledfeet
p152
VTangled Feet
p153
sValakazam
p154
VAlakazam
p155
sVonix
p156
VOnix
p157
sVgrimer
p158
VGrimer
p159
sVbugbite
p160
VBug Bite
p161
sVpoisongas
p162
VPoison Gas
p163
sVmakuhita
p164
VMakuhita
p165
sVattract
p166
VAttract
p167
sVpowerwhip
p168
VPower Whip
p169
sVpachirisu
p170
VPachirisu
p171
sVcrabhammer
p172
VCrabhammer
p173
sVtoxic
p174
VToxic
p175
sS'rotomheat'
p176
S'Rotom-Heat'
p177
sVpoisonpowder
p178
VPoisonPowder
p179
sVredcard
p180
VRed Card
p181
sS'modest'
p182
S'Modest'
p183
sS'lax'
p184
S'Lax'
p185
sVrocktomb
p186
VRock Tomb
p187
sVcherubi
p188
VCherubi
p189
sVleafstorm
p190
VLeaf Storm
p191
sVspookyplate
p192
VSpooky Plate
p193
sS'hasty'
p194
S'Hasty'
p195
sVentei
p196
VEntei
p197
sS'arceussteel'
p198
S'Arceus-Steel'
p199
sVcobaberry
p200
VCoba Berry
p201
sVlaggingtail
p202
VLagging Tail
p203
sVfinalgambit
p204
VFinal Gambit
p205
sVrapidash
p206
VRapidash
p207
sVdoubleteam
p208
VDouble Team
p209
sVlumineon
p210
VLumineon
p211
sVshielddust
p212
VShield Dust
p213
sVmagicbounce
p214
VMagic Bounce
p215
sVhiddenpowerfighting
p216
VHidden Power Fighting
p217
sVsludge
p218
VSludge
p219
sVvenusaur
p220
VVenusaur
p221
sVphione
p222
VPhione
p223
sVflameburst
p224
VFlame Burst
p225
sVzapplate
p226
VZap Plate
p227
sVmunna
p228
VMunna
p229
sVhitmonlee
p230
VHitmonlee
p231
sVdryskin
p232
VDry Skin
p233
sVkricketot
p234
VKricketot
p235
sVroost
p236
VRoost
p237
sVfurycutter
p238
VFury Cutter
p239
sVirontail
p240
VIron Tail
p241
sVpoliwhirl
p242
VPoliwhirl
p243
sVeggbomb
p244
VEgg Bomb
p245
sVluxray
p246
VLuxray
p247
sVpayback
p248
VPayback
p249
sVexcadrill
p250
VExcadrill
p251
sVgloom
p252
VGloom
p253
sVgluttony
p254
VGluttony
p255
sVvulpix
p256
VVulpix
p257
sVcradily
p258
VCradily
p259
sVthunderfang
p260
VThunder Fang
p261
sVespeon
p262
VEspeon
p263
sVmultitype
p264
VMultitype
p265
sVflameorb
p266
VFlame Orb
p267
sVhiddenpowerdragon
p268
VHidden Power Dragon
p269
sVshadowtag
p270
VShadow Tag
p271
sVomastar
p272
VOmastar
p273
sVwalrein
p274
VWalrein
p275
sVtruant
p276
VTruant
p277
sVqualotberry
p278
VQualot Berry
p279
sVnincada
p280
VNincada
p281
sVpsychic
p282
VPsychic
p283
sVlifeorb
p284
VLife Orb
p285
sVkasibberry
p286
VKasib Berry
p287
sVcottonguard
p288
VCotton Guard
p289
sVtornadus
p290
VTornadus
p291
sVshedshell
p292
VShed Shell
p293
sVbarrier
p294
VBarrier
p295
sVleftovers
p296
VLeftovers
p297
sVrevenge
p298
VRevenge
p299
sVsynchronoise
p300
VSynchronoise
p301
sVbestow
p302
VBestow
p303
sVtrumpcard
p304
VTrump Card
p305
sVstruggle
p306
VStruggle
p307
sVshiftry
p308
VShiftry
p309
sVgirafarig
p310
VGirafarig
p311
sVbeartic
p312
VBeartic
p313
sS'kyuremblack'
p314
S'Kyurem-Black'
p315
sVsonicboom
p316
VSonicBoom
p317
sVfightinggem
p318
VFighting Gem
p319
sVlatias
p320
VLatias
p321
sVdrainpunch
p322
VDrain Punch
p323
sVcheriberry
p324
VCheri Berry
p325
sS'naughty'
p326
S'Naughty'
p327
sVseedflare
p328
VSeed Flare
p329
sVhydrocannon
p330
VHydro Cannon
p331
sVdeoxys
p332
VDeoxys
p333
sVhooh
p334
VHo-Oh
p335
sVshieldon
p336
VShieldon
p337
sVslugma
p338
VSlugma
p339
sVwaveincense
p340
VWave Incense
p341
sVgripclaw
p342
VGrip Claw
p343
sVaircutter
p344
VAir Cutter
p345
sVmightyena
p346
VMightyena
p347
sVgrowlithe
p348
VGrowlithe
p349
sVinferno
p350
VInferno
p351
sVtwister
p352
VTwister
p353
sVyamask
p354
VYamask
p355
sVflamethrower
p356
VFlamethrower
p357
sVtoxicorb
p358
VToxic Orb
p359
sVrockclimb
p360
VRock Climb
p361
sVwonderroom
p362
VWonder Room
p363
sVmachoke
p364
VMachoke
p365
sVdoomdesire
p366
VDoom Desire
p367
sVmirrormove
p368
VMirror Move
p369
sVsandshrew
p370
VSandshrew
p371
sVpolitoed
p372
VPolitoed
p373
sVminun
p374
VMinun
p375
sVbelueberry
p376
VBelue Berry
p377
sVendure
p378
VEndure
p379
sVswiftswim
p380
VSwift Swim
p381
sVshellbell
p382
VShell Bell
p383
sVminus
p384
VMinus
p385
sVmeowth
p386
VMeowth
p387
sVsweetscent
p388
VSweet Scent
p389
sVsludgebomb
p390
VSludge Bomb
p391
sVpayapaberry
p392
VPayapa Berry
p393
sVclosecombat
p394
VClose Combat
p395
sVhealer
p396
VHealer
p397
sVseel
p398
VSeel
p399
sVblastoise
p400
VBlastoise
p401
sVstrength
p402
VStrength
p403
sVchingling
p404
VChingling
p405
sVgothita
p406
VGothita
p407
sVdarmanitan
p408
VDarmanitan
p409
sVgyroball
p410
VGyro Ball
p411
sVponyta
p412
VPonyta
p413
sVgolbat
p414
VGolbat
p415
sS'deoxysspeed'
p416
S'Deoxys-Speed'
p417
sVshadowforce
p418
VShadow Force
p419
sVcoil
p420
VCoil
p421
sVdrought
p422
VDrought
p423
sVferrothorn
p424
VFerrothorn
p425
sVcosmicpower
p426
VCosmic Power
p427
sVdunsparce
p428
VDunsparce
p429
sVconstrict
p430
VConstrict
p431
sVvileplume
p432
VVileplume
p433
sVraticate
p434
VRaticate
p435
sVslaking
p436
VSlaking
p437
sVjirachi
p438
VJirachi
p439
sVgolduck
p440
VGolduck
p441
sVarmorfossil
p442
VArmor Fossil
p443
sVtogekiss
p444
VTogekiss
p445
sVhippopotas
p446
VHippopotas
p447
sVdialga
p448
VDialga
p449
sVlastresort
p450
VLast Resort
p451
sVbulletpunch
p452
VBullet Punch
p453
sVicegem
p454
VIce Gem
p455
sVspite
p456
VSpite
p457
sVwaterpulse
p458
VWater Pulse
p459
sVstoutland
p460
VStoutland
p461
sVbidoof
p462
VBidoof
p463
sVsyclant
p464
VSyclant
p465
sVhaunter
p466
VHaunter
p467
sVweedle
p468
VWeedle
p469
sVhoneygather
p470
VHoney Gather
p471
sVmachop
p472
VMachop
p473
sVmetalpowder
p474
VMetal Powder
p475
sVdusknoir
p476
VDusknoir
p477
sVmeditate
p478
VMeditate
p479
sVreversal
p480
VReversal
p481
sVlunardance
p482
VLunar Dance
p483
sVtentacool
p484
VTentacool
p485
sVmilotic
p486
VMilotic
p487
sVwailmer
p488
VWailmer
p489
sVnosepass
p490
VNosepass
p491
sVflashcannon
p492
VFlash Cannon
p493
sVlaxincense
p494
VLax Incense
p495
sVmagneton
p496
VMagneton
p497
sVstickyhold
p498
VSticky Hold
p499
sVbeatup
p500
VBeat Up
p501
sVleafblade
p502
VLeaf Blade
p503
sVserperior
p504
VSerperior
p505
sVempoleon
p506
VEmpoleon
p507
sVwooper
p508
VWooper
p509
sVforretress
p510
VForretress
p511
sVmindreader
p512
VMind Reader
p513
sVseaincense
p514
VSea Incense
p515
sVsimisage
p516
VSimisage
p517
sVarcheops
p518
VArcheops
p519
sVheavymetal
p520
VHeavy Metal
p521
sS'wormadamsandy'
p522
S'Wormadam-Sandy'
p523
sVmuscleband
p524
VMuscle Band
p525
sVpurrloin
p526
VPurrloin
p527
sVdoduo
p528
VDoduo
p529
sVmuk
p530
VMuk
p531
sVcacturne
p532
VCacturne
p533
sVmothim
p534
VMothim
p535
sVslowpoke
p536
VSlowpoke
p537
sVfrostbreath
p538
VFrost Breath
p539
sVvirizion
p540
VVirizion
p541
sVcut
p542
VCut
p543
sVmeadowplate
p544
VMeadow Plate
p545
sVparasect
p546
VParasect
p547
sVclearsmog
p548
VClear Smog
p549
sVsmeargle
p550
VSmeargle
p551
sVsamurott
p552
VSamurott
p553
sVmawile
p554
VMawile
p555
sVchimecho
p556
VChimecho
p557
sVpetayaberry
p558
VPetaya Berry
p559
sVregigigas
p560
VRegigigas
p561
sVluckychant
p562
VLucky Chant
p563
sVleppaberry
p564
VLeppa Berry
p565
sVchlorophyll
p566
VChlorophyll
p567
sVoblivious
p568
VOblivious
p569
sVfierydance
p570
VFiery Dance
p571
sVfloatzel
p572
VFloatzel
p573
sVsmackdown
p574
VSmack Down
p575
sVcyclohm
p576
VCyclohm
p577
sVbuneary
p578
VBuneary
p579
sVshockdrive
p580
VShock Drive
p581
sVnightdaze
p582
VNight Daze
p583
sVfriendguard
p584
VFriend Guard
p585
sVscaryface
p586
VScary Face
p587
sVsteamroller
p588
VSteamroller
p589
sVkakuna
p590
VKakuna
p591
sVpowertrick
p592
VPower Trick
p593
sVyanma
p594
VYanma
p595
sVchatot
p596
VChatot
p597
sVmarshtomp
p598
VMarshtomp
p599
sVgurdurr
p600
VGurdurr
p601
sVthrash
p602
VThrash
p603
sVsandrush
p604
VSand Rush
p605
sVtotodile
p606
VTotodile
p607
sVslowbro
p608
VSlowbro
p609
sVigglybuff
p610
VIgglybuff
p611
sVnevermeltice
p612
VNeverMeltIce
p613
sVgrowl
p614
VGrowl
p615
sVaguavberry
p616
VAguav Berry
p617
sVdrilbur
p618
VDrilbur
p619
sVralts
p620
VRalts
p621
sVpupitar
p622
VPupitar
p623
sVslowking
p624
VSlowking
p625
sVpowerherb
p626
VPower Herb
p627
sVwaterfall
p628
VWaterfall
p629
sVdewgong
p630
VDewgong
p631
sVkirlia
p632
VKirlia
p633
sVknockoff
p634
VKnock Off
p635
sVoctazooka
p636
VOctazooka
p637
sVhydration
p638
VHydration
p639
sVamoonguss
p640
VAmoonguss
p641
sVshellarmor
p642
VShell Armor
p643
sVpoliwag
p644
VPoliwag
p645
sVmetalcoat
p646
VMetal Coat
p647
sVthickclub
p648
VThick Club
p649
sVscizor
p650
VScizor
p651
sVsilcoon
p652
VSilcoon
p653
sVbuggem
p654
VBug Gem
p655
sVoshawott
p656
VOshawott
p657
sVtogepi
p658
VTogepi
p659
sVdomefossil
p660
VDome Fossil
p661
sVlowkick
p662
VLow Kick
p663
sVhealbell
p664
VHeal Bell
p665
sVmirrorshot
p666
VMirror Shot
p667
sVlickitung
p668
VLickitung
p669
sVdragonrush
p670
VDragon Rush
p671
sVspinarak
p672
VSpinarak
p673
sVsilverwind
p674
VSilver Wind
p675
sVsunnyday
p676
VSunny Day
p677
sVludicolo
p678
VLudicolo
p679
sVditto
p680
VDitto
p681
sVcirclethrow
p682
VCircle Throw
p683
sVpsychoboost
p684
VPsycho Boost
p685
sVnidoqueen
p686
VNidoqueen
p687
sVhiddenpowerpoison
p688
VHidden Power Poison
p689
sVflatter
p690
VFlatter
p691
sVtoxicspikes
p692
VToxic Spikes
p693
sVfirepledge
p694
VFire Pledge
p695
sVnoctowl
p696
VNoctowl
p697
sVcornnberry
p698
VCornn Berry
p699
sVskullfossil
p700
VSkull Fossil
p701
sVstealthrock
p702
VStealth Rock
p703
sVtynamo
p704
VTynamo
p705
sVcrosschop
p706
VCross Chop
p707
sVpsyshock
p708
VPsyshock
p709
sVicyrock
p710
VIcy Rock
p711
sVwynaut
p712
VWynaut
p713
sVabsorbbulb
p714
VAbsorb Bulb
p715
sS'bold'
p716
S'Bold'
p717
sVgunkshot
p718
VGunk Shot
p719
sVgarchomp
p720
VGarchomp
p721
sVgeodude
p722
VGeodude
p723
sVlightscreen
p724
VLight Screen
p725
sVwhimsicott
p726
VWhimsicott
p727
sVlavaplume
p728
VLava Plume
p729
sVkeeneye
p730
VKeen Eye
p731
sVsimipour
p732
VSimipour
p733
sVautotomize
p734
VAutotomize
p735
sVspikecannon
p736
VSpike Cannon
p737
sVnecturna
p738
VNecturna
p739
sVplus
p740
VPlus
p741
sVsapsipper
p742
VSap Sipper
p743
sVthunderpunch
p744
VThunderPunch
p745
sVhornleech
p746
VHorn Leech
p747
sVdarkvoid
p748
VDark Void
p749
sVhoundour
p750
VHoundour
p751
sVdualchop
p752
VDual Chop
p753
sVfoulplay
p754
VFoul Play
p755
sVscyther
p756
VScyther
p757
sVstormdrain
p758
VStorm Drain
p759
sVseadra
p760
VSeadra
p761
sVovergrow
p762
VOvergrow
p763
sVbronzor
p764
VBronzor
p765
sVwrap
p766
VWrap
p767
sVcorsola
p768
VCorsola
p769
sVtransform
p770
VTransform
p771
sVrowapberry
p772
VRowap Berry
p773
sS'quirky'
p774
S'Quirky'
p775
sVgarbodor
p776
VGarbodor
p777
sVsynthesis
p778
VSynthesis
p779
sVmultiscale
p780
VMultiscale
p781
sVgroundgem
p782
VGround Gem
p783
sVreshiram
p784
VReshiram
p785
sVrocksmash
p786
VRock Smash
p787
sVvolttackle
p788
VVolt Tackle
p789
sVghostgem
p790
VGhost Gem
p791
sVroughskin
p792
VRough Skin
p793
sVsafeguard
p794
VSafeguard
p795
sVsmoothrock
p796
VSmooth Rock
p797
sVgothorita
p798
VGothorita
p799
sVchopleberry
p800
VChople Berry
p801
sVunnerve
p802
VUnnerve
p803
sVpaleowave
p804
VPaleo Wave
p805
sVferaligatr
p806
VFeraligatr
p807
sVoddish
p808
VOddish
p809
sVleer
p810
VLeer
p811
sVmagby
p812
VMagby
p813
sVswadloon
p814
VSwadloon
p815
sVvibrava
p816
VVibrava
p817
sVuxie
p818
VUxie
p819
sVsmoochum
p820
VSmoochum
p821
sVlansatberry
p822
VLansat Berry
p823
sVbutterfree
p824
VButterfree
p825
sVferroseed
p826
VFerroseed
p827
sVclawfossil
p828
VClaw Fossil
p829
sVdischarge
p830
VDischarge
p831
sVpoisonpoint
p832
VPoison Point
p833
sVhiddenpowerground
p834
VHidden Power Ground
p835
sS'arceuspoison'
p836
S'Arceus-Poison'
p837
sVliechiberry
p838
VLiechi Berry
p839
sVlillipup
p840
VLillipup
p841
sVflareboost
p842
VFlare Boost
p843
sVmummy
p844
VMummy
p845
sVoccaberry
p846
VOcca Berry
p847
sVironfist
p848
VIron Fist
p849
sS'serious'
p850
S'Serious'
p851
sVmegadrain
p852
VMega Drain
p853
sVsalacberry
p854
VSalac Berry
p855
sVsnubbull
p856
VSnubbull
p857
sVsandveil
p858
VSand Veil
p859
sVbonsly
p860
VBonsly
p861
sVcelebi
p862
VCelebi
p863
sVavalanche
p864
VAvalanche
p865
sVshadowsneak
p866
VShadow Sneak
p867
sVsuctioncups
p868
VSuction Cups
p869
sVsuperpower
p870
VSuperpower
p871
sVanticipation
p872
VAnticipation
p873
sVweezing
p874
VWeezing
p875
sVdragonpulse
p876
VDragon Pulse
p877
sVelectroball
p878
VElectro Ball
p879
sVflash
p880
VFlash
p881
sVcharge
p882
VCharge
p883
sVquash
p884
VQuash
p885
sVsnorlax
p886
VSnorlax
p887
sVunburden
p888
VUnburden
p889
sVrufflet
p890
VRufflet
p891
sVmachamp
p892
VMachamp
p893
sVkricketune
p894
VKricketune
p895
sVtailslap
p896
VTail Slap
p897
sVjynx
p898
VJynx
p899
sVlopunny
p900
VLopunny
p901
sVtwistedspoon
p902
VTwistedSpoon
p903
sVskyuppercut
p904
VSky Uppercut
p905
sVpoisonsting
p906
VPoison Sting
p907
sVdig
p908
VDig
p909
sVfocusblast
p910
VFocus Blast
p911
sVmesprit
p912
VMesprit
p913
sVmagnet
p914
VMagnet
p915
sVround
p916
VRound
p917
sVunaware
p918
VUnaware
p919
sVfalseswipe
p920
VFalse Swipe
p921
sVleafeon
p922
VLeafeon
p923
sVzorua
p924
VZorua
p925
sVzenmode
p926
VZen Mode
p927
sVvitalthrow
p928
VVital Throw
p929
sVroselia
p930
VRoselia
p931
sVcurse
p932
VCurse
p933
sVfocusband
p934
VFocus Band
p935
sVmoltres
p936
VMoltres
p937
sVpasshoberry
p938
VPassho Berry
p939
sVdragondance
p940
VDragon Dance
p941
sVaxew
p942
VAxew
p943
sVkecleon
p944
VKecleon
p945
sVglameow
p946
VGlameow
p947
sVaeroblast
p948
VAeroblast
p949
sVwartortle
p950
VWartortle
p951
sVexplosion
p952
VExplosion
p953
sVmiracleeye
p954
VMiracle Eye
p955
sS'arceusunknown'
p956
S'Arceus-???'
p957
sVsimisear
p958
VSimisear
p959
sVtropius
p960
VTropius
p961
sVmysticwater
p962
VMystic Water
p963
sVearthquake
p964
VEarthquake
p965
sVgastroacid
p966
VGastro Acid
p967
sVejectbutton
p968
VEject Button
p969
sVexploud
p970
VExploud
p971
sVsawk
p972
VSawk
p973
sVscraggy
p974
VScraggy
p975
sVbrickbreak
p976
VBrick Break
p977
sVbagon
p978
VBagon
p979
sVregenerator
p980
VRegenerator
p981
sVburndrive
p982
VBurn Drive
p983
sVmudslap
p984
VMud-Slap
p985
sVflaaffy
p986
VFlaaffy
p987
sVmagicroom
p988
VMagic Room
p989
sVsouldew
p990
VSoul Dew
p991
sVworkup
p992
VWork Up
p993
sVheavyslam
p994
VHeavy Slam
p995
sVpinmissile
p996
VPin Missile
p997
sVcaptivate
p998
VCaptivate
p999
sVflamecharge
p1000
VFlame Charge
p1001
sVswagger
p1002
VSwagger
p1003
sVxatu
p1004
VXatu
p1005
sVrockslide
p1006
VRock Slide
p1007
sVcaterpie
p1008
VCaterpie
p1009
sVhypno
p1010
VHypno
p1011
sVblazekick
p1012
VBlaze Kick
p1013
sVseismictoss
p1014
VSeismic Toss
p1015
sVfly
p1016
VFly
p1017
sVuturn
p1018
VU-turn
p1019
sVflygon
p1020
VFlygon
p1021
sVsandstorm
p1022
VSandstorm
p1023
sVswablu
p1024
VSwablu
p1025
sVscolipede
p1026
VScolipede
p1027
sVdwebble
p1028
VDwebble
p1029
sVpignite
p1030
VPignite
p1031
sVsolarpower
p1032
VSolar Power
p1033
sVdonphan
p1034
VDonphan
p1035
sVpalpitoad
p1036
VPalpitoad
p1037
sVchilldrive
p1038
VChill Drive
p1039
sVnormalize
p1040
VNormalize
p1041
sVbanette
p1042
VBanette
p1043
sVtailwind
p1044
VTailwind
p1045
sVwideguard
p1046
VWide Guard
p1047
sVeelektrik
p1048
VEelektrik
p1049
sVarbok
p1050
VArbok
p1051
sVafteryou
p1052
VAfter You
p1053
sVoctillery
p1054
VOctillery
p1055
sVvenonat
p1056
VVenonat
p1057
sVdive
p1058
VDive
p1059
sVmamoswine
p1060
VMamoswine
p1061
sVwiseglasses
p1062
VWise Glasses
p1063
sVmilkdrink
p1064
VMilk Drink
p1065
sVancientpower
p1066
VAncientPower
p1067
sVblissey
p1068
VBlissey
p1069
sVcryogonal
p1070
VCryogonal
p1071
sVsupersonic
p1072
VSupersonic
p1073
sVdelibird
p1074
VDelibird
p1075
sVshinx
p1076
VShinx
p1077
sVlitwick
p1078
VLitwick
p1079
sVmurkrow
p1080
VMurkrow
p1081
sVlugia
p1082
VLugia
p1083
sVbulletseed
p1084
VBullet Seed
p1085
sVservine
p1086
VServine
p1087
sVskydrop
p1088
VSky Drop
p1089
sVarcanine
p1090
VArcanine
p1091
sVsneasel
p1092
VSneasel
p1093
sVgrassknot
p1094
VGrass Knot
p1095
sVklutz
p1096
VKlutz
p1097
sVbulldoze
p1098
VBulldoze
p1099
sVfocusenergy
p1100
VFocus Energy
p1101
sVslackoff
p1102
VSlack Off
p1103
sVkabuto
p1104
VKabuto
p1105
sVfuryswipes
p1106
VFury Swipes
p1107
sS'lonely'
p1108
S'Lonely'
p1109
sVaipom
p1110
VAipom
p1111
sVrattled
p1112
VRattled
p1113
sVinsomnia
p1114
VInsomnia
p1115
sVfusionflare
p1116
VFusion Flare
p1117
sVeffectspore
p1118
VEffect Spore
p1119
sVlinoone
p1120
VLinoone
p1121
sVsynchronize
p1122
VSynchronize
p1123
sVmantine
p1124
VMantine
p1125
sVglalie
p1126
VGlalie
p1127
sVpsyduck
p1128
VPsyduck
p1129
sVmentalherb
p1130
VMental Herb
p1131
sVswalot
p1132
VSwalot
p1133
sVporygonz
p1134
VPorygon-Z
p1135
sVstrugglebug
p1136
VStruggle Bug
p1137
sVpersian
p1138
VPersian
p1139
sVshaymin
p1140
VShaymin
p1141
sVpidove
p1142
VPidove
p1143
sVskillswap
p1144
VSkill Swap
p1145
sVassurance
p1146
VAssurance
p1147
sVpoochyena
p1148
VPoochyena
p1149
sVporygon2
p1150
VPorygon2
p1151
sViciclecrash
p1152
VIcicle Crash
p1153
sVmiltank
p1154
VMiltank
p1155
sVunown
p1156
VUnown
p1157
sVpetilil
p1158
VPetilil
p1159
sVtelepathy
p1160
VTelepathy
p1161
sVnidorino
p1162
VNidorino
p1163
sVnidorina
p1164
VNidorina
p1165
sVhypnosis
p1166
VHypnosis
p1167
sVdurinberry
p1168
VDurin Berry
p1169
sVdragonrage
p1170
VDragon Rage
p1171
sVjolteon
p1172
VJolteon
p1173
sVdefensecurl
p1174
VDefense Curl
p1175
sVchikorita
p1176
VChikorita
p1177
sVrockyhelmet
p1178
VRocky Helmet
p1179
sVwatergem
p1180
VWater Gem
p1181
sVjabocaberry
p1182
VJaboca Berry
p1183
sVhoppip
p1184
VHoppip
p1185
sViceshard
p1186
VIce Shard
p1187
sVgiratina
p1188
VGiratina
p1189
sVteravolt
p1190
VTeravolt
p1191
sVbite
p1192
VBite
p1193
sVduosion
p1194
VDuosion
p1195
sVaromatherapy
p1196
VAromatherapy
p1197
sVsleeptalk
p1198
VSleep Talk
p1199
sVconfuseray
p1200
VConfuse Ray
p1201
sVfilter
p1202
VFilter
p1203
sVgliscor
p1204
VGliscor
p1205
sVseedot
p1206
VSeedot
p1207
sVsnatch
p1208
VSnatch
p1209
sVdrapion
p1210
VDrapion
p1211
sVpeck
p1212
VPeck
p1213
sS'wormadamtrash'
p1214
S'Wormadam-Trash'
p1215
sVearthplate
p1216
VEarth Plate
p1217
sVquickattack
p1218
VQuick Attack
p1219
sVcursedbody
p1220
VCursed Body
p1221
sVcubone
p1222
VCubone
p1223
sVhiddenpowerrock
p1224
VHidden Power Rock
p1225
sVrazzberry
p1226
VRazz Berry
p1227
sVlick
p1228
VLick
p1229
sVslam
p1230
VSlam
p1231
sVsandstream
p1232
VSand Stream
p1233
sVledyba
p1234
VLedyba
p1235
sVaquatail
p1236
VAqua Tail
p1237
sVkrilowatt
p1238
VKrilowatt
p1239
sVrecover
p1240
VRecover
p1241
sVconversion
p1242
VConversion
p1243
sVelectrode
p1244
VElectrode
p1245
sVhiddenpowerdark
p1246
VHidden Power Dark
p1247
sVmetalsound
p1248
VMetal Sound
p1249
sVarghonaut
p1250
VArghonaut
p1251
sVbeedrill
p1252
VBeedrill
p1253
sVsurf
p1254
VSurf
p1255
sVgriseousorb
p1256
VGriseous Orb
p1257
sVmountaineer
p1258
VMountaineer
p1259
sVstunky
p1260
VStunky
p1261
sVtrace
p1262
VTrace
p1263
sVgeargrind
p1264
VGear Grind
p1265
sVdarkrai
p1266
VDarkrai
p1267
sVbarrage
p1268
VBarrage
p1269
sVbonemerang
p1270
VBonemerang
p1271
sVadaptability
p1272
VAdaptability
p1273
sVleaftornado
p1274
VLeaf Tornado
p1275
sVhyperfang
p1276
VHyper Fang
p1277
sVdracoplate
p1278
VDraco Plate
p1279
sVelectirizer
p1280
VElectirizer
p1281
sVmollux
p1282
VMollux
p1283
sVmuddywater
p1284
VMuddy Water
p1285
sVcompoundeyes
p1286
VCompoundeyes
p1287
sVtintedlens
p1288
VTinted Lens
p1289
sVgolurk
p1290
VGolurk
p1291
sVfigyberry
p1292
VFigy Berry
p1293
sVrevenankh
p1294
VRevenankh
p1295
sVvolbeat
p1296
VVolbeat
p1297
sVlarvesta
p1298
VLarvesta
p1299
sVpatrat
p1300
VPatrat
p1301
sVacupressure
p1302
VAcupressure
p1303
sVanalytic
p1304
VAnalytic
p1305
sVgrasspledge
p1306
VGrass Pledge
p1307
sVoutrage
p1308
VOutrage
p1309
sVleavanny
p1310
VLeavanny
p1311
sVkinesis
p1312
VKinesis
p1313
sVstomp
p1314
VStomp
p1315
sVboneclub
p1316
VBone Club
p1317
sVtelekinesis
p1318
VTelekinesis
p1319
sVmoxie
p1320
VMoxie
p1321
sVwonderskin
p1322
VWonder Skin
p1323
sVfakeout
p1324
VFake Out
p1325
sVimposter
p1326
VImposter
p1327
sVspore
p1328
VSpore
p1329
sVquagsire
p1330
VQuagsire
p1331
sVdetect
p1332
VDetect
p1333
sVsteadfast
p1334
VSteadfast
p1335
sVlimber
p1336
VLimber
p1337
sVbatonpass
p1338
VBaton Pass
p1339
sVforecast
p1340
VForecast
p1341
sVsnowwarning
p1342
VSnow Warning
p1343
sVjustified
p1344
VJustified
p1345
sVdamprock
p1346
VDamp Rock
p1347
sVhariyama
p1348
VHariyama
p1349
sVcrawdaunt
p1350
VCrawdaunt
p1351
sVpluck
p1352
VPluck
p1353
sVfuryattack
p1354
VFury Attack
p1355
sVroseincense
p1356
VRose Incense
p1357
sVspoink
p1358
VSpoink
p1359
sVvictreebel
p1360
VVictreebel
p1361
sVdestinyknot
p1362
VDestiny Knot
p1363
sVrhyhorn
p1364
VRhyhorn
p1365
sVsteelix
p1366
VSteelix
p1367
sS'arceus???'
p1368
S'Arceus-???'
p1369
sVkrookodile
p1370
VKrookodile
p1371
sVcellbattery
p1372
VCell Battery
p1373
sVwingattack
p1374
VWing Attack
p1375
sVnomelberry
p1376
VNomel Berry
p1377
sVnormalgem
p1378
VNormal Gem
p1379
sVhiddenpowersteel
p1380
VHidden Power Steel
p1381
sVdodrio
p1382
VDodrio
p1383
sVzapdos
p1384
VZapdos
p1385
sVendeavor
p1386
VEndeavor
p1387
sViceburn
p1388
VIce Burn
p1389
sVrunaway
p1390
VRun Away
p1391
sVlightmetal
p1392
VLight Metal
p1393
sVstunspore
p1394
VStun Spore
p1395
sVgigalith
p1396
VGigalith
p1397
sVspiderweb
p1398
VSpider Web
p1399
sVheatrock
p1400
VHeat Rock
p1401
sVclamperl
p1402
VClamperl
p1403
sVcresselia
p1404
VCresselia
p1405
sVomanyte
p1406
VOmanyte
p1407
sVbreloom
p1408
VBreloom
p1409
sVtangela
p1410
VTangela
p1411
sVhealblock
p1412
VHeal Block
p1413
sVswanna
p1414
VSwanna
p1415
sS'careful'
p1416
S'Careful'
p1417
sVmudshot
p1418
VMud Shot
p1419
sVdefeatist
p1420
VDefeatist
p1421
sVtrick
p1422
VTrick
p1423
sVlandorus
p1424
VLandorus
p1425
sVgroudon
p1426
VGroudon
p1427
sS'quiet'
p1428
S'Quiet'
p1429
sVshadowclaw
p1430
VShadow Claw
p1431
sVsacredfire
p1432
VSacred Fire
p1433
sVstaryu
p1434
VStaryu
p1435
sVvicegrip
p1436
VViceGrip
p1437
sVcubchoo
p1438
VCubchoo
p1439
sVhiddenpowerice
p1440
VHidden Power Ice
p1441
sVextremespeed
p1442
VExtremeSpeed
p1443
sVangerpoint
p1444
VAnger Point
p1445
sVthunderbolt
p1446
VThunderbolt
p1447
sVmagnetbomb
p1448
VMagnet Bomb
p1449
sVassist
p1450
VAssist
p1451
sVblaziken
p1452
VBlaziken
p1453
sVgligar
p1454
VGligar
p1455
sVhypervoice
p1456
VHyper Voice
p1457
sVminimize
p1458
VMinimize
p1459
sVdoublehit
p1460
VDouble Hit
p1461
sVmedicham
p1462
VMedicham
p1463
sVheatmor
p1464
VHeatmor
p1465
sVrockgem
p1466
VRock Gem
p1467
sVspark
p1468
VSpark
p1469
sVrazorwind
p1470
VRazor Wind
p1471
sVhealingwish
p1472
VHealing Wish
p1473
sVquickguard
p1474
VQuick Guard
p1475
sVwingull
p1476
VWingull
p1477
sVrest
p1478
VRest
p1479
sVrazorclaw
p1480
VRazor Claw
p1481
sVdragonbreath
p1482
VDragonBreath
p1483
sVelgyem
p1484
VElgyem
p1485
sVduskull
p1486
VDuskull
p1487
sVcometpunch
p1488
VComet Punch
p1489
sVaerialace
p1490
VAerial Ace
p1491
sVparas
p1492
VParas
p1493
sVskitty
p1494
VSkitty
p1495
sVflareblitz
p1496
VFlare Blitz
p1497
sVtrubbish
p1498
VTrubbish
p1499
sVsnarl
p1500
VSnarl
p1501
sVmachpunch
p1502
VMach Punch
p1503
sVsunkern
p1504
VSunkern
p1505
sVcolossoil
p1506
VColossoil
p1507
sVsnore
p1508
VSnore
p1509
sVfloatstone
p1510
VFloat Stone
p1511
sVskiploom
p1512
VSkiploom
p1513
sVwhirlipede
p1514
VWhirlipede
p1515
sVvoltswitch
p1516
VVolt Switch
p1517
sVseismitoad
p1518
VSeismitoad
p1519
sVbrightpowder
p1520
VBrightPowder
p1521
sVhypercutter
p1522
VHyper Cutter
p1523
sVvanillite
p1524
VVanillite
p1525
sVchoiceband
p1526
VChoice Band
p1527
sVheartswap
p1528
VHeart Swap
p1529
sVpinapberry
p1530
VPinap Berry
p1531
sVminccino
p1532
VMinccino
p1533
sVrefresh
p1534
VRefresh
p1535
sVprinplup
p1536
VPrinplup
p1537
sVpichu
p1538
VPichu
p1539
sVheadcharge
p1540
VHead Charge
p1541
sVcrustle
p1542
VCrustle
p1543
sVpowergem
p1544
VPower Gem
p1545
sVechoedvoice
p1546
VEchoed Voice
p1547
sVbattlearmor
p1548
VBattle Armor
p1549
sVhustle
p1550
VHustle
p1551
sVthroh
p1552
VThroh
p1553
sVmusharna
p1554
VMusharna
p1555
sVinnerfocus
p1556
VInner Focus
p1557
sVhornattack
p1558
VHorn Attack
p1559
sVzapcannon
p1560
VZap Cannon
p1561
sVroar
p1562
VRoar
p1563
sVlockon
p1564
VLock-On
p1565
sVgengar
p1566
VGengar
p1567
sVswampert
p1568
VSwampert
p1569
sVgolem
p1570
VGolem
p1571
sVquilava
p1572
VQuilava
p1573
sVcustapberry
p1574
VCustap Berry
p1575
sVsearingshot
p1576
VSearing Shot
p1577
sVstratagem
p1578
VStratagem
p1579
sVshadowpunch
p1580
VShadow Punch
p1581
sVfocuspunch
p1582
VFocus Punch
p1583
sVforewarn
p1584
VForewarn
p1585
sViciclespear
p1586
VIcicle Spear
p1587
sVpyroak
p1588
VPyroak
p1589
sVsacredsword
p1590
VSacred Sword
p1591
sVhex
p1592
VHex
p1593
sVmarill
p1594
VMarill
p1595
sVwillowisp
p1596
VWill-O-Wisp
p1597
sVbubble
p1598
VBubble
p1599
sVsealeo
p1600
VSealeo
p1601
sVglaciate
p1602
VGlaciate
p1603
sVnightshade
p1604
VNight Shade
p1605
sVexeggutor
p1606
VExeggutor
p1607
sVstantler
p1608
VStantler
p1609
sVvitalspirit
p1610
VVital Spirit
p1611
sVsnover
p1612
VSnover
p1613
sVrage
p1614
VRage
p1615
sVvictorystar
p1616
VVictory Star
p1617
sVvinewhip
p1618
VVine Whip
p1619
sVstoneplate
p1620
VStone Plate
p1621
sVsheercold
p1622
VSheer Cold
p1623
sVsplashplate
p1624
VSplash Plate
p1625
sVpowdersnow
p1626
VPowder Snow
p1627
sVflamebody
p1628
VFlame Body
p1629
sVdugtrio
p1630
VDugtrio
p1631
sVsmokescreen
p1632
VSmokeScreen
p1633
sVcolburberry
p1634
VColbur Berry
p1635
sVimmunity
p1636
VImmunity
p1637
sVstormthrow
p1638
VStorm Throw
p1639
sVcharizard
p1640
VCharizard
p1641
sVflowergift
p1642
VFlower Gift
p1643
sVaccelgor
p1644
VAccelgor
p1645
sVmirrorcoat
p1646
VMirror Coat
p1647
sVemboar
p1648
VEmboar
p1649
sVdustox
p1650
VDustox
p1651
sVrootfossil
p1652
VRoot Fossil
p1653
sVtackle
p1654
VTackle
p1655
sS'rotomwash'
p1656
S'Rotom-Wash'
p1657
sVgrudge
p1658
VGrudge
p1659
sVcyndaquil
p1660
VCyndaquil
p1661
sVblueflare
p1662
VBlue Flare
p1663
sVdefog
p1664
VDefog
p1665
sVskyattack
p1666
VSky Attack
p1667
sVmoonlight
p1668
VMoonlight
p1669
sVmimic
p1670
VMimic
p1671
sVstockpile
p1672
VStockpile
p1673
sVoddincense
p1674
VOdd Incense
p1675
sVlairon
p1676
VLairon
p1677
sVscrappy
p1678
VScrappy
p1679
sVtogetic
p1680
VTogetic
p1681
sVfirepunch
p1682
VFire Punch
p1683
sVunfezant
p1684
VUnfezant
p1685
sVmicleberry
p1686
VMicle Berry
p1687
sVlightningrod
p1688
VLightningrod
p1689
sVgigadrain
p1690
VGiga Drain
p1691
sVsilverpowder
p1692
VSilverPowder
p1693
sVvanillish
p1694
VVanillish
p1695
sVsheerforce
p1696
VSheer Force
p1697
sVbayleef
p1698
VBayleef
p1699
sVhondewberry
p1700
VHondew Berry
p1701
sVtympole
p1702
VTympole
p1703
sVwigglytuff
p1704
VWigglytuff
p1705
sVicepunch
p1706
VIce Punch
p1707
sVgalvantula
p1708
VGalvantula
p1709
sVcombusken
p1710
VCombusken
p1711
sVcloudnine
p1712
VCloud Nine
p1713
sVmienshao
p1714
VMienshao
p1715
sVscrafty
p1716
VScrafty
p1717
sVsecretpower
p1718
VSecret Power
p1719
sS'mild'
p1720
S'Mild'
p1721
sVsawsbuck
p1722
VSawsbuck
p1723
sVdoublekick
p1724
VDouble Kick
p1725
sViceball
p1726
VIce Ball
p1727
sVironbarbs
p1728
VIron Barbs
p1729
sValtaria
p1730
VAltaria
p1731
sVcrushgrip
p1732
VCrush Grip
p1733
sVseedbomb
p1734
VSeed Bomb
p1735
sVmeganium
p1736
VMeganium
p1737
sVchipaway
p1738
VChip Away
p1739
sVmetalclaw
p1740
VMetal Claw
p1741
sVfeatherdance
p1742
VFeatherDance
p1743
sVshockwave
p1744
VShock Wave
p1745
sVironplate
p1746
VIron Plate
p1747
sVaurorabeam
p1748
VAurora Beam
p1749
sVheartstamp
p1750
VHeart Stamp
p1751
sVboldore
p1752
VBoldore
p1753
sVchoicescarf
p1754
VChoice Scarf
p1755
sVdragonfang
p1756
VDragon Fang
p1757
sVgastly
p1758
VGastly
p1759
sVrhydon
p1760
VRhydon
p1761
sVinfernape
p1762
VInfernape
p1763
sVpanpour
p1764
VPanpour
p1765
sS'kyuremwhite'
p1766
S'Kyurem-White'
p1767
sVacidspray
p1768
VAcid Spray
p1769
sVarmaldo
p1770
VArmaldo
p1771
sVkyurem
p1772
VKyurem
p1773
sVwringout
p1774
VWring Out
p1775
sVstarly
p1776
VStarly
p1777
sVgolett
p1778
VGolett
p1779
sVgallade
p1780
VGallade
p1781
sVledian
p1782
VLedian
p1783
sVluvdisc
p1784
VLuvdisc
p1785
sVhelixfossil
p1786
VHelix Fossil
p1787
sVsplash
p1788
VSplash
p1789
sVillumise
p1790
VIllumise
p1791
sVanorith
p1792
VAnorith
p1793
sVdizzypunch
p1794
VDizzy Punch
p1795
sVhorsea
p1796
VHorsea
p1797
sVstick
p1798
VStick
p1799
sVrazorfang
p1800
VRazor Fang
p1801
sVchilanberry
p1802
VChilan Berry
p1803
sVturboblaze
p1804
VTurboblaze
p1805
sVnaturalgift
p1806
VNatural Gift
p1807
sVenergypowder
p1808
VEnergyPowder
p1809
sVchartiberry
p1810
VCharti Berry
p1811
sVlumberry
p1812
VLum Berry
p1813
sVvoltorb
p1814
VVoltorb
p1815
sVregice
p1816
VRegice
p1817
sVskyplate
p1818
VSky Plate
p1819
sVsableye
p1820
VSableye
p1821
sVseviper
p1822
VSeviper
p1823
sVmarvelscale
p1824
VMarvel Scale
p1825
sS'aurumoth'
p1826
VAurumoth
p1827
sVslakoth
p1828
VSlakoth
p1829
sVmonferno
p1830
VMonferno
p1831
sVwikiberry
p1832
VWiki Berry
p1833
sVextrasensory
p1834
VExtrasensory
p1835
sVteleport
p1836
VTeleport
p1837
sVshelmet
p1838
VShelmet
p1839
sVflyinggem
p1840
VFlying Gem
p1841
sVbulkup
p1842
VBulk Up
p1843
sVglaceon
p1844
VGlaceon
p1845
sVwonderguard
p1846
VWonder Guard
p1847
sVelectricgem
p1848
VElectric Gem
p1849
sS'rotomfan'
p1850
S'Rotom-Fan'
p1851
sVsignalbeam
p1852
VSignal Beam
p1853
sVshuckle
p1854
VShuckle
p1855
sVreflect
p1856
VReflect
p1857
sVdisable
p1858
VDisable
p1859
sVliquidooze
p1860
VLiquid Ooze
p1861
sVtoxicplate
p1862
VToxic Plate
p1863
sVlanturn
p1864
VLanturn
p1865
sVretaliate
p1866
VRetaliate
p1867
sVcorphish
p1868
VCorphish
p1869
sVbigpecks
p1870
VBig Pecks
p1871
sVwatmelberry
p1872
VWatmel Berry
p1873
sVarticuno
p1874
VArticuno
p1875
sVfissure
p1876
VFissure
p1877
sVvolcarona
p1878
VVolcarona
p1879
sVblackglasses
p1880
VBlackGlasses
p1881
sVhealorder
p1882
VHeal Order
p1883
sVjigglypuff
p1884
VJigglypuff
p1885
sVsandslash
p1886
VSandslash
p1887
sVastonish
p1888
VAstonish
p1889
sVenergyball
p1890
VEnergy Ball
p1891
sVrockpolish
p1892
VRock Polish
p1893
sVlampent
p1894
VLampent
p1895
sVfistplate
p1896
VFist Plate
p1897
sVreturn
p1898
VReturn
p1899
sVmrmime
p1900
VMr. Mime
p1901
sVclefable
p1902
VClefable
p1903
sVskuntank
p1904
VSkuntank
p1905
sVprimeape
p1906
VPrimeape
p1907
sVgabite
p1908
VGabite
p1909
sVmissingno
p1910
VMissingno.
p1911
sVbellsprout
p1912
VBellsprout
p1913
sVlovelykiss
p1914
VLovely Kiss
p1915
sVmeanlook
p1916
VMean Look
p1917
sVclamp
p1918
VClamp
p1919
sS'arceusfire'
p1920
S'Arceus-Fire'
p1921
sVquickfeet
p1922
VQuick Feet
p1923
sVraichu
p1924
VRaichu
p1925
sVmagnezone
p1926
VMagnezone
p1927
sVtrickroom
p1928
VTrick Room
p1929
sVmist
p1930
VMist
p1931
sVhiddenpowerpsychic
p1932
VHidden Power Psychic
p1933
sVelectroweb
p1934
VElectroweb
p1935
sS'jolly'
p1936
S'Jolly'
p1937
sVsalamence
p1938
VSalamence
p1939
sS'arceuswater'
p1940
S'Arceus-Water'
p1941
sS'arceusice'
p1942
S'Arceus-Ice'
p1943
sVsuperfang
p1944
VSuper Fang
p1945
sVcombee
p1946
VCombee
p1947
sVroggenrola
p1948
VRoggenrola
p1949
sVironhead
p1950
VIron Head
p1951
sVsentret
p1952
VSentret
p1953
sVtyrogue
p1954
VTyrogue
p1955
sVcleffa
p1956
VCleffa
p1957
sVguardsplit
p1958
VGuard Split
p1959
sVwaterabsorb
p1960
VWater Absorb
p1961
sVtoxicboost
p1962
VToxic Boost
p1963
sVninetales
p1964
VNinetales
p1965
sVnidoranf
p1966
VNidoranF
p1967
sVcottonspore
p1968
VCotton Spore
p1969
sVnidoranm
p1970
VNidoranM
p1971
sVpineco
p1972
VPineco
p1973
sVscopelens
p1974
VScope Lens
p1975
sVhydreigon
p1976
VHydreigon
p1977
sVaggron
p1978
VAggron
p1979
sS'giratinaorigin'
p1980
S'Giratina-Origin'
p1981
sVmanaphy
p1982
VManaphy
p1983
sS'brave'
p1984
S'Brave'
p1985
sVstoredpower
p1986
VStored Power
p1987
sVapicotberry
p1988
VApicot Berry
p1989
sVpetaldance
p1990
VPetal Dance
p1991
sVboltstrike
p1992
VBolt Strike
p1993
sVswarm
p1994
VSwarm
p1995
sVairlock
p1996
VAir Lock
p1997
sVklinklang
p1998
VKlinklang
p1999
sS'landorustherian'
p2000
S'Landorus-Therian'
p2001
sVshedinja
p2002
VShedinja
p2003
sVbabiriberry
p2004
VBabiri Berry
p2005
sVsuckerpunch
p2006
VSucker Punch
p2007
sVfreezeshock
p2008
VFreeze Shock
p2009
sVpsywave
p2010
VPsywave
p2011
sVdrillrun
p2012
VDrill Run
p2013
sVwhiteherb
p2014
VWhite Herb
p2015
sVvenipede
p2016
VVenipede
p2017
sVdarkpulse
p2018
VDark Pulse
p2019
sS'arceusdragon'
p2020
S'Arceus-Dragon'
p2021
sVstall
p2022
VStall
p2023
sVcontrary
p2024
VContrary
p2025
sVdoubleedge
p2026
VDouble-Edge
p2027
sVremoraid
p2028
VRemoraid
p2029
sVclefairy
p2030
VClefairy
p2031
sVklink
p2032
VKlink
p2033
sVfirespin
p2034
VFire Spin
p2035
sVsuicune
p2036
VSuicune
p2037
sVpamtreberry
p2038
VPamtre Berry
p2039
sVmegahorn
p2040
VMegahorn
p2041
sVsunflora
p2042
VSunflora
p2043
sVairballoon
p2044
VAir Balloon
p2045
sVsolrock
p2046
VSolrock
p2047
sVfrillish
p2048
VFrillish
p2049
sVsubstitute
p2050
VSubstitute
p2051
sVkangaskhan
p2052
VKangaskhan
p2053
sVregirock
p2054
VRegirock
p2055
sVpansage
p2056
VPansage
p2057
sVswitcheroo
p2058
VSwitcheroo
p2059
sVsoundproof
p2060
VSoundproof
p2061
sVeruption
p2062
VEruption
p2063
sVyawn
p2064
VYawn
p2065
sVcharm
p2066
VCharm
p2067
sVdiglett
p2068
VDiglett
p2069
sVbeldum
p2070
VBeldum
p2071
sVbarboach
p2072
VBarboach
p2073
sVcrosspoison
p2074
VCross Poison
p2075
sVcarvanha
p2076
VCarvanha
p2077
sVlowsweep
p2078
VLow Sweep
p2079
sVsturdy
p2080
VSturdy
p2081
sVcovet
p2082
VCovet
p2083
sVkaratechop
p2084
VKarate Chop
p2085
sVstarfberry
p2086
VStarf Berry
p2087
sVazumarill
p2088
VAzumarill
p2089
sVmetalburst
p2090
VMetal Burst
p2091
sVsmellingsalt
p2092
VSmellingSalt
p2093
sVherdier
p2094
VHerdier
p2095
sVmeloetta
p2096
VMeloetta
p2097
sVnanabberry
p2098
VNanab Berry
p2099
sVzoomlens
p2100
VZoom Lens
p2101
sVblackbelt
p2102
VBlack Belt
p2103
sVhammerarm
p2104
VHammer Arm
p2105
sVmagmaarmor
p2106
VMagma Armor
p2107
sVpayday
p2108
VPay Day
p2109
sVhealpulse
p2110
VHeal Pulse
p2111
sVmagikarp
p2112
VMagikarp
p2113
sVpawniard
p2114
VPawniard
p2115
sVpoisontail
p2116
VPoison Tail
p2117
sVhitmonchan
p2118
VHitmonchan
p2119
sS'docile'
p2120
S'Docile'
p2121
sVfireblast
p2122
VFire Blast
p2123
sVshroomish
p2124
VShroomish
p2125
sVwhismur
p2126
VWhismur
p2127
sVspikes
p2128
VSpikes
p2129
sVshadowstrike
p2130
VShadowStrike
p2131
sVheatcrash
p2132
VHeat Crash
p2133
sVskorupi
p2134
VSkorupi
p2135
sVblitzle
p2136
VBlitzle
p2137
sVtamatoberry
p2138
VTamato Berry
p2139
sVfarfetchd
p2140
VFarfetch'd
p2141
sVarceus
p2142
VArceus
p2143
sVpickup
p2144
VPickup
p2145
sVtangaberry
p2146
VTanga Berry
p2147
sS'arceusdark'
p2148
S'Arceus-Dark'
p2149
sVmarowak
p2150
VMarowak
p2151
sVmachobrace
p2152
VMacho Brace
p2153
sVelekid
p2154
VElekid
p2155
sVmagmortar
p2156
VMagmortar
p2157
sVchansey
p2158
VChansey
p2159
sVroaroftime
p2160
VRoar of Time
p2161
sVwildcharge
p2162
VWild Charge
p2163
sVrattata
p2164
VRattata
p2165
sVclaydol
p2166
VClaydol
p2167
sVrelicanth
p2168
VRelicanth
p2169
sVtorchic
p2170
VTorchic
p2171
sVlapras
p2172
VLapras
p2173
sVmankey
p2174
VMankey
p2175
sVprankster
p2176
VPrankster
p2177
sS'shayminsky'
p2178
S'Shaymin-Sky'
p2179
sVwacanberry
p2180
VWacan Berry
p2181
sVsandile
p2182
VSandile
p2183
sVtyphlosion
p2184
VTyphlosion
p2185
sVariados
p2186
VAriados
p2187
sVdrillpeck
p2188
VDrill Peck
p2189
sVicebody
p2190
VIce Body
p2191
sVnatu
p2192
VNatu
p2193
sVxscissor
p2194
VX-Scissor
p2195
sVbellossom
p2196
VBellossom
p2197
sVquiverdance
p2198
VQuiver Dance
p2199
sVmegapunch
p2200
VMega Punch
p2201
sVdamp
p2202
VDamp
p2203
sVmienfoo
p2204
VMienfoo
p2205
sVliepard
p2206
VLiepard
p2207
sVamnesia
p2208
VAmnesia
p2209
sVdestinybond
p2210
VDestiny Bond
p2211
sVpowersplit
p2212
VPower Split
p2213
sVdruddigon
p2214
VDruddigon
p2215
sVtaillow
p2216
VTaillow
p2217
sS'bashful'
p2218
S'Bashful'
p2219
sVdragontail
p2220
VDragon Tail
p2221
sVstringshot
p2222
VString Shot
p2223
sValomomola
p2224
VAlomomola
p2225
sVwatergun
p2226
VWater Gun
p2227
sVvanilluxe
p2228
VVanilluxe
p2229
sVwoobat
p2230
VWoobat
p2231
sVchatter
p2232
VChatter
p2233
sVbasculin
p2234
VBasculin
p2235
sVescavalier
p2236
VEscavalier
p2237
sVpsychoshift
p2238
VPsycho Shift
p2239
sVbisharp
p2240
VBisharp
p2241
sVhoundoom
p2242
VHoundoom
p2243
sVgulpin
p2244
VGulpin
p2245
sVmantyke
p2246
VMantyke
p2247
sVpound
p2248
VPound
p2249
sS'rotommow'
p2250
S'Rotom-Mow'
p2251
sVdefendorder
p2252
VDefend Order
p2253
sVsurskit
p2254
VSurskit
p2255
sVicebeam
p2256
VIce Beam
p2257
sVfacade
p2258
VFacade
p2259
sVzubat
p2260
VZubat
p2261
sVmagikarpsrevenge
p2262
VMagikarp's Revenge
p2263
sVingrain
p2264
VIngrain
p2265
sVcottonee
p2266
VCottonee
p2267
sVpoisonjab
p2268
VPoison Jab
p2269
sVtaunt
p2270
VTaunt
p2271
sVgorebyss
p2272
VGorebyss
p2273
sVgrotle
p2274
VGrotle
p2275
sVpikachu
p2276
VPikachu
p2277
sVrayquaza
p2278
VRayquaza
p2279
sVjumpluff
p2280
VJumpluff
p2281
sS'timid'
p2282
S'Timid'
p2283
sVmismagius
p2284
VMismagius
p2285
sVhiddenpowerbug
p2286
VHidden Power Bug
p2287
sVinfiltrator
p2288
VInfiltrator
p2289
sVpsychup
p2290
VPsych Up
p2291
sVtangrowth
p2292
VTangrowth
p2293
sVfiregem
p2294
VFire Gem
p2295
sVshellder
p2296
VShellder
p2297
sVwithdraw
p2298
VWithdraw
p2299
sVpainsplit
p2300
VPain Split
p2301
sVstoneedge
p2302
VStone Edge
p2303
sVhowl
p2304
VHowl
p2305
sVwaterpledge
p2306
VWater Pledge
p2307
sVspearow
p2308
VSpearow
p2309
sVrockwrecker
p2310
VRock Wrecker
p2311
sVsteelgem
p2312
VSteel Gem
p2313
sVcamouflage
p2314
VCamouflage
p2315
sVspinda
p2316
VSpinda
p2317
sVcloyster
p2318
VCloyster
p2319
sVmetapod
p2320
VMetapod
p2321
sVairslash
p2322
VAir Slash
p2323
sVmagiccoat
p2324
VMagic Coat
p2325
sVacrobatics
p2326
VAcrobatics
p2327
sVspheal
p2328
VSpheal
p2329
sVchoicespecs
p2330
VChoice Specs
p2331
sVrebound
p2332
VRebound
p2333
sVsolarbeam
p2334
VSolarBeam
p2335
sVlusterpurge
p2336
VLuster Purge
p2337
sVtorterra
p2338
VTorterra
p2339
sVmoody
p2340
VMoody
p2341
sVgothitelle
p2342
VGothitelle
p2343
sVskilllink
p2344
VSkill Link
p2345
sVursaring
p2346
VUrsaring
p2347
sS'thundurustherian'
p2348
S'Thundurus-Therian'
p2349
sVsubmission
p2350
VSubmission
p2351
sVstaravia
p2352
VStaravia
p2353
sVtailglow
p2354
VTail Glow
p2355
sVuproar
p2356
VUproar
p2357
sVtechnoblast
p2358
VTechno Blast
p2359
sVbaltoy
p2360
VBaltoy
p2361
sVflamewheel
p2362
VFlame Wheel
p2363
sVsketch
p2364
VSketch
p2365
sVchimchar
p2366
VChimchar
p2367
sVbounce
p2368
VBounce
p2369
sVgigaimpact
p2370
VGiga Impact
p2371
sVsewaddle
p2372
VSewaddle
p2373
sVscald
p2374
VScald
p2375
sVominouswind
p2376
VOminous Wind
p2377
sVdeepseascale
p2378
VDeepSeaScale
p2379
sVmareep
p2380
VMareep
p2381
sVhuntail
p2382
VHuntail
p2383
sVswordsdance
p2384
VSwords Dance
p2385
sVearlybird
p2386
VEarly Bird
p2387
sVslash
p2388
VSlash
p2389
sVhiddenpowergrass
p2390
VHidden Power Grass
p2391
sVmimejr
p2392
VMime Jr.
p2393
sS'arceusrock'
p2394
S'Arceus-Rock'
p2395
sVodorsleuth
p2396
VOdor Sleuth
p2397
sVfocussash
p2398
VFocus Sash
p2399
sVjellicent
p2400
VJellicent
p2401
sVspelonberry
p2402
VSpelon Berry
p2403
sVelectrike
p2404
VElectrike
p2405
sViapapaberry
p2406
VIapapa Berry
p2407
sVmudkip
p2408
VMudkip
p2409
sVbouffalant
p2410
VBouffalant
p2411
sS'arceusghost'
p2412
S'Arceus-Ghost'
p2413
sVblock
p2414
VBlock
p2415
sVsharpedo
p2416
VSharpedo
p2417
sVarmthrust
p2418
VArm Thrust
p2419
sVchargebeam
p2420
VCharge Beam
p2421
sVshellos
p2422
VShellos
p2423
sVnidoking
p2424
VNidoking
p2425
sVhabanberry
p2426
VHaban Berry
p2427
sVstench
p2428
VStench
p2429
sVtoxicroak
p2430
VToxicroak
p2431
sVcacnea
p2432
VCacnea
p2433
sVsnorunt
p2434
VSnorunt
p2435
sS'relaxed'
p2436
S'Relaxed'
p2437
sVdragongem
p2438
VDragon Gem
p2439
sVpsychocut
p2440
VPsycho Cut
p2441
sVtranquill
p2442
VTranquill
p2443
sVragepowder
p2444
VRage Powder
p2445
sVbuizel
p2446
VBuizel
p2447
sVsharpen
p2448
VSharpen
p2449
sVprobopass
p2450
VProbopass
p2451
sVshuppet
p2452
VShuppet
p2453
sVspacialrend
p2454
VSpacial Rend
p2455
sVforesight
p2456
VForesight
p2457
sVgrowth
p2458
VGrowth
p2459
sVpechaberry
p2460
VPecha Berry
p2461
sVbide
p2462
VBide
p2463
sVmiracleseed
p2464
VMiracle Seed
p2465
sVtakedown
p2466
VTake Down
p2467
sVrockhead
p2468
VRock Head
p2469
sVstickybarb
p2470
VSticky Barb
p2471
sVganlonberry
p2472
VGanlon Berry
p2473
sVbulbasaur
p2474
VBulbasaur
p2475
sVheatwave
p2476
VHeat Wave
p2477
sVaudino
p2478
VAudino
p2479
sVdrifloon
p2480
VDrifloon
p2481
sVsnowcloak
p2482
VSnow Cloak
p2483
sVrazorshell
p2484
VRazor Shell
p2485
sVmetagross
p2486
VMetagross
p2487
sVlickilicky
p2488
VLickilicky
p2489
sVzigzagoon
p2490
VZigzagoon
p2491
sVcinccino
p2492
VCinccino
p2493
sVscratch
p2494
VScratch
p2495
sVcharmeleon
p2496
VCharmeleon
p2497
sVsandtomb
p2498
VSand Tomb
p2499
sVcharmander
p2500
VCharmander
p2501
sVspeedboost
p2502
VSpeed Boost
p2503
sVwakeupslap
p2504
VWake-Up Slap
p2505
sVpsychicgem
p2506
VPsychic Gem
p2507
sVrivalry
p2508
VRivalry
p2509
sVperishsong
p2510
VPerish Song
p2511
sVcutecharm
p2512
VCute Charm
p2513
sVblaze
p2514
VBlaze
p2515
sVsniper
p2516
VSniper
p2517
sVtriplekick
p2518
VTriple Kick
p2519
sVdarumaka
p2520
VDarumaka
p2521
sVnightslash
p2522
VNight Slash
p2523
sVwobbuffet
p2524
VWobbuffet
p2525
sVteddiursa
p2526
VTeddiursa
p2527
sVthundershock
p2528
VThunderShock
p2529
sVazurill
p2530
VAzurill
p2531
sVbastiodon
p2532
VBastiodon
p2533
sVqwilfish
p2534
VQwilfish
p2535
sVhyperbeam
p2536
VHyper Beam
p2537
sVdynamicpunch
p2538
VDynamicPunch
p2539
sVmagnemite
p2540
VMagnemite
p2541
sVirondefense
p2542
VIron Defense
p2543
sVmisdreavus
p2544
VMisdreavus
p2545
sVfidgit
p2546
VFidgit
p2547
sVdousedrive
p2548
VDouse Drive
p2549
sVcrushclaw
p2550
VCrush Claw
p2551
sVsoftboiled
p2552
VSoftboiled
p2553
sVpoisongem
p2554
VPoison Gem
p2555
sVdownload
p2556
VDownload
p2557
sVacid
p2558
VAcid
p2559
sVvigoroth
p2560
VVigoroth
p2561
sVlombre
p2562
VLombre
p2563
sVdelcatty
p2564
VDelcatty
p2565
sVworryseed
p2566
VWorry Seed
p2567
sVtriattack
p2568
VTri Attack
p2569
sVtyranitar
p2570
VTyranitar
p2571
sVturtwig
p2572
VTurtwig
p2573
sVmagmastorm
p2574
VMagma Storm
p2575
sVpansear
p2576
VPansear
p2577
sVdeerling
p2578
VDeerling
p2579
sVswinub
p2580
VSwinub
p2581
sVabomasnow
p2582
VAbomasnow
p2583
sVsing
p2584
VSing
p2585
sVcastform
p2586
VCastform
p2587
sVincinerate
p2588
VIncinerate
p2589
sVrampardos
p2590
VRampardos
p2591
sVscreech
p2592
VScreech
p2593
sVtentacruel
p2594
VTentacruel
p2595
sVnaturalcure
p2596
VNatural Cure
p2597
sVblizzard
p2598
VBlizzard
p2599
sVteeterdance
p2600
VTeeter Dance
p2601
sVfoongus
p2602
VFoongus
p2603
sVaquaring
p2604
VAqua Ring
p2605
sS'hardy'
p2606
S'Hardy'
p2607
sS'arceusground'
p2608
S'Arceus-Ground'
p2609
sVkingdra
p2610
VKingdra
p2611
sVeevee
p2612
VEevee
p2613
sVheatran
p2614
VHeatran
p2615
sVwatchog
p2616
VWatchog
p2617
sVpoliwrath
p2618
VPoliwrath
p2619
sVcharcoal
p2620
VCharcoal
p2621
sVcranidos
p2622
VCranidos
p2623
sVabsol
p2624
VAbsol
p2625
sVplusle
p2626
VPlusle
p2627
sVharvest
p2628
VHarvest
p2629
sVwatersport
p2630
VWater Sport
p2631
sVicicleplate
p2632
VIcicle Plate
p2633
sVfuturesight
p2634
VFuture Sight
p2635
sVlustrousorb
p2636
VLustrous Orb
p2637
sVarchen
p2638
VArchen
p2639
sVexeggcute
p2640
VExeggcute
p2641
sVlucario
p2642
VLucario
p2643
sVthundurus
p2644
VThundurus
p2645
sVvespiquen
p2646
VVespiquen
p2647
sVterrakion
p2648
VTerrakion
p2649
sVblacksludge
p2650
VBlack Sludge
p2651
sVadamantorb
p2652
VAdamant Orb
p2653
sVrelicsong
p2654
VRelic Song
p2655
sVgastrodon
p2656
VGastrodon
p2657
sVbronzong
p2658
VBronzong
p2659
sVweavile
p2660
VWeavile
p2661
sVdewott
p2662
VDewott
p2663
sVchandelure
p2664
VChandelure
p2665
sVhaxorus
p2666
VHaxorus
p2667
sVsecretsword
p2668
VSecret Sword
p2669
sVowntempo
p2670
VOwn Tempo
p2671
sVhiddenpower
p2672
VHidden Power
p2673
sVrazorleaf
p2674
VRazor Leaf
p2675
sVpowerswap
p2676
VPower Swap
p2677
sVgrasswhistle
p2678
VGrassWhistle
p2679
sVroserade
p2680
VRoserade
p2681
sVpidgey
p2682
VPidgey
p2683
sVgenesect
p2684
VGenesect
p2685
sVlotad
p2686
VLotad
p2687
sVbind
p2688
VBind
p2689
sVcounter
p2690
VCounter
p2691
sVfullincense
p2692
VFull Incense
p2693
sVweepinbell
p2694
VWeepinbell
p2695
sVaquajet
p2696
VAqua Jet
p2697
sVkrabby
p2698
VKrabby
p2699
sVumbreon
p2700
VUmbreon
p2701
sVheatproof
p2702
VHeatproof
p2703
sVguardswap
p2704
VGuard Swap
p2705
sVkadabra
p2706
VKadabra
p2707
sVpurepower
p2708
VPure Power
p2709
sVironball
p2710
VIron Ball
p2711
sVdreameater
p2712
VDream Eater
p2713
sVhelpinghand
p2714
VHelping Hand
p2715
sVmunchlax
p2716
VMunchlax
p2717
sVzenheadbutt
p2718
VZen Headbutt
p2719
sVsuperluck
p2720
VSuper Luck
p2721
sVberryjuice
p2722
VBerry Juice
p2723
sVhiddenpowerflying
p2724
VHidden Power Flying
p2725
sVsandforce
p2726
VSand Force
p2727
sVflail
p2728
VFlail
p2729
sVkabutops
p2730
VKabutops
p2731
sVhoothoot
p2732
VHoothoot
p2733
sVchinchou
p2734
VChinchou
p2735
sVmagnitude
p2736
VMagnitude
p2737
sS'arceusfighting'
p2738
S'Arceus-Fighting'
p2739
sVrapidspin
p2740
VRapid Spin
p2741
sVskullbash
p2742
VSkull Bash
p2743
sVdratini
p2744
VDratini
p2745
sVmaractus
p2746
VMaractus
p2747
sVilluminate
p2748
VIlluminate
p2749
sVmagnetpull
p2750
VMagnet Pull
p2751
sVtepig
p2752
VTepig
p2753
sVkelpsyberry
p2754
VKelpsy Berry
p2755
sVstatic
p2756
VStatic
p2757
sVflameplate
p2758
VFlame Plate
p2759
sVicefang
p2760
VIce Fang
p2761
sVninjask
p2762
VNinjask
p2763
sVjoltik
p2764
VJoltik
p2765
sVrollingkick
p2766
VRolling Kick
p2767
sVweatherball
p2768
VWeather Ball
p2769
sVmanectric
p2770
VManectric
p2771
sVnaturepower
p2772
VNature Power
p2773
sVregisteel
p2774
VRegisteel
p2775
sVsmog
p2776
VSmog
p2777
sVleafguard
p2778
VLeaf Guard
p2779
sVicywind
p2780
VIcy Wind
p2781
sVemolga
p2782
VEmolga
p2783
sVconkeldurr
p2784
VConkeldurr
p2785
sVhippowdon
p2786
VHippowdon
p2787
sVenigmaberry
p2788
VEnigma Berry
p2789
sVvenomoth
p2790
VVenomoth
p2791
sVcobalion
p2792
VCobalion
p2793
sVsudowoodo
p2794
VSudowoodo
p2795
sVlarvitar
p2796
VLarvitar
p2797
sVheadbutt
p2798
VHeadbutt
p2799
sVbodyslam
p2800
VBody Slam
p2801
sVexpertbelt
p2802
VExpert Belt
p2803
sVbugbuzz
p2804
VBug Buzz
p2805
sVfirefang
p2806
VFire Fang
p2807
sVmindplate
p2808
VMind Plate
p2809
sVmistball
p2810
VMist Ball
p2811
sVhijumpkick
p2812
VHi Jump Kick
p2813
sVjumpkick
p2814
VJump Kick
p2815
sVwaterspout
p2816
VWater Spout
p2817
sVloudred
p2818
VLoudred
p2819
sVearthpower
p2820
VEarth Power
p2821
sVmegakick
p2822
VMega Kick
p2823
sS'rotomfrost'
p2824
S'Rotom-Frost'
p2825
sVsolidrock
p2826
VSolid Rock
p2827
sVrabutaberry
p2828
VRabuta Berry
p2829
sVagility
p2830
VAgility
p2831
sVelectabuzz
p2832
VElectabuzz
p2833
sVcrobat
p2834
VCrobat
p2835
sVrockblast
p2836
VRock Blast
p2837
sVfeint
p2838
VFeint
p2839
sVsoftsand
p2840
VSoft Sand
p2841
sVsigilyph
p2842
VSigilyph
p2843
sVdeepseatooth
p2844
VDeepSeaTooth
p2845
sVtorkoal
p2846
VTorkoal
p2847
sVwurmple
p2848
VWurmple
p2849
sVtimburr
p2850
VTimburr
p2851
sVpoisonfang
p2852
VPoison Fang
p2853
sVinsectplate
p2854
VInsect Plate
p2855
sVtorrent
p2856
VTorrent
p2857
sVencore
p2858
VEncore
p2859
sVtrapinch
p2860
VTrapinch
p2861
sVbonerush
p2862
VBone Rush
p2863
sS'gentle'
p2864
S'Gentle'
p2865
sVtorment
p2866
VTorment
p2867
sVriolu
p2868
VRiolu
p2869
sS'arceusflying'
p2870
S'Arceus-Flying'
p2871
sVzebstrika
p2872
VZebstrika
p2873
sVwhitesmoke
p2874
VWhite Smoke
p2875
sVsoak
p2876
VSoak
p2877
sVfusionbolt
p2878
VFusion Bolt
p2879
sVflareon
p2880
VFlareon
p2881
sVcalmmind
p2882
VCalm Mind
p2883
sVgravity
p2884
VGravity
p2885
sVcarnivine
p2886
VCarnivine
p2887
sVgrassgem
p2888
VGrass Gem
p2889
sVrotom
p2890
VRotom
p2891
sVnuzleaf
p2892
VNuzleaf
p2893
sVwidelens
p2894
VWide Lens
p2895
sVshadowball
p2896
VShadow Ball
p2897
sVdrifblim
p2898
VDrifblim
p2899
sVmewtwo
p2900
VMewtwo
p2901
sVrollout
p2902
VRollout
p2903
sVdracometeor
p2904
VDraco Meteor
p2905
sVsludgewave
p2906
VSludge Wave
p2907
sVsceptile
p2908
VSceptile
p2909
sVporygon
p2910
VPorygon
p2911
sVshedskin
p2912
VShed Skin
p2913
sS'impish'
p2914
S'Impish'
p2915
sVbubblebeam
p2916
VBubbleBeam
p2917
sVbrine
p2918
VBrine
p2919
sVzweilous
p2920
VZweilous
p2921
sVsleeppowder
p2922
VSleep Powder
p2923
sVoldamber
p2924
VOld Amber
p2925
sVdurant
p2926
VDurant
p2927
sVsimplebeam
p2928
VSimple Beam
p2929
sVdragonite
p2930
VDragonite
p2931
sS'rash'
p2932
S'Rash'
p2933
sVpiplup
p2934
VPiplup
p2935
sVflashfire
p2936
VFlash Fire
p2937
sVdeino
p2938
VDeino
p2939
sVcamerupt
p2940
VCamerupt
p2941
sVluckypunch
p2942
VLucky Punch
p2943
sVrarebone
p2944
VRare Bone
p2945
sVsolosis
p2946
VSolosis
p2947
sVbellydrum
p2948
VBelly Drum
p2949
sS'sassy'
p2950
S'Sassy'
p2951
sS'deoxysattack'
p2952
S'Deoxys-Attack'
p2953
sVcroagunk
p2954
VCroagunk
p2955
sVbravebird
p2956
VBrave Bird
p2957
sVgust
p2958
VGust
p2959
sVmagicguard
p2960
VMagic Guard
p2961
sVsandattack
p2962
VSand-Attack
p2963
sVkingler
p2964
VKingler
p2965
sVhugepower
p2966
VHuge Power
p2967
sVmudbomb
p2968
VMud Bomb
p2969
sVember
p2970
VEmber
p2971
sVmotordrive
p2972
VMotor Drive
p2973
sVvictini
p2974
VVictini
p2975
sVfinneon
p2976
VFinneon
p2977
sVtwineedle
p2978
VTwineedle
p2979
sVchestoberry
p2980
VChesto Berry
p2981
sVgrumpig
p2982
VGrumpig
p2983
sVnightmare
p2984
VNightmare
p2985
sVgyarados
p2986
VGyarados
p2987
sVvaporeon
p2988
VVaporeon
p2989
sVthunderwave
p2990
VThunder Wave
p2991
sVrockincense
p2992
VRock Incense
p2993
sVfroslass
p2994
VFroslass
p2995
sVconfusion
p2996
VConfusion
p2997
sVaron
p2998
VAron
p2999
sVconversion2
p3000
VConversion 2
p3001
sVwhiscash
p3002
VWhiscash
p3003
sVzoroark
p3004
VZoroark
p3005
sVshellsmash
p3006
VShell Smash
p3007
sVhydropump
p3008
VHydro Pump
p3009
sVswift
p3010
VSwift
p3011
sVmemento
p3012
VMemento
p3013
sVmetang
p3014
VMetang
p3015
sVbaddreams
p3016
VBad Dreams
p3017
sVaerodactyl
p3018
VAerodactyl
p3019
sVpoisonheal
p3020
VPoison Heal
p3021
sVklang
p3022
VKlang
p3023
sVswallow
p3024
VSwallow
p3025
sVnumel
p3026
VNumel
p3027
sVwoodhammer
p3028
VWood Hammer
p3029
sVhiddenpowerwater
p3030
VHidden Power Water
p3031
sS'malaconda'
p3032
S'Malaconda'
p3033
sVgible
p3034
VGible
p3035
sVovercoat
p3036
VOvercoat
p3037
sVekans
p3038
VEkans
p3039
sVgrepaberry
p3040
VGrepa Berry
p3041
sVwailord
p3042
VWailord
p3043
sVswoobat
p3044
VSwoobat
p3045
sVbindingband
p3046
VBinding Band
p3047
sVkeldeo
p3048
VKeldeo
p3049
sVtomohawk
p3050
VTomohawk
p3051
sVivysaur
p3052
VIvysaur
p3053
sVhorndrill
p3054
VHorn Drill
p3055
sVcoverfossil
p3056
VCover Fossil
p3057
sVgraveler
p3058
VGraveler
p3059
sVprotect
p3060
VProtect
p3061
sVraindance
p3062
VRain Dance
p3063
sVpresent
p3064
VPresent
p3065
sVgrovyle
p3066
VGrovyle
p3067
sVintimidate
p3068
VIntimidate
p3069
sVfaintattack
p3070
VFaint Attack
p3071
sVharden
p3072
VHarden
p3073
sVbeheeyem
p3074
VBeheeyem
p3075
sVwhirlpool
p3076
VWhirlpool
p3077
sVpelipper
p3078
VPelipper
p3079
sVthickfat
p3080
VThick Fat
p3081
sVcarracosta
p3082
VCarracosta
p3083
sVluxio
p3084
VLuxio
p3085
sVvullaby
p3086
VVullaby
p3087
sVhiddenpowerghost
p3088
VHidden Power Ghost
p3089
sVlightball
p3090
VLight Ball
p3091
sVwaterveil
p3092
VWater Veil
p3093
sVspelltag
p3094
VSpell Tag
p3095
sS'deoxysdefense'
p3096
S'Deoxys-Defense'
p3097
sVzekrom
p3098
VZekrom
p3099
sVfling
p3100
VFling
p3101
sVdefiant
p3102
VDefiant
p3103
sVhardstone
p3104
VHard Stone
p3105
sVkebiaberry
p3106
VKebia Berry
p3107
sVcascoon
p3108
VCascoon
p3109
sVmagcargo
p3110
VMagcargo
p3111
sVabsorb
p3112
VAbsorb
p3113
sVraindish
p3114
VRain Dish
p3115
sVseaking
p3116
VSeaking
p3117
sVjudgment
p3118
VJudgment
p3119
sVbibarel
p3120
VBibarel
p3121
sVpsybeam
p3122
VPsybeam
p3123
sVaspearberry
p3124
VAspear Berry
p3125
sVeelektross
p3126
VEelektross
p3127
sVpickpocket
p3128
VPickpocket
p3129
sVsitrusberry
p3130
VSitrus Berry
p3131
sS'arceuspsychic'
p3132
S'Arceus-Psychic'
p3133
sVbeautifly
p3134
VBeautifly
p3135
sVvenoshock
p3136
VVenoshock
p3137
sVmudsport
p3138
VMud Sport
p3139
sVazelf
p3140
VAzelf
p3141
sVyanmega
p3142
VYanmega
p3143
sVkarrablast
p3144
VKarrablast
p3145
sVpinsir
p3146
VPinsir
p3147
sVkoffing
p3148
VKoffing
p3149
sVguts
p3150
VGuts
p3151
sVtauros
p3152
VTauros
p3153
sVfearow
p3154
VFearow
p3155
sVfaketears
p3156
VFake Tears
p3157
sVsimple
p3158
VSimple
p3159
sVraikou
p3160
VRaikou
p3161
sVswellow
p3162
VSwellow
p3163
sVleechlife
p3164
VLeech Life
p3165
sVkingsrock
p3166
VKing's Rock
p3167
sVblukberry
p3168
VBluk Berry
p3169
sVarenatrap
p3170
VArena Trap
p3171
sVleechseed
p3172
VLeech Seed
p3173
sVselfdestruct
p3174
VSelfdestruct
p3175
sVgoldeen
p3176
VGoldeen
p3177
sVducklett
p3178
VDucklett
p3179
sVlatios
p3180
VLatios
p3181
sVfrisk
p3182
VFrisk
p3183
sVbudew
p3184
VBudew
p3185
sVlilligant
p3186
VLilligant
p3187
sVphanpy
p3188
VPhanpy
p3189
sVreckless
p3190
VReckless
p3191
sVimprison
p3192
VImprison
p3193
sVglare
p3194
VGlare
p3195
sVthief
p3196
VThief
p3197
sVhail
p3198
VHail
p3199
sVcofagrigus
p3200
VCofagrigus
p3201
sVwepearberry
p3202
VWepear Berry
p3203
sVskarmory
p3204
VSkarmory
p3205
sVhitmontop
p3206
VHitmontop
p3207
sVdragonclaw
p3208
VDragon Claw
p3209
sVdrizzle
p3210
VDrizzle
p3211
sVstaraptor
p3212
VStaraptor
p3213
sVmagicalleaf
p3214
VMagical Leaf
p3215
sVforcepalm
p3216
VForce Palm
p3217
sVhurricane
p3218
VHurricane
p3219
sVlileep
p3220
VLileep
p3221
sVpiloswine
p3222
VPiloswine
p3223
sVcopycat
p3224
VCopycat
p3225
sVhappiny
p3226
VHappiny
p3227
sVpressure
p3228
VPressure
p3229
sVsilkscarf
p3230
VSilk Scarf
p3231
sVpidgeotto
p3232
VPidgeotto
p3233
sVdreadplate
p3234
VDread Plate
p3235
sVfurret
p3236
VFurret
p3237
sVpsystrike
p3238
VPsystrike
p3239
sVmeteormash
p3240
VMeteor Mash
p3241
sVshucaberry
p3242
VShuca Berry
p3243
sVsweetkiss
p3244
VSweet Kiss
p3245
sVacidarmor
p3246
VAcid Armor
p3247
sVlightclay
p3248
VLight Clay
p3249
sVvoodoom
p3250
VVoodoom
p3251
sVburmy
p3252
VBurmy
p3253
sVmagostberry
p3254
VMagost Berry
p3255
sVspitup
p3256
VSpit Up
p3257
sVrockthrow
p3258
VRock Throw
p3259
sVfrustration
p3260
VFrustration
p3261
sVambipom
p3262
VAmbipom
p3263
sVfollowme
p3264
VFollow Me
p3265
sVquickpowder
p3266
VQuick Powder
p3267
sVfrenzyplant
p3268
VFrenzy Plant
p3269
sVclearbody
p3270
VClear Body
p3271
sVmagoberry
p3272
VMago Berry
p3273
sVcroconaw
p3274
VCroconaw
p3275
sVdrowzee
p3276
VDrowzee
p3277
sVserenegrace
p3278
VSerene Grace
p3279
sVtechnician
p3280
VTechnician
p3281
sS'arceusgrass'
p3282
S'Arceus-Grass'
p3283
sVembargo
p3284
VEmbargo
p3285
sVmetronome
p3286
VMetronome
p3287
sVattackorder
p3288
VAttack Order
p3289
sVallyswitch
p3290
VAlly Switch
p3291
sVwish
p3292
VWish
p3293
sVentrainment
p3294
VEntrainment
p3295
sVtailwhip
p3296
VTail Whip
p3297
sVhoneclaws
p3298
VHone Claws
p3299
sVoranberry
p3300
VOran Berry
p3301
sVslowstart
p3302
VSlow Start
p3303
sVweakarmor
p3304
VWeak Armor
p3305
sVaurasphere
p3306
VAura Sphere
p3307
sVshelgon
p3308
VShelgon
p3309
sVrawstberry
p3310
VRawst Berry
p3311
sVvacuumwave
p3312
VVacuum Wave
p3313
sVillusion
p3314
VIllusion
p3315
sVroleplay
p3316
VRole Play
p3317
sVyacheberry
p3318
VYache Berry
p3319
sVtreecko
p3320
VTreecko
p3321
sVdragonair
p3322
VDragonair
p3323
sVbraviary
p3324
VBraviary
p3325
sVnoguard
p3326
VNo Guard
p3327
sVstarmie
p3328
VStarmie
p3329
sVpersistent
p3330
VPersistent
p3331
sVmagmar
p3332
VMagmar
p3333
sVzangoose
p3334
VZangoose
p3335
sVvcreate
p3336
VV-create
p3337
s.