(dp1
Velectivire
p2
VElectivire
p3
sVcherrim
p4
VCherrim
p5
sVcolorchange
p6
VColor Change
p7
sVpersimberry
p8
VPersim Berry
p9
sVpalkia
p10
VPalkia
p11
sVtickle
p12
VTickle
p13
sS'arceuselectric'
p14
S'Arceus-Electric'
p15
sVabra
p16
VAbra
p17
sVreuniclus
p18
VReuniclus
p19
sVrecycle
p20
VRecycle
p21
sVmeditite
p22
VMeditite
p23
sVsharpbeak
p24
VSharp Beak
p25
sVquickclaw
p26
VQuick Claw
p27
sVdoubleslap
p28
VDoubleSlap
p29
sVeviolite
p30
VEviolite
p31
sVsquirtle
p32
VSquirtle
p33
sVnastyplot
p34
VNasty Plot
p35
sVwormadam
p36
VWormadam
p37
sVwhirlwind
p38
VWhirlwind
p39
sVplumefossil
p40
VPlume Fossil
p41
sVheracross
p42
VHeracross
p43
sVhiddenpowerelectric
p44
VHidden Power Electric
p45
sVhiddenpowerfire
p46
VHidden Power Fire
p47
sVguillotine
p48
VGuillotine
p49
sVlevitate
p50
VLevitate
p51
sVrhyperior
p52
VRhyperior
p53
sVpomegberry
p54
VPomeg Berry
p55
sVmasquerain
p56
VMasquerain
p57
sVthunder
p58
VThunder
p59
sVhaze
p60
VHaze
p61
sVdarkgem
p62
VDark Gem
p63
sVsteelwing
p64
VSteel Wing
p65
sVfraxure
p66
VFraxure
p67
sVmoldbreaker
p68
VMold Breaker
p69
sVcrunch
p70
VCrunch
p71
sVrindoberry
p72
VRindo Berry
p73
sVreflecttype
p74
VReflect Type
p75
sVsnivy
p76
VSnivy
p77
sVmefirst
p78
VMe First
p79
sVkrokorok
p80
VKrokorok
p81
sVstunfisk
p82
VStunfisk
p83
sVmew
p84
VMew
p85
sVpursuit
p86
VPursuit
p87
sVheadsmash
p88
VHead Smash
p89
sVaftermath
p90
VAftermath
p91
sS'tornadustherian'
p92
S'Tornadus-Therian'
p93
sVlunatone
p94
VLunatone
p95
sVpunishment
p96
VPunishment
p97
sVpoisontouch
p98
VPoison Touch
p99
sVfeebas
p100
VFeebas
p101
sVneedlearm
p102
VNeedle Arm
p103
sVblastburn
p104
VBlast Burn
p105
sVhonchkrow
p106
VHonchkrow
p107
sVtirtouga
p108
VTirtouga
p109
sVampharos
p110
VAmpharos
p111
sVdusclops
p112
VDusclops
p113
sVpoisonbarb
p114
VPoison Barb
p115
sVmorningsun
p116
VMorning Sun
p117
sVmandibuzz
p118
VMandibuzz
p119
sVoverheat
p120
VOverheat
p121
sVspiritomb
p122
VSpiritomb
p123
sVvoltabsorb
p124
VVolt Absorb
p125
sVpurugly
p126
VPurugly
p127
sVshiftgear
p128
VShift Gear
p129
sS'calm'
p130
S'Calm'
p131
sVbigroot
p132
VBig Root
p133
sVgardevoir
p134
VGardevoir
p135
sVmagnetrise
p136
VMagnet Rise
p137
sS'naive'
p138
S'Naive'
p139
sVkyogre
p140
VKyogre
p141
sS'adamant'
p142
S'Adamant'
p143
sVkitsunoh
p144
VKitsunoh
p145
sS'arceusbug'
p146
S'Arceus-Bug'
p147
sVgranbull
p148
VGranbull
p149
sVpidgeot
p150
VPidgeot
p151
sVtangledfeet
p152
VTangled Feet
p153
sValakazam
p154
VAlakazam
p155
sVonix
p156
VOnix
p157
sVgrimer
p158
VGrimer
p159
sVbugbite
p160
VBug Bite
p161
sVpoisongas
p162
VPoison Gas
p163
sVmakuhita
p164
VMakuhita
p165
sVattract
p166
VAttract
p167
sVpowerwhip
p168
VPower Whip
p169
sVpachirisu
p170
VPachirisu
p171
sVcrabhammer
p172
VCrabhammer
p173
sVtoxic
p174
VToxic
p175
sS'rotomheat'
p176
S'Rotom-Heat'
p177
sVpoisonpowder
p178
VPoisonPowder
p179
sVredcard
p180
VRed Card
p181
sS'modest'
p182
S'Modest'
p183
sS'lax'
p184
S'Lax'
p185
sVrocktomb
p186
VRock Tomb
p187
sVcherubi
p188
VCherubi
p189
sVleafstorm
p190
VLeaf Storm
p191
sVspookyplate
p192
VSpooky Plate
p193
sS'hasty'
p194
S'Hasty'
p195
sVentei
p196
VEntei
p197
sS'arceussteel'
p198
S'Arceus-Steel'
p199
sVcobaberry
p200
VCoba Berry
p201
sVlaggingtail
p202
VLagging Tail
p203
sVfinalgambit
p204
VFinal Gambit
p205
sVrapidash
p206
VRapidash
p207
sVdoubleteam
p208
VDouble Team
p209
sVlumineon
p210
VLumineon
p211
sVshielddust
p212
VShield Dust
p213
sVmagicbounce
p214
VMagic Bounce
p215
sVhiddenpowerfighting
p216
VHidden Power Fighting
p217
sVsludge
p218
VSludge
p219
sVvenusaur
p220
VVenusaur
p221
sVphione
p222
VPhione
p223
sVflameburst
p224
VFlame Burst
p225
sVzapplate
p226
VZap Plate
p227
sVmunna
p228
VMunna
p229
sVhitmonlee
p230
VHitmonlee
p231
sVdryskin
p232
VDry Skin
p233
sVkricketot
p234
VKricketot
p235
sVroost
p236
VRoost
p237
sVfurycutter
p238
VFury Cutter
p239
sVirontail
p240
VIron Tail
p241
sVpoliwhirl
p242
VPoliwhirl
p243
sVeggbomb
p244
VEgg Bomb
p245
sVluxray
p246
VLuxray
p247
sVpayback
p248
VPayback
p249
sVexcadrill
p250
VExcadrill
p251
sVgloom
p252
VGloom
p253
sVgluttony
p254
VGluttony
p255
sVvulpix
p256
VVulpix
p257
sVcradily
p258
VCradily
p259
sVthunderfang
p260
VThunder Fang
p261
sVespeon
p262
VEspeon
p263
sVmultitype
p264
VMultitype
p265
sVflameorb
p266
VFlame Orb
p267
sVhiddenpowerdragon
p268
VHidden Power Dragon
p269
sVshadowtag
p270
VShadow Tag
p271
sVomastar
p272
VOmastar
p273
sVwalrein
p274
VWalrein
p275
sVtruant
p276
VTruant
p277
sVqualotberry
p278
VQualot Berry
p279
sVnincada
p280
VNincada
p281
sVpsychic
p282
VPsychic
p283
sVlifeorb
p284
VLife Orb
p285
sVkasibberry
p286
VKasib Berry
p287
sVcottonguard
p288
VCotton Guard
p289
sVtornadus
p290
VTornadus
p291
sVshedshell
p292
VShed Shell
p293
sVbarrier
p294
VBarrier
p295
sVleftovers
p296
VLeftovers
p297
sVrevenge
p298
VRevenge
p299
sVsynchronoise
p300
VSynchronoise
p301
sVbestow
p302
VBestow
p303
sVtrumpcard
p304
VTrump Card
p305
sVstruggle
p306
VStruggle
p307
sVshiftry
p308
VShiftry
p309
sVgirafarig
p310
VGirafarig
p311
sVbeartic
p312
VBeartic
p313
sS'kyuremblack'
p314
S'Kyurem-Black'
p315
sVsonicboom
p316
VSonicBoom
p317
sVfightinggem
p318
VFighting Gem
p319
sVlatias
p320
VLatias
p321
sVfilter
p322
VFilter
p323
sVcheriberry
p324
VCheri Berry
p325
sS'naughty'
p326
S'Naughty'
p327
sVseedflare
p328
VSeed Flare
p329
sVhydrocannon
p330
VHydro Cannon
p331
sVdeoxys
p332
VDeoxys
p333
sVhooh
p334
VHo-Oh
p335
sVshieldon
p336
VShieldon
p337
sVslugma
p338
VSlugma
p339
sVwaveincense
p340
VWave Incense
p341
sVgripclaw
p342
VGrip Claw
p343
sVaircutter
p344
VAir Cutter
p345
sVmightyena
p346
VMightyena
p347
sVgrowlithe
p348
VGrowlithe
p349
sVinferno
p350
VInferno
p351
sVtwister
p352
VTwister
p353
sVyamask
p354
VYamask
p355
sVflamethrower
p356
VFlamethrower
p357
sVtoxicorb
p358
VToxic Orb
p359
sVrockclimb
p360
VRock Climb
p361
sVwonderroom
p362
VWonder Room
p363
sVmachoke
p364
VMachoke
p365
sVdoomdesire
p366
VDoom Desire
p367
sVmirrormove
p368
VMirror Move
p369
sVsandshrew
p370
VSandshrew
p371
sVpolitoed
p372
VPolitoed
p373
sVminun
p374
VMinun
p375
sVbelueberry
p376
VBelue Berry
p377
sVendure
p378
VEndure
p379
sVswiftswim
p380
VSwift Swim
p381
sVshellbell
p382
VShell Bell
p383
sVminus
p384
VMinus
p385
sVmeowth
p386
VMeowth
p387
sVsweetscent
p388
VSweet Scent
p389
sVsludgebomb
p390
VSludge Bomb
p391
sVpayapaberry
p392
VPayapa Berry
p393
sVclosecombat
p394
VClose Combat
p395
sVhealer
p396
VHealer
p397
sVseel
p398
VSeel
p399
sVblastoise
p400
VBlastoise
p401
sVstrength
p402
VStrength
p403
sVchingling
p404
VChingling
p405
sVgothita
p406
VGothita
p407
sVdarmanitan
p408
VDarmanitan
p409
sVgyroball
p410
VGyro Ball
p411
sVponyta
p412
VPonyta
p413
sVgolbat
p414
VGolbat
p415
sS'deoxysspeed'
p416
S'Deoxys-Speed'
p417
sVshadowforce
p418
VShadow Force
p419
sVcoil
p420
VCoil
p421
sVdrought
p422
VDrought
p423
sVferrothorn
p424
VFerrothorn
p425
sVcosmicpower
p426
VCosmic Power
p427
sVdunsparce
p428
VDunsparce
p429
sVconstrict
p430
VConstrict
p431
sVvileplume
p432
VVileplume
p433
sVraticate
p434
VRaticate
p435
sVslaking
p436
VSlaking
p437
sVjirachi
p438
VJirachi
p439
sVgolduck
p440
VGolduck
p441
sVarmorfossil
p442
VArmor Fossil
p443
sVtogekiss
p444
VTogekiss
p445
sVhippopotas
p446
VHippopotas
p447
sVdialga
p448
VDialga
p449
sVlastresort
p450
VLast Resort
p451
sVbulletpunch
p452
VBullet Punch
p453
sVicegem
p454
VIce Gem
p455
sVspite
p456
VSpite
p457
sVwaterpulse
p458
VWater Pulse
p459
sVstoutland
p460
VStoutland
p461
sVbidoof
p462
VBidoof
p463
sVsyclant
p464
VSyclant
p465
sVhaunter
p466
VHaunter
p467
sVweedle
p468
VWeedle
p469
sVhoneygather
p470
VHoney Gather
p471
sVmachop
p472
VMachop
p473
sVmetalpowder
p474
VMetal Powder
p475
sVdusknoir
p476
VDusknoir
p477
sVmeditate
p478
VMeditate
p479
sVreversal
p480
VReversal
p481
sVlunardance
p482
VLunar Dance
p483
sVtentacool
p484
VTentacool
p485
sVmilotic
p486
VMilotic
p487
sVwailmer
p488
VWailmer
p489
sVnosepass
p490
VNosepass
p491
sVflashcannon
p492
VFlash Cannon
p493
sVlaxincense
p494
VLax Incense
p495
sVmagneton
p496
VMagneton
p497
sVstickyhold
p498
VSticky Hold
p499
sVbeatup
p500
VBeat Up
p501
sVleafblade
p502
VLeaf Blade
p503
sVserperior
p504
VSerperior
p505
sVempoleon
p506
VEmpoleon
p507
sVwooper
p508
VWooper
p509
sVforretress
p510
VForretress
p511
sVmindreader
p512
VMind Reader
p513
sVseaincense
p514
VSea Incense
p515
sVsimisage
p516
VSimisage
p517
sVarcheops
p518
VArcheops
p519
sVheavymetal
p520
VHeavy Metal
p521
sS'wormadamsandy'
p522
S'Wormadam-Sandy'
p523
sVmuscleband
p524
VMuscle Band
p525
sVpurrloin
p526
VPurrloin
p527
sVdoduo
p528
VDoduo
p529
sVmuk
p530
VMuk
p531
sVcacturne
p532
VCacturne
p533
sVmothim
p534
VMothim
p535
sVslowpoke
p536
VSlowpoke
p537
sVfrostbreath
p538
VFrost Breath
p539
sVvirizion
p540
VVirizion
p541
sVcut
p542
VCut
p543
sVmeadowplate
p544
VMeadow Plate
p545
sVparasect
p546
VParasect
p547
sVadamantorb
p548
VAdamant Orb
p549
sVsmeargle
p550
VSmeargle
p551
sVsamurott
p552
VSamurott
p553
sVmawile
p554
VMawile
p555
sVchimecho
p556
VChimecho
p557
sVpetayaberry
p558
VPetaya Berry
p559
sVregigigas
p560
VRegigigas
p561
sVluckychant
p562
VLucky Chant
p563
sVleppaberry
p564
VLeppa Berry
p565
sVchlorophyll
p566
VChlorophyll
p567
sVhitmontop
p568
VHitmontop
p569
sVfierydance
p570
VFiery Dance
p571
sVfloatzel
p572
VFloatzel
p573
sVsmackdown
p574
VSmack Down
p575
sVcyclohm
p576
VCyclohm
p577
sVbuneary
p578
VBuneary
p579
sVshockdrive
p580
VShock Drive
p581
sVnightdaze
p582
VNight Daze
p583
sVfriendguard
p584
VFriend Guard
p585
sVscaryface
p586
VScary Face
p587
sVsteamroller
p588
VSteamroller
p589
sVkakuna
p590
VKakuna
p591
sVpowertrick
p592
VPower Trick
p593
sVyanma
p594
VYanma
p595
sVchatot
p596
VChatot
p597
sVmarshtomp
p598
VMarshtomp
p599
sVgurdurr
p600
VGurdurr
p601
sVthrash
p602
VThrash
p603
sVsandrush
p604
VSand Rush
p605
sVtotodile
p606
VTotodile
p607
sVslowbro
p608
VSlowbro
p609
sVigglybuff
p610
VIgglybuff
p611
sVnevermeltice
p612
VNeverMeltIce
p613
sVgrowl
p614
VGrowl
p615
sVaguavberry
p616
VAguav Berry
p617
sVdrilbur
p618
VDrilbur
p619
sVralts
p620
VRalts
p621
sVpupitar
p622
VPupitar
p623
sVslowking
p624
VSlowking
p625
sVpowerherb
p626
VPower Herb
p627
sVwaterfall
p628
VWaterfall
p629
sVdewgong
p630
VDewgong
p631
sVkirlia
p632
VKirlia
p633
sVknockoff
p634
VKnock Off
p635
sVoctazooka
p636
VOctazooka
p637
sVhydration
p638
VHydration
p639
sVamoonguss
p640
VAmoonguss
p641
sVshellarmor
p642
VShell Armor
p643
sVpoliwag
p644
VPoliwag
p645
sVmetalcoat
p646
VMetal Coat
p647
sVthickclub
p648
VThick Club
p649
sVscizor
p650
VScizor
p651
sVsilcoon
p652
VSilcoon
p653
sVbuggem
p654
VBug Gem
p655
sVoshawott
p656
VOshawott
p657
sVtogepi
p658
VTogepi
p659
sVdomefossil
p660
VDome Fossil
p661
sVlowkick
p662
VLow Kick
p663
sVhealbell
p664
VHeal Bell
p665
sVmirrorshot
p666
VMirror Shot
p667
sVlickitung
p668
VLickitung
p669
sVdragonrush
p670
VDragon Rush
p671
sVspinarak
p672
VSpinarak
p673
sVsilverwind
p674
VSilver Wind
p675
sVsunnyday
p676
VSunny Day
p677
sVludicolo
p678
VLudicolo
p679
sVditto
p680
VDitto
p681
sVcirclethrow
p682
VCircle Throw
p683
sVpsychoboost
p684
VPsycho Boost
p685
sVnidoqueen
p686
VNidoqueen
p687
sVhiddenpowerpoison
p688
VHidden Power Poison
p689
sVflatter
p690
VFlatter
p691
sVtoxicspikes
p692
VToxic Spikes
p693
sVfirepledge
p694
VFire Pledge
p695
sVnoctowl
p696
VNoctowl
p697
sVcornnberry
p698
VCornn Berry
p699
sVskullfossil
p700
VSkull Fossil
p701
sVstealthrock
p702
VStealth Rock
p703
sVtynamo
p704
VTynamo
p705
sVcrosschop
p706
VCross Chop
p707
sVpsyshock
p708
VPsyshock
p709
sVicyrock
p710
VIcy Rock
p711
sVwynaut
p712
VWynaut
p713
sVabsorbbulb
p714
VAbsorb Bulb
p715
sS'bold'
p716
S'Bold'
p717
sVgunkshot
p718
VGunk Shot
p719
sVgarchomp
p720
VGarchomp
p721
sVgeodude
p722
VGeodude
p723
sVlightscreen
p724
VLight Screen
p725
sVwhimsicott
p726
VWhimsicott
p727
sVlavaplume
p728
VLava Plume
p729
sVkeeneye
p730
VKeen Eye
p731
sVsimipour
p732
VSimipour
p733
sVautotomize
p734
VAutotomize
p735
sVspikecannon
p736
VSpike Cannon
p737
sVnecturna
p738
VNecturna
p739
sVplus
p740
VPlus
p741
sVsapsipper
p742
VSap Sipper
p743
sVthunderpunch
p744
VThunderPunch
p745
sVhornleech
p746
VHorn Leech
p747
sVdarkvoid
p748
VDark Void
p749
sVhoundour
p750
VHoundour
p751
sVdualchop
p752
VDual Chop
p753
sVfoulplay
p754
VFoul Play
p755
sVscyther
p756
VScyther
p757
sVstormdrain
p758
VStorm Drain
p759
sVseadra
p760
VSeadra
p761
sVovergrow
p762
VOvergrow
p763
sVbronzor
p764
VBronzor
p765
sVwrap
p766
VWrap
p767
sVcorsola
p768
VCorsola
p769
sVtransform
p770
VTransform
p771
sVrowapberry
p772
VRowap Berry
p773
sS'quirky'
p774
S'Quirky'
p775
sVgarbodor
p776
VGarbodor
p777
sVsynthesis
p778
VSynthesis
p779
sVmultiscale
p780
VMultiscale
p781
sVgroundgem
p782
VGround Gem
p783
sVreshiram
p784
VReshiram
p785
sVrocksmash
p786
VRock Smash
p787
sVvolttackle
p788
VVolt Tackle
p789
sVghostgem
p790
VGhost Gem
p791
sVroughskin
p792
VRough Skin
p793
sVsafeguard
p794
VSafeguard
p795
sVsmoothrock
p796
VSmooth Rock
p797
sVgothorita
p798
VGothorita
p799
sVchopleberry
p800
VChople Berry
p801
sVunnerve
p802
VUnnerve
p803
sVferaligatr
p804
VFeraligatr
p805
sVoddish
p806
VOddish
p807
sVleer
p808
VLeer
p809
sVmagby
p810
VMagby
p811
sVswadloon
p812
VSwadloon
p813
sVvibrava
p814
VVibrava
p815
sVuxie
p816
VUxie
p817
sVsmoochum
p818
VSmoochum
p819
sVlansatberry
p820
VLansat Berry
p821
sVbutterfree
p822
VButterfree
p823
sVferroseed
p824
VFerroseed
p825
sVclawfossil
p826
VClaw Fossil
p827
sVdischarge
p828
VDischarge
p829
sVpoisonpoint
p830
VPoison Point
p831
sVhiddenpowerground
p832
VHidden Power Ground
p833
sS'arceuspoison'
p834
S'Arceus-Poison'
p835
sVliechiberry
p836
VLiechi Berry
p837
sVlillipup
p838
VLillipup
p839
sVflareboost
p840
VFlare Boost
p841
sVmummy
p842
VMummy
p843
sVoccaberry
p844
VOcca Berry
p845
sVironfist
p846
VIron Fist
p847
sS'serious'
p848
S'Serious'
p849
sVmegadrain
p850
VMega Drain
p851
sVsalacberry
p852
VSalac Berry
p853
sVsnubbull
p854
VSnubbull
p855
sVsandveil
p856
VSand Veil
p857
sVbonsly
p858
VBonsly
p859
sVcelebi
p860
VCelebi
p861
sVavalanche
p862
VAvalanche
p863
sVshadowsneak
p864
VShadow Sneak
p865
sVsuctioncups
p866
VSuction Cups
p867
sVsuperpower
p868
VSuperpower
p869
sVanticipation
p870
VAnticipation
p871
sVweezing
p872
VWeezing
p873
sVdragonpulse
p874
VDragon Pulse
p875
sVelectroball
p876
VElectro Ball
p877
sVflash
p878
VFlash
p879
sVcharge
p880
VCharge
p881
sVquash
p882
VQuash
p883
sVsnorlax
p884
VSnorlax
p885
sVunburden
p886
VUnburden
p887
sVrufflet
p888
VRufflet
p889
sVmachamp
p890
VMachamp
p891
sVkricketune
p892
VKricketune
p893
sVtailslap
p894
VTail Slap
p895
sVjynx
p896
VJynx
p897
sVlopunny
p898
VLopunny
p899
sVtwistedspoon
p900
VTwistedSpoon
p901
sVskyuppercut
p902
VSky Uppercut
p903
sVpoisonsting
p904
VPoison Sting
p905
sVdig
p906
VDig
p907
sVfocusblast
p908
VFocus Blast
p909
sVmesprit
p910
VMesprit
p911
sVmagnet
p912
VMagnet
p913
sVround
p914
VRound
p915
sVunaware
p916
VUnaware
p917
sVfalseswipe
p918
VFalse Swipe
p919
sVleafeon
p920
VLeafeon
p921
sVzorua
p922
VZorua
p923
sVzenmode
p924
VZen Mode
p925
sVvitalthrow
p926
VVital Throw
p927
sVroselia
p928
VRoselia
p929
sVcurse
p930
VCurse
p931
sVfocusband
p932
VFocus Band
p933
sVmoltres
p934
VMoltres
p935
sVpasshoberry
p936
VPassho Berry
p937
sVdragondance
p938
VDragon Dance
p939
sVaxew
p940
VAxew
p941
sVkecleon
p942
VKecleon
p943
sVglameow
p944
VGlameow
p945
sVaeroblast
p946
VAeroblast
p947
sVwartortle
p948
VWartortle
p949
sVexplosion
p950
VExplosion
p951
sVmiracleeye
p952
VMiracle Eye
p953
sS'arceusunknown'
p954
S'Arceus-???'
p955
sVsimisear
p956
VSimisear
p957
sVtropius
p958
VTropius
p959
sVmysticwater
p960
VMystic Water
p961
sVearthquake
p962
VEarthquake
p963
sVgastroacid
p964
VGastro Acid
p965
sVejectbutton
p966
VEject Button
p967
sVexploud
p968
VExploud
p969
sVsawk
p970
VSawk
p971
sVscraggy
p972
VScraggy
p973
sVbrickbreak
p974
VBrick Break
p975
sVbagon
p976
VBagon
p977
sVregenerator
p978
VRegenerator
p979
sVburndrive
p980
VBurn Drive
p981
sVmudslap
p982
VMud-Slap
p983
sVflaaffy
p984
VFlaaffy
p985
sVmagicroom
p986
VMagic Room
p987
sVsouldew
p988
VSoul Dew
p989
sVworkup
p990
VWork Up
p991
sVheavyslam
p992
VHeavy Slam
p993
sVpinmissile
p994
VPin Missile
p995
sVcaptivate
p996
VCaptivate
p997
sVflamecharge
p998
VFlame Charge
p999
sVswagger
p1000
VSwagger
p1001
sVxatu
p1002
VXatu
p1003
sVrockslide
p1004
VRock Slide
p1005
sVcaterpie
p1006
VCaterpie
p1007
sVhypno
p1008
VHypno
p1009
sVblazekick
p1010
VBlaze Kick
p1011
sVseismictoss
p1012
VSeismic Toss
p1013
sVfly
p1014
VFly
p1015
sVuturn
p1016
VU-turn
p1017
sVflygon
p1018
VFlygon
p1019
sVsandstorm
p1020
VSandstorm
p1021
sVswablu
p1022
VSwablu
p1023
sVscolipede
p1024
VScolipede
p1025
sVdwebble
p1026
VDwebble
p1027
sVpignite
p1028
VPignite
p1029
sVsolarpower
p1030
VSolar Power
p1031
sVvespiquen
p1032
VVespiquen
p1033
sVpalpitoad
p1034
VPalpitoad
p1035
sVchilldrive
p1036
VChill Drive
p1037
sVnormalize
p1038
VNormalize
p1039
sVbanette
p1040
VBanette
p1041
sVtailwind
p1042
VTailwind
p1043
sVwideguard
p1044
VWide Guard
p1045
sVeelektrik
p1046
VEelektrik
p1047
sVarbok
p1048
VArbok
p1049
sVafteryou
p1050
VAfter You
p1051
sVoctillery
p1052
VOctillery
p1053
sVvenonat
p1054
VVenonat
p1055
sVdive
p1056
VDive
p1057
sVmamoswine
p1058
VMamoswine
p1059
sVwiseglasses
p1060
VWise Glasses
p1061
sVmilkdrink
p1062
VMilk Drink
p1063
sVancientpower
p1064
VAncientPower
p1065
sVblissey
p1066
VBlissey
p1067
sVcryogonal
p1068
VCryogonal
p1069
sVsupersonic
p1070
VSupersonic
p1071
sVdelibird
p1072
VDelibird
p1073
sS'arceusghost'
p1074
S'Arceus-Ghost'
p1075
sVlitwick
p1076
VLitwick
p1077
sVmurkrow
p1078
VMurkrow
p1079
sVlugia
p1080
VLugia
p1081
sVbulletseed
p1082
VBullet Seed
p1083
sVservine
p1084
VServine
p1085
sVskydrop
p1086
VSky Drop
p1087
sVarcanine
p1088
VArcanine
p1089
sVsneasel
p1090
VSneasel
p1091
sVgrassknot
p1092
VGrass Knot
p1093
sVklutz
p1094
VKlutz
p1095
sVbulldoze
p1096
VBulldoze
p1097
sVfocusenergy
p1098
VFocus Energy
p1099
sVslackoff
p1100
VSlack Off
p1101
sVkabuto
p1102
VKabuto
p1103
sVfuryswipes
p1104
VFury Swipes
p1105
sS'lonely'
p1106
S'Lonely'
p1107
sVaipom
p1108
VAipom
p1109
sVrattled
p1110
VRattled
p1111
sS'bashful'
p1112
S'Bashful'
p1113
sVfusionflare
p1114
VFusion Flare
p1115
sVeffectspore
p1116
VEffect Spore
p1117
sVlinoone
p1118
VLinoone
p1119
sVsynchronize
p1120
VSynchronize
p1121
sVmantine
p1122
VMantine
p1123
sVglalie
p1124
VGlalie
p1125
sVpsyduck
p1126
VPsyduck
p1127
sVmentalherb
p1128
VMental Herb
p1129
sVswalot
p1130
VSwalot
p1131
sVporygonz
p1132
VPorygon-Z
p1133
sVstrugglebug
p1134
VStruggle Bug
p1135
sVpersian
p1136
VPersian
p1137
sVshaymin
p1138
VShaymin
p1139
sVpidove
p1140
VPidove
p1141
sVskillswap
p1142
VSkill Swap
p1143
sVassurance
p1144
VAssurance
p1145
sVpoochyena
p1146
VPoochyena
p1147
sVporygon2
p1148
VPorygon2
p1149
sViciclecrash
p1150
VIcicle Crash
p1151
sVmiltank
p1152
VMiltank
p1153
sVunown
p1154
VUnown
p1155
sVpetilil
p1156
VPetilil
p1157
sVtelepathy
p1158
VTelepathy
p1159
sVnidorino
p1160
VNidorino
p1161
sVnidorina
p1162
VNidorina
p1163
sVhypnosis
p1164
VHypnosis
p1165
sVdurinberry
p1166
VDurin Berry
p1167
sVdragonrage
p1168
VDragon Rage
p1169
sVjolteon
p1170
VJolteon
p1171
sVdefensecurl
p1172
VDefense Curl
p1173
sVchikorita
p1174
VChikorita
p1175
sVrockyhelmet
p1176
VRocky Helmet
p1177
sVwatergem
p1178
VWater Gem
p1179
sVjabocaberry
p1180
VJaboca Berry
p1181
sVhoppip
p1182
VHoppip
p1183
sViceshard
p1184
VIce Shard
p1185
sVgiratina
p1186
VGiratina
p1187
sVteravolt
p1188
VTeravolt
p1189
sVbite
p1190
VBite
p1191
sVduosion
p1192
VDuosion
p1193
sVaromatherapy
p1194
VAromatherapy
p1195
sVsleeptalk
p1196
VSleep Talk
p1197
sVconfuseray
p1198
VConfuse Ray
p1199
sVdrainpunch
p1200
VDrain Punch
p1201
sVgliscor
p1202
VGliscor
p1203
sVseedot
p1204
VSeedot
p1205
sVsnatch
p1206
VSnatch
p1207
sVdrapion
p1208
VDrapion
p1209
sVpeck
p1210
VPeck
p1211
sS'wormadamtrash'
p1212
S'Wormadam-Trash'
p1213
sVearthplate
p1214
VEarth Plate
p1215
sVquickattack
p1216
VQuick Attack
p1217
sVcursedbody
p1218
VCursed Body
p1219
sVcubone
p1220
VCubone
p1221
sVhiddenpowerrock
p1222
VHidden Power Rock
p1223
sVrazzberry
p1224
VRazz Berry
p1225
sVlick
p1226
VLick
p1227
sVslam
p1228
VSlam
p1229
sVsandstream
p1230
VSand Stream
p1231
sVledyba
p1232
VLedyba
p1233
sVaquatail
p1234
VAqua Tail
p1235
sVkrilowatt
p1236
VKrilowatt
p1237
sVrecover
p1238
VRecover
p1239
sVconversion
p1240
VConversion
p1241
sVelectrode
p1242
VElectrode
p1243
sVhiddenpowerdark
p1244
VHidden Power Dark
p1245
sVmetalsound
p1246
VMetal Sound
p1247
sVarghonaut
p1248
VArghonaut
p1249
sVbeedrill
p1250
VBeedrill
p1251
sVsurf
p1252
VSurf
p1253
sVgriseousorb
p1254
VGriseous Orb
p1255
sVmountaineer
p1256
VMountaineer
p1257
sVstunky
p1258
VStunky
p1259
sVtrace
p1260
VTrace
p1261
sVgeargrind
p1262
VGear Grind
p1263
sVdarkrai
p1264
VDarkrai
p1265
sVbarrage
p1266
VBarrage
p1267
sVbonemerang
p1268
VBonemerang
p1269
sVadaptability
p1270
VAdaptability
p1271
sVleaftornado
p1272
VLeaf Tornado
p1273
sVhyperfang
p1274
VHyper Fang
p1275
sVdracoplate
p1276
VDraco Plate
p1277
sVelectirizer
p1278
VElectirizer
p1279
sVmollux
p1280
VMollux
p1281
sVmuddywater
p1282
VMuddy Water
p1283
sVcompoundeyes
p1284
VCompoundeyes
p1285
sVtintedlens
p1286
VTinted Lens
p1287
sVgolurk
p1288
VGolurk
p1289
sVfigyberry
p1290
VFigy Berry
p1291
sVrevenankh
p1292
VRevenankh
p1293
sVvolbeat
p1294
VVolbeat
p1295
sVlarvesta
p1296
VLarvesta
p1297
sVpatrat
p1298
VPatrat
p1299
sVacupressure
p1300
VAcupressure
p1301
sVanalytic
p1302
VAnalytic
p1303
sVgrasspledge
p1304
VGrass Pledge
p1305
sVoutrage
p1306
VOutrage
p1307
sVleavanny
p1308
VLeavanny
p1309
sVkinesis
p1310
VKinesis
p1311
sVstomp
p1312
VStomp
p1313
sVboneclub
p1314
VBone Club
p1315
sVtelekinesis
p1316
VTelekinesis
p1317
sVmoxie
p1318
VMoxie
p1319
sVwonderskin
p1320
VWonder Skin
p1321
sVfakeout
p1322
VFake Out
p1323
sVimposter
p1324
VImposter
p1325
sVspore
p1326
VSpore
p1327
sVquagsire
p1328
VQuagsire
p1329
sVdetect
p1330
VDetect
p1331
sVsteadfast
p1332
VSteadfast
p1333
sVlimber
p1334
VLimber
p1335
sVbatonpass
p1336
VBaton Pass
p1337
sVforecast
p1338
VForecast
p1339
sVsnowwarning
p1340
VSnow Warning
p1341
sVjustified
p1342
VJustified
p1343
sVdamprock
p1344
VDamp Rock
p1345
sVhariyama
p1346
VHariyama
p1347
sVcrawdaunt
p1348
VCrawdaunt
p1349
sVpluck
p1350
VPluck
p1351
sVfuryattack
p1352
VFury Attack
p1353
sVroseincense
p1354
VRose Incense
p1355
sVspoink
p1356
VSpoink
p1357
sVvictreebel
p1358
VVictreebel
p1359
sVdestinyknot
p1360
VDestiny Knot
p1361
sVrhyhorn
p1362
VRhyhorn
p1363
sVsteelix
p1364
VSteelix
p1365
sS'arceus???'
p1366
S'Arceus-???'
p1367
sVkrookodile
p1368
VKrookodile
p1369
sVcellbattery
p1370
VCell Battery
p1371
sVwingattack
p1372
VWing Attack
p1373
sVnomelberry
p1374
VNomel Berry
p1375
sVnormalgem
p1376
VNormal Gem
p1377
sVhiddenpowersteel
p1378
VHidden Power Steel
p1379
sVdodrio
p1380
VDodrio
p1381
sVzapdos
p1382
VZapdos
p1383
sVendeavor
p1384
VEndeavor
p1385
sViceburn
p1386
VIce Burn
p1387
sVrunaway
p1388
VRun Away
p1389
sVlightmetal
p1390
VLight Metal
p1391
sVstunspore
p1392
VStun Spore
p1393
sVgigalith
p1394
VGigalith
p1395
sVspiderweb
p1396
VSpider Web
p1397
sVheatrock
p1398
VHeat Rock
p1399
sVclamperl
p1400
VClamperl
p1401
sVcresselia
p1402
VCresselia
p1403
sVomanyte
p1404
VOmanyte
p1405
sVbreloom
p1406
VBreloom
p1407
sVtangela
p1408
VTangela
p1409
sVhealblock
p1410
VHeal Block
p1411
sVswanna
p1412
VSwanna
p1413
sS'careful'
p1414
S'Careful'
p1415
sVmudshot
p1416
VMud Shot
p1417
sVdefeatist
p1418
VDefeatist
p1419
sVtrick
p1420
VTrick
p1421
sVlandorus
p1422
VLandorus
p1423
sVgroudon
p1424
VGroudon
p1425
sS'arceuswater'
p1426
S'Arceus-Water'
p1427
sS'quiet'
p1428
S'Quiet'
p1429
sVshadowclaw
p1430
VShadow Claw
p1431
sVsacredfire
p1432
VSacred Fire
p1433
sVstaryu
p1434
VStaryu
p1435
sVvicegrip
p1436
VViceGrip
p1437
sVcubchoo
p1438
VCubchoo
p1439
sVhiddenpowerice
p1440
VHidden Power Ice
p1441
sVextremespeed
p1442
VExtremeSpeed
p1443
sVangerpoint
p1444
VAnger Point
p1445
sVthunderbolt
p1446
VThunderbolt
p1447
sVmagnetbomb
p1448
VMagnet Bomb
p1449
sVassist
p1450
VAssist
p1451
sVblaziken
p1452
VBlaziken
p1453
sVgligar
p1454
VGligar
p1455
sVhypervoice
p1456
VHyper Voice
p1457
sVminimize
p1458
VMinimize
p1459
sVdoublehit
p1460
VDouble Hit
p1461
sVmedicham
p1462
VMedicham
p1463
sVheatmor
p1464
VHeatmor
p1465
sVrockgem
p1466
VRock Gem
p1467
sVspark
p1468
VSpark
p1469
sVrazorwind
p1470
VRazor Wind
p1471
sVhealingwish
p1472
VHealing Wish
p1473
sVquickguard
p1474
VQuick Guard
p1475
sVwingull
p1476
VWingull
p1477
sVrest
p1478
VRest
p1479
sVrazorclaw
p1480
VRazor Claw
p1481
sVdragonbreath
p1482
VDragonBreath
p1483
sVelgyem
p1484
VElgyem
p1485
sVduskull
p1486
VDuskull
p1487
sVcometpunch
p1488
VComet Punch
p1489
sVaerialace
p1490
VAerial Ace
p1491
sVparas
p1492
VParas
p1493
sVskitty
p1494
VSkitty
p1495
sVflareblitz
p1496
VFlare Blitz
p1497
sVtrubbish
p1498
VTrubbish
p1499
sVsnarl
p1500
VSnarl
p1501
sVmachpunch
p1502
VMach Punch
p1503
sVsunkern
p1504
VSunkern
p1505
sVcolossoil
p1506
VColossoil
p1507
sVsnore
p1508
VSnore
p1509
sVfloatstone
p1510
VFloat Stone
p1511
sVskiploom
p1512
VSkiploom
p1513
sVwhirlipede
p1514
VWhirlipede
p1515
sVvoltswitch
p1516
VVolt Switch
p1517
sVseismitoad
p1518
VSeismitoad
p1519
sVbrightpowder
p1520
VBrightPowder
p1521
sVhypercutter
p1522
VHyper Cutter
p1523
sVvanillite
p1524
VVanillite
p1525
sVchoiceband
p1526
VChoice Band
p1527
sVheartswap
p1528
VHeart Swap
p1529
sVpinapberry
p1530
VPinap Berry
p1531
sVminccino
p1532
VMinccino
p1533
sVrefresh
p1534
VRefresh
p1535
sVprinplup
p1536
VPrinplup
p1537
sVpichu
p1538
VPichu
p1539
sVheadcharge
p1540
VHead Charge
p1541
sVcrustle
p1542
VCrustle
p1543
sVpowergem
p1544
VPower Gem
p1545
sVechoedvoice
p1546
VEchoed Voice
p1547
sVbattlearmor
p1548
VBattle Armor
p1549
sVhustle
p1550
VHustle
p1551
sVthroh
p1552
VThroh
p1553
sVmusharna
p1554
VMusharna
p1555
sVinnerfocus
p1556
VInner Focus
p1557
sVhornattack
p1558
VHorn Attack
p1559
sVzapcannon
p1560
VZap Cannon
p1561
sVroar
p1562
VRoar
p1563
sVclearsmog
p1564
VClear Smog
p1565
sVlockon
p1566
VLock-On
p1567
sVgengar
p1568
VGengar
p1569
sVswampert
p1570
VSwampert
p1571
sVgolem
p1572
VGolem
p1573
sVquilava
p1574
VQuilava
p1575
sVcustapberry
p1576
VCustap Berry
p1577
sVsearingshot
p1578
VSearing Shot
p1579
sVstratagem
p1580
VStratagem
p1581
sVshadowpunch
p1582
VShadow Punch
p1583
sVfocuspunch
p1584
VFocus Punch
p1585
sVforewarn
p1586
VForewarn
p1587
sViciclespear
p1588
VIcicle Spear
p1589
sVpyroak
p1590
VPyroak
p1591
sVsacredsword
p1592
VSacred Sword
p1593
sVhex
p1594
VHex
p1595
sVmarill
p1596
VMarill
p1597
sVwillowisp
p1598
VWill-O-Wisp
p1599
sVbubble
p1600
VBubble
p1601
sVsealeo
p1602
VSealeo
p1603
sVglaciate
p1604
VGlaciate
p1605
sVnightshade
p1606
VNight Shade
p1607
sVexeggutor
p1608
VExeggutor
p1609
sVstantler
p1610
VStantler
p1611
sVvitalspirit
p1612
VVital Spirit
p1613
sVsnover
p1614
VSnover
p1615
sVrage
p1616
VRage
p1617
sVvictorystar
p1618
VVictory Star
p1619
sVvinewhip
p1620
VVine Whip
p1621
sVstoneplate
p1622
VStone Plate
p1623
sVsheercold
p1624
VSheer Cold
p1625
sVsplashplate
p1626
VSplash Plate
p1627
sVpowdersnow
p1628
VPowder Snow
p1629
sVflamebody
p1630
VFlame Body
p1631
sVdugtrio
p1632
VDugtrio
p1633
sVsmokescreen
p1634
VSmokeScreen
p1635
sVcolburberry
p1636
VColbur Berry
p1637
sVimmunity
p1638
VImmunity
p1639
sVstormthrow
p1640
VStorm Throw
p1641
sVcharizard
p1642
VCharizard
p1643
sVflowergift
p1644
VFlower Gift
p1645
sVaccelgor
p1646
VAccelgor
p1647
sVmirrorcoat
p1648
VMirror Coat
p1649
sVemboar
p1650
VEmboar
p1651
sVdustox
p1652
VDustox
p1653
sVrootfossil
p1654
VRoot Fossil
p1655
sVtackle
p1656
VTackle
p1657
sS'rotomwash'
p1658
S'Rotom-Wash'
p1659
sVgrudge
p1660
VGrudge
p1661
sVcyndaquil
p1662
VCyndaquil
p1663
sVblueflare
p1664
VBlue Flare
p1665
sVdefog
p1666
VDefog
p1667
sVskyattack
p1668
VSky Attack
p1669
sVmoonlight
p1670
VMoonlight
p1671
sVmimic
p1672
VMimic
p1673
sVstockpile
p1674
VStockpile
p1675
sVoddincense
p1676
VOdd Incense
p1677
sVlairon
p1678
VLairon
p1679
sVscrappy
p1680
VScrappy
p1681
sVtogetic
p1682
VTogetic
p1683
sVfirepunch
p1684
VFire Punch
p1685
sVunfezant
p1686
VUnfezant
p1687
sVmicleberry
p1688
VMicle Berry
p1689
sVlightningrod
p1690
VLightningrod
p1691
sVgigadrain
p1692
VGiga Drain
p1693
sVsilverpowder
p1694
VSilverPowder
p1695
sVvanillish
p1696
VVanillish
p1697
sVsheerforce
p1698
VSheer Force
p1699
sVbayleef
p1700
VBayleef
p1701
sVhondewberry
p1702
VHondew Berry
p1703
sVtympole
p1704
VTympole
p1705
sVwigglytuff
p1706
VWigglytuff
p1707
sVicepunch
p1708
VIce Punch
p1709
sVgalvantula
p1710
VGalvantula
p1711
sVcombusken
p1712
VCombusken
p1713
sVcloudnine
p1714
VCloud Nine
p1715
sVmienshao
p1716
VMienshao
p1717
sVscrafty
p1718
VScrafty
p1719
sVsecretpower
p1720
VSecret Power
p1721
sS'mild'
p1722
S'Mild'
p1723
sVsawsbuck
p1724
VSawsbuck
p1725
sVdoublekick
p1726
VDouble Kick
p1727
sViceball
p1728
VIce Ball
p1729
sVironbarbs
p1730
VIron Barbs
p1731
sValtaria
p1732
VAltaria
p1733
sVcrushgrip
p1734
VCrush Grip
p1735
sVseedbomb
p1736
VSeed Bomb
p1737
sVmeganium
p1738
VMeganium
p1739
sVchipaway
p1740
VChip Away
p1741
sVmetalclaw
p1742
VMetal Claw
p1743
sVfeatherdance
p1744
VFeatherDance
p1745
sVshockwave
p1746
VShock Wave
p1747
sVironplate
p1748
VIron Plate
p1749
sVaurorabeam
p1750
VAurora Beam
p1751
sVheartstamp
p1752
VHeart Stamp
p1753
sVboldore
p1754
VBoldore
p1755
sVchoicescarf
p1756
VChoice Scarf
p1757
sVdragonfang
p1758
VDragon Fang
p1759
sVgastly
p1760
VGastly
p1761
sVrhydon
p1762
VRhydon
p1763
sVinfernape
p1764
VInfernape
p1765
sVpanpour
p1766
VPanpour
p1767
sS'kyuremwhite'
p1768
S'Kyurem-White'
p1769
sVacidspray
p1770
VAcid Spray
p1771
sVarmaldo
p1772
VArmaldo
p1773
sVkyurem
p1774
VKyurem
p1775
sVwringout
p1776
VWring Out
p1777
sVstarly
p1778
VStarly
p1779
sVgolett
p1780
VGolett
p1781
sVgallade
p1782
VGallade
p1783
sVledian
p1784
VLedian
p1785
sVluvdisc
p1786
VLuvdisc
p1787
sVhelixfossil
p1788
VHelix Fossil
p1789
sVsplash
p1790
VSplash
p1791
sVillumise
p1792
VIllumise
p1793
sVanorith
p1794
VAnorith
p1795
sVdizzypunch
p1796
VDizzy Punch
p1797
sVhorsea
p1798
VHorsea
p1799
sVstick
p1800
VStick
p1801
sVrazorfang
p1802
VRazor Fang
p1803
sVchilanberry
p1804
VChilan Berry
p1805
sVturboblaze
p1806
VTurboblaze
p1807
sVnaturalgift
p1808
VNatural Gift
p1809
sVenergypowder
p1810
VEnergyPowder
p1811
sVchartiberry
p1812
VCharti Berry
p1813
sVlumberry
p1814
VLum Berry
p1815
sVvoltorb
p1816
VVoltorb
p1817
sVregice
p1818
VRegice
p1819
sVskyplate
p1820
VSky Plate
p1821
sVsableye
p1822
VSableye
p1823
sVseviper
p1824
VSeviper
p1825
sVmarvelscale
p1826
VMarvel Scale
p1827
sVslakoth
p1828
VSlakoth
p1829
sVmonferno
p1830
VMonferno
p1831
sVwikiberry
p1832
VWiki Berry
p1833
sVextrasensory
p1834
VExtrasensory
p1835
sVteleport
p1836
VTeleport
p1837
sVshelmet
p1838
VShelmet
p1839
sVflyinggem
p1840
VFlying Gem
p1841
sVbulkup
p1842
VBulk Up
p1843
sVglaceon
p1844
VGlaceon
p1845
sVwonderguard
p1846
VWonder Guard
p1847
sVelectricgem
p1848
VElectric Gem
p1849
sS'rotomfan'
p1850
S'Rotom-Fan'
p1851
sVsignalbeam
p1852
VSignal Beam
p1853
sVshuckle
p1854
VShuckle
p1855
sVreflect
p1856
VReflect
p1857
sVdisable
p1858
VDisable
p1859
sVliquidooze
p1860
VLiquid Ooze
p1861
sVtoxicplate
p1862
VToxic Plate
p1863
sVlanturn
p1864
VLanturn
p1865
sVretaliate
p1866
VRetaliate
p1867
sVcorphish
p1868
VCorphish
p1869
sVbigpecks
p1870
VBig Pecks
p1871
sVwatmelberry
p1872
VWatmel Berry
p1873
sVarticuno
p1874
VArticuno
p1875
sVfissure
p1876
VFissure
p1877
sVvolcarona
p1878
VVolcarona
p1879
sVblackglasses
p1880
VBlackGlasses
p1881
sVhealorder
p1882
VHeal Order
p1883
sVjigglypuff
p1884
VJigglypuff
p1885
sVsandslash
p1886
VSandslash
p1887
sVastonish
p1888
VAstonish
p1889
sVenergyball
p1890
VEnergy Ball
p1891
sVrockpolish
p1892
VRock Polish
p1893
sVlampent
p1894
VLampent
p1895
sVfistplate
p1896
VFist Plate
p1897
sVreturn
p1898
VReturn
p1899
sVmrmime
p1900
VMr. Mime
p1901
sVclefable
p1902
VClefable
p1903
sVskuntank
p1904
VSkuntank
p1905
sVprimeape
p1906
VPrimeape
p1907
sVgabite
p1908
VGabite
p1909
sVmissingno
p1910
VMissingno.
p1911
sVbellsprout
p1912
VBellsprout
p1913
sVlovelykiss
p1914
VLovely Kiss
p1915
sVmeanlook
p1916
VMean Look
p1917
sVclamp
p1918
VClamp
p1919
sS'arceusfire'
p1920
S'Arceus-Fire'
p1921
sVquickfeet
p1922
VQuick Feet
p1923
sVraichu
p1924
VRaichu
p1925
sVmagnezone
p1926
VMagnezone
p1927
sVtrickroom
p1928
VTrick Room
p1929
sVmist
p1930
VMist
p1931
sVhiddenpowerpsychic
p1932
VHidden Power Psychic
p1933
sVelectroweb
p1934
VElectroweb
p1935
sS'jolly'
p1936
S'Jolly'
p1937
sVsalamence
p1938
VSalamence
p1939
sVabsorb
p1940
VAbsorb
p1941
sS'arceusice'
p1942
S'Arceus-Ice'
p1943
sVsuperfang
p1944
VSuper Fang
p1945
sVcombee
p1946
VCombee
p1947
sVroggenrola
p1948
VRoggenrola
p1949
sVironhead
p1950
VIron Head
p1951
sVsentret
p1952
VSentret
p1953
sVtyrogue
p1954
VTyrogue
p1955
sVcleffa
p1956
VCleffa
p1957
sVguardsplit
p1958
VGuard Split
p1959
sVwaterabsorb
p1960
VWater Absorb
p1961
sVtoxicboost
p1962
VToxic Boost
p1963
sVninetales
p1964
VNinetales
p1965
sVnidoranf
p1966
VNidoranF
p1967
sVcottonspore
p1968
VCotton Spore
p1969
sVnidoranm
p1970
VNidoranM
p1971
sVpineco
p1972
VPineco
p1973
sVscopelens
p1974
VScope Lens
p1975
sVhydreigon
p1976
VHydreigon
p1977
sVaggron
p1978
VAggron
p1979
sS'giratinaorigin'
p1980
S'Giratina-Origin'
p1981
sVmanaphy
p1982
VManaphy
p1983
sS'brave'
p1984
S'Brave'
p1985
sVstoredpower
p1986
VStored Power
p1987
sVapicotberry
p1988
VApicot Berry
p1989
sVpetaldance
p1990
VPetal Dance
p1991
sVboltstrike
p1992
VBolt Strike
p1993
sVswarm
p1994
VSwarm
p1995
sVairlock
p1996
VAir Lock
p1997
sVklinklang
p1998
VKlinklang
p1999
sS'landorustherian'
p2000
S'Landorus-Therian'
p2001
sVshedinja
p2002
VShedinja
p2003
sVbabiriberry
p2004
VBabiri Berry
p2005
sVsuckerpunch
p2006
VSucker Punch
p2007
sVfreezeshock
p2008
VFreeze Shock
p2009
sVpsywave
p2010
VPsywave
p2011
sVdrillrun
p2012
VDrill Run
p2013
sVwhiteherb
p2014
VWhite Herb
p2015
sVvenipede
p2016
VVenipede
p2017
sVdarkpulse
p2018
VDark Pulse
p2019
sS'arceusdragon'
p2020
S'Arceus-Dragon'
p2021
sVstall
p2022
VStall
p2023
sVcontrary
p2024
VContrary
p2025
sVdoubleedge
p2026
VDouble-Edge
p2027
sVremoraid
p2028
VRemoraid
p2029
sVclefairy
p2030
VClefairy
p2031
sVklink
p2032
VKlink
p2033
sVfirespin
p2034
VFire Spin
p2035
sVsuicune
p2036
VSuicune
p2037
sS'thundurustherian'
p2038
S'Thundurus-Therian'
p2039
sVpamtreberry
p2040
VPamtre Berry
p2041
sVmegahorn
p2042
VMegahorn
p2043
sVsunflora
p2044
VSunflora
p2045
sVairballoon
p2046
VAir Balloon
p2047
sVsolrock
p2048
VSolrock
p2049
sVfrillish
p2050
VFrillish
p2051
sVsubstitute
p2052
VSubstitute
p2053
sVkangaskhan
p2054
VKangaskhan
p2055
sVregirock
p2056
VRegirock
p2057
sVpansage
p2058
VPansage
p2059
sVswitcheroo
p2060
VSwitcheroo
p2061
sVsoundproof
p2062
VSoundproof
p2063
sVeruption
p2064
VEruption
p2065
sVyawn
p2066
VYawn
p2067
sVcharm
p2068
VCharm
p2069
sVdiglett
p2070
VDiglett
p2071
sVbeldum
p2072
VBeldum
p2073
sVbarboach
p2074
VBarboach
p2075
sVcrosspoison
p2076
VCross Poison
p2077
sVcarvanha
p2078
VCarvanha
p2079
sVlowsweep
p2080
VLow Sweep
p2081
sVsturdy
p2082
VSturdy
p2083
sVcovet
p2084
VCovet
p2085
sVkaratechop
p2086
VKarate Chop
p2087
sVstarfberry
p2088
VStarf Berry
p2089
sVazumarill
p2090
VAzumarill
p2091
sVmetalburst
p2092
VMetal Burst
p2093
sVsmellingsalt
p2094
VSmellingSalt
p2095
sVherdier
p2096
VHerdier
p2097
sVmeloetta
p2098
VMeloetta
p2099
sVnanabberry
p2100
VNanab Berry
p2101
sVzoomlens
p2102
VZoom Lens
p2103
sVblackbelt
p2104
VBlack Belt
p2105
sVhammerarm
p2106
VHammer Arm
p2107
sVmagmaarmor
p2108
VMagma Armor
p2109
sVpayday
p2110
VPay Day
p2111
sVhealpulse
p2112
VHeal Pulse
p2113
sVmagikarp
p2114
VMagikarp
p2115
sVpawniard
p2116
VPawniard
p2117
sVpoisontail
p2118
VPoison Tail
p2119
sVhitmonchan
p2120
VHitmonchan
p2121
sS'docile'
p2122
S'Docile'
p2123
sVfireblast
p2124
VFire Blast
p2125
sVshroomish
p2126
VShroomish
p2127
sVwhismur
p2128
VWhismur
p2129
sVspikes
p2130
VSpikes
p2131
sVshadowstrike
p2132
VShadowStrike
p2133
sVheatcrash
p2134
VHeat Crash
p2135
sVskorupi
p2136
VSkorupi
p2137
sVblitzle
p2138
VBlitzle
p2139
sVtamatoberry
p2140
VTamato Berry
p2141
sVfarfetchd
p2142
VFarfetch'd
p2143
sVarceus
p2144
VArceus
p2145
sVpickup
p2146
VPickup
p2147
sVtangaberry
p2148
VTanga Berry
p2149
sS'arceusdark'
p2150
S'Arceus-Dark'
p2151
sVmarowak
p2152
VMarowak
p2153
sVmachobrace
p2154
VMacho Brace
p2155
sVelekid
p2156
VElekid
p2157
sVmagmortar
p2158
VMagmortar
p2159
sVchansey
p2160
VChansey
p2161
sVroaroftime
p2162
VRoar of Time
p2163
sVwildcharge
p2164
VWild Charge
p2165
sVrattata
p2166
VRattata
p2167
sVclaydol
p2168
VClaydol
p2169
sVrelicanth
p2170
VRelicanth
p2171
sVtorchic
p2172
VTorchic
p2173
sVlapras
p2174
VLapras
p2175
sVmankey
p2176
VMankey
p2177
sVprankster
p2178
VPrankster
p2179
sS'shayminsky'
p2180
S'Shaymin-Sky'
p2181
sVwacanberry
p2182
VWacan Berry
p2183
sVsandile
p2184
VSandile
p2185
sVtyphlosion
p2186
VTyphlosion
p2187
sVariados
p2188
VAriados
p2189
sVdrillpeck
p2190
VDrill Peck
p2191
sVicebody
p2192
VIce Body
p2193
sVnatu
p2194
VNatu
p2195
sVxscissor
p2196
VX-Scissor
p2197
sVbellossom
p2198
VBellossom
p2199
sVquiverdance
p2200
VQuiver Dance
p2201
sVmegapunch
p2202
VMega Punch
p2203
sVdamp
p2204
VDamp
p2205
sVmienfoo
p2206
VMienfoo
p2207
sVliepard
p2208
VLiepard
p2209
sVamnesia
p2210
VAmnesia
p2211
sVdestinybond
p2212
VDestiny Bond
p2213
sVpowersplit
p2214
VPower Split
p2215
sVdruddigon
p2216
VDruddigon
p2217
sVtaillow
p2218
VTaillow
p2219
sVdragontail
p2220
VDragon Tail
p2221
sVstringshot
p2222
VString Shot
p2223
sValomomola
p2224
VAlomomola
p2225
sVwatergun
p2226
VWater Gun
p2227
sVvanilluxe
p2228
VVanilluxe
p2229
sVwoobat
p2230
VWoobat
p2231
sVchatter
p2232
VChatter
p2233
sVbasculin
p2234
VBasculin
p2235
sVescavalier
p2236
VEscavalier
p2237
sVpsychoshift
p2238
VPsycho Shift
p2239
sVbisharp
p2240
VBisharp
p2241
sVhoundoom
p2242
VHoundoom
p2243
sVgulpin
p2244
VGulpin
p2245
sVmantyke
p2246
VMantyke
p2247
sVpound
p2248
VPound
p2249
sS'rotommow'
p2250
S'Rotom-Mow'
p2251
sVdefendorder
p2252
VDefend Order
p2253
sVsurskit
p2254
VSurskit
p2255
sVicebeam
p2256
VIce Beam
p2257
sVfacade
p2258
VFacade
p2259
sVzubat
p2260
VZubat
p2261
sVmagikarpsrevenge
p2262
VMagikarp's Revenge
p2263
sVingrain
p2264
VIngrain
p2265
sVcottonee
p2266
VCottonee
p2267
sVpoisonjab
p2268
VPoison Jab
p2269
sVtaunt
p2270
VTaunt
p2271
sVgorebyss
p2272
VGorebyss
p2273
sVgrotle
p2274
VGrotle
p2275
sVpikachu
p2276
VPikachu
p2277
sVrayquaza
p2278
VRayquaza
p2279
sVjumpluff
p2280
VJumpluff
p2281
sS'timid'
p2282
S'Timid'
p2283
sVmismagius
p2284
VMismagius
p2285
sVhiddenpowerbug
p2286
VHidden Power Bug
p2287
sVinfiltrator
p2288
VInfiltrator
p2289
sVpsychup
p2290
VPsych Up
p2291
sVtangrowth
p2292
VTangrowth
p2293
sVfiregem
p2294
VFire Gem
p2295
sVshellder
p2296
VShellder
p2297
sVwithdraw
p2298
VWithdraw
p2299
sVpainsplit
p2300
VPain Split
p2301
sVstoneedge
p2302
VStone Edge
p2303
sVhowl
p2304
VHowl
p2305
sVwaterpledge
p2306
VWater Pledge
p2307
sVspearow
p2308
VSpearow
p2309
sVrockwrecker
p2310
VRock Wrecker
p2311
sVsteelgem
p2312
VSteel Gem
p2313
sVcamouflage
p2314
VCamouflage
p2315
sVspinda
p2316
VSpinda
p2317
sVcloyster
p2318
VCloyster
p2319
sVmetapod
p2320
VMetapod
p2321
sVairslash
p2322
VAir Slash
p2323
sVmagiccoat
p2324
VMagic Coat
p2325
sVacrobatics
p2326
VAcrobatics
p2327
sVspheal
p2328
VSpheal
p2329
sVchoicespecs
p2330
VChoice Specs
p2331
sVrebound
p2332
VRebound
p2333
sVsolarbeam
p2334
VSolarBeam
p2335
sVlusterpurge
p2336
VLuster Purge
p2337
sVtorterra
p2338
VTorterra
p2339
sVmoody
p2340
VMoody
p2341
sVgothitelle
p2342
VGothitelle
p2343
sVskilllink
p2344
VSkill Link
p2345
sVursaring
p2346
VUrsaring
p2347
sVpaleowave
p2348
VPaleo Wave
p2349
sVsubmission
p2350
VSubmission
p2351
sVstaravia
p2352
VStaravia
p2353
sVtailglow
p2354
VTail Glow
p2355
sVuproar
p2356
VUproar
p2357
sVtechnoblast
p2358
VTechno Blast
p2359
sVbaltoy
p2360
VBaltoy
p2361
sVflamewheel
p2362
VFlame Wheel
p2363
sVsketch
p2364
VSketch
p2365
sVchimchar
p2366
VChimchar
p2367
sVbounce
p2368
VBounce
p2369
sVgigaimpact
p2370
VGiga Impact
p2371
sVsewaddle
p2372
VSewaddle
p2373
sVscald
p2374
VScald
p2375
sVominouswind
p2376
VOminous Wind
p2377
sVdeepseascale
p2378
VDeepSeaScale
p2379
sVmareep
p2380
VMareep
p2381
sVhuntail
p2382
VHuntail
p2383
sVswordsdance
p2384
VSwords Dance
p2385
sVearlybird
p2386
VEarly Bird
p2387
sVslash
p2388
VSlash
p2389
sVhiddenpowergrass
p2390
VHidden Power Grass
p2391
sVmimejr
p2392
VMime Jr.
p2393
sS'arceusrock'
p2394
S'Arceus-Rock'
p2395
sVodorsleuth
p2396
VOdor Sleuth
p2397
sVfocussash
p2398
VFocus Sash
p2399
sVjellicent
p2400
VJellicent
p2401
sVspelonberry
p2402
VSpelon Berry
p2403
sVelectrike
p2404
VElectrike
p2405
sViapapaberry
p2406
VIapapa Berry
p2407
sVmudkip
p2408
VMudkip
p2409
sVbouffalant
p2410
VBouffalant
p2411
sVshinx
p2412
VShinx
p2413
sVblock
p2414
VBlock
p2415
sVsharpedo
p2416
VSharpedo
p2417
sVarmthrust
p2418
VArm Thrust
p2419
sVchargebeam
p2420
VCharge Beam
p2421
sVshellos
p2422
VShellos
p2423
sVnidoking
p2424
VNidoking
p2425
sVhabanberry
p2426
VHaban Berry
p2427
sVstench
p2428
VStench
p2429
sVtoxicroak
p2430
VToxicroak
p2431
sVcacnea
p2432
VCacnea
p2433
sVsnorunt
p2434
VSnorunt
p2435
sS'relaxed'
p2436
S'Relaxed'
p2437
sVdragongem
p2438
VDragon Gem
p2439
sVpsychocut
p2440
VPsycho Cut
p2441
sVtranquill
p2442
VTranquill
p2443
sVragepowder
p2444
VRage Powder
p2445
sVbuizel
p2446
VBuizel
p2447
sVsharpen
p2448
VSharpen
p2449
sVprobopass
p2450
VProbopass
p2451
sVshuppet
p2452
VShuppet
p2453
sVspacialrend
p2454
VSpacial Rend
p2455
sVforesight
p2456
VForesight
p2457
sVgrowth
p2458
VGrowth
p2459
sVpechaberry
p2460
VPecha Berry
p2461
sVbide
p2462
VBide
p2463
sVmiracleseed
p2464
VMiracle Seed
p2465
sVtakedown
p2466
VTake Down
p2467
sVrockhead
p2468
VRock Head
p2469
sVstickybarb
p2470
VSticky Barb
p2471
sVganlonberry
p2472
VGanlon Berry
p2473
sVbulbasaur
p2474
VBulbasaur
p2475
sVheatwave
p2476
VHeat Wave
p2477
sVaudino
p2478
VAudino
p2479
sVdrifloon
p2480
VDrifloon
p2481
sVsnowcloak
p2482
VSnow Cloak
p2483
sVrazorshell
p2484
VRazor Shell
p2485
sVmetagross
p2486
VMetagross
p2487
sVlickilicky
p2488
VLickilicky
p2489
sVzigzagoon
p2490
VZigzagoon
p2491
sVcinccino
p2492
VCinccino
p2493
sVscratch
p2494
VScratch
p2495
sVcharmeleon
p2496
VCharmeleon
p2497
sVsandtomb
p2498
VSand Tomb
p2499
sVcharmander
p2500
VCharmander
p2501
sVspeedboost
p2502
VSpeed Boost
p2503
sVwakeupslap
p2504
VWake-Up Slap
p2505
sVpsychicgem
p2506
VPsychic Gem
p2507
sVrivalry
p2508
VRivalry
p2509
sVperishsong
p2510
VPerish Song
p2511
sVcutecharm
p2512
VCute Charm
p2513
sVblaze
p2514
VBlaze
p2515
sVsniper
p2516
VSniper
p2517
sVtriplekick
p2518
VTriple Kick
p2519
sVdarumaka
p2520
VDarumaka
p2521
sVnightslash
p2522
VNight Slash
p2523
sVwobbuffet
p2524
VWobbuffet
p2525
sVteddiursa
p2526
VTeddiursa
p2527
sVthundershock
p2528
VThunderShock
p2529
sVazurill
p2530
VAzurill
p2531
sVbastiodon
p2532
VBastiodon
p2533
sVqwilfish
p2534
VQwilfish
p2535
sVhyperbeam
p2536
VHyper Beam
p2537
sVdynamicpunch
p2538
VDynamicPunch
p2539
sVmagnemite
p2540
VMagnemite
p2541
sVirondefense
p2542
VIron Defense
p2543
sVmisdreavus
p2544
VMisdreavus
p2545
sVfidgit
p2546
VFidgit
p2547
sVdousedrive
p2548
VDouse Drive
p2549
sVcrushclaw
p2550
VCrush Claw
p2551
sVsoftboiled
p2552
VSoftboiled
p2553
sVpoisongem
p2554
VPoison Gem
p2555
sVdownload
p2556
VDownload
p2557
sVacid
p2558
VAcid
p2559
sVvigoroth
p2560
VVigoroth
p2561
sVlombre
p2562
VLombre
p2563
sVdelcatty
p2564
VDelcatty
p2565
sVworryseed
p2566
VWorry Seed
p2567
sVtriattack
p2568
VTri Attack
p2569
sVtyranitar
p2570
VTyranitar
p2571
sVturtwig
p2572
VTurtwig
p2573
sVmagmastorm
p2574
VMagma Storm
p2575
sVpansear
p2576
VPansear
p2577
sVdeerling
p2578
VDeerling
p2579
sVswinub
p2580
VSwinub
p2581
sVabomasnow
p2582
VAbomasnow
p2583
sVsing
p2584
VSing
p2585
sVcastform
p2586
VCastform
p2587
sVincinerate
p2588
VIncinerate
p2589
sVrampardos
p2590
VRampardos
p2591
sVscreech
p2592
VScreech
p2593
sVtentacruel
p2594
VTentacruel
p2595
sVnaturalcure
p2596
VNatural Cure
p2597
sVblizzard
p2598
VBlizzard
p2599
sVteeterdance
p2600
VTeeter Dance
p2601
sVfoongus
p2602
VFoongus
p2603
sVaquaring
p2604
VAqua Ring
p2605
sS'hardy'
p2606
S'Hardy'
p2607
sS'arceusground'
p2608
S'Arceus-Ground'
p2609
sVkingdra
p2610
VKingdra
p2611
sVeevee
p2612
VEevee
p2613
sVheatran
p2614
VHeatran
p2615
sVwatchog
p2616
VWatchog
p2617
sVpoliwrath
p2618
VPoliwrath
p2619
sVcharcoal
p2620
VCharcoal
p2621
sVcranidos
p2622
VCranidos
p2623
sVabsol
p2624
VAbsol
p2625
sVplusle
p2626
VPlusle
p2627
sVharvest
p2628
VHarvest
p2629
sVwatersport
p2630
VWater Sport
p2631
sVicicleplate
p2632
VIcicle Plate
p2633
sVfuturesight
p2634
VFuture Sight
p2635
sVlustrousorb
p2636
VLustrous Orb
p2637
sVarchen
p2638
VArchen
p2639
sVexeggcute
p2640
VExeggcute
p2641
sVlucario
p2642
VLucario
p2643
sVthundurus
p2644
VThundurus
p2645
sVdonphan
p2646
VDonphan
p2647
sVterrakion
p2648
VTerrakion
p2649
sVblacksludge
p2650
VBlack Sludge
p2651
sVrelicsong
p2652
VRelic Song
p2653
sVgastrodon
p2654
VGastrodon
p2655
sVbronzong
p2656
VBronzong
p2657
sVweavile
p2658
VWeavile
p2659
sVdewott
p2660
VDewott
p2661
sVchandelure
p2662
VChandelure
p2663
sVhaxorus
p2664
VHaxorus
p2665
sVsecretsword
p2666
VSecret Sword
p2667
sVowntempo
p2668
VOwn Tempo
p2669
sVhiddenpower
p2670
VHidden Power
p2671
sVrazorleaf
p2672
VRazor Leaf
p2673
sVpowerswap
p2674
VPower Swap
p2675
sVgrasswhistle
p2676
VGrassWhistle
p2677
sVroserade
p2678
VRoserade
p2679
sVpidgey
p2680
VPidgey
p2681
sVgenesect
p2682
VGenesect
p2683
sVlotad
p2684
VLotad
p2685
sVbind
p2686
VBind
p2687
sVcounter
p2688
VCounter
p2689
sVfullincense
p2690
VFull Incense
p2691
sVweepinbell
p2692
VWeepinbell
p2693
sVaquajet
p2694
VAqua Jet
p2695
sVkrabby
p2696
VKrabby
p2697
sVumbreon
p2698
VUmbreon
p2699
sVheatproof
p2700
VHeatproof
p2701
sVguardswap
p2702
VGuard Swap
p2703
sVkadabra
p2704
VKadabra
p2705
sVpurepower
p2706
VPure Power
p2707
sVironball
p2708
VIron Ball
p2709
sVdreameater
p2710
VDream Eater
p2711
sVhelpinghand
p2712
VHelping Hand
p2713
sVmunchlax
p2714
VMunchlax
p2715
sVzenheadbutt
p2716
VZen Headbutt
p2717
sVsuperluck
p2718
VSuper Luck
p2719
sVberryjuice
p2720
VBerry Juice
p2721
sVhiddenpowerflying
p2722
VHidden Power Flying
p2723
sVsandforce
p2724
VSand Force
p2725
sVflail
p2726
VFlail
p2727
sVkabutops
p2728
VKabutops
p2729
sVhoothoot
p2730
VHoothoot
p2731
sVchinchou
p2732
VChinchou
p2733
sVmagnitude
p2734
VMagnitude
p2735
sS'arceusfighting'
p2736
S'Arceus-Fighting'
p2737
sVrapidspin
p2738
VRapid Spin
p2739
sVskullbash
p2740
VSkull Bash
p2741
sVdratini
p2742
VDratini
p2743
sVmaractus
p2744
VMaractus
p2745
sVilluminate
p2746
VIlluminate
p2747
sVmagnetpull
p2748
VMagnet Pull
p2749
sVtepig
p2750
VTepig
p2751
sVkelpsyberry
p2752
VKelpsy Berry
p2753
sVstatic
p2754
VStatic
p2755
sVflameplate
p2756
VFlame Plate
p2757
sVicefang
p2758
VIce Fang
p2759
sVninjask
p2760
VNinjask
p2761
sVjoltik
p2762
VJoltik
p2763
sVrollingkick
p2764
VRolling Kick
p2765
sVweatherball
p2766
VWeather Ball
p2767
sVmanectric
p2768
VManectric
p2769
sVnaturepower
p2770
VNature Power
p2771
sVregisteel
p2772
VRegisteel
p2773
sVsmog
p2774
VSmog
p2775
sVleafguard
p2776
VLeaf Guard
p2777
sVicywind
p2778
VIcy Wind
p2779
sVemolga
p2780
VEmolga
p2781
sVconkeldurr
p2782
VConkeldurr
p2783
sVhippowdon
p2784
VHippowdon
p2785
sVenigmaberry
p2786
VEnigma Berry
p2787
sVvenomoth
p2788
VVenomoth
p2789
sVcobalion
p2790
VCobalion
p2791
sVsudowoodo
p2792
VSudowoodo
p2793
sVlarvitar
p2794
VLarvitar
p2795
sVheadbutt
p2796
VHeadbutt
p2797
sVbodyslam
p2798
VBody Slam
p2799
sVexpertbelt
p2800
VExpert Belt
p2801
sVbugbuzz
p2802
VBug Buzz
p2803
sVfirefang
p2804
VFire Fang
p2805
sVmindplate
p2806
VMind Plate
p2807
sVmistball
p2808
VMist Ball
p2809
sVhijumpkick
p2810
VHi Jump Kick
p2811
sVjumpkick
p2812
VJump Kick
p2813
sVwaterspout
p2814
VWater Spout
p2815
sVloudred
p2816
VLoudred
p2817
sVearthpower
p2818
VEarth Power
p2819
sVmegakick
p2820
VMega Kick
p2821
sS'rotomfrost'
p2822
S'Rotom-Frost'
p2823
sVsolidrock
p2824
VSolid Rock
p2825
sVrabutaberry
p2826
VRabuta Berry
p2827
sVagility
p2828
VAgility
p2829
sVelectabuzz
p2830
VElectabuzz
p2831
sVcrobat
p2832
VCrobat
p2833
sVrockblast
p2834
VRock Blast
p2835
sVfeint
p2836
VFeint
p2837
sVsoftsand
p2838
VSoft Sand
p2839
sVsigilyph
p2840
VSigilyph
p2841
sVdeepseatooth
p2842
VDeepSeaTooth
p2843
sVtorkoal
p2844
VTorkoal
p2845
sVwurmple
p2846
VWurmple
p2847
sVtimburr
p2848
VTimburr
p2849
sVpoisonfang
p2850
VPoison Fang
p2851
sVinsectplate
p2852
VInsect Plate
p2853
sVtorrent
p2854
VTorrent
p2855
sVencore
p2856
VEncore
p2857
sVtrapinch
p2858
VTrapinch
p2859
sVbonerush
p2860
VBone Rush
p2861
sS'gentle'
p2862
S'Gentle'
p2863
sVtorment
p2864
VTorment
p2865
sVriolu
p2866
VRiolu
p2867
sS'arceusflying'
p2868
S'Arceus-Flying'
p2869
sVzebstrika
p2870
VZebstrika
p2871
sVwhitesmoke
p2872
VWhite Smoke
p2873
sVsoak
p2874
VSoak
p2875
sVfusionbolt
p2876
VFusion Bolt
p2877
sVflareon
p2878
VFlareon
p2879
sVcalmmind
p2880
VCalm Mind
p2881
sVgravity
p2882
VGravity
p2883
sVcarnivine
p2884
VCarnivine
p2885
sVgrassgem
p2886
VGrass Gem
p2887
sVrotom
p2888
VRotom
p2889
sVnuzleaf
p2890
VNuzleaf
p2891
sVwidelens
p2892
VWide Lens
p2893
sVshadowball
p2894
VShadow Ball
p2895
sVdrifblim
p2896
VDrifblim
p2897
sVmewtwo
p2898
VMewtwo
p2899
sVrollout
p2900
VRollout
p2901
sVdracometeor
p2902
VDraco Meteor
p2903
sVsludgewave
p2904
VSludge Wave
p2905
sVsceptile
p2906
VSceptile
p2907
sVporygon
p2908
VPorygon
p2909
sVshedskin
p2910
VShed Skin
p2911
sS'impish'
p2912
S'Impish'
p2913
sVbubblebeam
p2914
VBubbleBeam
p2915
sVbrine
p2916
VBrine
p2917
sVzweilous
p2918
VZweilous
p2919
sVsleeppowder
p2920
VSleep Powder
p2921
sVoldamber
p2922
VOld Amber
p2923
sVdurant
p2924
VDurant
p2925
sVsimplebeam
p2926
VSimple Beam
p2927
sVdragonite
p2928
VDragonite
p2929
sS'rash'
p2930
S'Rash'
p2931
sVpiplup
p2932
VPiplup
p2933
sVflashfire
p2934
VFlash Fire
p2935
sVdeino
p2936
VDeino
p2937
sVcamerupt
p2938
VCamerupt
p2939
sVluckypunch
p2940
VLucky Punch
p2941
sVrarebone
p2942
VRare Bone
p2943
sVsolosis
p2944
VSolosis
p2945
sVbellydrum
p2946
VBelly Drum
p2947
sS'sassy'
p2948
S'Sassy'
p2949
sS'deoxysattack'
p2950
S'Deoxys-Attack'
p2951
sVcroagunk
p2952
VCroagunk
p2953
sVbravebird
p2954
VBrave Bird
p2955
sVgust
p2956
VGust
p2957
sVmagicguard
p2958
VMagic Guard
p2959
sVsandattack
p2960
VSand-Attack
p2961
sVkingler
p2962
VKingler
p2963
sVhugepower
p2964
VHuge Power
p2965
sVmudbomb
p2966
VMud Bomb
p2967
sVember
p2968
VEmber
p2969
sVmotordrive
p2970
VMotor Drive
p2971
sVvictini
p2972
VVictini
p2973
sVfinneon
p2974
VFinneon
p2975
sVtwineedle
p2976
VTwineedle
p2977
sVchestoberry
p2978
VChesto Berry
p2979
sVgrumpig
p2980
VGrumpig
p2981
sVnightmare
p2982
VNightmare
p2983
sVgyarados
p2984
VGyarados
p2985
sVvaporeon
p2986
VVaporeon
p2987
sVthunderwave
p2988
VThunder Wave
p2989
sVrockincense
p2990
VRock Incense
p2991
sVfroslass
p2992
VFroslass
p2993
sVconfusion
p2994
VConfusion
p2995
sVaron
p2996
VAron
p2997
sVconversion2
p2998
VConversion 2
p2999
sVwhiscash
p3000
VWhiscash
p3001
sVzoroark
p3002
VZoroark
p3003
sVshellsmash
p3004
VShell Smash
p3005
sVhydropump
p3006
VHydro Pump
p3007
sVswift
p3008
VSwift
p3009
sVmemento
p3010
VMemento
p3011
sVmetang
p3012
VMetang
p3013
sVbaddreams
p3014
VBad Dreams
p3015
sVaerodactyl
p3016
VAerodactyl
p3017
sVpoisonheal
p3018
VPoison Heal
p3019
sVklang
p3020
VKlang
p3021
sVswallow
p3022
VSwallow
p3023
sVnumel
p3024
VNumel
p3025
sVwoodhammer
p3026
VWood Hammer
p3027
sVhiddenpowerwater
p3028
VHidden Power Water
p3029
sVgible
p3030
VGible
p3031
sVovercoat
p3032
VOvercoat
p3033
sVekans
p3034
VEkans
p3035
sVgrepaberry
p3036
VGrepa Berry
p3037
sVwailord
p3038
VWailord
p3039
sVswoobat
p3040
VSwoobat
p3041
sVbindingband
p3042
VBinding Band
p3043
sVkeldeo
p3044
VKeldeo
p3045
sVtomohawk
p3046
VTomohawk
p3047
sVivysaur
p3048
VIvysaur
p3049
sVhorndrill
p3050
VHorn Drill
p3051
sVcoverfossil
p3052
VCover Fossil
p3053
sVgraveler
p3054
VGraveler
p3055
sVprotect
p3056
VProtect
p3057
sVraindance
p3058
VRain Dance
p3059
sVpresent
p3060
VPresent
p3061
sVgrovyle
p3062
VGrovyle
p3063
sVintimidate
p3064
VIntimidate
p3065
sVfaintattack
p3066
VFaint Attack
p3067
sVharden
p3068
VHarden
p3069
sVbeheeyem
p3070
VBeheeyem
p3071
sVwhirlpool
p3072
VWhirlpool
p3073
sVpelipper
p3074
VPelipper
p3075
sVthickfat
p3076
VThick Fat
p3077
sVcarracosta
p3078
VCarracosta
p3079
sVluxio
p3080
VLuxio
p3081
sVvullaby
p3082
VVullaby
p3083
sVhiddenpowerghost
p3084
VHidden Power Ghost
p3085
sVlightball
p3086
VLight Ball
p3087
sVwaterveil
p3088
VWater Veil
p3089
sVspelltag
p3090
VSpell Tag
p3091
sS'deoxysdefense'
p3092
S'Deoxys-Defense'
p3093
sVzekrom
p3094
VZekrom
p3095
sVfling
p3096
VFling
p3097
sVdefiant
p3098
VDefiant
p3099
sVhardstone
p3100
VHard Stone
p3101
sVkebiaberry
p3102
VKebia Berry
p3103
sVcascoon
p3104
VCascoon
p3105
sVmagcargo
p3106
VMagcargo
p3107
sVinsomnia
p3108
VInsomnia
p3109
sVraindish
p3110
VRain Dish
p3111
sVseaking
p3112
VSeaking
p3113
sVjudgment
p3114
VJudgment
p3115
sVbibarel
p3116
VBibarel
p3117
sVpsybeam
p3118
VPsybeam
p3119
sVaspearberry
p3120
VAspear Berry
p3121
sVeelektross
p3122
VEelektross
p3123
sVpickpocket
p3124
VPickpocket
p3125
sVsitrusberry
p3126
VSitrus Berry
p3127
sS'arceuspsychic'
p3128
S'Arceus-Psychic'
p3129
sVbeautifly
p3130
VBeautifly
p3131
sVvenoshock
p3132
VVenoshock
p3133
sVmudsport
p3134
VMud Sport
p3135
sVazelf
p3136
VAzelf
p3137
sVyanmega
p3138
VYanmega
p3139
sVkarrablast
p3140
VKarrablast
p3141
sVpinsir
p3142
VPinsir
p3143
sVkoffing
p3144
VKoffing
p3145
sVguts
p3146
VGuts
p3147
sVtauros
p3148
VTauros
p3149
sVfearow
p3150
VFearow
p3151
sVfaketears
p3152
VFake Tears
p3153
sVsimple
p3154
VSimple
p3155
sVraikou
p3156
VRaikou
p3157
sVswellow
p3158
VSwellow
p3159
sVleechlife
p3160
VLeech Life
p3161
sVkingsrock
p3162
VKing's Rock
p3163
sVblukberry
p3164
VBluk Berry
p3165
sVarenatrap
p3166
VArena Trap
p3167
sVleechseed
p3168
VLeech Seed
p3169
sVselfdestruct
p3170
VSelfdestruct
p3171
sVgoldeen
p3172
VGoldeen
p3173
sVducklett
p3174
VDucklett
p3175
sVlatios
p3176
VLatios
p3177
sVfrisk
p3178
VFrisk
p3179
sVbudew
p3180
VBudew
p3181
sVlilligant
p3182
VLilligant
p3183
sVphanpy
p3184
VPhanpy
p3185
sVreckless
p3186
VReckless
p3187
sVimprison
p3188
VImprison
p3189
sVglare
p3190
VGlare
p3191
sVthief
p3192
VThief
p3193
sVhail
p3194
VHail
p3195
sVcofagrigus
p3196
VCofagrigus
p3197
sVwepearberry
p3198
VWepear Berry
p3199
sVskarmory
p3200
VSkarmory
p3201
sVoblivious
p3202
VOblivious
p3203
sVdragonclaw
p3204
VDragon Claw
p3205
sVdrizzle
p3206
VDrizzle
p3207
sVstaraptor
p3208
VStaraptor
p3209
sVmagicalleaf
p3210
VMagical Leaf
p3211
sVforcepalm
p3212
VForce Palm
p3213
sVhurricane
p3214
VHurricane
p3215
sVlileep
p3216
VLileep
p3217
sVpiloswine
p3218
VPiloswine
p3219
sVcopycat
p3220
VCopycat
p3221
sVhappiny
p3222
VHappiny
p3223
sVpressure
p3224
VPressure
p3225
sVsilkscarf
p3226
VSilk Scarf
p3227
sVpidgeotto
p3228
VPidgeotto
p3229
sVdreadplate
p3230
VDread Plate
p3231
sVfurret
p3232
VFurret
p3233
sVpsystrike
p3234
VPsystrike
p3235
sVmeteormash
p3236
VMeteor Mash
p3237
sVshucaberry
p3238
VShuca Berry
p3239
sVsweetkiss
p3240
VSweet Kiss
p3241
sVacidarmor
p3242
VAcid Armor
p3243
sVlightclay
p3244
VLight Clay
p3245
sVvoodoom
p3246
VVoodoom
p3247
sVburmy
p3248
VBurmy
p3249
sVmagostberry
p3250
VMagost Berry
p3251
sVspitup
p3252
VSpit Up
p3253
sVrockthrow
p3254
VRock Throw
p3255
sVfrustration
p3256
VFrustration
p3257
sVambipom
p3258
VAmbipom
p3259
sVfollowme
p3260
VFollow Me
p3261
sVquickpowder
p3262
VQuick Powder
p3263
sVfrenzyplant
p3264
VFrenzy Plant
p3265
sVclearbody
p3266
VClear Body
p3267
sVmagoberry
p3268
VMago Berry
p3269
sVcroconaw
p3270
VCroconaw
p3271
sVdrowzee
p3272
VDrowzee
p3273
sVserenegrace
p3274
VSerene Grace
p3275
sVtechnician
p3276
VTechnician
p3277
sS'arceusgrass'
p3278
S'Arceus-Grass'
p3279
sVembargo
p3280
VEmbargo
p3281
sVmetronome
p3282
VMetronome
p3283
sVattackorder
p3284
VAttack Order
p3285
sVallyswitch
p3286
VAlly Switch
p3287
sVwish
p3288
VWish
p3289
sVentrainment
p3290
VEntrainment
p3291
sVtailwhip
p3292
VTail Whip
p3293
sVhoneclaws
p3294
VHone Claws
p3295
sVoranberry
p3296
VOran Berry
p3297
sVslowstart
p3298
VSlow Start
p3299
sVweakarmor
p3300
VWeak Armor
p3301
sVaurasphere
p3302
VAura Sphere
p3303
sVshelgon
p3304
VShelgon
p3305
sVrawstberry
p3306
VRawst Berry
p3307
sVvacuumwave
p3308
VVacuum Wave
p3309
sVillusion
p3310
VIllusion
p3311
sVroleplay
p3312
VRole Play
p3313
sVyacheberry
p3314
VYache Berry
p3315
sVtreecko
p3316
VTreecko
p3317
sVdragonair
p3318
VDragonair
p3319
sVbraviary
p3320
VBraviary
p3321
sVnoguard
p3322
VNo Guard
p3323
sVstarmie
p3324
VStarmie
p3325
sVpersistent
p3326
VPersistent
p3327
sVmagmar
p3328
VMagmar
p3329
sVzangoose
p3330
VZangoose
p3331
sVvcreate
p3332
VV-create
p3333
s.