(dp1
Velectivire
p2
VElectivire
p3
sVpsystrike
p4
VPsystrike
p5
sVcherrim
p6
VCherrim
p7
sVcolorchange
p8
VColor Change
p9
sVlucarionite
p10
VLucarionite
p11
sVpalkia
p12
VPalkia
p13
sVchatter
p14
VChatter
p15
sValakazite
p16
VAlakazite
p17
sVtickle
p18
VTickle
p19
sVarceuselectric
p20
VArceus-Electric
p21
sVabra
p22
VAbra
p23
sVreuniclus
p24
VReuniclus
p25
sVrecycle
p26
VRecycle
p27
sVtimerball
p28
VTimer Ball
p29
sVmeditite
p30
VMeditite
p31
sVsharpbeak
p32
VSharp Beak
p33
sVmewtwonitex
p34
VMewtwonite X
p35
sVmewtwonitey
p36
VMewtwonite Y
p37
sVquickclaw
p38
VQuick Claw
p39
sVdoubleslap
p40
VDoubleSlap
p41
sVplayaround
p42
VPlay Around
p43
sVeviolite
p44
VEviolite
p45
sVprotean
p46
S'Protean'
p47
sVsquirtle
p48
VSquirtle
p49
sVdarmanitanzen
p50
VDarmanitan-Zen
p51
sVnastyplot
p52
VNasty Plot
p53
sVwormadam
p54
VWormadam
p55
sVaggronmega
p56
VAggron-Mega
p57
sVwhirlwind
p58
VWhirlwind
p59
sVplumefossil
p60
VPlume Fossil
p61
sVarceusice
p62
VArceus-Ice
p63
sVhiddenpowerelectric
p64
VHidden Power Electric
p65
sVhiddenpowerfire
p66
VHidden Power Fire
p67
sVguillotine
p68
VGuillotine
p69
sVlevitate
p70
VLevitate
p71
sVgyaradosite
p72
VGyaradosite
p73
sVpomegberry
p74
VPomeg Berry
p75
sVmasquerain
p76
VMasquerain
p77
sVthunder
p78
VThunder
p79
sVhaze
p80
VHaze
p81
sVdarkgem
p82
VDark Gem
p83
sVmiltank
p84
VMiltank
p85
sVfraxure
p86
VFraxure
p87
sVmoldbreaker
p88
VMold Breaker
p89
sVcrunch
p90
VCrunch
p91
sVrindoberry
p92
VRindo Berry
p93
sVreflecttype
p94
VReflect Type
p95
sVsnivy
p96
VSnivy
p97
sVmefirst
p98
VMe First
p99
sVmothim
p100
VMothim
p101
sVscizorite
p102
VScizorite
p103
sVmew
p104
VMew
p105
sVpursuit
p106
VPursuit
p107
sVheadsmash
p108
VHead Smash
p109
sVaftermath
p110
VAftermath
p111
sVclawitzer
p112
VClawitzer
p113
sVpixilate
p114
S'Pixilate'
p115
sVsilverpowder
p116
VSilverPowder
p117
sVlunatone
p118
VLunatone
p119
sVpunishment
p120
VPunishment
p121
sVpoisontouch
p122
VPoison Touch
p123
sVfeebas
p124
VFeebas
p125
sVneedlearm
p126
VNeedle Arm
p127
sVblastburn
p128
VBlast Burn
p129
sVhonchkrow
p130
VHonchkrow
p131
sVtirtouga
p132
VTirtouga
p133
sVampharos
p134
VAmpharos
p135
sVdusclops
p136
VDusclops
p137
sVpoisonbarb
p138
VPoison Barb
p139
sVmorningsun
p140
VMorning Sun
p141
sVfreezedry
p142
VFreeze Dry
p143
sVmandibuzz
p144
VMandibuzz
p145
sVoverheat
p146
VOverheat
p147
sVspiritomb
p148
VSpiritomb
p149
sVvoltabsorb
p150
VVolt Absorb
p151
sVpurugly
p152
VPurugly
p153
sVshiftgear
p154
VShift Gear
p155
sS'calm'
p156
S'Calm'
p157
sVcastformrainy
p158
VCastform-Rainy
p159
sVbigroot
p160
VBig Root
p161
sVcobalion
p162
VCobalion
p163
sVgardevoir
p164
VGardevoir
p165
sVsheerforce
p166
VSheer Force
p167
sVmagnetrise
p168
VMagnet Rise
p169
sS'naive'
p170
S'Naive'
p171
sVkyogre
p172
VKyogre
p173
sS'adamant'
p174
S'Adamant'
p175
sVkitsunoh
p176
VKitsunoh
p177
sVarceusbug
p178
VArceus-Bug
p179
sVnoibat
p180
VNoibat
p181
sVpidgeot
p182
VPidgeot
p183
sVtangledfeet
p184
VTangled Feet
p185
sValakazam
p186
VAlakazam
p187
sVonix
p188
VOnix
p189
sVgrimer
p190
VGrimer
p191
sVrototiller
p192
VRototiller
p193
sVlucariomega
p194
VLucario-Mega
p195
sVbugbite
p196
VBug Bite
p197
sVpoisongas
p198
VPoison Gas
p199
sVmakuhita
p200
VMakuhita
p201
sVattract
p202
VAttract
p203
sVcharizarditey
p204
VCharizardite Y
p205
sVcharizarditex
p206
VCharizardite X
p207
sVpowerwhip
p208
VPower Whip
p209
sVskydrop
p210
VSky Drop
p211
sVcrabhammer
p212
VCrabhammer
p213
sVtoxic
p214
VToxic
p215
sVcastformsunny
p216
VCastform-Sunny
p217
sVrotomheat
p218
VRotom-Heat
p219
sVsportball
p220
VSport Ball
p221
sVpoisonpowder
p222
VPoisonPowder
p223
sVredcard
p224
VRed Card
p225
sS'modest'
p226
S'Modest'
p227
sS'lax'
p228
S'Lax'
p229
sVrocktomb
p230
VRock Tomb
p231
sVcherubi
p232
VCherubi
p233
sVleafstorm
p234
VLeaf Storm
p235
sVspookyplate
p236
VSpooky Plate
p237
sS'hasty'
p238
S'Hasty'
p239
sVentei
p240
VEntei
p241
sVarceussteel
p242
VArceus-Steel
p243
sVcobaberry
p244
VCoba Berry
p245
sVlaggingtail
p246
VLagging Tail
p247
sVfinalgambit
p248
VFinal Gambit
p249
sVrapidash
p250
VRapidash
p251
sVdoubleteam
p252
VDouble Team
p253
sVlumineon
p254
VLumineon
p255
sVshielddust
p256
VShield Dust
p257
sVmagicbounce
p258
VMagic Bounce
p259
sVhiddenpowerfighting
p260
VHidden Power Fighting
p261
sVsludge
p262
VSludge
p263
sVvenusaur
p264
VVenusaur
p265
sVphione
p266
VPhione
p267
sVflameburst
p268
VFlame Burst
p269
sVzapplate
p270
VZap Plate
p271
sVmunna
p272
VMunna
p273
sVhitmonlee
p274
VHitmonlee
p275
sVdryskin
p276
VDry Skin
p277
sVkricketot
p278
VKricketot
p279
sVroost
p280
VRoost
p281
sVfurycutter
p282
VFury Cutter
p283
sVirontail
p284
VIron Tail
p285
sVpoliwhirl
p286
VPoliwhirl
p287
sVeggbomb
p288
VEgg Bomb
p289
sVluxray
p290
VLuxray
p291
sVpayback
p292
VPayback
p293
sVexcadrill
p294
VExcadrill
p295
sVgloom
p296
VGloom
p297
sVgluttony
p298
VGluttony
p299
sVvulpix
p300
VVulpix
p301
sVcradily
p302
VCradily
p303
sVthunderfang
p304
VThunder Fang
p305
sVblastoisemega
p306
VBlastoise-Mega
p307
sVespeon
p308
VEspeon
p309
sVmultitype
p310
VMultitype
p311
sVflameorb
p312
VFlame Orb
p313
sVhiddenpowerdragon
p314
VHidden Power Dragon
p315
sVfairywind
p316
VFairy Wind
p317
sVgothorita
p318
VGothorita
p319
sVomastar
p320
VOmastar
p321
sVwalrein
p322
VWalrein
p323
sVtruant
p324
VTruant
p325
sVqualotberry
p326
VQualot Berry
p327
sVflowergift
p328
VFlower Gift
p329
sVpsychic
p330
VPsychic
p331
sVkasibberry
p332
VKasib Berry
p333
sVcottonguard
p334
VCotton Guard
p335
sVtornadus
p336
VTornadus
p337
sVshedshell
p338
VShed Shell
p339
sVbarrier
p340
VBarrier
p341
sVleftovers
p342
VLeftovers
p343
sVrevenge
p344
VRevenge
p345
sVsynchronoise
p346
VSynchronoise
p347
sVbestow
p348
VBestow
p349
sVtrumpcard
p350
VTrump Card
p351
sVsweetveil
p352
VSweet Veil
p353
sVshiftry
p354
VShiftry
p355
sVhonedge
p356
VHonedge
p357
sVbeartic
p358
VBeartic
p359
sVkyuremblack
p360
VKyurem-Black
p361
sVsonicboom
p362
VSonicBoom
p363
sVfightinggem
p364
VFighting Gem
p365
sVlatias
p366
VLatias
p367
sVfilter
p368
VFilter
p369
sVcherishball
p370
VCherish Ball
p371
sVcheriberry
p372
VCheri Berry
p373
sS'naughty'
p374
S'Naughty'
p375
sVseedflare
p376
VSeed Flare
p377
sVhydrocannon
p378
VHydro Cannon
p379
sVmagneticflux
p380
VMagnetic Flux
p381
sVdeoxys
p382
VDeoxys
p383
sS'diancie'
p384
(lp385
S'Diancie'
p386
asVhooh
p387
VHo-Oh
p388
sVshieldon
p389
VShieldon
p390
sVslugma
p391
VSlugma
p392
sVheracrossmega
p393
VHeracross-Mega
p394
sVwaveincense
p395
VWave Incense
p396
sVmanectite
p397
VManectite
p398
sVaircutter
p399
VAir Cutter
p400
sVmightyena
p401
VMightyena
p402
sVgrowlithe
p403
VGrowlithe
p404
sVinferno
p405
VInferno
p406
sVtwister
p407
VTwister
p408
sVyamask
p409
VYamask
p410
sVflamethrower
p411
VFlamethrower
p412
sVtoxicorb
p413
VToxic Orb
p414
sVfairylock
p415
VFairy Lock
p416
sVrockclimb
p417
VRock Climb
p418
sVwonderroom
p419
VWonder Room
p420
sVmachoke
p421
VMachoke
p422
sVdoomdesire
p423
VDoom Desire
p424
sVmirrormove
p425
VMirror Move
p426
sVsandshrew
p427
VSandshrew
p428
sVpolitoed
p429
VPolitoed
p430
sVminun
p431
VMinun
p432
sVbelueberry
p433
VBelue Berry
p434
sVendure
p435
VEndure
p436
sVswiftswim
p437
VSwift Swim
p438
sVshellbell
p439
VShell Bell
p440
sVminus
p441
VMinus
p442
sVmeowth
p443
VMeowth
p444
sVprankster
p445
VPrankster
p446
sVsludgebomb
p447
VSludge Bomb
p448
sVpayapaberry
p449
VPayapa Berry
p450
sVclosecombat
p451
VClose Combat
p452
sVhealer
p453
VHealer
p454
sVseel
p455
VSeel
p456
sVblastoise
p457
VBlastoise
p458
sVstrength
p459
VStrength
p460
sVchingling
p461
VChingling
p462
sVgothita
p463
VGothita
p464
sVdarmanitan
p465
VDarmanitan
p466
sVcraftyshield
p467
VCrafty Shield
p468
sVgyroball
p469
VGyro Ball
p470
sVponyta
p471
VPonyta
p472
sVamoonguss
p473
VAmoonguss
p474
sVgrassyterrain
p475
VGrassy Terrain
p476
sVdeoxysspeed
p477
VDeoxys-Speed
p478
sVshadowforce
p479
VShadow Force
p480
sVcoil
p481
VCoil
p482
sVdrought
p483
VDrought
p484
sVferrothorn
p485
VFerrothorn
p486
sVcosmicpower
p487
VCosmic Power
p488
sVdunsparce
p489
VDunsparce
p490
sVconstrict
p491
VConstrict
p492
sVvileplume
p493
VVileplume
p494
sVraticate
p495
VRaticate
p496
sVslaking
p497
VSlaking
p498
sVjirachi
p499
VJirachi
p500
sVgolduck
p501
VGolduck
p502
sVarmorfossil
p503
VArmor Fossil
p504
sVstickyweb
p505
VSticky Web
p506
sVtogekiss
p507
VTogekiss
p508
sVhippopotas
p509
VHippopotas
p510
sVdialga
p511
VDialga
p512
sVlastresort
p513
VLast Resort
p514
sVbulletpunch
p515
VBullet Punch
p516
sVicegem
p517
VIce Gem
p518
sVspite
p519
VSpite
p520
sVcarbink
p521
VCarbink
p522
sVwaterpulse
p523
VWater Pulse
p524
sVstoutland
p525
VStoutland
p526
sVbidoof
p527
VBidoof
p528
sVsyclant
p529
VSyclant
p530
sVhaunter
p531
VHaunter
p532
sVweedle
p533
VWeedle
p534
sVaerilate
p535
S'Aerilate'
p536
sVhoneygather
p537
VHoney Gather
p538
sVmachop
p539
VMachop
p540
sVmetalpowder
p541
VMetal Powder
p542
sVdusknoir
p543
VDusknoir
p544
sVmeditate
p545
VMeditate
p546
sVreversal
p547
VReversal
p548
sVlunardance
p549
VLunar Dance
p550
sVpumpkaboosmall
p551
VPumpkaboo-Small
p552
sVtentacool
p553
VTentacool
p554
sVmilotic
p555
VMilotic
p556
sVwailmer
p557
VWailmer
p558
sVnosepass
p559
VNosepass
p560
sVearthplate
p561
VEarth Plate
p562
sVlaxincense
p563
VLax Incense
p564
sVmagneton
p565
VMagneton
p566
sVstickyhold
p567
VSticky Hold
p568
sVbeatup
p569
VBeat Up
p570
sVleafblade
p571
VLeaf Blade
p572
sVserperior
p573
VSerperior
p574
sVempoleon
p575
VEmpoleon
p576
sVwooper
p577
VWooper
p578
sVforretress
p579
VForretress
p580
sVmindreader
p581
VMind Reader
p582
sVseaincense
p583
VSea Incense
p584
sVsimisage
p585
VSimisage
p586
sVarcheops
p587
VArcheops
p588
sVheavymetal
p589
VHeavy Metal
p590
sVwormadamsandy
p591
VWormadam-Sandy
p592
sVmuscleband
p593
VMuscle Band
p594
sVmatblock
p595
VMat Block
p596
sVpurrloin
p597
VPurrloin
p598
sVdoduo
p599
VDoduo
p600
sVmuk
p601
VMuk
p602
sVmotordrive
p603
VMotor Drive
p604
sVstarfberry
p605
VStarf Berry
p606
sVslowpoke
p607
VSlowpoke
p608
sVfrostbreath
p609
VFrost Breath
p610
sVcubone
p611
VCubone
p612
sVcut
p613
VCut
p614
sVmeadowplate
p615
VMeadow Plate
p616
sVparasect
p617
VParasect
p618
sVgourgeistsmall
p619
VGourgeist-Small
p620
sVrhydon
p621
VRhydon
p622
sVprotect
p623
VProtect
p624
sVplaynice
p625
VPlay Nice
p626
sVsamurott
p627
VSamurott
p628
sVmawile
p629
VMawile
p630
sVchimecho
p631
VChimecho
p632
sVpetayaberry
p633
VPetaya Berry
p634
sVdoublade
p635
VDoublade
p636
sVconfide
p637
VConfide
p638
sVluckychant
p639
VLucky Chant
p640
sVleppaberry
p641
VLeppa Berry
p642
sVchlorophyll
p643
VChlorophyll
p644
sVhitmontop
p645
VHitmontop
p646
sVfierydance
p647
VFiery Dance
p648
sVfloatzel
p649
VFloatzel
p650
sVsmackdown
p651
VSmack Down
p652
sVcyclohm
p653
VCyclohm
p654
sVbuneary
p655
VBuneary
p656
sVshockdrive
p657
VShock Drive
p658
sVnightdaze
p659
VNight Daze
p660
sVfriendguard
p661
VFriend Guard
p662
sVfrisk
p663
VFrisk
p664
sVsteamroller
p665
VSteamroller
p666
sVkakuna
p667
VKakuna
p668
sVpowertrick
p669
VPower Trick
p670
sVyanma
p671
VYanma
p672
sVmagiccoat
p673
VMagic Coat
p674
sVbonerush
p675
VBone Rush
p676
sVgurdurr
p677
VGurdurr
p678
sVsoundproof
p679
VSoundproof
p680
sVthrash
p681
VThrash
p682
sVchespin
p683
VChespin
p684
sVsliggoo
p685
VSliggoo
p686
sVtotodile
p687
VTotodile
p688
sVgarchompite
p689
VGarchompite
p690
sVslowbro
p691
VSlowbro
p692
sVigglybuff
p693
VIgglybuff
p694
sVbinacle
p695
VBinacle
p696
sVnevermeltice
p697
VNeverMeltIce
p698
sVgrowl
p699
VGrowl
p700
sVaguavberry
p701
VAguav Berry
p702
sVdrilbur
p703
VDrilbur
p704
sVheracross
p705
VHeracross
p706
sVralts
p707
VRalts
p708
sVpupitar
p709
VPupitar
p710
sVslowking
p711
VSlowking
p712
sVpowerherb
p713
VPower Herb
p714
sVnoivern
p715
VNoivern
p716
sVwaterfall
p717
VWaterfall
p718
sVdewgong
p719
VDewgong
p720
sVkirlia
p721
VKirlia
p722
sVknockoff
p723
VKnock Off
p724
sVoctazooka
p725
VOctazooka
p726
sS'cawmodore'
p727
S'Cawmodore'
p728
sVsylveon
p729
VSylveon
p730
sVhighjumpkick
p731
VHigh Jump Kick
p732
sVluxuryball
p733
VLuxury Ball
p734
sVhydration
p735
VHydration
p736
sVkrokorok
p737
VKrokorok
p738
sVgolbat
p739
VGolbat
p740
sVquilladin
p741
VQuilladin
p742
sVshellarmor
p743
VShell Armor
p744
sVpoliwag
p745
VPoliwag
p746
sVmetalcoat
p747
VMetal Coat
p748
sVthickclub
p749
VThick Club
p750
sVscizor
p751
VScizor
p752
sVgoomy
p753
VGoomy
p754
sVsilcoon
p755
VSilcoon
p756
sVbuggem
p757
VBug Gem
p758
sVoshawott
p759
VOshawott
p760
sVtorterra
p761
VTorterra
p762
sVtogepi
p763
VTogepi
p764
sVdomefossil
p765
VDome Fossil
p766
sVlowkick
p767
VLow Kick
p768
sVhealbell
p769
VHeal Bell
p770
sVmirrorshot
p771
VMirror Shot
p772
sVlickitung
p773
VLickitung
p774
sVdragonrush
p775
VDragon Rush
p776
sVspinarak
p777
VSpinarak
p778
sVdiggersby
p779
VDiggersby
p780
sVsilverwind
p781
VSilver Wind
p782
sVthundurustherian
p783
VThundurus-Therian
p784
sVludicolo
p785
VLudicolo
p786
sVditto
p787
VDitto
p788
sVcirclethrow
p789
VCircle Throw
p790
sVpsychoboost
p791
VPsycho Boost
p792
sVnidoqueen
p793
VNidoqueen
p794
sVpinsirmega
p795
VPinsir-Mega
p796
sVhiddenpowerpoison
p797
VHidden Power Poison
p798
sVflatter
p799
VFlatter
p800
sVtoxicspikes
p801
VToxic Spikes
p802
sVfirepledge
p803
VFire Pledge
p804
sVnoctowl
p805
VNoctowl
p806
sVcornnberry
p807
VCornn Berry
p808
sVskullfossil
p809
VSkull Fossil
p810
sVcheekpouch
p811
S'Cheek Pouch'
p812
sVuproar
p813
VUproar
p814
sVrhyperior
p815
VRhyperior
p816
sVgeargrind
p817
VGear Grind
p818
sVcrosschop
p819
VCross Chop
p820
sVpsyshock
p821
VPsyshock
p822
sVicyrock
p823
VIcy Rock
p824
sVwynaut
p825
VWynaut
p826
sVtrevenant
p827
VTrevenant
p828
sVabsorbbulb
p829
VAbsorb Bulb
p830
sS'bold'
p831
S'Bold'
p832
sVgunkshot
p833
VGunk Shot
p834
sVgarchomp
p835
VGarchomp
p836
sVgeodude
p837
VGeodude
p838
sVlightscreen
p839
VLight Screen
p840
sVwhimsicott
p841
VWhimsicott
p842
sVlavaplume
p843
VLava Plume
p844
sVkeeneye
p845
VKeen Eye
p846
sVsimipour
p847
VSimipour
p848
sVautotomize
p849
VAutotomize
p850
sVspikecannon
p851
VSpike Cannon
p852
sVnecturna
p853
VNecturna
p854
sVplus
p855
VPlus
p856
sVsapsipper
p857
VSap Sipper
p858
sVriolu
p859
VRiolu
p860
sVhornleech
p861
VHorn Leech
p862
sVbraixen
p863
VBraixen
p864
sVdarkvoid
p865
VDark Void
p866
sVhoundour
p867
VHoundour
p868
sVdualchop
p869
VDual Chop
p870
sVfoulplay
p871
VFoul Play
p872
sVscyther
p873
VScyther
p874
sVgalewings
p875
S'Gale Wings'
p876
sVstormdrain
p877
VStorm Drain
p878
sVseadra
p879
VSeadra
p880
sVovergrow
p881
VOvergrow
p882
sVgengarmega
p883
VGengar-Mega
p884
sVshellos
p885
VShellos
p886
sVwrap
p887
VWrap
p888
sVcorsola
p889
VCorsola
p890
sVtransform
p891
VTransform
p892
sVklefki
p893
VKlefki
p894
sVrowapberry
p895
VRowap Berry
p896
sS'quirky'
p897
S'Quirky'
p898
sVquickattack
p899
VQuick Attack
p900
sVsynthesis
p901
VSynthesis
p902
sVmultiscale
p903
VMultiscale
p904
sVgroundgem
p905
VGround Gem
p906
sVreshiram
p907
VReshiram
p908
sVrocksmash
p909
VRock Smash
p910
sVvolttackle
p911
VVolt Tackle
p912
sVghostgem
p913
VGhost Gem
p914
sVroughskin
p915
VRough Skin
p916
sVsafeguard
p917
VSafeguard
p918
sVsmoothrock
p919
VSmooth Rock
p920
sVbide
p921
VBide
p922
sVaurabreak
p923
S'Aura Break'
p924
sVaurorus
p925
VAurorus
p926
sVchopleberry
p927
VChople Berry
p928
sVunnerve
p929
VUnnerve
p930
sVpaleowave
p931
VPaleo Wave
p932
sVparentalbond
p933
S'Parental Bond'
p934
sVferaligatr
p935
VFeraligatr
p936
sVoddish
p937
VOddish
p938
sVleer
p939
VLeer
p940
sVmagby
p941
VMagby
p942
sVswadloon
p943
VSwadloon
p944
sVvibrava
p945
VVibrava
p946
sVuxie
p947
VUxie
p948
sVsmoochum
p949
VSmoochum
p950
sVlansatberry
p951
VLansat Berry
p952
sVbutterfree
p953
VButterfree
p954
sVferroseed
p955
VFerroseed
p956
sVamaura
p957
VAmaura
p958
sVfennekin
p959
VFennekin
p960
sVclawfossil
p961
VClaw Fossil
p962
sVdischarge
p963
VDischarge
p964
sVpoisonpoint
p965
VPoison Point
p966
sVhiddenpowerground
p967
VHidden Power Ground
p968
sVarceuspoison
p969
VArceus-Poison
p970
sVliechiberry
p971
VLiechi Berry
p972
sVlillipup
p973
VLillipup
p974
sVflareboost
p975
VFlare Boost
p976
sVmareep
p977
VMareep
p978
sVoccaberry
p979
VOcca Berry
p980
sVironfist
p981
VIron Fist
p982
sS'serious'
p983
S'Serious'
p984
sVmegadrain
p985
VMega Drain
p986
sVsalacberry
p987
VSalac Berry
p988
sVsnubbull
p989
VSnubbull
p990
sVsandveil
p991
VSand Veil
p992
sVabsolite
p993
VAbsolite
p994
sVbonsly
p995
VBonsly
p996
sVcelebi
p997
VCelebi
p998
sVavalanche
p999
VAvalanche
p1000
sVshadowsneak
p1001
VShadow Sneak
p1002
sVsuctioncups
p1003
VSuction Cups
p1004
sVsuperpower
p1005
VSuperpower
p1006
sVanticipation
p1007
VAnticipation
p1008
sVpanpour
p1009
VPanpour
p1010
sVdragonpulse
p1011
VDragon Pulse
p1012
sVelectroball
p1013
VElectro Ball
p1014
sVflash
p1015
VFlash
p1016
sVnetball
p1017
VNet Ball
p1018
sVcharge
p1019
VCharge
p1020
sVquash
p1021
VQuash
p1022
sVsnorlax
p1023
VSnorlax
p1024
sVunburden
p1025
VUnburden
p1026
sVrufflet
p1027
VRufflet
p1028
sVmachamp
p1029
VMachamp
p1030
sVkricketune
p1031
VKricketune
p1032
sVtailslap
p1033
VTail Slap
p1034
sVjynx
p1035
VJynx
p1036
sVlopunny
p1037
VLopunny
p1038
sVtoxicplate
p1039
VToxic Plate
p1040
sVskyuppercut
p1041
VSky Uppercut
p1042
sVpoisonsting
p1043
VPoison Sting
p1044
sVarceusfire
p1045
VArceus-Fire
p1046
sVfocusblast
p1047
VFocus Blast
p1048
sVmesprit
p1049
VMesprit
p1050
sVmagnet
p1051
VMagnet
p1052
sVbanettemega
p1053
VBanette-Mega
p1054
sVround
p1055
VRound
p1056
sVunaware
p1057
VUnaware
p1058
sVduskball
p1059
VDusk Ball
p1060
sVfalseswipe
p1061
VFalse Swipe
p1062
sVtalonflame
p1063
VTalonflame
p1064
sVleafeon
p1065
VLeafeon
p1066
sVzorua
p1067
VZorua
p1068
sVzenmode
p1069
VZen Mode
p1070
sVvitalthrow
p1071
VVital Throw
p1072
sVsubstitute
p1073
VSubstitute
p1074
sVcurse
p1075
VCurse
p1076
sVfocusband
p1077
VFocus Band
p1078
sVmoltres
p1079
VMoltres
p1080
sVpasshoberry
p1081
VPassho Berry
p1082
sVdragondance
p1083
VDragon Dance
p1084
sVaxew
p1085
VAxew
p1086
sVkecleon
p1087
VKecleon
p1088
sVglameow
p1089
VGlameow
p1090
sVaeroblast
p1091
VAeroblast
p1092
sVwartortle
p1093
VWartortle
p1094
sVexplosion
p1095
VExplosion
p1096
sVmiracleeye
p1097
VMiracle Eye
p1098
sVpumpkaboo
p1099
VPumpkaboo
p1100
sVsimisear
p1101
VSimisear
p1102
sS'hoopa'
p1103
(lp1104
S'Hoopa'
p1105
asVtropius
p1106
VTropius
p1107
sVmysticwater
p1108
VMystic Water
p1109
sVearthquake
p1110
VEarthquake
p1111
sVgastroacid
p1112
VGastro Acid
p1113
sVejectbutton
p1114
VEject Button
p1115
sVexploud
p1116
VExploud
p1117
sVdiveball
p1118
VDive Ball
p1119
sVsawk
p1120
VSawk
p1121
sVodorsleuth
p1122
VOdor Sleuth
p1123
sVdedenne
p1124
VDedenne
p1125
sVdragonite
p1126
VDragonite
p1127
sVbagon
p1128
VBagon
p1129
sVregenerator
p1130
VRegenerator
p1131
sViondeluge
p1132
VIon Deluge
p1133
sVburndrive
p1134
VBurn Drive
p1135
sVmudslap
p1136
VMud-Slap
p1137
sVflaaffy
p1138
VFlaaffy
p1139
sVmagicroom
p1140
VMagic Room
p1141
sVsouldew
p1142
VSoul Dew
p1143
sVpinsirite
p1144
VPinsirite
p1145
sVheavyslam
p1146
VHeavy Slam
p1147
sVpinmissile
p1148
VPin Missile
p1149
sVcaptivate
p1150
VCaptivate
p1151
sVsharpen
p1152
VSharpen
p1153
sVswagger
p1154
VSwagger
p1155
sVxatu
p1156
VXatu
p1157
sVrockslide
p1158
VRock Slide
p1159
sVcaterpie
p1160
VCaterpie
p1161
sVhypno
p1162
VHypno
p1163
sVelectrike
p1164
VElectrike
p1165
sVfletchling
p1166
VFletchling
p1167
sVseismictoss
p1168
VSeismic Toss
p1169
sVdarumaka
p1170
VDarumaka
p1171
sVuturn
p1172
VU-turn
p1173
sVflygon
p1174
VFlygon
p1175
sVsandstorm
p1176
VSandstorm
p1177
sVswablu
p1178
VSwablu
p1179
sVspikyshield
p1180
VSpiky Shield
p1181
sVscolipede
p1182
VScolipede
p1183
sVdwebble
p1184
VDwebble
p1185
sVpignite
p1186
VPignite
p1187
sVsolarpower
p1188
VSolar Power
p1189
sVdonphan
p1190
VDonphan
p1191
sVpalpitoad
p1192
VPalpitoad
p1193
sVchilldrive
p1194
VChill Drive
p1195
sVnormalize
p1196
VNormalize
p1197
sVbanette
p1198
VBanette
p1199
sVtailwind
p1200
VTailwind
p1201
sVwideguard
p1202
VWide Guard
p1203
sVeelektrik
p1204
VEelektrik
p1205
sVarbok
p1206
VArbok
p1207
sVelectricterrain
p1208
VElectric Terrain
p1209
sVoctillery
p1210
VOctillery
p1211
sVvenonat
p1212
VVenonat
p1213
sVteleport
p1214
VTeleport
p1215
sVdive
p1216
VDive
p1217
sVmamoswine
p1218
VMamoswine
p1219
sVwiseglasses
p1220
VWise Glasses
p1221
sVmilkdrink
p1222
VMilk Drink
p1223
sVancientpower
p1224
VAncient Power
p1225
sVblissey
p1226
VBlissey
p1227
sVcryogonal
p1228
VCryogonal
p1229
sVsupersonic
p1230
VSupersonic
p1231
sVdelibird
p1232
VDelibird
p1233
sVmalamar
p1234
VMalamar
p1235
sVarceusghost
p1236
VArceus-Ghost
p1237
sVlitwick
p1238
VLitwick
p1239
sVthunderpunch
p1240
VThunder Punch
p1241
sVlugia
p1242
VLugia
p1243
sVbulletseed
p1244
VBullet Seed
p1245
sVbubblebeam
p1246
VBubbleBeam
p1247
sVpachirisu
p1248
VPachirisu
p1249
sVchilanberry
p1250
VChilan Berry
p1251
sVarcanine
p1252
VArcanine
p1253
sVsneasel
p1254
VSneasel
p1255
sVgrassknot
p1256
VGrass Knot
p1257
sVklutz
p1258
VKlutz
p1259
sVbulldoze
p1260
VBulldoze
p1261
sVfocusenergy
p1262
VFocus Energy
p1263
sVslackoff
p1264
VSlack Off
p1265
sVkabuto
p1266
VKabuto
p1267
sVmail
p1268
VMail
p1269
sVgarchompmega
p1270
VGarchomp-Mega
p1271
sS'lonely'
p1272
S'Lonely'
p1273
sVfling
p1274
VFling
p1275
sVrattled
p1276
VRattled
p1277
sS'bashful'
p1278
S'Bashful'
p1279
sVfusionflare
p1280
VFusion Flare
p1281
sVsafariball
p1282
VSafari Ball
p1283
sVeffectspore
p1284
VEffect Spore
p1285
sVboomburst
p1286
VBoomburst
p1287
sVlinoone
p1288
VLinoone
p1289
sVsynchronize
p1290
VSynchronize
p1291
sVmantine
p1292
VMantine
p1293
sVglalie
p1294
VGlalie
p1295
sVpsyduck
p1296
VPsyduck
p1297
sVrockthrow
p1298
VRock Throw
p1299
sVswalot
p1300
VSwalot
p1301
sVgenesectburn
p1302
VGenesect-Burn
p1303
sVporygonz
p1304
VPorygon-Z
p1305
sVstrugglebug
p1306
VStruggle Bug
p1307
sVpersian
p1308
VPersian
p1309
sVshaymin
p1310
VShaymin
p1311
sVpidove
p1312
VPidove
p1313
sVskillswap
p1314
VSkill Swap
p1315
sVassurance
p1316
VAssurance
p1317
sVpoochyena
p1318
VPoochyena
p1319
sVporygon2
p1320
VPorygon2
p1321
sViciclecrash
p1322
VIcicle Crash
p1323
sVsteelwing
p1324
VSteel Wing
p1325
sVdig
p1326
VDig
p1327
sVpetilil
p1328
VPetilil
p1329
sVtelepathy
p1330
VTelepathy
p1331
sVnidorino
p1332
VNidorino
p1333
sVmeloettapirouette
p1334
VMeloetta-Pirouette
p1335
sVnidorina
p1336
VNidorina
p1337
sVhypnosis
p1338
VHypnosis
p1339
sVdurinberry
p1340
VDurin Berry
p1341
sVdragonrage
p1342
VDragon Rage
p1343
sVjolteon
p1344
VJolteon
p1345
sVdefensecurl
p1346
VDefense Curl
p1347
sVchikorita
p1348
VChikorita
p1349
sVrockyhelmet
p1350
VRocky Helmet
p1351
sVjabocaberry
p1352
VJaboca Berry
p1353
sVhoppip
p1354
VHoppip
p1355
sViceshard
p1356
VIce Shard
p1357
sVgiratina
p1358
VGiratina
p1359
sVteravolt
p1360
VTeravolt
p1361
sVbite
p1362
VBite
p1363
sVduosion
p1364
VDuosion
p1365
sVaromatherapy
p1366
VAromatherapy
p1367
sVsleeptalk
p1368
VSleep Talk
p1369
sVconfuseray
p1370
VConfuse Ray
p1371
sVgliscor
p1372
VGliscor
p1373
sVseedot
p1374
VSeedot
p1375
sVsnatch
p1376
VSnatch
p1377
sVbunnelby
p1378
VBunnelby
p1379
sVdrapion
p1380
VDrapion
p1381
sVpeck
p1382
VPeck
p1383
sVwormadamtrash
p1384
VWormadam-Trash
p1385
sVmawilite
p1386
VMawilite
p1387
sVgarbodor
p1388
VGarbodor
p1389
sVtrickortreat
p1390
VTrick-or-Treat
p1391
sVvirizion
p1392
VVirizion
p1393
sVhiddenpowerrock
p1394
VHidden Power Rock
p1395
sVrazzberry
p1396
VRazz Berry
p1397
sVlick
p1398
VLick
p1399
sVslam
p1400
VSlam
p1401
sVsandstream
p1402
VSand Stream
p1403
sVledyba
p1404
VLedyba
p1405
sVaquatail
p1406
VAqua Tail
p1407
sVkrilowatt
p1408
VKrilowatt
p1409
sVrecover
p1410
VRecover
p1411
sVconversion
p1412
VConversion
p1413
sVtwineedle
p1414
VTwineedle
p1415
sVhiddenpowerdark
p1416
VHidden Power Dark
p1417
sVmetalsound
p1418
VMetal Sound
p1419
sVarghonaut
p1420
VArghonaut
p1421
sVbeedrill
p1422
VBeedrill
p1423
sVsurf
p1424
VSurf
p1425
sVgriseousorb
p1426
VGriseous Orb
p1427
sVmountaineer
p1428
VMountaineer
p1429
sVstunky
p1430
VStunky
p1431
sVtrace
p1432
VTrace
p1433
sVtynamo
p1434
VTynamo
p1435
sVdarkrai
p1436
VDarkrai
p1437
sVbarrage
p1438
VBarrage
p1439
sVbonemerang
p1440
VBonemerang
p1441
sVstunfisk
p1442
VStunfisk
p1443
sVadaptability
p1444
VAdaptability
p1445
sVespurr
p1446
VEspurr
p1447
sVleaftornado
p1448
VLeaf Tornado
p1449
sVhyperfang
p1450
VHyper Fang
p1451
sVdracoplate
p1452
VDraco Plate
p1453
sVelectirizer
p1454
VElectirizer
p1455
sVmollux
p1456
VMollux
p1457
sVmuddywater
p1458
VMuddy Water
p1459
sVcompoundeyes
p1460
VCompound Eyes
p1461
sVdelphox
p1462
VDelphox
p1463
sVtintedlens
p1464
VTinted Lens
p1465
sVgolurk
p1466
VGolurk
p1467
sVfigyberry
p1468
VFigy Berry
p1469
sVgoodra
p1470
VGoodra
p1471
sVrevenankh
p1472
VRevenankh
p1473
sVvolbeat
p1474
VVolbeat
p1475
sVlarvesta
p1476
VLarvesta
p1477
sVpartingshot
p1478
VParting Shot
p1479
sVpatrat
p1480
VPatrat
p1481
sVacupressure
p1482
VAcupressure
p1483
sVanalytic
p1484
VAnalytic
p1485
sVgrasspledge
p1486
VGrass Pledge
p1487
sVoutrage
p1488
VOutrage
p1489
sVleavanny
p1490
VLeavanny
p1491
sVkinesis
p1492
VKinesis
p1493
sVweaknesspolicy
p1494
VWeakness Policy
p1495
sVstomp
p1496
VStomp
p1497
sVboneclub
p1498
VBone Club
p1499
sVtelekinesis
p1500
VTelekinesis
p1501
sVmoxie
p1502
VMoxie
p1503
sVshuppet
p1504
VShuppet
p1505
sVparkball
p1506
VPark Ball
p1507
sVspewpa
p1508
VSpewpa
p1509
sVwonderskin
p1510
VWonder Skin
p1511
sVfakeout
p1512
VFake Out
p1513
sVimposter
p1514
VImposter
p1515
sVspore
p1516
VSpore
p1517
sVquagsire
p1518
VQuagsire
p1519
sVdetect
p1520
VDetect
p1521
sVsteadfast
p1522
VSteadfast
p1523
sVlimber
p1524
VLimber
p1525
sVbatonpass
p1526
VBaton Pass
p1527
sVforecast
p1528
VForecast
p1529
sVmysticalfire
p1530
VMystical Fire
p1531
sVsnowwarning
p1532
VSnow Warning
p1533
sVjustified
p1534
VJustified
p1535
sVdamprock
p1536
VDamp Rock
p1537
sVhariyama
p1538
VHariyama
p1539
sVcrawdaunt
p1540
VCrawdaunt
p1541
sVpluck
p1542
VPluck
p1543
sVspark
p1544
VSpark
p1545
sVroseincense
p1546
VRose Incense
p1547
sVspoink
p1548
VSpoink
p1549
sVvictreebel
p1550
VVictreebel
p1551
sVdestinyknot
p1552
VDestiny Knot
p1553
sVskiddo
p1554
VSkiddo
p1555
sVrhyhorn
p1556
VRhyhorn
p1557
sVsteelix
p1558
VSteelix
p1559
sVnestball
p1560
VNest Ball
p1561
sVkrookodile
p1562
VKrookodile
p1563
sVcellbattery
p1564
VCell Battery
p1565
sVwingattack
p1566
VWing Attack
p1567
sVnormalgem
p1568
VNormal Gem
p1569
sVhiddenpowersteel
p1570
VHidden Power Steel
p1571
sVtyranitarite
p1572
VTyranitarite
p1573
sVdodrio
p1574
VDodrio
p1575
sVstancechange
p1576
VStance Change
p1577
sVzapdos
p1578
VZapdos
p1579
sVendeavor
p1580
VEndeavor
p1581
sVechoedvoice
p1582
VEchoed Voice
p1583
sVrunaway
p1584
VRun Away
p1585
sVlandswrath
p1586
VLand's Wrath
p1587
sVmawilemega
p1588
VMawile-Mega
p1589
sVlightmetal
p1590
VLight Metal
p1591
sVstunspore
p1592
VStun Spore
p1593
sVxerneas
p1594
VXerneas
p1595
sVgigalith
p1596
VGigalith
p1597
sVspiderweb
p1598
VSpider Web
p1599
sVheatrock
p1600
VHeat Rock
p1601
sVflamebody
p1602
VFlame Body
p1603
sVhelioptile
p1604
VHelioptile
p1605
sVcresselia
p1606
VCresselia
p1607
sVomanyte
p1608
VOmanyte
p1609
sVbreloom
p1610
VBreloom
p1611
sVstormthrow
p1612
VStorm Throw
p1613
sVhealblock
p1614
VHeal Block
p1615
sVswanna
p1616
VSwanna
p1617
sVluminousmoss
p1618
VLuminous Moss
p1619
sS'careful'
p1620
S'Careful'
p1621
sVmudshot
p1622
VMud Shot
p1623
sVdefeatist
p1624
VDefeatist
p1625
sVshockwave
p1626
VShock Wave
p1627
sVlandorus
p1628
VLandorus
p1629
sVgroudon
p1630
VGroudon
p1631
sS'quiet'
p1632
S'Quiet'
p1633
sVgrasswhistle
p1634
VGrassWhistle
p1635
sVshadowclaw
p1636
VShadow Claw
p1637
sVsacredfire
p1638
VSacred Fire
p1639
sVmonferno
p1640
VMonferno
p1641
sVvicegrip
p1642
VViceGrip
p1643
sVgourgeistlarge
p1644
VGourgeist-Large
p1645
sVcubchoo
p1646
VCubchoo
p1647
sVhiddenpowerice
p1648
VHidden Power Ice
p1649
sVextremespeed
p1650
VExtreme Speed
p1651
sVangerpoint
p1652
VAnger Point
p1653
sVphantomforce
p1654
VPhantom Force
p1655
sVstrongjaw
p1656
VStrong Jaw
p1657
sVnuzzle
p1658
VNuzzle
p1659
sVthunderbolt
p1660
VThunderbolt
p1661
sVgenesectshock
p1662
VGenesect-Shock
p1663
sVmagnetbomb
p1664
VMagnet Bomb
p1665
sVassist
p1666
VAssist
p1667
sVblaziken
p1668
VBlaziken
p1669
sS'bulletproof'
p1670
S'Bulletproof'
p1671
sVgligar
p1672
VGligar
p1673
sVnightmare
p1674
VNightmare
p1675
sVpangoro
p1676
VPangoro
p1677
sVhypervoice
p1678
VHyper Voice
p1679
sVminimize
p1680
VMinimize
p1681
sVdoublehit
p1682
VDouble Hit
p1683
sVmedicham
p1684
VMedicham
p1685
sVheatmor
p1686
VHeatmor
p1687
sVrockgem
p1688
VRock Gem
p1689
sVmetalburst
p1690
VMetal Burst
p1691
sVfurcoat
p1692
S'Fur Coat'
p1693
sVhealingwish
p1694
VHealing Wish
p1695
sVquickguard
p1696
VQuick Guard
p1697
sVwingull
p1698
VWingull
p1699
sVrest
p1700
VRest
p1701
sVfurfrou
p1702
VFurfrou
p1703
sVchimchar
p1704
VChimchar
p1705
sVdarkaura
p1706
S'Dark Aura'
p1707
sVrazorclaw
p1708
VRazor Claw
p1709
sVdragonbreath
p1710
VDragon Breath
p1711
sVelgyem
p1712
VElgyem
p1713
sVduskull
p1714
VDuskull
p1715
sVcometpunch
p1716
VComet Punch
p1717
sVaerialace
p1718
VAerial Ace
p1719
sVparas
p1720
VParas
p1721
sVskitty
p1722
VSkitty
p1723
sVflareblitz
p1724
VFlare Blitz
p1725
sVtrubbish
p1726
VTrubbish
p1727
sVsnarl
p1728
VSnarl
p1729
sVmachpunch
p1730
VMach Punch
p1731
sVsunkern
p1732
VSunkern
p1733
sVcolossoil
p1734
VColossoil
p1735
sVdreamball
p1736
VDream Ball
p1737
sVsnore
p1738
VSnore
p1739
sVfloatstone
p1740
VFloat Stone
p1741
sVskiploom
p1742
VSkiploom
p1743
sVregigigas
p1744
VRegigigas
p1745
sVvoltswitch
p1746
VVolt Switch
p1747
sVarceusrock
p1748
VArceus-Rock
p1749
sVbrightpowder
p1750
VBrightPowder
p1751
sVhypercutter
p1752
VHyper Cutter
p1753
sVvanillite
p1754
VVanillite
p1755
sVchoiceband
p1756
VChoice Band
p1757
sVheartswap
p1758
VHeart Swap
p1759
sVpinapberry
p1760
VPinap Berry
p1761
sVminccino
p1762
VMinccino
p1763
sVrefresh
p1764
VRefresh
p1765
sVprinplup
p1766
VPrinplup
p1767
sVultraball
p1768
VUltra Ball
p1769
sVcrustle
p1770
VCrustle
p1771
sVpowergem
p1772
VPower Gem
p1773
sViceburn
p1774
VIce Burn
p1775
sVbattlearmor
p1776
VBattle Armor
p1777
sS'volcanion'
p1778
S'Volcanion'
p1779
sVcastformsnowy
p1780
VCastform-Snowy
p1781
sVhustle
p1782
VHustle
p1783
sVthroh
p1784
VThroh
p1785
sVmusharna
p1786
VMusharna
p1787
sVinnerfocus
p1788
VInner Focus
p1789
sVbasculinbluestriped
p1790
VBasculin-Blue-Striped
p1791
sVhornattack
p1792
VHorn Attack
p1793
sVzapcannon
p1794
VZap Cannon
p1795
sVroar
p1796
VRoar
p1797
sVlockon
p1798
VLock-On
p1799
sVfloette
p1800
VFloette
p1801
sVgengar
p1802
VGengar
p1803
sVswampert
p1804
VSwampert
p1805
sVgolem
p1806
VGolem
p1807
sVquilava
p1808
VQuilava
p1809
sVcustapberry
p1810
VCustap Berry
p1811
sVsearingshot
p1812
VSearing Shot
p1813
sVstratagem
p1814
VStratagem
p1815
sVpyroar
p1816
VPyroar
p1817
sVshadowpunch
p1818
VShadow Punch
p1819
sVfocuspunch
p1820
VFocus Punch
p1821
sVtoughclaws
p1822
VTough Claws
p1823
sVstruggle
p1824
VStruggle
p1825
sViciclespear
p1826
VIcicle Spear
p1827
sVpyroak
p1828
VPyroak
p1829
sVsacredsword
p1830
VSacred Sword
p1831
sVhex
p1832
VHex
p1833
sVmarill
p1834
VMarill
p1835
sVsymbiosis
p1836
VSymbiosis
p1837
sVwillowisp
p1838
VWill-O-Wisp
p1839
sVsandrush
p1840
VSand Rush
p1841
sVbubble
p1842
VBubble
p1843
sVsealeo
p1844
VSealeo
p1845
sVglaciate
p1846
VGlaciate
p1847
sVnightshade
p1848
VNight Shade
p1849
sVfrogadier
p1850
VFrogadier
p1851
sVporygon
p1852
VPorygon
p1853
sVstantler
p1854
VStantler
p1855
sVvitalspirit
p1856
VVital Spirit
p1857
sVsnover
p1858
VSnover
p1859
sVrage
p1860
VRage
p1861
sVvictorystar
p1862
VVictory Star
p1863
sVvinewhip
p1864
VVine Whip
p1865
sVstoneplate
p1866
VStone Plate
p1867
sVsheercold
p1868
VSheer Cold
p1869
sVsplashplate
p1870
VSplash Plate
p1871
sVpowdersnow
p1872
VPowder Snow
p1873
sVclamperl
p1874
VClamperl
p1875
sVchesnaught
p1876
VChesnaught
p1877
sVdugtrio
p1878
VDugtrio
p1879
sVsmokescreen
p1880
VSmokeScreen
p1881
sVmoonblast
p1882
VMoonblast
p1883
sVcolburberry
p1884
VColbur Berry
p1885
sVhorndrill
p1886
VHorn Drill
p1887
sVaegislash
p1888
VAegislash
p1889
sVimmunity
p1890
VImmunity
p1891
sVtangela
p1892
VTangela
p1893
sVcharizard
p1894
VCharizard
p1895
sVnincada
p1896
VNincada
p1897
sVgraveler
p1898
VGraveler
p1899
sVmirrorcoat
p1900
VMirror Coat
p1901
sVemboar
p1902
VEmboar
p1903
sVdustox
p1904
VDustox
p1905
sVrootfossil
p1906
VRoot Fossil
p1907
sVtackle
p1908
VTackle
p1909
sVrotomwash
p1910
VRotom-Wash
p1911
sVgrudge
p1912
VGrudge
p1913
sVcyndaquil
p1914
VCyndaquil
p1915
sVblueflare
p1916
VBlue Flare
p1917
sVdefog
p1918
VDefog
p1919
sVskyattack
p1920
VSky Attack
p1921
sVmoonlight
p1922
VMoonlight
p1923
sVmimic
p1924
VMimic
p1925
sVstockpile
p1926
VStockpile
p1927
sVoddincense
p1928
VOdd Incense
p1929
sVgardevoirmega
p1930
VGardevoir-Mega
p1931
sVlairon
p1932
VLairon
p1933
sVeerieimpulse
p1934
VEerie Impulse
p1935
sVscrappy
p1936
VScrappy
p1937
sVtogetic
p1938
VTogetic
p1939
sVfirepunch
p1940
VFire Punch
p1941
sVunfezant
p1942
VUnfezant
p1943
sVmicleberry
p1944
VMicle Berry
p1945
sVlightningrod
p1946
VLightningrod
p1947
sVgigadrain
p1948
VGiga Drain
p1949
sVtornadustherian
p1950
VTornadus-Therian
p1951
sVvanillish
p1952
VVanillish
p1953
sVvenomdrench
p1954
VVenom Drench
p1955
sVbayleef
p1956
VBayleef
p1957
sVhondewberry
p1958
VHondew Berry
p1959
sVtympole
p1960
VTympole
p1961
sVwigglytuff
p1962
VWigglytuff
p1963
sVtyranitarmega
p1964
VTyranitar-Mega
p1965
sVicepunch
p1966
VIce Punch
p1967
sVgalvantula
p1968
VGalvantula
p1969
sVcombusken
p1970
VCombusken
p1971
sVcloudnine
p1972
VCloud Nine
p1973
sVmienshao
p1974
VMienshao
p1975
sVkeeberry
p1976
VKee Berry
p1977
sS'mild'
p1978
S'Mild'
p1979
sVscrafty
p1980
VScrafty
p1981
sVsecretpower
p1982
VSecret Power
p1983
sVshadowtag
p1984
VShadow Tag
p1985
sVsawsbuck
p1986
VSawsbuck
p1987
sVdoublekick
p1988
VDouble Kick
p1989
sViceball
p1990
VIce Ball
p1991
sVflorges
p1992
VFlorges
p1993
sVgourgeistsuper
p1994
VGourgeist-Super
p1995
sVironbarbs
p1996
VIron Barbs
p1997
sValtaria
p1998
VAltaria
p1999
sVcrushgrip
p2000
VCrush Grip
p2001
sVseedbomb
p2002
VSeed Bomb
p2003
sVmeganium
p2004
VMeganium
p2005
sVchipaway
p2006
VChip Away
p2007
sVmetalclaw
p2008
VMetal Claw
p2009
sVfeatherdance
p2010
VFeatherDance
p2011
sVtrick
p2012
VTrick
p2013
sVironplate
p2014
VIron Plate
p2015
sVgreatball
p2016
VGreat Ball
p2017
sVfellstinger
p2018
VFell Stinger
p2019
sVaurorabeam
p2020
VAurora Beam
p2021
sVheartstamp
p2022
VHeart Stamp
p2023
sVboldore
p2024
VBoldore
p2025
sVchoicescarf
p2026
VChoice Scarf
p2027
sVdragonfang
p2028
VDragon Fang
p2029
sVgastly
p2030
VGastly
p2031
sVclearsmog
p2032
VClear Smog
p2033
sVvenusaurmega
p2034
VVenusaur-Mega
p2035
sVinfernape
p2036
VInfernape
p2037
sVweezing
p2038
VWeezing
p2039
sVaromatisse
p2040
VAromatisse
p2041
sVkyuremwhite
p2042
VKyurem-White
p2043
sVacidspray
p2044
VAcid Spray
p2045
sVarmaldo
p2046
VArmaldo
p2047
sVkyurem
p2048
VKyurem
p2049
sVwringout
p2050
VWring Out
p2051
sVstarly
p2052
VStarly
p2053
sVhawlucha
p2054
VHawlucha
p2055
sVgolett
p2056
VGolett
p2057
sVgyaradosmega
p2058
VGyarados-Mega
p2059
sVgallade
p2060
VGallade
p2061
sVledian
p2062
VLedian
p2063
sVluvdisc
p2064
VLuvdisc
p2065
sVhelixfossil
p2066
VHelix Fossil
p2067
sVsplash
p2068
VSplash
p2069
sVillumise
p2070
VIllumise
p2071
sVgirafarig
p2072
VGirafarig
p2073
sVanorith
p2074
VAnorith
p2075
sVdizzypunch
p2076
VDizzy Punch
p2077
sVflyingpress
p2078
VFlying Press
p2079
sVpumpkaboosuper
p2080
VPumpkaboo-Super
p2081
sVhorsea
p2082
VHorsea
p2083
sVstick
p2084
VStick
p2085
sVrazorfang
p2086
VRazor Fang
p2087
sVwatergem
p2088
VWater Gem
p2089
sVturboblaze
p2090
VTurboblaze
p2091
sVaegislashblade
p2092
VAegislash-Blade
p2093
sVnaturalgift
p2094
VNatural Gift
p2095
sVenergypowder
p2096
VEnergyPowder
p2097
sVchartiberry
p2098
VCharti Berry
p2099
sVlumberry
p2100
VLum Berry
p2101
sVvoltorb
p2102
VVoltorb
p2103
sVskyplate
p2104
VSky Plate
p2105
sVsableye
p2106
VSableye
p2107
sVseviper
p2108
VSeviper
p2109
sVmarvelscale
p2110
VMarvel Scale
p2111
sVaurumoth
p2112
VAurumoth
p2113
sVslakoth
p2114
VSlakoth
p2115
sVstaryu
p2116
VStaryu
p2117
sVnightslash
p2118
VNight Slash
p2119
sVwikiberry
p2120
VWiki Berry
p2121
sVextrasensory
p2122
VExtrasensory
p2123
sVdrainpunch
p2124
VDrain Punch
p2125
sVshelmet
p2126
VShelmet
p2127
sVflyinggem
p2128
VFlying Gem
p2129
sVbulkup
p2130
VBulk Up
p2131
sVglaceon
p2132
VGlaceon
p2133
sVwonderguard
p2134
VWonder Guard
p2135
sVelectricgem
p2136
VElectric Gem
p2137
sVrotomfan
p2138
VRotom-Fan
p2139
sVsignalbeam
p2140
VSignal Beam
p2141
sVshuckle
p2142
VShuckle
p2143
sVreflect
p2144
VReflect
p2145
sVdisable
p2146
VDisable
p2147
sVliquidooze
p2148
VLiquid Ooze
p2149
sVmedichammega
p2150
VMedicham-Mega
p2151
sVtwistedspoon
p2152
VTwistedSpoon
p2153
sVlanturn
p2154
VLanturn
p2155
sVparaboliccharge
p2156
VParabolic Charge
p2157
sVretaliate
p2158
VRetaliate
p2159
sVcorphish
p2160
VCorphish
p2161
sVbigpecks
p2162
VBig Pecks
p2163
sVwatmelberry
p2164
VWatmel Berry
p2165
sVoblivious
p2166
VOblivious
p2167
sVarticuno
p2168
VArticuno
p2169
sVfissure
p2170
VFissure
p2171
sVvolcarona
p2172
VVolcarona
p2173
sVblackglasses
p2174
VBlackGlasses
p2175
sVplayrough
p2176
VPlay Rough
p2177
sVhealorder
p2178
VHeal Order
p2179
sVjigglypuff
p2180
VJigglypuff
p2181
sVsandslash
p2182
VSandslash
p2183
sVastonish
p2184
VAstonish
p2185
sVenergyball
p2186
VEnergy Ball
p2187
sVaggron
p2188
VAggron
p2189
sVlampent
p2190
VLampent
p2191
sVfistplate
p2192
VFist Plate
p2193
sVreturn
p2194
VReturn
p2195
sVmanectricmega
p2196
VManectric-Mega
p2197
sVsnowball
p2198
VSnowball
p2199
sVmrmime
p2200
VMr. Mime
p2201
sVcharizardmegax
p2202
VCharizard-Mega-X
p2203
sVcharizardmegay
p2204
VCharizard-Mega-Y
p2205
sVclefable
p2206
VClefable
p2207
sVskuntank
p2208
VSkuntank
p2209
sVprimeape
p2210
VPrimeape
p2211
sVgabite
p2212
VGabite
p2213
sVmissingno
p2214
VMissingno.
p2215
sVbellsprout
p2216
VBellsprout
p2217
sVlovelykiss
p2218
VLovely Kiss
p2219
sVmeanlook
p2220
VMean Look
p2221
sVclamp
p2222
VClamp
p2223
sVtopsyturvy
p2224
VTopsy-turvy
p2225
sVquickfeet
p2226
VQuick Feet
p2227
sVwatershuriken
p2228
VWater Shuriken
p2229
sVraichu
p2230
VRaichu
p2231
sVmagnezone
p2232
VMagnezone
p2233
sVtrickroom
p2234
VTrick Room
p2235
sVstoredpower
p2236
VStored Power
p2237
sVhiddenpowerpsychic
p2238
VHidden Power Psychic
p2239
sVelectroweb
p2240
VElectroweb
p2241
sS'jolly'
p2242
S'Jolly'
p2243
sVsalamence
p2244
VSalamence
p2245
sVarceuswater
p2246
VArceus-Water
p2247
sVsuperfang
p2248
VSuper Fang
p2249
sVcombee
p2250
VCombee
p2251
sVroggenrola
p2252
VRoggenrola
p2253
sVflashcannon
p2254
VFlash Cannon
p2255
sVironhead
p2256
VIron Head
p2257
sVsentret
p2258
VSentret
p2259
sVpichuspikyeared
p2260
VPichu-Spiky-eared
p2261
sVtyrogue
p2262
VTyrogue
p2263
sVcleffa
p2264
VCleffa
p2265
sVwaterabsorb
p2266
VWater Absorb
p2267
sVtoxicboost
p2268
VToxic Boost
p2269
sVninetales
p2270
VNinetales
p2271
sVnidoranf
p2272
S'NidoranF'
p2273
sVcottonspore
p2274
VCotton Spore
p2275
sVnidoranm
p2276
S'NidoranM'
p2277
sVpineco
p2278
VPineco
p2279
sVscopelens
p2280
VScope Lens
p2281
sVhydreigon
p2282
VHydreigon
p2283
sVrockpolish
p2284
VRock Polish
p2285
sVgiratinaorigin
p2286
VGiratina-Origin
p2287
sVabomasnowmega
p2288
VAbomasnow-Mega
p2289
sVmanaphy
p2290
VManaphy
p2291
sS'brave'
p2292
S'Brave'
p2293
sVmist
p2294
VMist
p2295
sVkangaskhanmega
p2296
VKangaskhan-Mega
p2297
sVpetaldance
p2298
VPetal Dance
p2299
sVmeowstic
p2300
VMeowstic
p2301
sVboltstrike
p2302
VBolt Strike
p2303
sVswarm
p2304
VSwarm
p2305
sVairlock
p2306
VAir Lock
p2307
sVklinklang
p2308
VKlinklang
p2309
sVlandorustherian
p2310
VLandorus-Therian
p2311
sVshedinja
p2312
VShedinja
p2313
sVbabiriberry
p2314
VBabiri Berry
p2315
sVsuckerpunch
p2316
VSucker Punch
p2317
sVfreezeshock
p2318
VFreeze Shock
p2319
sVpsywave
p2320
VPsywave
p2321
sVdrillrun
p2322
VDrill Run
p2323
sVwhiteherb
p2324
VWhite Herb
p2325
sVringtarget
p2326
VRing Target
p2327
sVvenipede
p2328
VVenipede
p2329
sVdarkpulse
p2330
VDark Pulse
p2331
sVarceusdragon
p2332
VArceus-Dragon
p2333
sVstall
p2334
VStall
p2335
sVcontrary
p2336
VContrary
p2337
sVdazzlinggleam
p2338
VDazzling Gleam
p2339
sVdoubleedge
p2340
VDouble-Edge
p2341
sVremoraid
p2342
VRemoraid
p2343
sVclefairy
p2344
VClefairy
p2345
sVklink
p2346
VKlink
p2347
sVfirespin
p2348
VFire Spin
p2349
sVgenesectchill
p2350
VGenesect-Chill
p2351
sVsuicune
p2352
VSuicune
p2353
sVpamtreberry
p2354
VPamtre Berry
p2355
sVmegahorn
p2356
VMegahorn
p2357
sVsunflora
p2358
VSunflora
p2359
sVgourgeist
p2360
VGourgeist
p2361
sVbarbaracle
p2362
VBarbaracle
p2363
sVairballoon
p2364
VAir Balloon
p2365
sVswirlix
p2366
VSwirlix
p2367
sVlitleo
p2368
VLitleo
p2369
sVcamouflage
p2370
VCamouflage
p2371
sVfrillish
p2372
VFrillish
p2373
sVspheal
p2374
VSpheal
p2375
sVkangaskhan
p2376
VKangaskhan
p2377
sVregirock
p2378
VRegirock
p2379
sVpansage
p2380
VPansage
p2381
sVswitcheroo
p2382
VSwitcheroo
p2383
sValakazammega
p2384
VAlakazam-Mega
p2385
sVmasterball
p2386
VMaster Ball
p2387
sVeruption
p2388
VEruption
p2389
sVyawn
p2390
VYawn
p2391
sVcharm
p2392
VCharm
p2393
sVdiglett
p2394
VDiglett
p2395
sVbeldum
p2396
VBeldum
p2397
sVbarboach
p2398
VBarboach
p2399
sVcrosspoison
p2400
VCross Poison
p2401
sVcarvanha
p2402
VCarvanha
p2403
sVrefrigerate
p2404
S'Refrigerate'
p2405
sVlowsweep
p2406
VLow Sweep
p2407
sVsturdy
p2408
VSturdy
p2409
sVcovet
p2410
VCovet
p2411
sVgenesectdouse
p2412
VGenesect-Douse
p2413
sVkaratechop
p2414
VKarate Chop
p2415
sVworryseed
p2416
VWorry Seed
p2417
sVazumarill
p2418
VAzumarill
p2419
sVrazorwind
p2420
VRazor Wind
p2421
sVcharmeleon
p2422
VCharmeleon
p2423
sVmeloetta
p2424
VMeloetta
p2425
sVnanabberry
p2426
VNanab Berry
p2427
sVzoomlens
p2428
VZoom Lens
p2429
sVblackbelt
p2430
VBlack Belt
p2431
sVhammerarm
p2432
VHammer Arm
p2433
sVmagmaarmor
p2434
VMagma Armor
p2435
sVtriattack
p2436
VTri Attack
p2437
sVgooey
p2438
S'Gooey'
p2439
sVoblivionwing
p2440
VOblivion Wing
p2441
sVtyrantrum
p2442
VTyrantrum
p2443
sVhealpulse
p2444
VHeal Pulse
p2445
sVmagikarp
p2446
VMagikarp
p2447
sVpawniard
p2448
VPawniard
p2449
sVpoisontail
p2450
VPoison Tail
p2451
sVhitmonchan
p2452
VHitmonchan
p2453
sS'docile'
p2454
S'Docile'
p2455
sVfireblast
p2456
VFire Blast
p2457
sVshroomish
p2458
VShroomish
p2459
sVwhismur
p2460
VWhismur
p2461
sVspikes
p2462
VSpikes
p2463
sVshadowstrike
p2464
VShadowStrike
p2465
sVheatcrash
p2466
VHeat Crash
p2467
sVskorupi
p2468
VSkorupi
p2469
sVgengarite
p2470
VGengarite
p2471
sVblitzle
p2472
VBlitzle
p2473
sVtamatoberry
p2474
VTamato Berry
p2475
sVblazikenite
p2476
VBlazikenite
p2477
sVfarfetchd
p2478
VFarfetch'd
p2479
sVinkay
p2480
VInkay
p2481
sVpickup
p2482
VPickup
p2483
sVtangaberry
p2484
VTanga Berry
p2485
sVkarrablast
p2486
VKarrablast
p2487
sVmarowak
p2488
VMarowak
p2489
sVmachobrace
p2490
VMacho Brace
p2491
sVelekid
p2492
VElekid
p2493
sVmagmortar
p2494
VMagmortar
p2495
sVchansey
p2496
VChansey
p2497
sVroaroftime
p2498
VRoar of Time
p2499
sVwildcharge
p2500
VWild Charge
p2501
sVrattata
p2502
VRattata
p2503
sVhoundoommega
p2504
VHoundoom-Mega
p2505
sVclaydol
p2506
VClaydol
p2507
sVrelicanth
p2508
VRelicanth
p2509
sVtorchic
p2510
VTorchic
p2511
sVlapras
p2512
VLapras
p2513
sVmankey
p2514
VMankey
p2515
sVfuryattack
p2516
VFury Attack
p2517
sVsweetscent
p2518
VSweet Scent
p2519
sVshayminsky
p2520
VShaymin-Sky
p2521
sVwacanberry
p2522
VWacan Berry
p2523
sVsandile
p2524
VSandile
p2525
sVtyphlosion
p2526
VTyphlosion
p2527
sVariados
p2528
VAriados
p2529
sVdrillpeck
p2530
VDrill Peck
p2531
sVicebody
p2532
VIce Body
p2533
sVbronzor
p2534
VBronzor
p2535
sVfearow
p2536
VFearow
p2537
sVxscissor
p2538
VX-Scissor
p2539
sVbellossom
p2540
VBellossom
p2541
sVquiverdance
p2542
VQuiver Dance
p2543
sVblastoisinite
p2544
VBlastoisinite
p2545
sVmegapunch
p2546
VMega Punch
p2547
sVdamp
p2548
VDamp
p2549
sVmienfoo
p2550
VMienfoo
p2551
sVliepard
p2552
VLiepard
p2553
sVamnesia
p2554
VAmnesia
p2555
sVdestinybond
p2556
VDestiny Bond
p2557
sVpowersplit
p2558
VPower Split
p2559
sVdruddigon
p2560
VDruddigon
p2561
sVraikou
p2562
VRaikou
p2563
sVdragontail
p2564
VDragon Tail
p2565
sVstringshot
p2566
VString Shot
p2567
sVdragonair
p2568
VDragonair
p2569
sVwatergun
p2570
VWater Gun
p2571
sVvanilluxe
p2572
VVanilluxe
p2573
sVnomelberry
p2574
VNomel Berry
p2575
sVdrainingkiss
p2576
VDraining Kiss
p2577
sVbasculin
p2578
VBasculin
p2579
sVescavalier
p2580
VEscavalier
p2581
sVpsychoshift
p2582
VPsycho Shift
p2583
sVbisharp
p2584
VBisharp
p2585
sVhoundoom
p2586
VHoundoom
p2587
sVgulpin
p2588
VGulpin
p2589
sVpancham
p2590
VPancham
p2591
sVmantyke
p2592
VMantyke
p2593
sVpound
p2594
VPound
p2595
sVmedichamite
p2596
VMedichamite
p2597
sVrotommow
p2598
VRotom-Mow
p2599
sVdefendorder
p2600
VDefend Order
p2601
sVsurskit
p2602
VSurskit
p2603
sVmegalauncher
p2604
S'Mega Launcher'
p2605
sVicebeam
p2606
VIce Beam
p2607
sVfacade
p2608
VFacade
p2609
sVzubat
p2610
VZubat
p2611
sVmagikarpsrevenge
p2612
VMagikarp's Revenge
p2613
sVingrain
p2614
VIngrain
p2615
sVcottonee
p2616
VCottonee
p2617
sVpoisonjab
p2618
VPoison Jab
p2619
sVtaunt
p2620
VTaunt
p2621
sVgorebyss
p2622
VGorebyss
p2623
sVgrotle
p2624
VGrotle
p2625
sVpikachu
p2626
VPikachu
p2627
sVrayquaza
p2628
VRayquaza
p2629
sVfroakie
p2630
VFroakie
p2631
sVloveball
p2632
VLove Ball
p2633
sVjumpluff
p2634
VJumpluff
p2635
sS'timid'
p2636
S'Timid'
p2637
sVmismagius
p2638
VMismagius
p2639
sVhiddenpowerbug
p2640
VHidden Power Bug
p2641
sVinfiltrator
p2642
VInfiltrator
p2643
sVpsychup
p2644
VPsych Up
p2645
sVregice
p2646
VRegice
p2647
sVfiregem
p2648
VFire Gem
p2649
sVshellder
p2650
VShellder
p2651
sVwithdraw
p2652
VWithdraw
p2653
sVmoonball
p2654
VMoon Ball
p2655
sVpainsplit
p2656
VPain Split
p2657
sVstoneedge
p2658
VStone Edge
p2659
sVhowl
p2660
VHowl
p2661
sVwaterpledge
p2662
VWater Pledge
p2663
sVspearow
p2664
VSpearow
p2665
sVmagneticfield
p2666
VMagnetic Field
p2667
sVrockwrecker
p2668
VRock Wrecker
p2669
sVcompetitive
p2670
S'Competitive'
p2671
sVsteelgem
p2672
VSteel Gem
p2673
sVzygarde
p2674
VZygarde
p2675
sVsolrock
p2676
VSolrock
p2677
sVspinda
p2678
VSpinda
p2679
sVcloyster
p2680
VCloyster
p2681
sVmetapod
p2682
VMetapod
p2683
sVairslash
p2684
VAir Slash
p2685
sVchatot
p2686
VChatot
p2687
sVacrobatics
p2688
VAcrobatics
p2689
sVchoicespecs
p2690
VChoice Specs
p2691
sVrebound
p2692
VRebound
p2693
sVsolarbeam
p2694
VSolarBeam
p2695
sVlusterpurge
p2696
VLuster Purge
p2697
sVkeldeoresolute
p2698
VKeldeo-Resolute
p2699
sVmoody
p2700
VMoody
p2701
sVgothitelle
p2702
VGothitelle
p2703
sVskilllink
p2704
VSkill Link
p2705
sVursaring
p2706
VUrsaring
p2707
sVsunnyday
p2708
VSunny Day
p2709
sVsubmission
p2710
VSubmission
p2711
sVstaravia
p2712
VStaravia
p2713
sVtailglow
p2714
VTail Glow
p2715
sVstealthrock
p2716
VStealth Rock
p2717
sVtechnoblast
p2718
VTechno Blast
p2719
sVbaltoy
p2720
VBaltoy
p2721
sVflamewheel
p2722
VFlame Wheel
p2723
sVsketch
p2724
VSketch
p2725
sVwhirlipede
p2726
VWhirlipede
p2727
sVbounce
p2728
VBounce
p2729
sVampharosite
p2730
VAmpharosite
p2731
sVgigaimpact
p2732
VGiga Impact
p2733
sVsewaddle
p2734
VSewaddle
p2735
sVscald
p2736
VScald
p2737
sVominouswind
p2738
VOminous Wind
p2739
sVdeepseascale
p2740
VDeepSeaScale
p2741
sVmummy
p2742
VMummy
p2743
sVhuntail
p2744
VHuntail
p2745
sVswordsdance
p2746
VSwords Dance
p2747
sVearlybird
p2748
VEarly Bird
p2749
sVslash
p2750
VSlash
p2751
sVhiddenpowergrass
p2752
VHidden Power Grass
p2753
sVmimejr
p2754
VMime Jr.
p2755
sVseismitoad
p2756
VSeismitoad
p2757
sVscraggy
p2758
VScraggy
p2759
sVmewtwomegax
p2760
VMewtwo-Mega-X
p2761
sVmewtwomegay
p2762
VMewtwo-Mega-Y
p2763
sVfocussash
p2764
VFocus Sash
p2765
sVjellicent
p2766
VJellicent
p2767
sVspelonberry
p2768
VSpelon Berry
p2769
sVnobleroar
p2770
VNoble Roar
p2771
sVkangaskhanite
p2772
VKangaskhanite
p2773
sVblazekick
p2774
VBlaze Kick
p2775
sViapapaberry
p2776
VIapapa Berry
p2777
sVmudkip
p2778
VMudkip
p2779
sVbouffalant
p2780
VBouffalant
p2781
sVshinx
p2782
VShinx
p2783
sVmurkrow
p2784
VMurkrow
p2785
sVsharpedo
p2786
VSharpedo
p2787
sVarmthrust
p2788
VArm Thrust
p2789
sVchargebeam
p2790
VCharge Beam
p2791
sVnidoking
p2792
VNidoking
p2793
sVhabanberry
p2794
VHaban Berry
p2795
sVstench
p2796
VStench
p2797
sVtoxicroak
p2798
VToxicroak
p2799
sVunown
p2800
VUnown
p2801
sVearthpower
p2802
VEarth Power
p2803
sVsnorunt
p2804
VSnorunt
p2805
sS'relaxed'
p2806
S'Relaxed'
p2807
sVdragongem
p2808
VDragon Gem
p2809
sVpsychocut
p2810
VPsycho Cut
p2811
sVtranquill
p2812
VTranquill
p2813
sVragepowder
p2814
VRage Powder
p2815
sVbuizel
p2816
VBuizel
p2817
sVflamecharge
p2818
VFlame Charge
p2819
sVprobopass
p2820
VProbopass
p2821
sVabsolmega
p2822
VAbsol-Mega
p2823
sVspacialrend
p2824
VSpacial Rend
p2825
sVforesight
p2826
VForesight
p2827
sVgrowth
p2828
VGrowth
p2829
sVpoliwrath
p2830
VPoliwrath
p2831
sVpechaberry
p2832
VPecha Berry
p2833
sVarceusfairy
p2834
VArceus-Fairy
p2835
sVmiracleseed
p2836
VMiracle Seed
p2837
sVtakedown
p2838
VTake Down
p2839
sVrockhead
p2840
VRock Head
p2841
sVstickybarb
p2842
VSticky Barb
p2843
sVganlonberry
p2844
VGanlon Berry
p2845
sVbulbasaur
p2846
VBulbasaur
p2847
sVpichu
p2848
VPichu
p2849
sVheatwave
p2850
VHeat Wave
p2851
sVaudino
p2852
VAudino
p2853
sVdrifloon
p2854
VDrifloon
p2855
sVsnowcloak
p2856
VSnow Cloak
p2857
sVrazorshell
p2858
VRazor Shell
p2859
sVmetagross
p2860
VMetagross
p2861
sVmeowsticf
p2862
VMeowstic-F
p2863
sVlickilicky
p2864
VLickilicky
p2865
sVzigzagoon
p2866
VZigzagoon
p2867
sVcinccino
p2868
VCinccino
p2869
sVavalugg
p2870
VAvalugg
p2871
sVscratch
p2872
VScratch
p2873
sVherdier
p2874
VHerdier
p2875
sVsandtomb
p2876
VSand Tomb
p2877
sVcharmander
p2878
VCharmander
p2879
sVspeedboost
p2880
VSpeed Boost
p2881
sVwakeupslap
p2882
VWake-Up Slap
p2883
sVcursedbody
p2884
VCursed Body
p2885
sVrivalry
p2886
VRivalry
p2887
sVperishsong
p2888
VPerish Song
p2889
sVpoweruppunch
p2890
VPower-Up Punch
p2891
sVcutecharm
p2892
VCute Charm
p2893
sVblaze
p2894
VBlaze
p2895
sVsniper
p2896
VSniper
p2897
sVtriplekick
p2898
VTriple Kick
p2899
sVfly
p2900
VFly
p2901
sVguardsplit
p2902
VGuard Split
p2903
sVwobbuffet
p2904
VWobbuffet
p2905
sVteddiursa
p2906
VTeddiursa
p2907
sVthundershock
p2908
VThunder Shock
p2909
sVazurill
p2910
VAzurill
p2911
sVbastiodon
p2912
VBastiodon
p2913
sVlureball
p2914
VLure Ball
p2915
sVqwilfish
p2916
VQwilfish
p2917
sVhyperbeam
p2918
VHyper Beam
p2919
sVdynamicpunch
p2920
VDynamic Punch
p2921
sVmagnemite
p2922
VMagnemite
p2923
sVtyrunt
p2924
VTyrunt
p2925
sVirondefense
p2926
VIron Defense
p2927
sVmisdreavus
p2928
VMisdreavus
p2929
sVfidgit
p2930
VFidgit
p2931
sVdousedrive
p2932
VDouse Drive
p2933
sVcrushclaw
p2934
VCrush Claw
p2935
sVsoftboiled
p2936
VSoftboiled
p2937
sVpoisongem
p2938
VPoison Gem
p2939
sVdownload
p2940
VDownload
p2941
sVacid
p2942
VAcid
p2943
sVvigoroth
p2944
VVigoroth
p2945
sVlombre
p2946
VLombre
p2947
sVdelcatty
p2948
VDelcatty
p2949
sVhoundoominite
p2950
VHoundoominite
p2951
sVpayday
p2952
VPay Day
p2953
sVtyranitar
p2954
VTyranitar
p2955
sVturtwig
p2956
VTurtwig
p2957
sVmagmastorm
p2958
VMagma Storm
p2959
sVpansear
p2960
VPansear
p2961
sVdeerling
p2962
VDeerling
p2963
sVswinub
p2964
VSwinub
p2965
sVabomasnow
p2966
VAbomasnow
p2967
sVsing
p2968
VSing
p2969
sVcastform
p2970
VCastform
p2971
sVincinerate
p2972
VIncinerate
p2973
sVmarangaberry
p2974
VMaranga Berry
p2975
sVrampardos
p2976
VRampardos
p2977
sVscreech
p2978
VScreech
p2979
sVtentacruel
p2980
VTentacruel
p2981
sVnaturalcure
p2982
VNatural Cure
p2983
sVforestscurse
p2984
VForest's Curse
p2985
sVblizzard
p2986
VBlizzard
p2987
sVteeterdance
p2988
VTeeter Dance
p2989
sVfoongus
p2990
VFoongus
p2991
sVaquaring
p2992
VAqua Ring
p2993
sS'hardy'
p2994
S'Hardy'
p2995
sVarceusground
p2996
VArceus-Ground
p2997
sVpumpkaboolarge
p2998
VPumpkaboo-Large
p2999
sVkingdra
p3000
VKingdra
p3001
sVaerodactylite
p3002
VAerodactylite
p3003
sVbanettite
p3004
VBanettite
p3005
sVeevee
p3006
VEevee
p3007
sVheatran
p3008
VHeatran
p3009
sVwatchog
p3010
VWatchog
p3011
sVheavyball
p3012
VHeavy Ball
p3013
sVinsomnia
p3014
VInsomnia
p3015
sVcharcoal
p3016
VCharcoal
p3017
sVcranidos
p3018
VCranidos
p3019
sVabsol
p3020
VAbsol
p3021
sVplusle
p3022
VPlusle
p3023
sVaerodactylmega
p3024
VAerodactyl-Mega
p3025
sVharvest
p3026
VHarvest
p3027
sVwatersport
p3028
VWater Sport
p3029
sVicicleplate
p3030
VIcicle Plate
p3031
sVfuturesight
p3032
VFuture Sight
p3033
sVlustrousorb
p3034
VLustrous Orb
p3035
sVarchen
p3036
VArchen
p3037
sVexeggcute
p3038
VExeggcute
p3039
sVlucario
p3040
VLucario
p3041
sVthundurus
p3042
VThundurus
p3043
sVtangrowth
p3044
VTangrowth
p3045
sVvespiquen
p3046
VVespiquen
p3047
sVterrakion
p3048
VTerrakion
p3049
sVblacksludge
p3050
VBlack Sludge
p3051
sVrelicsong
p3052
VRelic Song
p3053
sVheliolisk
p3054
VHeliolisk
p3055
sVblazikenmega
p3056
VBlaziken-Mega
p3057
sVgastrodon
p3058
VGastrodon
p3059
sVbronzong
p3060
VBronzong
p3061
sVweavile
p3062
VWeavile
p3063
sVdewott
p3064
VDewott
p3065
sVchandelure
p3066
VChandelure
p3067
sVhaxorus
p3068
VHaxorus
p3069
sVsecretsword
p3070
VSecret Sword
p3071
sVowntempo
p3072
VOwn Tempo
p3073
sVhiddenpower
p3074
VHidden Power
p3075
sVrazorleaf
p3076
VRazor Leaf
p3077
sVpowerswap
p3078
VPower Swap
p3079
sVdragalge
p3080
VDragalge
p3081
sVheadcharge
p3082
VHead Charge
p3083
sVroserade
p3084
VRoserade
p3085
sVpidgey
p3086
VPidgey
p3087
sVaggronite
p3088
VAggronite
p3089
sVgenesect
p3090
VGenesect
p3091
sVlotad
p3092
VLotad
p3093
sVbind
p3094
VBind
p3095
sVcounter
p3096
VCounter
p3097
sVfullincense
p3098
VFull Incense
p3099
sVweepinbell
p3100
VWeepinbell
p3101
sVwoobat
p3102
VWoobat
p3103
sVaquajet
p3104
VAqua Jet
p3105
sVkrabby
p3106
VKrabby
p3107
sVumbreon
p3108
VUmbreon
p3109
sVheatproof
p3110
VHeatproof
p3111
sVguardswap
p3112
VGuard Swap
p3113
sVassaultvest
p3114
VAssault Vest
p3115
sVpetalblizzard
p3116
VPetal Blizzard
p3117
sVkadabra
p3118
VKadabra
p3119
sVpurepower
p3120
VPure Power
p3121
sVironball
p3122
VIron Ball
p3123
sVdreameater
p3124
VDream Eater
p3125
sVhelpinghand
p3126
VHelping Hand
p3127
sVmunchlax
p3128
VMunchlax
p3129
sVdeoxysdefense
p3130
VDeoxys-Defense
p3131
sVbelch
p3132
VBelch
p3133
sVsuperluck
p3134
VSuper Luck
p3135
sVberryjuice
p3136
VBerry Juice
p3137
sVhiddenpowerflying
p3138
VHidden Power Flying
p3139
sVflowerveil
p3140
S'Flower Veil'
p3141
sVpokeball
p3142
VPoke Ball
p3143
sVsandforce
p3144
VSand Force
p3145
sVflail
p3146
VFlail
p3147
sVkabutops
p3148
VKabutops
p3149
sVgreninja
p3150
VGreninja
p3151
sVchinchou
p3152
VChinchou
p3153
sVforewarn
p3154
VForewarn
p3155
sVmagnitude
p3156
VMagnitude
p3157
sVarceusfighting
p3158
VArceus-Fighting
p3159
sVrapidspin
p3160
VRapid Spin
p3161
sVskullbash
p3162
VSkull Bash
p3163
sVdratini
p3164
VDratini
p3165
sVafteryou
p3166
VAfter You
p3167
sVmaractus
p3168
VMaractus
p3169
sVscaryface
p3170
VScary Face
p3171
sVilluminate
p3172
VIlluminate
p3173
sVmagnetpull
p3174
VMagnet Pull
p3175
sVtepig
p3176
VTepig
p3177
sVkelpsyberry
p3178
VKelpsy Berry
p3179
sVstatic
p3180
VStatic
p3181
sVflameplate
p3182
VFlame Plate
p3183
sVicefang
p3184
VIce Fang
p3185
sVninjask
p3186
VNinjask
p3187
sVjoltik
p3188
VJoltik
p3189
sVrollingkick
p3190
VRolling Kick
p3191
sVweatherball
p3192
VWeather Ball
p3193
sVmanectric
p3194
VManectric
p3195
sVnaturepower
p3196
VNature Power
p3197
sVregisteel
p3198
VRegisteel
p3199
sVsmog
p3200
VSmog
p3201
sVbabydolleyes
p3202
VBaby-Doll Eyes
p3203
sVleafguard
p3204
VLeaf Guard
p3205
sVicywind
p3206
VIcy Wind
p3207
sVemolga
p3208
VEmolga
p3209
sVconkeldurr
p3210
VConkeldurr
p3211
sVworkup
p3212
VWork Up
p3213
sVhippowdon
p3214
VHippowdon
p3215
sVenigmaberry
p3216
VEnigma Berry
p3217
sVscatterbug
p3218
VScatterbug
p3219
sS'aromaveil'
p3220
S'Aroma Veil'
p3221
sVbergmite
p3222
VBergmite
p3223
sVsudowoodo
p3224
VSudowoodo
p3225
sVlarvitar
p3226
VLarvitar
p3227
sVheadbutt
p3228
VHeadbutt
p3229
sVbodyslam
p3230
VBody Slam
p3231
sVexpertbelt
p3232
VExpert Belt
p3233
sVbugbuzz
p3234
VBug Buzz
p3235
sVfirefang
p3236
VFire Fang
p3237
sVmindplate
p3238
VMind Plate
p3239
sVampharosmega
p3240
VAmpharos-Mega
p3241
sVmistball
p3242
VMist Ball
p3243
sVskrelp
p3244
VSkrelp
p3245
sVjumpkick
p3246
VJump Kick
p3247
sVwaterspout
p3248
VWater Spout
p3249
sVloudred
p3250
VLoudred
p3251
sVfletchinder
p3252
VFletchinder
p3253
sVpremierball
p3254
VPremier Ball
p3255
sVrotomfrost
p3256
VRotom-Frost
p3257
sVsolidrock
p3258
VSolid Rock
p3259
sVrabutaberry
p3260
VRabuta Berry
p3261
sVagility
p3262
VAgility
p3263
sVelectabuzz
p3264
VElectabuzz
p3265
sVcrobat
p3266
VCrobat
p3267
sVrockblast
p3268
VRock Blast
p3269
sVfeint
p3270
VFeint
p3271
sVsoftsand
p3272
VSoft Sand
p3273
sVsigilyph
p3274
VSigilyph
p3275
sVdeepseatooth
p3276
VDeepSeaTooth
p3277
sVtorkoal
p3278
VTorkoal
p3279
sVwurmple
p3280
VWurmple
p3281
sVtimburr
p3282
VTimburr
p3283
sVfastball
p3284
VFast Ball
p3285
sVpoisonfang
p3286
VPoison Fang
p3287
sVinsectplate
p3288
VInsect Plate
p3289
sVtorrent
p3290
VTorrent
p3291
sVencore
p3292
VEncore
p3293
sVquickball
p3294
VQuick Ball
p3295
sVtrapinch
p3296
VTrapinch
p3297
sVmarshtomp
p3298
VMarshtomp
p3299
sS'gentle'
p3300
S'Gentle'
p3301
sVtorment
p3302
VTorment
p3303
sVarceusflying
p3304
VArceus-Flying
p3305
sVzebstrika
p3306
VZebstrika
p3307
sVwhitesmoke
p3308
VWhite Smoke
p3309
sVlevelball
p3310
VLevel Ball
p3311
sVsoak
p3312
VSoak
p3313
sVfusionbolt
p3314
VFusion Bolt
p3315
sVflareon
p3316
VFlareon
p3317
sVcalmmind
p3318
VCalm Mind
p3319
sVaipom
p3320
VAipom
p3321
sVgravity
p3322
VGravity
p3323
sVcarnivine
p3324
VCarnivine
p3325
sVmistyterrain
p3326
VMisty Terrain
p3327
sVrotom
p3328
VRotom
p3329
sVnuzleaf
p3330
VNuzleaf
p3331
sVwidelens
p3332
VWide Lens
p3333
sVshadowball
p3334
VShadow Ball
p3335
sVdrifblim
p3336
VDrifblim
p3337
sVmewtwo
p3338
VMewtwo
p3339
sVrollout
p3340
VRollout
p3341
sVslurpuff
p3342
VSlurpuff
p3343
sVgrassgem
p3344
VGrass Gem
p3345
sVdracometeor
p3346
VDraco Meteor
p3347
sVsludgewave
p3348
VSludge Wave
p3349
sVsceptile
p3350
VSceptile
p3351
sVgardevoirite
p3352
VGardevoirite
p3353
sVexeggutor
p3354
VExeggutor
p3355
sVshedskin
p3356
VShed Skin
p3357
sVcherrimsunshine
p3358
VCherrim-Sunshine
p3359
sVarceus
p3360
VArceus
p3361
sS'impish'
p3362
S'Impish'
p3363
sVservine
p3364
VServine
p3365
sVroselia
p3366
VRoselia
p3367
sVbrine
p3368
VBrine
p3369
sVzweilous
p3370
VZweilous
p3371
sVsleeppowder
p3372
VSleep Powder
p3373
sVoldamber
p3374
VOld Amber
p3375
sVdurant
p3376
VDurant
p3377
sVsimplebeam
p3378
VSimple Beam
p3379
sVyveltal
p3380
VYveltal
p3381
sVbrickbreak
p3382
VBrick Break
p3383
sS'rash'
p3384
S'Rash'
p3385
sVpiplup
p3386
VPiplup
p3387
sVflashfire
p3388
VFlash Fire
p3389
sVdeino
p3390
VDeino
p3391
sVcamerupt
p3392
VCamerupt
p3393
sVluckypunch
p3394
VLucky Punch
p3395
sVpsychicgem
p3396
VPsychic Gem
p3397
sVrarebone
p3398
VRare Bone
p3399
sVsolosis
p3400
VSolosis
p3401
sVbellydrum
p3402
VBelly Drum
p3403
sS'sassy'
p3404
S'Sassy'
p3405
sVdeoxysattack
p3406
VDeoxys-Attack
p3407
sVcroagunk
p3408
VCroagunk
p3409
sVbravebird
p3410
VBrave Bird
p3411
sVgust
p3412
VGust
p3413
sVmagicguard
p3414
VMagic Guard
p3415
sVsandattack
p3416
VSand Attack
p3417
sVkingler
p3418
VKingler
p3419
sVhugepower
p3420
VHuge Power
p3421
sVmudbomb
p3422
VMud Bomb
p3423
sVember
p3424
VEmber
p3425
sVgeomancy
p3426
VGeomancy
p3427
sVcacturne
p3428
VCacturne
p3429
sVpowder
p3430
VPowder
p3431
sVvictini
p3432
VVictini
p3433
sVfinneon
p3434
VFinneon
p3435
sVelectrode
p3436
VElectrode
p3437
sVchestoberry
p3438
VChesto Berry
p3439
sVgrumpig
p3440
VGrumpig
p3441
sVlifeorb
p3442
VLife Orb
p3443
sVgyarados
p3444
VGyarados
p3445
sVvaporeon
p3446
VVaporeon
p3447
sVthunderwave
p3448
VThunder Wave
p3449
sVrockincense
p3450
VRock Incense
p3451
sVfroslass
p3452
VFroslass
p3453
sVconfusion
p3454
VConfusion
p3455
sVfuryswipes
p3456
VFury Swipes
p3457
sVaron
p3458
VAron
p3459
sVconversion2
p3460
VConversion 2
p3461
sVwhiscash
p3462
VWhiscash
p3463
sVcacnea
p3464
VCacnea
p3465
sVzoroark
p3466
VZoroark
p3467
sVshellsmash
p3468
VShell Smash
p3469
sVhydropump
p3470
VHydro Pump
p3471
sVswift
p3472
VSwift
p3473
sVmemento
p3474
VMemento
p3475
sVmetang
p3476
VMetang
p3477
sVbaddreams
p3478
VBad Dreams
p3479
sVaerodactyl
p3480
VAerodactyl
p3481
sVpoisonheal
p3482
VPoison Heal
p3483
sVsafetygoggles
p3484
VSafety Goggles
p3485
sVklang
p3486
VKlang
p3487
sVswallow
p3488
VSwallow
p3489
sVspritzee
p3490
VSpritzee
p3491
sVflabebe
p3492
VFlabebe
p3493
sVapicotberry
p3494
VApicot Berry
p3495
sVnumel
p3496
VNumel
p3497
sVwoodhammer
p3498
VWood Hammer
p3499
sVhiddenpowerwater
p3500
VHidden Power Water
p3501
sVmalaconda
p3502
VMalaconda
p3503
sVgible
p3504
VGible
p3505
sVovercoat
p3506
VOvercoat
p3507
sVekans
p3508
VEkans
p3509
sVpixieplate
p3510
VPixie Plate
p3511
sVgrepaberry
p3512
VGrepa Berry
p3513
sVdisarmingvoice
p3514
VDisarming Voice
p3515
sVwailord
p3516
VWailord
p3517
sVswoobat
p3518
VSwoobat
p3519
sVelectrify
p3520
VElectrify
p3521
sVbindingband
p3522
VBinding Band
p3523
sVkeldeo
p3524
VKeldeo
p3525
sVtomohawk
p3526
VTomohawk
p3527
sVivysaur
p3528
VIvysaur
p3529
sVgripclaw
p3530
VGrip Claw
p3531
sVadamantorb
p3532
VAdamant Orb
p3533
sVcoverfossil
p3534
VCover Fossil
p3535
sVaccelgor
p3536
VAccelgor
p3537
sVsmeargle
p3538
VSmeargle
p3539
sVraindance
p3540
VRain Dance
p3541
sVinfestation
p3542
VInfestation
p3543
sVpresent
p3544
VPresent
p3545
sVgrovyle
p3546
VGrovyle
p3547
sVintimidate
p3548
VIntimidate
p3549
sVharden
p3550
VHarden
p3551
sVbeheeyem
p3552
VBeheeyem
p3553
sVwhirlpool
p3554
VWhirlpool
p3555
sVpelipper
p3556
VPelipper
p3557
sVthickfat
p3558
VThick Fat
p3559
sVcarracosta
p3560
VCarracosta
p3561
sVluxio
p3562
VLuxio
p3563
sVvullaby
p3564
VVullaby
p3565
sVhiddenpowerghost
p3566
VHidden Power Ghost
p3567
sVlightball
p3568
VLight Ball
p3569
sVwaterveil
p3570
VWater Veil
p3571
sVspelltag
p3572
VSpell Tag
p3573
sVzenheadbutt
p3574
VZen Headbutt
p3575
sVzekrom
p3576
VZekrom
p3577
sVphantump
p3578
VPhantump
p3579
sVdefiant
p3580
VDefiant
p3581
sVhardstone
p3582
VHard Stone
p3583
sVkebiaberry
p3584
VKebia Berry
p3585
sVcascoon
p3586
VCascoon
p3587
sVmagcargo
p3588
VMagcargo
p3589
sVabsorb
p3590
VAbsorb
p3591
sVraindish
p3592
VRain Dish
p3593
sVseaking
p3594
VSeaking
p3595
sVmagician
p3596
S'Magician'
p3597
sVjudgment
p3598
VJudgment
p3599
sVbibarel
p3600
VBibarel
p3601
sVpsybeam
p3602
VPsybeam
p3603
sVaspearberry
p3604
VAspear Berry
p3605
sVeelektross
p3606
VEelektross
p3607
sVpickpocket
p3608
VPickpocket
p3609
sVsitrusberry
p3610
VSitrus Berry
p3611
sVarceuspsychic
p3612
VArceus-Psychic
p3613
sVbeautifly
p3614
VBeautifly
p3615
sVvenoshock
p3616
VVenoshock
p3617
sVmudsport
p3618
VMud Sport
p3619
sVazelf
p3620
VAzelf
p3621
sVyanmega
p3622
VYanmega
p3623
sVfairyaura
p3624
S'Fairy Aura'
p3625
sVarceusdark
p3626
VArceus-Dark
p3627
sVpinsir
p3628
VPinsir
p3629
sVkoffing
p3630
VKoffing
p3631
sVguts
p3632
VGuts
p3633
sVtauros
p3634
VTauros
p3635
sVnatu
p3636
VNatu
p3637
sVfaketears
p3638
VFake Tears
p3639
sVsimple
p3640
VSimple
p3641
sVaromaticmist
p3642
VAromatic Mist
p3643
sVswellow
p3644
VSwellow
p3645
sVleechlife
p3646
VLeech Life
p3647
sVkingsshield
p3648
VKing's Shield
p3649
sVkingsrock
p3650
VKing's Rock
p3651
sVblukberry
p3652
VBluk Berry
p3653
sVflowershield
p3654
VFlower Shield
p3655
sVarenatrap
p3656
VArena Trap
p3657
sVleechseed
p3658
VLeech Seed
p3659
sVselfdestruct
p3660
VSelfdestruct
p3661
sVgoldeen
p3662
VGoldeen
p3663
sVducklett
p3664
VDucklett
p3665
sVglowpunch
p3666
VGlow Punch
p3667
sVhoothoot
p3668
VHoothoot
p3669
sVlatios
p3670
VLatios
p3671
sVbudew
p3672
VBudew
p3673
sVgogoat
p3674
VGogoat
p3675
sVlilligant
p3676
VLilligant
p3677
sVhealball
p3678
VHeal Ball
p3679
sVphanpy
p3680
VPhanpy
p3681
sVreckless
p3682
VReckless
p3683
sVimprison
p3684
VImprison
p3685
sVrepeatball
p3686
VRepeat Ball
p3687
sVglare
p3688
VGlare
p3689
sVthief
p3690
VThief
p3691
sVhail
p3692
VHail
p3693
sVcofagrigus
p3694
VCofagrigus
p3695
sVwepearberry
p3696
VWepear Berry
p3697
sVskarmory
p3698
VSkarmory
p3699
sVpersimberry
p3700
VPersim Berry
p3701
sVdragonclaw
p3702
VDragon Claw
p3703
sVdrizzle
p3704
VDrizzle
p3705
sVstaraptor
p3706
VStaraptor
p3707
sVmagicalleaf
p3708
VMagical Leaf
p3709
sVforcepalm
p3710
VForce Palm
p3711
sVhurricane
p3712
VHurricane
p3713
sVlileep
p3714
VLileep
p3715
sVpiloswine
p3716
VPiloswine
p3717
sVvenusaurite
p3718
VVenusaurite
p3719
sVcopycat
p3720
VCopycat
p3721
sVhappiny
p3722
VHappiny
p3723
sVpressure
p3724
VPressure
p3725
sVsilkscarf
p3726
VSilk Scarf
p3727
sVpidgeotto
p3728
VPidgeotto
p3729
sVdreadplate
p3730
VDread Plate
p3731
sVvenomoth
p3732
VVenomoth
p3733
sVfurret
p3734
VFurret
p3735
sVsmellingsalts
p3736
VSmelling Salts
p3737
sVmeteormash
p3738
VMeteor Mash
p3739
sVshucaberry
p3740
VShuca Berry
p3741
sVsweetkiss
p3742
VSweet Kiss
p3743
sVacidarmor
p3744
VAcid Armor
p3745
sVlightclay
p3746
VLight Clay
p3747
sVvoodoom
p3748
VVoodoom
p3749
sVfeintattack
p3750
VFeint Attack
p3751
sVburmy
p3752
VBurmy
p3753
sVmagostberry
p3754
VMagost Berry
p3755
sVgrasspelt
p3756
S'Grass Pelt'
p3757
sVspitup
p3758
VSpit Up
p3759
sVmentalherb
p3760
VMental Herb
p3761
sVroseliberry
p3762
VRoseli Berry
p3763
sVfrustration
p3764
VFrustration
p3765
sVambipom
p3766
VAmbipom
p3767
sVfollowme
p3768
VFollow Me
p3769
sVclauncher
p3770
VClauncher
p3771
sVquickpowder
p3772
VQuick Powder
p3773
sVfrenzyplant
p3774
VFrenzy Plant
p3775
sVclearbody
p3776
VClear Body
p3777
sVmagoberry
p3778
VMago Berry
p3779
sVcroconaw
p3780
VCroconaw
p3781
sVdrowzee
p3782
VDrowzee
p3783
sVserenegrace
p3784
VSerene Grace
p3785
sVheracronite
p3786
VHeracronite
p3787
sVtechnician
p3788
VTechnician
p3789
sVarceusgrass
p3790
VArceus-Grass
p3791
sVembargo
p3792
VEmbargo
p3793
sVmetronome
p3794
VMetronome
p3795
sVattackorder
p3796
VAttack Order
p3797
sVallyswitch
p3798
VAlly Switch
p3799
sVwish
p3800
VWish
p3801
sVmegakick
p3802
VMega Kick
p3803
sVentrainment
p3804
VEntrainment
p3805
sVtaillow
p3806
VTaillow
p3807
sVtailwhip
p3808
VTail Whip
p3809
sVblock
p3810
VBlock
p3811
sVscizormega
p3812
VScizor-Mega
p3813
sVhoneclaws
p3814
VHone Claws
p3815
sVoranberry
p3816
VOran Berry
p3817
sVslowstart
p3818
VSlow Start
p3819
sVgranbull
p3820
VGranbull
p3821
sVweakarmor
p3822
VWeak Armor
p3823
sVaurasphere
p3824
VAura Sphere
p3825
sVshelgon
p3826
VShelgon
p3827
sVrawstberry
p3828
VRawst Berry
p3829
sVvacuumwave
p3830
VVacuum Wave
p3831
sVillusion
p3832
VIllusion
p3833
sVroleplay
p3834
VRole Play
p3835
sVyacheberry
p3836
VYache Berry
p3837
sVtreecko
p3838
VTreecko
p3839
sValomomola
p3840
VAlomomola
p3841
sVbraviary
p3842
VBraviary
p3843
sVvivillon
p3844
VVivillon
p3845
sVnoguard
p3846
VNo Guard
p3847
sVabomasite
p3848
VAbomasite
p3849
sVstarmie
p3850
VStarmie
p3851
sVpersistent
p3852
VPersistent
p3853
sVmagmar
p3854
VMagmar
p3855
sVzangoose
p3856
VZangoose
p3857
sVvcreate
p3858
VV-create
p3859
s.