(dp1
Velectivire
p2
VElectivire
p3
sVcherrim
p4
VCherrim
p5
sVcolorchange
p6
VColor Change
p7
sVpalkia
p8
VPalkia
p9
sVtickle
p10
VTickle
p11
sS'arceuselectric'
p12
S'Arceus-Electric'
p13
sVabra
p14
VAbra
p15
sVreuniclus
p16
VReuniclus
p17
sVrecycle
p18
VRecycle
p19
sVmeditite
p20
VMeditite
p21
sVsharpbeak
p22
VSharp Beak
p23
sVquickclaw
p24
VQuick Claw
p25
sVdoubleslap
p26
VDoubleSlap
p27
sVeviolite
p28
VEviolite
p29
sVsquirtle
p30
VSquirtle
p31
sVnastyplot
p32
VNasty Plot
p33
sVwormadam
p34
VWormadam
p35
sVwhirlwind
p36
VWhirlwind
p37
sVplumefossil
p38
VPlume Fossil
p39
sVheracross
p40
VHeracross
p41
sVhiddenpowerelectric
p42
VHidden Power Electric
p43
sVhiddenpowerfire
p44
VHidden Power Fire
p45
sVguillotine
p46
VGuillotine
p47
sVlevitate
p48
VLevitate
p49
sVrhyperior
p50
VRhyperior
p51
sVpomegberry
p52
VPomeg Berry
p53
sVmasquerain
p54
VMasquerain
p55
sVthunder
p56
VThunder
p57
sVwaterpulse
p58
VWater Pulse
p59
sVdarkgem
p60
VDark Gem
p61
sVmiltank
p62
VMiltank
p63
sVfraxure
p64
VFraxure
p65
sVmoldbreaker
p66
VMold Breaker
p67
sVcrunch
p68
VCrunch
p69
sVrindoberry
p70
VRindo Berry
p71
sVreflecttype
p72
VReflect Type
p73
sVsnivy
p74
VSnivy
p75
sVmefirst
p76
VMe First
p77
sVkrokorok
p78
VKrokorok
p79
sVstunfisk
p80
VStunfisk
p81
sVmew
p82
VMew
p83
sVpursuit
p84
VPursuit
p85
sVheadsmash
p86
VHead Smash
p87
sVaftermath
p88
VAftermath
p89
sVsilverpowder
p90
VSilverPowder
p91
sVlunatone
p92
VLunatone
p93
sVpunishment
p94
VPunishment
p95
sVpoisontouch
p96
VPoison Touch
p97
sVfeebas
p98
VFeebas
p99
sVneedlearm
p100
VNeedle Arm
p101
sVblastburn
p102
VBlast Burn
p103
sVhonchkrow
p104
VHonchkrow
p105
sVtirtouga
p106
VTirtouga
p107
sVampharos
p108
VAmpharos
p109
sVdusclops
p110
VDusclops
p111
sVpoisonbarb
p112
VPoison Barb
p113
sVmorningsun
p114
VMorning Sun
p115
sVmandibuzz
p116
VMandibuzz
p117
sVoverheat
p118
VOverheat
p119
sVspiritomb
p120
VSpiritomb
p121
sVvoltabsorb
p122
VVolt Absorb
p123
sVpurugly
p124
VPurugly
p125
sVshiftgear
p126
VShift Gear
p127
sS'calm'
p128
S'Calm'
p129
sVbigroot
p130
VBig Root
p131
sVgardevoir
p132
VGardevoir
p133
sVmagnetrise
p134
VMagnet Rise
p135
sS'naive'
p136
S'Naive'
p137
sVkyogre
p138
VKyogre
p139
sS'adamant'
p140
S'Adamant'
p141
sVkitsunoh
p142
VKitsunoh
p143
sS'arceusbug'
p144
S'Arceus-Bug'
p145
sVgranbull
p146
VGranbull
p147
sVpidgeot
p148
VPidgeot
p149
sVtangledfeet
p150
VTangled Feet
p151
sVigglybuff
p152
VIgglybuff
p153
sVonix
p154
VOnix
p155
sVgrimer
p156
VGrimer
p157
sVbugbite
p158
VBug Bite
p159
sVpoisongas
p160
VPoison Gas
p161
sVmakuhita
p162
VMakuhita
p163
sVattract
p164
VAttract
p165
sVpowerwhip
p166
VPower Whip
p167
sVpachirisu
p168
VPachirisu
p169
sVcrabhammer
p170
VCrabhammer
p171
sVtoxic
p172
VToxic
p173
sS'rotomheat'
p174
S'Rotom-Heat'
p175
sVpoisonpowder
p176
VPoisonPowder
p177
sVredcard
p178
VRed Card
p179
sS'modest'
p180
S'Modest'
p181
sS'lax'
p182
S'Lax'
p183
sVrocktomb
p184
VRock Tomb
p185
sVcherubi
p186
VCherubi
p187
sVleafstorm
p188
VLeaf Storm
p189
sVspookyplate
p190
VSpooky Plate
p191
sS'hasty'
p192
S'Hasty'
p193
sVentei
p194
VEntei
p195
sS'arceussteel'
p196
S'Arceus-Steel'
p197
sVcobaberry
p198
VCoba Berry
p199
sVlaggingtail
p200
VLagging Tail
p201
sVfinalgambit
p202
VFinal Gambit
p203
sVrapidash
p204
VRapidash
p205
sVdoubleteam
p206
VDouble Team
p207
sVlumineon
p208
VLumineon
p209
sVshielddust
p210
VShield Dust
p211
sVmagicbounce
p212
VMagic Bounce
p213
sVfakeout
p214
VFake Out
p215
sVsludge
p216
VSludge
p217
sVvenusaur
p218
VVenusaur
p219
sVphione
p220
VPhione
p221
sVflameburst
p222
VFlame Burst
p223
sVzapplate
p224
VZap Plate
p225
sVmunna
p226
VMunna
p227
sVhitmonlee
p228
VHitmonlee
p229
sVdryskin
p230
VDry Skin
p231
sVkricketot
p232
VKricketot
p233
sVroost
p234
VRoost
p235
sVfurycutter
p236
VFury Cutter
p237
sVirontail
p238
VIron Tail
p239
sVpoliwhirl
p240
VPoliwhirl
p241
sVeggbomb
p242
VEgg Bomb
p243
sVluxray
p244
VLuxray
p245
sVpayback
p246
VPayback
p247
sVexcadrill
p248
VExcadrill
p249
sVgloom
p250
VGloom
p251
sVgluttony
p252
VGluttony
p253
sVvulpix
p254
VVulpix
p255
sVcradily
p256
VCradily
p257
sVthunderfang
p258
VThunder Fang
p259
sVespeon
p260
VEspeon
p261
sVmultitype
p262
VMultitype
p263
sVflameorb
p264
VFlame Orb
p265
sVhiddenpowerdragon
p266
VHidden Power Dragon
p267
sVshadowtag
p268
VShadow Tag
p269
sVomastar
p270
VOmastar
p271
sVwalrein
p272
VWalrein
p273
sVtruant
p274
VTruant
p275
sVqualotberry
p276
VQualot Berry
p277
sVnincada
p278
VNincada
p279
sVpsychic
p280
VPsychic
p281
sVkasibberry
p282
VKasib Berry
p283
sVseedbomb
p284
VSeed Bomb
p285
sVtornadus
p286
VTornadus
p287
sVshedshell
p288
VShed Shell
p289
sVbarrier
p290
VBarrier
p291
sVleftovers
p292
VLeftovers
p293
sVrevenge
p294
VRevenge
p295
sVsynchronoise
p296
VSynchronoise
p297
sVbestow
p298
VBestow
p299
sVtrumpcard
p300
VTrump Card
p301
sVstruggle
p302
VStruggle
p303
sVshiftry
p304
VShiftry
p305
sVgirafarig
p306
VGirafarig
p307
sVbeartic
p308
VBeartic
p309
sS'kyuremblack'
p310
S'Kyurem-Black'
p311
sVsonicboom
p312
VSonicBoom
p313
sVfightinggem
p314
VFighting Gem
p315
sVlatias
p316
VLatias
p317
sVdrainpunch
p318
VDrain Punch
p319
sVcheriberry
p320
VCheri Berry
p321
sS'naughty'
p322
S'Naughty'
p323
sVseedflare
p324
VSeed Flare
p325
sVhydrocannon
p326
VHydro Cannon
p327
sVdeoxys
p328
VDeoxys
p329
sVhooh
p330
VHo-Oh
p331
sVshieldon
p332
VShieldon
p333
sVslugma
p334
VSlugma
p335
sVwaveincense
p336
VWave Incense
p337
sVgripclaw
p338
VGrip Claw
p339
sVaircutter
p340
VAir Cutter
p341
sS'giratinaorigin'
p342
S'Giratina-Origin'
p343
sVgrowlithe
p344
VGrowlithe
p345
sVinferno
p346
VInferno
p347
sVtwister
p348
VTwister
p349
sVyamask
p350
VYamask
p351
sVflamethrower
p352
VFlamethrower
p353
sVtoxicorb
p354
VToxic Orb
p355
sVrockclimb
p356
VRock Climb
p357
sVwonderroom
p358
VWonder Room
p359
sVmachoke
p360
VMachoke
p361
sVdoomdesire
p362
VDoom Desire
p363
sVmirrormove
p364
VMirror Move
p365
sVsandshrew
p366
VSandshrew
p367
sVpolitoed
p368
VPolitoed
p369
sVminun
p370
VMinun
p371
sVbelueberry
p372
VBelue Berry
p373
sVendure
p374
VEndure
p375
sVswiftswim
p376
VSwift Swim
p377
sVshellbell
p378
VShell Bell
p379
sVminus
p380
VMinus
p381
sVmeowth
p382
VMeowth
p383
sVsweetscent
p384
VSweet Scent
p385
sVsludgebomb
p386
VSludge Bomb
p387
sVpayapaberry
p388
VPayapa Berry
p389
sVclosecombat
p390
VClose Combat
p391
sVmetalclaw
p392
VMetal Claw
p393
sVseel
p394
VSeel
p395
sVblastoise
p396
VBlastoise
p397
sVstrength
p398
VStrength
p399
sVchingling
p400
VChingling
p401
sVgothita
p402
VGothita
p403
sVdarmanitan
p404
VDarmanitan
p405
sVgyroball
p406
VGyro Ball
p407
sVponyta
p408
VPonyta
p409
sVamoonguss
p410
VAmoonguss
p411
sS'deoxysspeed'
p412
S'Deoxys-Speed'
p413
sVshadowforce
p414
VShadow Force
p415
sVcoil
p416
VCoil
p417
sVdrought
p418
VDrought
p419
sVferrothorn
p420
VFerrothorn
p421
sVcosmicpower
p422
VCosmic Power
p423
sVdunsparce
p424
VDunsparce
p425
sVconstrict
p426
VConstrict
p427
sVvileplume
p428
VVileplume
p429
sVraticate
p430
VRaticate
p431
sVslaking
p432
VSlaking
p433
sVjirachi
p434
VJirachi
p435
sVgolduck
p436
VGolduck
p437
sVarmorfossil
p438
VArmor Fossil
p439
sVtogekiss
p440
VTogekiss
p441
sVhippopotas
p442
VHippopotas
p443
sVdialga
p444
VDialga
p445
sVlastresort
p446
VLast Resort
p447
sVbulletpunch
p448
VBullet Punch
p449
sVicegem
p450
VIce Gem
p451
sVspite
p452
VSpite
p453
sVhaze
p454
VHaze
p455
sVstoutland
p456
VStoutland
p457
sVbidoof
p458
VBidoof
p459
sVsyclant
p460
VSyclant
p461
sVhaunter
p462
VHaunter
p463
sVweedle
p464
VWeedle
p465
sVhoneygather
p466
VHoney Gather
p467
sVmachop
p468
VMachop
p469
sVmetalpowder
p470
VMetal Powder
p471
sVdusknoir
p472
VDusknoir
p473
sVmeditate
p474
VMeditate
p475
sVreversal
p476
VReversal
p477
sVlunardance
p478
VLunar Dance
p479
sVtentacool
p480
VTentacool
p481
sVmilotic
p482
VMilotic
p483
sVwailmer
p484
VWailmer
p485
sVnosepass
p486
VNosepass
p487
sVearthplate
p488
VEarth Plate
p489
sVlaxincense
p490
VLax Incense
p491
sVmagneton
p492
VMagneton
p493
sVstickyhold
p494
VSticky Hold
p495
sVbeatup
p496
VBeat Up
p497
sVleafblade
p498
VLeaf Blade
p499
sVserperior
p500
VSerperior
p501
sVempoleon
p502
VEmpoleon
p503
sVwooper
p504
VWooper
p505
sVforretress
p506
VForretress
p507
sVmindreader
p508
VMind Reader
p509
sVseaincense
p510
VSea Incense
p511
sVsimisage
p512
VSimisage
p513
sVarcheops
p514
VArcheops
p515
sVheavymetal
p516
VHeavy Metal
p517
sS'wormadamsandy'
p518
S'Wormadam-Sandy'
p519
sVmuscleband
p520
VMuscle Band
p521
sVpurrloin
p522
VPurrloin
p523
sVdoduo
p524
VDoduo
p525
sVmuk
p526
VMuk
p527
sVcacturne
p528
VCacturne
p529
sVstarfberry
p530
VStarf Berry
p531
sVslowpoke
p532
VSlowpoke
p533
sVfrostbreath
p534
VFrost Breath
p535
sVcubone
p536
VCubone
p537
sVcut
p538
VCut
p539
sVmeadowplate
p540
VMeadow Plate
p541
sVparasect
p542
VParasect
p543
sVrhydon
p544
VRhydon
p545
sVsmeargle
p546
VSmeargle
p547
sVsamurott
p548
VSamurott
p549
sVmawile
p550
VMawile
p551
sVchimecho
p552
VChimecho
p553
sVpetayaberry
p554
VPetaya Berry
p555
sVregigigas
p556
VRegigigas
p557
sVluckychant
p558
VLucky Chant
p559
sVleppaberry
p560
VLeppa Berry
p561
sVlick
p562
VLick
p563
sVhitmontop
p564
VHitmontop
p565
sVfierydance
p566
VFiery Dance
p567
sVfloatzel
p568
VFloatzel
p569
sVsmackdown
p570
VSmack Down
p571
sVcyclohm
p572
VCyclohm
p573
sVbuneary
p574
VBuneary
p575
sVshockdrive
p576
VShock Drive
p577
sVnightdaze
p578
VNight Daze
p579
sVfriendguard
p580
VFriend Guard
p581
sVscaryface
p582
VScary Face
p583
sVsteamroller
p584
VSteamroller
p585
sVkakuna
p586
VKakuna
p587
sVpowertrick
p588
VPower Trick
p589
sVyanma
p590
VYanma
p591
sVchatot
p592
VChatot
p593
sVbonerush
p594
VBone Rush
p595
sVgurdurr
p596
VGurdurr
p597
sVthrash
p598
VThrash
p599
sVtorment
p600
VTorment
p601
sVtotodile
p602
VTotodile
p603
sVslowbro
p604
VSlowbro
p605
sValakazam
p606
VAlakazam
p607
sVnevermeltice
p608
VNeverMeltIce
p609
sVgrowl
p610
VGrowl
p611
sVarmaldo
p612
VArmaldo
p613
sVaguavberry
p614
VAguav Berry
p615
sVdrilbur
p616
VDrilbur
p617
sVralts
p618
VRalts
p619
sVpupitar
p620
VPupitar
p621
sVslowking
p622
VSlowking
p623
sVpowerherb
p624
VPower Herb
p625
sVwaterfall
p626
VWaterfall
p627
sVdewgong
p628
VDewgong
p629
sVkirlia
p630
VKirlia
p631
sVknockoff
p632
VKnock Off
p633
sVoctazooka
p634
VOctazooka
p635
sVhydration
p636
VHydration
p637
sVgolbat
p638
VGolbat
p639
sVshellarmor
p640
VShell Armor
p641
sVpoliwag
p642
VPoliwag
p643
sVmetalcoat
p644
VMetal Coat
p645
sVthickclub
p646
VThick Club
p647
sVscizor
p648
VScizor
p649
sVsilcoon
p650
VSilcoon
p651
sVbuggem
p652
VBug Gem
p653
sVoshawott
p654
VOshawott
p655
sVtogepi
p656
VTogepi
p657
sVdomefossil
p658
VDome Fossil
p659
sVlowkick
p660
VLow Kick
p661
sVhealbell
p662
VHeal Bell
p663
sVmirrorshot
p664
VMirror Shot
p665
sVlickitung
p666
VLickitung
p667
sVdragonrush
p668
VDragon Rush
p669
sVspinarak
p670
VSpinarak
p671
sVsilverwind
p672
VSilver Wind
p673
sVsunnyday
p674
VSunny Day
p675
sVludicolo
p676
VLudicolo
p677
sVditto
p678
VDitto
p679
sVcirclethrow
p680
VCircle Throw
p681
sVrotom
p682
VRotom
p683
sVnidoqueen
p684
VNidoqueen
p685
sVhiddenpowerpoison
p686
VHidden Power Poison
p687
sVflatter
p688
VFlatter
p689
sVtoxicspikes
p690
VToxic Spikes
p691
sVfirepledge
p692
VFire Pledge
p693
sVnoctowl
p694
VNoctowl
p695
sVcornnberry
p696
VCornn Berry
p697
sVskullfossil
p698
VSkull Fossil
p699
sVstealthrock
p700
VStealth Rock
p701
sVgeargrind
p702
VGear Grind
p703
sVrufflet
p704
VRufflet
p705
sVpsyshock
p706
VPsyshock
p707
sVicyrock
p708
VIcy Rock
p709
sVwynaut
p710
VWynaut
p711
sVabsorbbulb
p712
VAbsorb Bulb
p713
sS'bold'
p714
S'Bold'
p715
sVgunkshot
p716
VGunk Shot
p717
sVgarchomp
p718
VGarchomp
p719
sVgeodude
p720
VGeodude
p721
sVlightscreen
p722
VLight Screen
p723
sVwhimsicott
p724
VWhimsicott
p725
sVlavaplume
p726
VLava Plume
p727
sVkeeneye
p728
VKeen Eye
p729
sVsimipour
p730
VSimipour
p731
sVautotomize
p732
VAutotomize
p733
sVspikecannon
p734
VSpike Cannon
p735
sVnecturna
p736
VNecturna
p737
sVplus
p738
VPlus
p739
sVsapsipper
p740
VSap Sipper
p741
sVthunderpunch
p742
VThunderPunch
p743
sVhornleech
p744
VHorn Leech
p745
sVdarkvoid
p746
VDark Void
p747
sVhoundour
p748
VHoundour
p749
sVdualchop
p750
VDual Chop
p751
sVfoulplay
p752
VFoul Play
p753
sVscyther
p754
VScyther
p755
sVstormdrain
p756
VStorm Drain
p757
sVseadra
p758
VSeadra
p759
sVovergrow
p760
VOvergrow
p761
sVbronzor
p762
VBronzor
p763
sVwrap
p764
VWrap
p765
sVcorsola
p766
VCorsola
p767
sVtransform
p768
VTransform
p769
sVrowapberry
p770
VRowap Berry
p771
sS'quirky'
p772
S'Quirky'
p773
sVquickattack
p774
VQuick Attack
p775
sVsynthesis
p776
VSynthesis
p777
sVmultiscale
p778
VMultiscale
p779
sVgroundgem
p780
VGround Gem
p781
sVreshiram
p782
VReshiram
p783
sVrocksmash
p784
VRock Smash
p785
sVvolttackle
p786
VVolt Tackle
p787
sVghostgem
p788
VGhost Gem
p789
sVroughskin
p790
VRough Skin
p791
sVsafeguard
p792
VSafeguard
p793
sVsmoothrock
p794
VSmooth Rock
p795
sVgothorita
p796
VGothorita
p797
sVchopleberry
p798
VChople Berry
p799
sVunnerve
p800
VUnnerve
p801
sVpaleowave
p802
VPaleo Wave
p803
sVferaligatr
p804
VFeraligatr
p805
sVoddish
p806
VOddish
p807
sVleer
p808
VLeer
p809
sVmagby
p810
VMagby
p811
sVswadloon
p812
VSwadloon
p813
sVvibrava
p814
VVibrava
p815
sVuxie
p816
VUxie
p817
sVsmoochum
p818
VSmoochum
p819
sVlansatberry
p820
VLansat Berry
p821
sVbutterfree
p822
VButterfree
p823
sVferroseed
p824
VFerroseed
p825
sVclawfossil
p826
VClaw Fossil
p827
sVdischarge
p828
VDischarge
p829
sVpoisonpoint
p830
VPoison Point
p831
sVhiddenpowerground
p832
VHidden Power Ground
p833
sS'arceuspoison'
p834
S'Arceus-Poison'
p835
sVliechiberry
p836
VLiechi Berry
p837
sVlillipup
p838
VLillipup
p839
sVflareboost
p840
VFlare Boost
p841
sVmummy
p842
VMummy
p843
sVoccaberry
p844
VOcca Berry
p845
sVironfist
p846
VIron Fist
p847
sS'serious'
p848
S'Serious'
p849
sVmegadrain
p850
VMega Drain
p851
sVsalacberry
p852
VSalac Berry
p853
sVsnubbull
p854
VSnubbull
p855
sVsandveil
p856
VSand Veil
p857
sVbonsly
p858
VBonsly
p859
sVcelebi
p860
VCelebi
p861
sVavalanche
p862
VAvalanche
p863
sVshadowsneak
p864
VShadow Sneak
p865
sVsuctioncups
p866
VSuction Cups
p867
sVsuperpower
p868
VSuperpower
p869
sVanticipation
p870
VAnticipation
p871
sVweezing
p872
VWeezing
p873
sVdragonpulse
p874
VDragon Pulse
p875
sVelectroball
p876
VElectro Ball
p877
sVflash
p878
VFlash
p879
sVcharge
p880
VCharge
p881
sVquash
p882
VQuash
p883
sVsnorlax
p884
VSnorlax
p885
sVunburden
p886
VUnburden
p887
sVcrosschop
p888
VCross Chop
p889
sVmachamp
p890
VMachamp
p891
sVkricketune
p892
VKricketune
p893
sVtailslap
p894
VTail Slap
p895
sVjynx
p896
VJynx
p897
sVlopunny
p898
VLopunny
p899
sVtwistedspoon
p900
VTwistedSpoon
p901
sVskyuppercut
p902
VSky Uppercut
p903
sVpoisonsting
p904
VPoison Sting
p905
sVdig
p906
VDig
p907
sVfocusblast
p908
VFocus Blast
p909
sVmesprit
p910
VMesprit
p911
sVmagnet
p912
VMagnet
p913
sVround
p914
VRound
p915
sVunaware
p916
VUnaware
p917
sVfalseswipe
p918
VFalse Swipe
p919
sVleafeon
p920
VLeafeon
p921
sVzorua
p922
VZorua
p923
sVzenmode
p924
VZen Mode
p925
sVvitalthrow
p926
VVital Throw
p927
sVroselia
p928
VRoselia
p929
sVcurse
p930
VCurse
p931
sVfocusband
p932
VFocus Band
p933
sVmoltres
p934
VMoltres
p935
sVpasshoberry
p936
VPassho Berry
p937
sVdragondance
p938
VDragon Dance
p939
sVaxew
p940
VAxew
p941
sVkecleon
p942
VKecleon
p943
sVglameow
p944
VGlameow
p945
sVaeroblast
p946
VAeroblast
p947
sVwartortle
p948
VWartortle
p949
sVexplosion
p950
VExplosion
p951
sVmiracleeye
p952
VMiracle Eye
p953
sS'arceusunknown'
p954
S'Arceus-???'
p955
sVsimisear
p956
VSimisear
p957
sVtropius
p958
VTropius
p959
sVmysticwater
p960
VMystic Water
p961
sVearthquake
p962
VEarthquake
p963
sVgastroacid
p964
VGastro Acid
p965
sVejectbutton
p966
VEject Button
p967
sVexploud
p968
VExploud
p969
sVsawk
p970
VSawk
p971
sVscraggy
p972
VScraggy
p973
sVdragonite
p974
VDragonite
p975
sVbagon
p976
VBagon
p977
sVregenerator
p978
VRegenerator
p979
sVburndrive
p980
VBurn Drive
p981
sVmudslap
p982
VMud-Slap
p983
sVflaaffy
p984
VFlaaffy
p985
sVmagicroom
p986
VMagic Room
p987
sVsouldew
p988
VSoul Dew
p989
sVworkup
p990
VWork Up
p991
sVheavyslam
p992
VHeavy Slam
p993
sVpinmissile
p994
VPin Missile
p995
sVcaptivate
p996
VCaptivate
p997
sVflamecharge
p998
VFlame Charge
p999
sVswagger
p1000
VSwagger
p1001
sVxatu
p1002
VXatu
p1003
sVrockslide
p1004
VRock Slide
p1005
sVcaterpie
p1006
VCaterpie
p1007
sVhypno
p1008
VHypno
p1009
sVelectrike
p1010
VElectrike
p1011
sVseismictoss
p1012
VSeismic Toss
p1013
sVfly
p1014
VFly
p1015
sVuturn
p1016
VU-turn
p1017
sVflygon
p1018
VFlygon
p1019
sVsandstorm
p1020
VSandstorm
p1021
sVswablu
p1022
VSwablu
p1023
sVscolipede
p1024
VScolipede
p1025
sVdwebble
p1026
VDwebble
p1027
sVpignite
p1028
VPignite
p1029
sVsolarpower
p1030
VSolar Power
p1031
sVvespiquen
p1032
VVespiquen
p1033
sVpalpitoad
p1034
VPalpitoad
p1035
sVchilldrive
p1036
VChill Drive
p1037
sVnormalize
p1038
VNormalize
p1039
sVbanette
p1040
VBanette
p1041
sVtailwind
p1042
VTailwind
p1043
sVwideguard
p1044
VWide Guard
p1045
sVwikiberry
p1046
VWiki Berry
p1047
sVarbok
p1048
VArbok
p1049
sVafteryou
p1050
VAfter You
p1051
sVoctillery
p1052
VOctillery
p1053
sVvenonat
p1054
VVenonat
p1055
sVteleport
p1056
VTeleport
p1057
sVdive
p1058
VDive
p1059
sVmamoswine
p1060
VMamoswine
p1061
sVwiseglasses
p1062
VWise Glasses
p1063
sVmilkdrink
p1064
VMilk Drink
p1065
sVancientpower
p1066
VAncientPower
p1067
sVblissey
p1068
VBlissey
p1069
sVcryogonal
p1070
VCryogonal
p1071
sVsupersonic
p1072
VSupersonic
p1073
sVdelibird
p1074
VDelibird
p1075
sVshinx
p1076
VShinx
p1077
sVlitwick
p1078
VLitwick
p1079
sVmurkrow
p1080
VMurkrow
p1081
sVlugia
p1082
VLugia
p1083
sVbulletseed
p1084
VBullet Seed
p1085
sVservine
p1086
VServine
p1087
sVskydrop
p1088
VSky Drop
p1089
sVchilanberry
p1090
VChilan Berry
p1091
sVarcanine
p1092
VArcanine
p1093
sVsneasel
p1094
VSneasel
p1095
sVgrassknot
p1096
VGrass Knot
p1097
sVklutz
p1098
VKlutz
p1099
sVbulldoze
p1100
VBulldoze
p1101
sVfocusenergy
p1102
VFocus Energy
p1103
sVkabuto
p1104
VKabuto
p1105
sVfuryswipes
p1106
VFury Swipes
p1107
sS'lonely'
p1108
S'Lonely'
p1109
sVaipom
p1110
VAipom
p1111
sVrattled
p1112
VRattled
p1113
sS'bashful'
p1114
S'Bashful'
p1115
sVfusionflare
p1116
VFusion Flare
p1117
sVeffectspore
p1118
VEffect Spore
p1119
sVlinoone
p1120
VLinoone
p1121
sVsynchronize
p1122
VSynchronize
p1123
sVmantine
p1124
VMantine
p1125
sVglalie
p1126
VGlalie
p1127
sVpsyduck
p1128
VPsyduck
p1129
sVmentalherb
p1130
VMental Herb
p1131
sVswalot
p1132
VSwalot
p1133
sVporygonz
p1134
VPorygon-Z
p1135
sVstrugglebug
p1136
VStruggle Bug
p1137
sVpersian
p1138
VPersian
p1139
sVshaymin
p1140
VShaymin
p1141
sVpidove
p1142
VPidove
p1143
sVskillswap
p1144
VSkill Swap
p1145
sVassurance
p1146
VAssurance
p1147
sVpoochyena
p1148
VPoochyena
p1149
sVporygon2
p1150
VPorygon2
p1151
sViciclecrash
p1152
VIcicle Crash
p1153
sVsteelwing
p1154
VSteel Wing
p1155
sVunown
p1156
VUnown
p1157
sVpetilil
p1158
VPetilil
p1159
sVtelepathy
p1160
VTelepathy
p1161
sVnidorino
p1162
VNidorino
p1163
sVnidorina
p1164
VNidorina
p1165
sVhypnosis
p1166
VHypnosis
p1167
sVdurinberry
p1168
VDurin Berry
p1169
sVdragonrage
p1170
VDragon Rage
p1171
sVjolteon
p1172
VJolteon
p1173
sVdefensecurl
p1174
VDefense Curl
p1175
sVchikorita
p1176
VChikorita
p1177
sVrockyhelmet
p1178
VRocky Helmet
p1179
sVjabocaberry
p1180
VJaboca Berry
p1181
sVhoppip
p1182
VHoppip
p1183
sViceshard
p1184
VIce Shard
p1185
sVgiratina
p1186
VGiratina
p1187
sVteravolt
p1188
VTeravolt
p1189
sVbite
p1190
VBite
p1191
sVduosion
p1192
VDuosion
p1193
sVaromatherapy
p1194
VAromatherapy
p1195
sVsleeptalk
p1196
VSleep Talk
p1197
sVconfuseray
p1198
VConfuse Ray
p1199
sVgliscor
p1200
VGliscor
p1201
sVseedot
p1202
VSeedot
p1203
sVsnatch
p1204
VSnatch
p1205
sVdrapion
p1206
VDrapion
p1207
sVpeck
p1208
VPeck
p1209
sS'wormadamtrash'
p1210
S'Wormadam-Trash'
p1211
sVflashcannon
p1212
VFlash Cannon
p1213
sVgarbodor
p1214
VGarbodor
p1215
sVvirizion
p1216
VVirizion
p1217
sVhiddenpowerrock
p1218
VHidden Power Rock
p1219
sVrazzberry
p1220
VRazz Berry
p1221
sVchlorophyll
p1222
VChlorophyll
p1223
sVslam
p1224
VSlam
p1225
sVsandstream
p1226
VSand Stream
p1227
sVledyba
p1228
VLedyba
p1229
sVaquatail
p1230
VAqua Tail
p1231
sVkrilowatt
p1232
VKrilowatt
p1233
sVrecover
p1234
VRecover
p1235
sVconversion
p1236
VConversion
p1237
sVtwineedle
p1238
VTwineedle
p1239
sVhiddenpowerdark
p1240
VHidden Power Dark
p1241
sVmetalsound
p1242
VMetal Sound
p1243
sVarghonaut
p1244
VArghonaut
p1245
sVbeedrill
p1246
VBeedrill
p1247
sVsurf
p1248
VSurf
p1249
sVgriseousorb
p1250
VGriseous Orb
p1251
sVmountaineer
p1252
VMountaineer
p1253
sVstunky
p1254
VStunky
p1255
sVtrace
p1256
VTrace
p1257
sVtynamo
p1258
VTynamo
p1259
sVdarkrai
p1260
VDarkrai
p1261
sVbarrage
p1262
VBarrage
p1263
sVbonemerang
p1264
VBonemerang
p1265
sVadaptability
p1266
VAdaptability
p1267
sVleaftornado
p1268
VLeaf Tornado
p1269
sVhyperfang
p1270
VHyper Fang
p1271
sVdracoplate
p1272
VDraco Plate
p1273
sVelectirizer
p1274
VElectirizer
p1275
sVmollux
p1276
VMollux
p1277
sVmuddywater
p1278
VMuddy Water
p1279
sVmothim
p1280
VMothim
p1281
sVcompoundeyes
p1282
VCompoundeyes
p1283
sVtintedlens
p1284
VTinted Lens
p1285
sVgolurk
p1286
VGolurk
p1287
sVfigyberry
p1288
VFigy Berry
p1289
sVrevenankh
p1290
VRevenankh
p1291
sVvolbeat
p1292
VVolbeat
p1293
sVlarvesta
p1294
VLarvesta
p1295
sVpatrat
p1296
VPatrat
p1297
sVacupressure
p1298
VAcupressure
p1299
sVanalytic
p1300
VAnalytic
p1301
sVgrasspledge
p1302
VGrass Pledge
p1303
sVoutrage
p1304
VOutrage
p1305
sVleavanny
p1306
VLeavanny
p1307
sVkinesis
p1308
VKinesis
p1309
sVstomp
p1310
VStomp
p1311
sVboneclub
p1312
VBone Club
p1313
sVtelekinesis
p1314
VTelekinesis
p1315
sVmoxie
p1316
VMoxie
p1317
sVwonderskin
p1318
VWonder Skin
p1319
sVhiddenpowerfighting
p1320
VHidden Power Fighting
p1321
sVimposter
p1322
VImposter
p1323
sVspore
p1324
VSpore
p1325
sVquagsire
p1326
VQuagsire
p1327
sVdetect
p1328
VDetect
p1329
sVsteadfast
p1330
VSteadfast
p1331
sVlimber
p1332
VLimber
p1333
sVbatonpass
p1334
VBaton Pass
p1335
sVforecast
p1336
VForecast
p1337
sVsnowwarning
p1338
VSnow Warning
p1339
sVjustified
p1340
VJustified
p1341
sVdamprock
p1342
VDamp Rock
p1343
sVhariyama
p1344
VHariyama
p1345
sVcrawdaunt
p1346
VCrawdaunt
p1347
sVpluck
p1348
VPluck
p1349
sVfuryattack
p1350
VFury Attack
p1351
sVroseincense
p1352
VRose Incense
p1353
sVspoink
p1354
VSpoink
p1355
sVvictreebel
p1356
VVictreebel
p1357
sVdestinyknot
p1358
VDestiny Knot
p1359
sVrhyhorn
p1360
VRhyhorn
p1361
sVsteelix
p1362
VSteelix
p1363
sS'arceus???'
p1364
S'Arceus-???'
p1365
sVkrookodile
p1366
VKrookodile
p1367
sVcellbattery
p1368
VCell Battery
p1369
sVwingattack
p1370
VWing Attack
p1371
sVnomelberry
p1372
VNomel Berry
p1373
sVnormalgem
p1374
VNormal Gem
p1375
sVhiddenpowersteel
p1376
VHidden Power Steel
p1377
sVdodrio
p1378
VDodrio
p1379
sVzapdos
p1380
VZapdos
p1381
sVendeavor
p1382
VEndeavor
p1383
sViceburn
p1384
VIce Burn
p1385
sVrunaway
p1386
VRun Away
p1387
sVlightmetal
p1388
VLight Metal
p1389
sVstunspore
p1390
VStun Spore
p1391
sVgigalith
p1392
VGigalith
p1393
sVspiderweb
p1394
VSpider Web
p1395
sVheatrock
p1396
VHeat Rock
p1397
sVclamperl
p1398
VClamperl
p1399
sVcresselia
p1400
VCresselia
p1401
sVomanyte
p1402
VOmanyte
p1403
sVbreloom
p1404
VBreloom
p1405
sVstormthrow
p1406
VStorm Throw
p1407
sVhealblock
p1408
VHeal Block
p1409
sVswanna
p1410
VSwanna
p1411
sS'careful'
p1412
S'Careful'
p1413
sVmudshot
p1414
VMud Shot
p1415
sVdefeatist
p1416
VDefeatist
p1417
sVshockwave
p1418
VShock Wave
p1419
sVlandorus
p1420
VLandorus
p1421
sVgroudon
p1422
VGroudon
p1423
sS'quiet'
p1424
S'Quiet'
p1425
sVgrasswhistle
p1426
VGrassWhistle
p1427
sVenergypowder
p1428
VEnergyPowder
p1429
sVsacredfire
p1430
VSacred Fire
p1431
sVmonferno
p1432
VMonferno
p1433
sVvicegrip
p1434
VViceGrip
p1435
sVcubchoo
p1436
VCubchoo
p1437
sVhiddenpowerice
p1438
VHidden Power Ice
p1439
sVextremespeed
p1440
VExtremeSpeed
p1441
sVangerpoint
p1442
VAnger Point
p1443
sVthunderbolt
p1444
VThunderbolt
p1445
sVmagnetbomb
p1446
VMagnet Bomb
p1447
sVassist
p1448
VAssist
p1449
sVblaziken
p1450
VBlaziken
p1451
sVgligar
p1452
VGligar
p1453
sVnightmare
p1454
VNightmare
p1455
sVhypervoice
p1456
VHyper Voice
p1457
sVminimize
p1458
VMinimize
p1459
sVdoublehit
p1460
VDouble Hit
p1461
sVmedicham
p1462
VMedicham
p1463
sVheatmor
p1464
VHeatmor
p1465
sVsoundproof
p1466
VSoundproof
p1467
sVspark
p1468
VSpark
p1469
sVmetalburst
p1470
VMetal Burst
p1471
sVhealingwish
p1472
VHealing Wish
p1473
sVquickguard
p1474
VQuick Guard
p1475
sVwingull
p1476
VWingull
p1477
sVrest
p1478
VRest
p1479
sVrazorclaw
p1480
VRazor Claw
p1481
sVdragonbreath
p1482
VDragonBreath
p1483
sVelgyem
p1484
VElgyem
p1485
sVduskull
p1486
VDuskull
p1487
sVcometpunch
p1488
VComet Punch
p1489
sVaerialace
p1490
VAerial Ace
p1491
sVparas
p1492
VParas
p1493
sVskitty
p1494
VSkitty
p1495
sVflareblitz
p1496
VFlare Blitz
p1497
sVtrubbish
p1498
VTrubbish
p1499
sVsnarl
p1500
VSnarl
p1501
sVmachpunch
p1502
VMach Punch
p1503
sVsunkern
p1504
VSunkern
p1505
sVcolossoil
p1506
VColossoil
p1507
sVsnore
p1508
VSnore
p1509
sVfloatstone
p1510
VFloat Stone
p1511
sVskiploom
p1512
VSkiploom
p1513
sVwhirlipede
p1514
VWhirlipede
p1515
sVvoltswitch
p1516
VVolt Switch
p1517
sVseismitoad
p1518
VSeismitoad
p1519
sVbrightpowder
p1520
VBrightPowder
p1521
sVhypercutter
p1522
VHyper Cutter
p1523
sVvanillite
p1524
VVanillite
p1525
sVchoiceband
p1526
VChoice Band
p1527
sVheartswap
p1528
VHeart Swap
p1529
sVpinapberry
p1530
VPinap Berry
p1531
sVminccino
p1532
VMinccino
p1533
sVrefresh
p1534
VRefresh
p1535
sVprinplup
p1536
VPrinplup
p1537
sVpichu
p1538
VPichu
p1539
sVcrustle
p1540
VCrustle
p1541
sVpowergem
p1542
VPower Gem
p1543
sVechoedvoice
p1544
VEchoed Voice
p1545
sVbattlearmor
p1546
VBattle Armor
p1547
sVhustle
p1548
VHustle
p1549
sVthroh
p1550
VThroh
p1551
sVmusharna
p1552
VMusharna
p1553
sVinnerfocus
p1554
VInner Focus
p1555
sVhornattack
p1556
VHorn Attack
p1557
sVzapcannon
p1558
VZap Cannon
p1559
sVroar
p1560
VRoar
p1561
sVlockon
p1562
VLock-On
p1563
sVgengar
p1564
VGengar
p1565
sVroserade
p1566
VRoserade
p1567
sVgolem
p1568
VGolem
p1569
sVquilava
p1570
VQuilava
p1571
sVcustapberry
p1572
VCustap Berry
p1573
sVsearingshot
p1574
VSearing Shot
p1575
sVstratagem
p1576
VStratagem
p1577
sVshadowpunch
p1578
VShadow Punch
p1579
sVfocuspunch
p1580
VFocus Punch
p1581
sVforewarn
p1582
VForewarn
p1583
sViciclespear
p1584
VIcicle Spear
p1585
sVpyroak
p1586
VPyroak
p1587
sVsacredsword
p1588
VSacred Sword
p1589
sVhex
p1590
VHex
p1591
sVmarill
p1592
VMarill
p1593
sVwillowisp
p1594
VWill-O-Wisp
p1595
sVbubble
p1596
VBubble
p1597
sVsealeo
p1598
VSealeo
p1599
sVglaciate
p1600
VGlaciate
p1601
sVnightshade
p1602
VNight Shade
p1603
sVexeggutor
p1604
VExeggutor
p1605
sVstantler
p1606
VStantler
p1607
sVvitalspirit
p1608
VVital Spirit
p1609
sVsnover
p1610
VSnover
p1611
sVrage
p1612
VRage
p1613
sVvictorystar
p1614
VVictory Star
p1615
sVvinewhip
p1616
VVine Whip
p1617
sVstoneplate
p1618
VStone Plate
p1619
sVsheercold
p1620
VSheer Cold
p1621
sVsplashplate
p1622
VSplash Plate
p1623
sVpowdersnow
p1624
VPowder Snow
p1625
sVflamebody
p1626
VFlame Body
p1627
sVdugtrio
p1628
VDugtrio
p1629
sVsmokescreen
p1630
VSmokeScreen
p1631
sVcolburberry
p1632
VColbur Berry
p1633
sVhorndrill
p1634
VHorn Drill
p1635
sVimmunity
p1636
VImmunity
p1637
sVtangela
p1638
VTangela
p1639
sVcharizard
p1640
VCharizard
p1641
sVflowergift
p1642
VFlower Gift
p1643
sVgraveler
p1644
VGraveler
p1645
sVmirrorcoat
p1646
VMirror Coat
p1647
sVemboar
p1648
VEmboar
p1649
sVdustox
p1650
VDustox
p1651
sVrootfossil
p1652
VRoot Fossil
p1653
sVtackle
p1654
VTackle
p1655
sS'rotomwash'
p1656
S'Rotom-Wash'
p1657
sVgrudge
p1658
VGrudge
p1659
sVcyndaquil
p1660
VCyndaquil
p1661
sVblueflare
p1662
VBlue Flare
p1663
sVdefog
p1664
VDefog
p1665
sVskyattack
p1666
VSky Attack
p1667
sVmoonlight
p1668
VMoonlight
p1669
sVmimic
p1670
VMimic
p1671
sVstockpile
p1672
VStockpile
p1673
sVoddincense
p1674
VOdd Incense
p1675
sVlairon
p1676
VLairon
p1677
sVscrappy
p1678
VScrappy
p1679
sVtogetic
p1680
VTogetic
p1681
sVfirepunch
p1682
VFire Punch
p1683
sVunfezant
p1684
VUnfezant
p1685
sVmicleberry
p1686
VMicle Berry
p1687
sVlightningrod
p1688
VLightningrod
p1689
sVgigadrain
p1690
VGiga Drain
p1691
sS'tornadustherian'
p1692
S'Tornadus-Therian'
p1693
sVvanillish
p1694
VVanillish
p1695
sVsheerforce
p1696
VSheer Force
p1697
sVbayleef
p1698
VBayleef
p1699
sVhondewberry
p1700
VHondew Berry
p1701
sVtympole
p1702
VTympole
p1703
sVwigglytuff
p1704
VWigglytuff
p1705
sVicepunch
p1706
VIce Punch
p1707
sVgalvantula
p1708
VGalvantula
p1709
sVcombusken
p1710
VCombusken
p1711
sVcloudnine
p1712
VCloud Nine
p1713
sVmienshao
p1714
VMienshao
p1715
sVscrafty
p1716
VScrafty
p1717
sVsecretpower
p1718
VSecret Power
p1719
sS'mild'
p1720
S'Mild'
p1721
sVsawsbuck
p1722
VSawsbuck
p1723
sVdoublekick
p1724
VDouble Kick
p1725
sViceball
p1726
VIce Ball
p1727
sVironbarbs
p1728
VIron Barbs
p1729
sValtaria
p1730
VAltaria
p1731
sVcrushgrip
p1732
VCrush Grip
p1733
sVcottonguard
p1734
VCotton Guard
p1735
sVmeganium
p1736
VMeganium
p1737
sVchipaway
p1738
VChip Away
p1739
sVhealer
p1740
VHealer
p1741
sVfeatherdance
p1742
VFeatherDance
p1743
sVtrick
p1744
VTrick
p1745
sVironplate
p1746
VIron Plate
p1747
sVaurorabeam
p1748
VAurora Beam
p1749
sVheartstamp
p1750
VHeart Stamp
p1751
sVboldore
p1752
VBoldore
p1753
sVchoicescarf
p1754
VChoice Scarf
p1755
sVdragonfang
p1756
VDragon Fang
p1757
sVgastly
p1758
VGastly
p1759
sVclearsmog
p1760
VClear Smog
p1761
sVinfernape
p1762
VInfernape
p1763
sVpanpour
p1764
VPanpour
p1765
sS'kyuremwhite'
p1766
S'Kyurem-White'
p1767
sVacidspray
p1768
VAcid Spray
p1769
sVpsychicgem
p1770
VPsychic Gem
p1771
sVkyurem
p1772
VKyurem
p1773
sVwringout
p1774
VWring Out
p1775
sVstarly
p1776
VStarly
p1777
sVgolett
p1778
VGolett
p1779
sVgallade
p1780
VGallade
p1781
sVledian
p1782
VLedian
p1783
sVfeint
p1784
VFeint
p1785
sVluvdisc
p1786
VLuvdisc
p1787
sVhelixfossil
p1788
VHelix Fossil
p1789
sVsplash
p1790
VSplash
p1791
sVillumise
p1792
VIllumise
p1793
sVanorith
p1794
VAnorith
p1795
sVdizzypunch
p1796
VDizzy Punch
p1797
sVhorsea
p1798
VHorsea
p1799
sVstick
p1800
VStick
p1801
sVrazorfang
p1802
VRazor Fang
p1803
sVwatergem
p1804
VWater Gem
p1805
sVturboblaze
p1806
VTurboblaze
p1807
sVnaturalgift
p1808
VNatural Gift
p1809
sVshadowclaw
p1810
VShadow Claw
p1811
sVchartiberry
p1812
VCharti Berry
p1813
sVlumberry
p1814
VLum Berry
p1815
sVvoltorb
p1816
VVoltorb
p1817
sVregice
p1818
VRegice
p1819
sVskyplate
p1820
VSky Plate
p1821
sVsableye
p1822
VSableye
p1823
sVseviper
p1824
VSeviper
p1825
sVmarvelscale
p1826
VMarvel Scale
p1827
sS'aurumoth'
p1828
VAurumoth
p1829
sVslakoth
p1830
VSlakoth
p1831
sVstaryu
p1832
VStaryu
p1833
sVeelektrik
p1834
VEelektrik
p1835
sVwobbuffet
p1836
VWobbuffet
p1837
sVfilter
p1838
VFilter
p1839
sVshelmet
p1840
VShelmet
p1841
sVflyinggem
p1842
VFlying Gem
p1843
sVbulkup
p1844
VBulk Up
p1845
sVglaceon
p1846
VGlaceon
p1847
sVwonderguard
p1848
VWonder Guard
p1849
sVelectricgem
p1850
VElectric Gem
p1851
sS'rotomfan'
p1852
S'Rotom-Fan'
p1853
sVsignalbeam
p1854
VSignal Beam
p1855
sVshuckle
p1856
VShuckle
p1857
sVreflect
p1858
VReflect
p1859
sVdisable
p1860
VDisable
p1861
sVliquidooze
p1862
VLiquid Ooze
p1863
sVtoxicplate
p1864
VToxic Plate
p1865
sVlanturn
p1866
VLanturn
p1867
sVretaliate
p1868
VRetaliate
p1869
sVcorphish
p1870
VCorphish
p1871
sVbastiodon
p1872
VBastiodon
p1873
sVmudbomb
p1874
VMud Bomb
p1875
sVoblivious
p1876
VOblivious
p1877
sVarticuno
p1878
VArticuno
p1879
sVfissure
p1880
VFissure
p1881
sVvolcarona
p1882
VVolcarona
p1883
sVblackglasses
p1884
VBlackGlasses
p1885
sVhealorder
p1886
VHeal Order
p1887
sVjigglypuff
p1888
VJigglypuff
p1889
sVsandslash
p1890
VSandslash
p1891
sVastonish
p1892
VAstonish
p1893
sVenergyball
p1894
VEnergy Ball
p1895
sVrockpolish
p1896
VRock Polish
p1897
sVlampent
p1898
VLampent
p1899
sVfistplate
p1900
VFist Plate
p1901
sVreturn
p1902
VReturn
p1903
sVmrmime
p1904
VMr. Mime
p1905
sVclefable
p1906
VClefable
p1907
sVskuntank
p1908
VSkuntank
p1909
sVprimeape
p1910
VPrimeape
p1911
sVgabite
p1912
VGabite
p1913
sVmissingno
p1914
VMissingno.
p1915
sVbellsprout
p1916
VBellsprout
p1917
sVlovelykiss
p1918
VLovely Kiss
p1919
sVmeanlook
p1920
VMean Look
p1921
sVclamp
p1922
VClamp
p1923
sS'arceusfire'
p1924
S'Arceus-Fire'
p1925
sVquickfeet
p1926
VQuick Feet
p1927
sVraichu
p1928
VRaichu
p1929
sVmagnezone
p1930
VMagnezone
p1931
sVtrickroom
p1932
VTrick Room
p1933
sVstoredpower
p1934
VStored Power
p1935
sVhiddenpowerpsychic
p1936
VHidden Power Psychic
p1937
sVelectroweb
p1938
VElectroweb
p1939
sS'jolly'
p1940
S'Jolly'
p1941
sVsalamence
p1942
VSalamence
p1943
sVabsorb
p1944
VAbsorb
p1945
sS'arceusice'
p1946
S'Arceus-Ice'
p1947
sVsuperfang
p1948
VSuper Fang
p1949
sVcombee
p1950
VCombee
p1951
sVroggenrola
p1952
VRoggenrola
p1953
sVironhead
p1954
VIron Head
p1955
sVsentret
p1956
VSentret
p1957
sVtyrogue
p1958
VTyrogue
p1959
sVcleffa
p1960
VCleffa
p1961
sVguardsplit
p1962
VGuard Split
p1963
sVwaterabsorb
p1964
VWater Absorb
p1965
sVtoxicboost
p1966
VToxic Boost
p1967
sVninetales
p1968
VNinetales
p1969
sVnidoranf
p1970
VNidoranF
p1971
sVcottonspore
p1972
VCotton Spore
p1973
sVnidoranm
p1974
VNidoranM
p1975
sVpineco
p1976
VPineco
p1977
sVscopelens
p1978
VScope Lens
p1979
sVhydreigon
p1980
VHydreigon
p1981
sVaggron
p1982
VAggron
p1983
sVmightyena
p1984
VMightyena
p1985
sVmanaphy
p1986
VManaphy
p1987
sS'brave'
p1988
S'Brave'
p1989
sVmist
p1990
VMist
p1991
sVapicotberry
p1992
VApicot Berry
p1993
sVpetaldance
p1994
VPetal Dance
p1995
sVboltstrike
p1996
VBolt Strike
p1997
sVswarm
p1998
VSwarm
p1999
sVbibarel
p2000
VBibarel
p2001
sVklinklang
p2002
VKlinklang
p2003
sS'landorustherian'
p2004
S'Landorus-Therian'
p2005
sVpoisongem
p2006
VPoison Gem
p2007
sVpsybeam
p2008
VPsybeam
p2009
sVsuckerpunch
p2010
VSucker Punch
p2011
sVfreezeshock
p2012
VFreeze Shock
p2013
sVpsywave
p2014
VPsywave
p2015
sVdrillrun
p2016
VDrill Run
p2017
sVwhiteherb
p2018
VWhite Herb
p2019
sVvenipede
p2020
VVenipede
p2021
sVdarkpulse
p2022
VDark Pulse
p2023
sS'arceusdragon'
p2024
S'Arceus-Dragon'
p2025
sVstall
p2026
VStall
p2027
sVcontrary
p2028
VContrary
p2029
sVdoubleedge
p2030
VDouble-Edge
p2031
sVremoraid
p2032
VRemoraid
p2033
sVclefairy
p2034
VClefairy
p2035
sVklink
p2036
VKlink
p2037
sVclearbody
p2038
VClear Body
p2039
sVfirespin
p2040
VFire Spin
p2041
sVsuicune
p2042
VSuicune
p2043
sVpamtreberry
p2044
VPamtre Berry
p2045
sVmegahorn
p2046
VMegahorn
p2047
sVsunflora
p2048
VSunflora
p2049
sVairballoon
p2050
VAir Balloon
p2051
sVsolrock
p2052
VSolrock
p2053
sVfrillish
p2054
VFrillish
p2055
sVsubstitute
p2056
VSubstitute
p2057
sVkangaskhan
p2058
VKangaskhan
p2059
sVregirock
p2060
VRegirock
p2061
sVpansage
p2062
VPansage
p2063
sVswitcheroo
p2064
VSwitcheroo
p2065
sVrockgem
p2066
VRock Gem
p2067
sVeruption
p2068
VEruption
p2069
sVyawn
p2070
VYawn
p2071
sVcharm
p2072
VCharm
p2073
sVdiglett
p2074
VDiglett
p2075
sVbeldum
p2076
VBeldum
p2077
sVbarboach
p2078
VBarboach
p2079
sVcrosspoison
p2080
VCross Poison
p2081
sVcarvanha
p2082
VCarvanha
p2083
sVlowsweep
p2084
VLow Sweep
p2085
sVsturdy
p2086
VSturdy
p2087
sVcovet
p2088
VCovet
p2089
sVkaratechop
p2090
VKarate Chop
p2091
sVazumarill
p2092
VAzumarill
p2093
sVrazorwind
p2094
VRazor Wind
p2095
sVsmellingsalt
p2096
VSmellingSalt
p2097
sVherdier
p2098
VHerdier
p2099
sVmeloetta
p2100
VMeloetta
p2101
sVnanabberry
p2102
VNanab Berry
p2103
sVzoomlens
p2104
VZoom Lens
p2105
sVblackbelt
p2106
VBlack Belt
p2107
sVhammerarm
p2108
VHammer Arm
p2109
sVmagmaarmor
p2110
VMagma Armor
p2111
sVpayday
p2112
VPay Day
p2113
sVterrakion
p2114
VTerrakion
p2115
sVmagikarp
p2116
VMagikarp
p2117
sVpawniard
p2118
VPawniard
p2119
sVpoisontail
p2120
VPoison Tail
p2121
sVhitmonchan
p2122
VHitmonchan
p2123
sS'docile'
p2124
S'Docile'
p2125
sVfireblast
p2126
VFire Blast
p2127
sVshroomish
p2128
VShroomish
p2129
sVwhismur
p2130
VWhismur
p2131
sVspikes
p2132
VSpikes
p2133
sVshadowstrike
p2134
VShadowStrike
p2135
sVheatcrash
p2136
VHeat Crash
p2137
sVskorupi
p2138
VSkorupi
p2139
sVblitzle
p2140
VBlitzle
p2141
sVtamatoberry
p2142
VTamato Berry
p2143
sVfarfetchd
p2144
VFarfetch'd
p2145
sVarceus
p2146
VArceus
p2147
sVpickup
p2148
VPickup
p2149
sVtangaberry
p2150
VTanga Berry
p2151
sVkarrablast
p2152
VKarrablast
p2153
sVmarowak
p2154
VMarowak
p2155
sVmachobrace
p2156
VMacho Brace
p2157
sVelekid
p2158
VElekid
p2159
sVmagmortar
p2160
VMagmortar
p2161
sVchansey
p2162
VChansey
p2163
sVroaroftime
p2164
VRoar of Time
p2165
sVwildcharge
p2166
VWild Charge
p2167
sVrattata
p2168
VRattata
p2169
sVclaydol
p2170
VClaydol
p2171
sVrelicanth
p2172
VRelicanth
p2173
sVtorchic
p2174
VTorchic
p2175
sVlapras
p2176
VLapras
p2177
sVmankey
p2178
VMankey
p2179
sVprankster
p2180
VPrankster
p2181
sS'shayminsky'
p2182
S'Shaymin-Sky'
p2183
sVwacanberry
p2184
VWacan Berry
p2185
sVsandile
p2186
VSandile
p2187
sVtyphlosion
p2188
VTyphlosion
p2189
sVariados
p2190
VAriados
p2191
sVdrillpeck
p2192
VDrill Peck
p2193
sVicebody
p2194
VIce Body
p2195
sVfearow
p2196
VFearow
p2197
sVxscissor
p2198
VX-Scissor
p2199
sVbellossom
p2200
VBellossom
p2201
sVquiverdance
p2202
VQuiver Dance
p2203
sVmegapunch
p2204
VMega Punch
p2205
sVdamp
p2206
VDamp
p2207
sVmienfoo
p2208
VMienfoo
p2209
sVliepard
p2210
VLiepard
p2211
sVamnesia
p2212
VAmnesia
p2213
sVdestinybond
p2214
VDestiny Bond
p2215
sVcastform
p2216
VCastform
p2217
sVdruddigon
p2218
VDruddigon
p2219
sVtaillow
p2220
VTaillow
p2221
sVdragontail
p2222
VDragon Tail
p2223
sVstringshot
p2224
VString Shot
p2225
sValomomola
p2226
VAlomomola
p2227
sVwatergun
p2228
VWater Gun
p2229
sVvanilluxe
p2230
VVanilluxe
p2231
sVwoobat
p2232
VWoobat
p2233
sVchatter
p2234
VChatter
p2235
sVbasculin
p2236
VBasculin
p2237
sVescavalier
p2238
VEscavalier
p2239
sVpsychoshift
p2240
VPsycho Shift
p2241
sVbisharp
p2242
VBisharp
p2243
sVhoundoom
p2244
VHoundoom
p2245
sVgulpin
p2246
VGulpin
p2247
sVmantyke
p2248
VMantyke
p2249
sVpound
p2250
VPound
p2251
sS'rotommow'
p2252
S'Rotom-Mow'
p2253
sVdefendorder
p2254
VDefend Order
p2255
sVsurskit
p2256
VSurskit
p2257
sVicebeam
p2258
VIce Beam
p2259
sVfacade
p2260
VFacade
p2261
sVzubat
p2262
VZubat
p2263
sVmagikarpsrevenge
p2264
VMagikarp's Revenge
p2265
sVingrain
p2266
VIngrain
p2267
sVcottonee
p2268
VCottonee
p2269
sVpoisonjab
p2270
VPoison Jab
p2271
sVleechseed
p2272
VLeech Seed
p2273
sVgorebyss
p2274
VGorebyss
p2275
sVgrotle
p2276
VGrotle
p2277
sVpikachu
p2278
VPikachu
p2279
sVrayquaza
p2280
VRayquaza
p2281
sVjumpluff
p2282
VJumpluff
p2283
sS'timid'
p2284
S'Timid'
p2285
sVmismagius
p2286
VMismagius
p2287
sVhiddenpowerbug
p2288
VHidden Power Bug
p2289
sVinfiltrator
p2290
VInfiltrator
p2291
sVpsychup
p2292
VPsych Up
p2293
sVtangrowth
p2294
VTangrowth
p2295
sVfiregem
p2296
VFire Gem
p2297
sVshellder
p2298
VShellder
p2299
sVwithdraw
p2300
VWithdraw
p2301
sVpainsplit
p2302
VPain Split
p2303
sVstoneedge
p2304
VStone Edge
p2305
sVhowl
p2306
VHowl
p2307
sVwaterpledge
p2308
VWater Pledge
p2309
sVspearow
p2310
VSpearow
p2311
sVrockwrecker
p2312
VRock Wrecker
p2313
sVsteelgem
p2314
VSteel Gem
p2315
sVcamouflage
p2316
VCamouflage
p2317
sVspinda
p2318
VSpinda
p2319
sVcloyster
p2320
VCloyster
p2321
sVmetapod
p2322
VMetapod
p2323
sVairslash
p2324
VAir Slash
p2325
sVmagiccoat
p2326
VMagic Coat
p2327
sVacrobatics
p2328
VAcrobatics
p2329
sVspheal
p2330
VSpheal
p2331
sVchoicespecs
p2332
VChoice Specs
p2333
sVrebound
p2334
VRebound
p2335
sVsolarbeam
p2336
VSolarBeam
p2337
sVlusterpurge
p2338
VLuster Purge
p2339
sVtorterra
p2340
VTorterra
p2341
sVmoody
p2342
VMoody
p2343
sVgothitelle
p2344
VGothitelle
p2345
sVskilllink
p2346
VSkill Link
p2347
sVursaring
p2348
VUrsaring
p2349
sS'thundurustherian'
p2350
S'Thundurus-Therian'
p2351
sVsubmission
p2352
VSubmission
p2353
sVstaravia
p2354
VStaravia
p2355
sVtailglow
p2356
VTail Glow
p2357
sVuproar
p2358
VUproar
p2359
sVtechnoblast
p2360
VTechno Blast
p2361
sVlilligant
p2362
VLilligant
p2363
sVflamewheel
p2364
VFlame Wheel
p2365
sVsketch
p2366
VSketch
p2367
sVchimchar
p2368
VChimchar
p2369
sVbounce
p2370
VBounce
p2371
sVgigaimpact
p2372
VGiga Impact
p2373
sVsewaddle
p2374
VSewaddle
p2375
sVscald
p2376
VScald
p2377
sVominouswind
p2378
VOminous Wind
p2379
sVdeepseascale
p2380
VDeepSeaScale
p2381
sVmareep
p2382
VMareep
p2383
sVhuntail
p2384
VHuntail
p2385
sVswordsdance
p2386
VSwords Dance
p2387
sVearlybird
p2388
VEarly Bird
p2389
sVslash
p2390
VSlash
p2391
sVhiddenpowergrass
p2392
VHidden Power Grass
p2393
sVmimejr
p2394
VMime Jr.
p2395
sVimprison
p2396
VImprison
p2397
sS'arceusrock'
p2398
S'Arceus-Rock'
p2399
sVodorsleuth
p2400
VOdor Sleuth
p2401
sVfocussash
p2402
VFocus Sash
p2403
sVjellicent
p2404
VJellicent
p2405
sVspelonberry
p2406
VSpelon Berry
p2407
sVblazekick
p2408
VBlaze Kick
p2409
sViapapaberry
p2410
VIapapa Berry
p2411
sVmudkip
p2412
VMudkip
p2413
sVbouffalant
p2414
VBouffalant
p2415
sS'arceusghost'
p2416
S'Arceus-Ghost'
p2417
sVblock
p2418
VBlock
p2419
sVsharpedo
p2420
VSharpedo
p2421
sVarmthrust
p2422
VArm Thrust
p2423
sVchargebeam
p2424
VCharge Beam
p2425
sVshellos
p2426
VShellos
p2427
sVnidoking
p2428
VNidoking
p2429
sVhabanberry
p2430
VHaban Berry
p2431
sVstench
p2432
VStench
p2433
sVtoxicroak
p2434
VToxicroak
p2435
sVcacnea
p2436
VCacnea
p2437
sVsnorunt
p2438
VSnorunt
p2439
sS'relaxed'
p2440
S'Relaxed'
p2441
sVeevee
p2442
VEevee
p2443
sVpsychocut
p2444
VPsycho Cut
p2445
sVtranquill
p2446
VTranquill
p2447
sVragepowder
p2448
VRage Powder
p2449
sVbuizel
p2450
VBuizel
p2451
sVsharpen
p2452
VSharpen
p2453
sVprobopass
p2454
VProbopass
p2455
sVshuppet
p2456
VShuppet
p2457
sVspacialrend
p2458
VSpacial Rend
p2459
sVforesight
p2460
VForesight
p2461
sVwepearberry
p2462
VWepear Berry
p2463
sVpechaberry
p2464
VPecha Berry
p2465
sVbide
p2466
VBide
p2467
sVmiracleseed
p2468
VMiracle Seed
p2469
sVtakedown
p2470
VTake Down
p2471
sVrockhead
p2472
VRock Head
p2473
sVstickybarb
p2474
VSticky Barb
p2475
sVganlonberry
p2476
VGanlon Berry
p2477
sVbulbasaur
p2478
VBulbasaur
p2479
sVheatwave
p2480
VHeat Wave
p2481
sVaudino
p2482
VAudino
p2483
sVdrifloon
p2484
VDrifloon
p2485
sVsnowcloak
p2486
VSnow Cloak
p2487
sVrazorshell
p2488
VRazor Shell
p2489
sVmetagross
p2490
VMetagross
p2491
sVlickilicky
p2492
VLickilicky
p2493
sVzigzagoon
p2494
VZigzagoon
p2495
sVcinccino
p2496
VCinccino
p2497
sVscratch
p2498
VScratch
p2499
sVcharmeleon
p2500
VCharmeleon
p2501
sVsandtomb
p2502
VSand Tomb
p2503
sVcharmander
p2504
VCharmander
p2505
sVspeedboost
p2506
VSpeed Boost
p2507
sVwakeupslap
p2508
VWake-Up Slap
p2509
sVcursedbody
p2510
VCursed Body
p2511
sVharvest
p2512
VHarvest
p2513
sVperishsong
p2514
VPerish Song
p2515
sVcutecharm
p2516
VCute Charm
p2517
sVblaze
p2518
VBlaze
p2519
sVsniper
p2520
VSniper
p2521
sVtriplekick
p2522
VTriple Kick
p2523
sVdarumaka
p2524
VDarumaka
p2525
sVnightslash
p2526
VNight Slash
p2527
sVextrasensory
p2528
VExtrasensory
p2529
sVteddiursa
p2530
VTeddiursa
p2531
sVthundershock
p2532
VThunderShock
p2533
sVazurill
p2534
VAzurill
p2535
sVbigpecks
p2536
VBig Pecks
p2537
sVqwilfish
p2538
VQwilfish
p2539
sVhyperbeam
p2540
VHyper Beam
p2541
sVdynamicpunch
p2542
VDynamicPunch
p2543
sVmagnemite
p2544
VMagnemite
p2545
sVirondefense
p2546
VIron Defense
p2547
sVmisdreavus
p2548
VMisdreavus
p2549
sVfidgit
p2550
VFidgit
p2551
sVdousedrive
p2552
VDouse Drive
p2553
sVcrushclaw
p2554
VCrush Claw
p2555
sVsoftboiled
p2556
VSoftboiled
p2557
sVshedinja
p2558
VShedinja
p2559
sVdownload
p2560
VDownload
p2561
sVacid
p2562
VAcid
p2563
sVvigoroth
p2564
VVigoroth
p2565
sVlombre
p2566
VLombre
p2567
sVdelcatty
p2568
VDelcatty
p2569
sVworryseed
p2570
VWorry Seed
p2571
sVtriattack
p2572
VTri Attack
p2573
sVtyranitar
p2574
VTyranitar
p2575
sVturtwig
p2576
VTurtwig
p2577
sVmagmastorm
p2578
VMagma Storm
p2579
sVpansear
p2580
VPansear
p2581
sVdeerling
p2582
VDeerling
p2583
sVswinub
p2584
VSwinub
p2585
sVabomasnow
p2586
VAbomasnow
p2587
sVsing
p2588
VSing
p2589
sVpowersplit
p2590
VPower Split
p2591
sVincinerate
p2592
VIncinerate
p2593
sVrampardos
p2594
VRampardos
p2595
sVscreech
p2596
VScreech
p2597
sVtentacruel
p2598
VTentacruel
p2599
sVnaturalcure
p2600
VNatural Cure
p2601
sVblizzard
p2602
VBlizzard
p2603
sVteeterdance
p2604
VTeeter Dance
p2605
sVfoongus
p2606
VFoongus
p2607
sVaquaring
p2608
VAqua Ring
p2609
sS'hardy'
p2610
S'Hardy'
p2611
sS'arceusground'
p2612
S'Arceus-Ground'
p2613
sVkingdra
p2614
VKingdra
p2615
sVdragongem
p2616
VDragon Gem
p2617
sVheatran
p2618
VHeatran
p2619
sVwatchog
p2620
VWatchog
p2621
sVpoliwrath
p2622
VPoliwrath
p2623
sVinsomnia
p2624
VInsomnia
p2625
sVcharcoal
p2626
VCharcoal
p2627
sVcranidos
p2628
VCranidos
p2629
sVabsol
p2630
VAbsol
p2631
sVplusle
p2632
VPlusle
p2633
sVrivalry
p2634
VRivalry
p2635
sVwatersport
p2636
VWater Sport
p2637
sVicicleplate
p2638
VIcicle Plate
p2639
sVfuturesight
p2640
VFuture Sight
p2641
sVlustrousorb
p2642
VLustrous Orb
p2643
sVarchen
p2644
VArchen
p2645
sVexeggcute
p2646
VExeggcute
p2647
sVlucario
p2648
VLucario
p2649
sVthundurus
p2650
VThundurus
p2651
sVdonphan
p2652
VDonphan
p2653
sVhealpulse
p2654
VHeal Pulse
p2655
sVblacksludge
p2656
VBlack Sludge
p2657
sVrelicsong
p2658
VRelic Song
p2659
sVgastrodon
p2660
VGastrodon
p2661
sVbronzong
p2662
VBronzong
p2663
sVweavile
p2664
VWeavile
p2665
sVdewott
p2666
VDewott
p2667
sVchandelure
p2668
VChandelure
p2669
sVhaxorus
p2670
VHaxorus
p2671
sVsecretsword
p2672
VSecret Sword
p2673
sVowntempo
p2674
VOwn Tempo
p2675
sVhiddenpower
p2676
VHidden Power
p2677
sVrazorleaf
p2678
VRazor Leaf
p2679
sVpowerswap
p2680
VPower Swap
p2681
sVheadcharge
p2682
VHead Charge
p2683
sVswampert
p2684
VSwampert
p2685
sVpidgey
p2686
VPidgey
p2687
sVgenesect
p2688
VGenesect
p2689
sVlotad
p2690
VLotad
p2691
sVbind
p2692
VBind
p2693
sVcounter
p2694
VCounter
p2695
sVfullincense
p2696
VFull Incense
p2697
sVweepinbell
p2698
VWeepinbell
p2699
sVaquajet
p2700
VAqua Jet
p2701
sVkrabby
p2702
VKrabby
p2703
sVumbreon
p2704
VUmbreon
p2705
sVheatproof
p2706
VHeatproof
p2707
sVguardswap
p2708
VGuard Swap
p2709
sVkadabra
p2710
VKadabra
p2711
sVpurepower
p2712
VPure Power
p2713
sVironball
p2714
VIron Ball
p2715
sVdreameater
p2716
VDream Eater
p2717
sVhelpinghand
p2718
VHelping Hand
p2719
sVmunchlax
p2720
VMunchlax
p2721
sVzenheadbutt
p2722
VZen Headbutt
p2723
sVsuperluck
p2724
VSuper Luck
p2725
sVberryjuice
p2726
VBerry Juice
p2727
sVhiddenpowerflying
p2728
VHidden Power Flying
p2729
sVsandforce
p2730
VSand Force
p2731
sVflail
p2732
VFlail
p2733
sVkabutops
p2734
VKabutops
p2735
sVhoothoot
p2736
VHoothoot
p2737
sVchinchou
p2738
VChinchou
p2739
sVmagnitude
p2740
VMagnitude
p2741
sS'arceusfighting'
p2742
S'Arceus-Fighting'
p2743
sVrapidspin
p2744
VRapid Spin
p2745
sVskullbash
p2746
VSkull Bash
p2747
sVdratini
p2748
VDratini
p2749
sVmaractus
p2750
VMaractus
p2751
sVilluminate
p2752
VIlluminate
p2753
sVmagnetpull
p2754
VMagnet Pull
p2755
sVtepig
p2756
VTepig
p2757
sVkelpsyberry
p2758
VKelpsy Berry
p2759
sVstatic
p2760
VStatic
p2761
sVflameplate
p2762
VFlame Plate
p2763
sVicefang
p2764
VIce Fang
p2765
sVninjask
p2766
VNinjask
p2767
sVjoltik
p2768
VJoltik
p2769
sVrollingkick
p2770
VRolling Kick
p2771
sVweatherball
p2772
VWeather Ball
p2773
sVmanectric
p2774
VManectric
p2775
sVnaturepower
p2776
VNature Power
p2777
sVregisteel
p2778
VRegisteel
p2779
sVsmog
p2780
VSmog
p2781
sVleafguard
p2782
VLeaf Guard
p2783
sVicywind
p2784
VIcy Wind
p2785
sVemolga
p2786
VEmolga
p2787
sVconkeldurr
p2788
VConkeldurr
p2789
sVhippowdon
p2790
VHippowdon
p2791
sVenigmaberry
p2792
VEnigma Berry
p2793
sVvenomoth
p2794
VVenomoth
p2795
sVcobalion
p2796
VCobalion
p2797
sVsudowoodo
p2798
VSudowoodo
p2799
sVlarvitar
p2800
VLarvitar
p2801
sVheadbutt
p2802
VHeadbutt
p2803
sVbodyslam
p2804
VBody Slam
p2805
sVexpertbelt
p2806
VExpert Belt
p2807
sVbugbuzz
p2808
VBug Buzz
p2809
sVfirefang
p2810
VFire Fang
p2811
sVmindplate
p2812
VMind Plate
p2813
sVmistball
p2814
VMist Ball
p2815
sVhijumpkick
p2816
VHi Jump Kick
p2817
sVjumpkick
p2818
VJump Kick
p2819
sVwaterspout
p2820
VWater Spout
p2821
sVloudred
p2822
VLoudred
p2823
sVearthpower
p2824
VEarth Power
p2825
sVmegakick
p2826
VMega Kick
p2827
sS'rotomfrost'
p2828
S'Rotom-Frost'
p2829
sVsolidrock
p2830
VSolid Rock
p2831
sVrabutaberry
p2832
VRabuta Berry
p2833
sVagility
p2834
VAgility
p2835
sVelectabuzz
p2836
VElectabuzz
p2837
sVcrobat
p2838
VCrobat
p2839
sVrockblast
p2840
VRock Blast
p2841
sVslackoff
p2842
VSlack Off
p2843
sVsoftsand
p2844
VSoft Sand
p2845
sVsigilyph
p2846
VSigilyph
p2847
sVdeepseatooth
p2848
VDeepSeaTooth
p2849
sVtorkoal
p2850
VTorkoal
p2851
sVwurmple
p2852
VWurmple
p2853
sVtimburr
p2854
VTimburr
p2855
sVpoisonfang
p2856
VPoison Fang
p2857
sVinsectplate
p2858
VInsect Plate
p2859
sVtorrent
p2860
VTorrent
p2861
sVencore
p2862
VEncore
p2863
sVtrapinch
p2864
VTrapinch
p2865
sVmarshtomp
p2866
VMarshtomp
p2867
sS'gentle'
p2868
S'Gentle'
p2869
sVsandrush
p2870
VSand Rush
p2871
sVriolu
p2872
VRiolu
p2873
sS'arceusflying'
p2874
S'Arceus-Flying'
p2875
sVzebstrika
p2876
VZebstrika
p2877
sVwhitesmoke
p2878
VWhite Smoke
p2879
sVsoak
p2880
VSoak
p2881
sVfusionbolt
p2882
VFusion Bolt
p2883
sVflareon
p2884
VFlareon
p2885
sVcalmmind
p2886
VCalm Mind
p2887
sVgravity
p2888
VGravity
p2889
sVcarnivine
p2890
VCarnivine
p2891
sVgrassgem
p2892
VGrass Gem
p2893
sVpsychoboost
p2894
VPsycho Boost
p2895
sVnuzleaf
p2896
VNuzleaf
p2897
sVwidelens
p2898
VWide Lens
p2899
sVshadowball
p2900
VShadow Ball
p2901
sVdrifblim
p2902
VDrifblim
p2903
sVmewtwo
p2904
VMewtwo
p2905
sVrollout
p2906
VRollout
p2907
sVdracometeor
p2908
VDraco Meteor
p2909
sVsludgewave
p2910
VSludge Wave
p2911
sVsceptile
p2912
VSceptile
p2913
sVporygon
p2914
VPorygon
p2915
sVshedskin
p2916
VShed Skin
p2917
sS'impish'
p2918
S'Impish'
p2919
sVbubblebeam
p2920
VBubbleBeam
p2921
sVbrine
p2922
VBrine
p2923
sVzweilous
p2924
VZweilous
p2925
sVsleeppowder
p2926
VSleep Powder
p2927
sVoldamber
p2928
VOld Amber
p2929
sVdurant
p2930
VDurant
p2931
sVsimplebeam
p2932
VSimple Beam
p2933
sVbrickbreak
p2934
VBrick Break
p2935
sS'rash'
p2936
S'Rash'
p2937
sVpiplup
p2938
VPiplup
p2939
sVflashfire
p2940
VFlash Fire
p2941
sVdeino
p2942
VDeino
p2943
sVcamerupt
p2944
VCamerupt
p2945
sVluckypunch
p2946
VLucky Punch
p2947
sVrarebone
p2948
VRare Bone
p2949
sVsolosis
p2950
VSolosis
p2951
sVbellydrum
p2952
VBelly Drum
p2953
sS'sassy'
p2954
S'Sassy'
p2955
sS'deoxysattack'
p2956
S'Deoxys-Attack'
p2957
sVcroagunk
p2958
VCroagunk
p2959
sVbravebird
p2960
VBrave Bird
p2961
sVgust
p2962
VGust
p2963
sVmagicguard
p2964
VMagic Guard
p2965
sVsandattack
p2966
VSand-Attack
p2967
sVkingler
p2968
VKingler
p2969
sVwish
p2970
VWish
p2971
sVwatmelberry
p2972
VWatmel Berry
p2973
sVember
p2974
VEmber
p2975
sVmotordrive
p2976
VMotor Drive
p2977
sVvictini
p2978
VVictini
p2979
sVfinneon
p2980
VFinneon
p2981
sVelectrode
p2982
VElectrode
p2983
sVchestoberry
p2984
VChesto Berry
p2985
sVgrumpig
p2986
VGrumpig
p2987
sVlifeorb
p2988
VLife Orb
p2989
sVgyarados
p2990
VGyarados
p2991
sVvaporeon
p2992
VVaporeon
p2993
sVthunderwave
p2994
VThunder Wave
p2995
sVrockincense
p2996
VRock Incense
p2997
sVfroslass
p2998
VFroslass
p2999
sVconfusion
p3000
VConfusion
p3001
sVaron
p3002
VAron
p3003
sVconversion2
p3004
VConversion 2
p3005
sVwhiscash
p3006
VWhiscash
p3007
sVzoroark
p3008
VZoroark
p3009
sVshellsmash
p3010
VShell Smash
p3011
sVhydropump
p3012
VHydro Pump
p3013
sVswift
p3014
VSwift
p3015
sVmemento
p3016
VMemento
p3017
sVmetang
p3018
VMetang
p3019
sVbaddreams
p3020
VBad Dreams
p3021
sVaerodactyl
p3022
VAerodactyl
p3023
sVtailwhip
p3024
VTail Whip
p3025
sVklang
p3026
VKlang
p3027
sVswallow
p3028
VSwallow
p3029
sVnumel
p3030
VNumel
p3031
sVwoodhammer
p3032
VWood Hammer
p3033
sVhiddenpowerwater
p3034
VHidden Power Water
p3035
sVgible
p3036
VGible
p3037
sVovercoat
p3038
VOvercoat
p3039
sVekans
p3040
VEkans
p3041
sVgrepaberry
p3042
VGrepa Berry
p3043
sVwailord
p3044
VWailord
p3045
sVswoobat
p3046
VSwoobat
p3047
sVbindingband
p3048
VBinding Band
p3049
sVkeldeo
p3050
VKeldeo
p3051
sVtomohawk
p3052
VTomohawk
p3053
sVivysaur
p3054
VIvysaur
p3055
sVadamantorb
p3056
VAdamant Orb
p3057
sVcoverfossil
p3058
VCover Fossil
p3059
sVaccelgor
p3060
VAccelgor
p3061
sVprotect
p3062
VProtect
p3063
sVraindance
p3064
VRain Dance
p3065
sVpresent
p3066
VPresent
p3067
sVgrovyle
p3068
VGrovyle
p3069
sVintimidate
p3070
VIntimidate
p3071
sVfaintattack
p3072
VFaint Attack
p3073
sVharden
p3074
VHarden
p3075
sVbeheeyem
p3076
VBeheeyem
p3077
sVwhirlpool
p3078
VWhirlpool
p3079
sVpelipper
p3080
VPelipper
p3081
sVthickfat
p3082
VThick Fat
p3083
sVcarracosta
p3084
VCarracosta
p3085
sVluxio
p3086
VLuxio
p3087
sVvullaby
p3088
VVullaby
p3089
sVhiddenpowerghost
p3090
VHidden Power Ghost
p3091
sVlightball
p3092
VLight Ball
p3093
sVwaterveil
p3094
VWater Veil
p3095
sVspelltag
p3096
VSpell Tag
p3097
sS'deoxysdefense'
p3098
S'Deoxys-Defense'
p3099
sVzekrom
p3100
VZekrom
p3101
sVfling
p3102
VFling
p3103
sVdefiant
p3104
VDefiant
p3105
sVhardstone
p3106
VHard Stone
p3107
sVkebiaberry
p3108
VKebia Berry
p3109
sVcascoon
p3110
VCascoon
p3111
sVmagcargo
p3112
VMagcargo
p3113
sS'arceuswater'
p3114
S'Arceus-Water'
p3115
sVraindish
p3116
VRain Dish
p3117
sVseaking
p3118
VSeaking
p3119
sVjudgment
p3120
VJudgment
p3121
sVairlock
p3122
VAir Lock
p3123
sVbabiriberry
p3124
VBabiri Berry
p3125
sVaspearberry
p3126
VAspear Berry
p3127
sVeelektross
p3128
VEelektross
p3129
sVpickpocket
p3130
VPickpocket
p3131
sVsitrusberry
p3132
VSitrus Berry
p3133
sS'arceuspsychic'
p3134
S'Arceus-Psychic'
p3135
sVbeautifly
p3136
VBeautifly
p3137
sVvenoshock
p3138
VVenoshock
p3139
sVmudsport
p3140
VMud Sport
p3141
sVazelf
p3142
VAzelf
p3143
sVyanmega
p3144
VYanmega
p3145
sS'arceusdark'
p3146
S'Arceus-Dark'
p3147
sVpinsir
p3148
VPinsir
p3149
sVguts
p3150
VGuts
p3151
sVtauros
p3152
VTauros
p3153
sVnatu
p3154
VNatu
p3155
sVfaketears
p3156
VFake Tears
p3157
sVsimple
p3158
VSimple
p3159
sVraikou
p3160
VRaikou
p3161
sVswellow
p3162
VSwellow
p3163
sVleechlife
p3164
VLeech Life
p3165
sVkingsrock
p3166
VKing's Rock
p3167
sVblukberry
p3168
VBluk Berry
p3169
sVarenatrap
p3170
VArena Trap
p3171
sVtaunt
p3172
VTaunt
p3173
sVselfdestruct
p3174
VSelfdestruct
p3175
sVgoldeen
p3176
VGoldeen
p3177
sVducklett
p3178
VDucklett
p3179
sVlatios
p3180
VLatios
p3181
sVbudew
p3182
VBudew
p3183
sVbaltoy
p3184
VBaltoy
p3185
sVphanpy
p3186
VPhanpy
p3187
sVroleplay
p3188
VRole Play
p3189
sVkoffing
p3190
VKoffing
p3191
sVglare
p3192
VGlare
p3193
sVthief
p3194
VThief
p3195
sVhail
p3196
VHail
p3197
sVcofagrigus
p3198
VCofagrigus
p3199
sVgrowth
p3200
VGrowth
p3201
sVskarmory
p3202
VSkarmory
p3203
sVpersimberry
p3204
VPersim Berry
p3205
sVdragonclaw
p3206
VDragon Claw
p3207
sVdrizzle
p3208
VDrizzle
p3209
sVstaraptor
p3210
VStaraptor
p3211
sVmagicalleaf
p3212
VMagical Leaf
p3213
sVforcepalm
p3214
VForce Palm
p3215
sVhurricane
p3216
VHurricane
p3217
sVlileep
p3218
VLileep
p3219
sVpiloswine
p3220
VPiloswine
p3221
sVcopycat
p3222
VCopycat
p3223
sVhappiny
p3224
VHappiny
p3225
sVpressure
p3226
VPressure
p3227
sVsilkscarf
p3228
VSilk Scarf
p3229
sVpidgeotto
p3230
VPidgeotto
p3231
sVdreadplate
p3232
VDread Plate
p3233
sVfurret
p3234
VFurret
p3235
sVpsystrike
p3236
VPsystrike
p3237
sVmeteormash
p3238
VMeteor Mash
p3239
sVshucaberry
p3240
VShuca Berry
p3241
sVsweetkiss
p3242
VSweet Kiss
p3243
sVacidarmor
p3244
VAcid Armor
p3245
sVlightclay
p3246
VLight Clay
p3247
sVvoodoom
p3248
VVoodoom
p3249
sVburmy
p3250
VBurmy
p3251
sVmagostberry
p3252
VMagost Berry
p3253
sVspitup
p3254
VSpit Up
p3255
sVrockthrow
p3256
VRock Throw
p3257
sVfrustration
p3258
VFrustration
p3259
sVambipom
p3260
VAmbipom
p3261
sVfollowme
p3262
VFollow Me
p3263
sVquickpowder
p3264
VQuick Powder
p3265
sVfrenzyplant
p3266
VFrenzy Plant
p3267
sVfrisk
p3268
VFrisk
p3269
sVmagoberry
p3270
VMago Berry
p3271
sVcroconaw
p3272
VCroconaw
p3273
sVdrowzee
p3274
VDrowzee
p3275
sVserenegrace
p3276
VSerene Grace
p3277
sVtechnician
p3278
VTechnician
p3279
sS'arceusgrass'
p3280
S'Arceus-Grass'
p3281
sVembargo
p3282
VEmbargo
p3283
sVmetronome
p3284
VMetronome
p3285
sVattackorder
p3286
VAttack Order
p3287
sVallyswitch
p3288
VAlly Switch
p3289
sVhugepower
p3290
VHuge Power
p3291
sVentrainment
p3292
VEntrainment
p3293
sVpoisonheal
p3294
VPoison Heal
p3295
sVhoneclaws
p3296
VHone Claws
p3297
sVoranberry
p3298
VOran Berry
p3299
sVslowstart
p3300
VSlow Start
p3301
sVweakarmor
p3302
VWeak Armor
p3303
sVaurasphere
p3304
VAura Sphere
p3305
sVshelgon
p3306
VShelgon
p3307
sVrawstberry
p3308
VRawst Berry
p3309
sVvacuumwave
p3310
VVacuum Wave
p3311
sVillusion
p3312
VIllusion
p3313
sVreckless
p3314
VReckless
p3315
sVyacheberry
p3316
VYache Berry
p3317
sVtreecko
p3318
VTreecko
p3319
sVdragonair
p3320
VDragonair
p3321
sVbraviary
p3322
VBraviary
p3323
sVnoguard
p3324
VNo Guard
p3325
sVstarmie
p3326
VStarmie
p3327
sVpersistent
p3328
VPersistent
p3329
sVmagmar
p3330
VMagmar
p3331
sVzangoose
p3332
VZangoose
p3333
sVvcreate
p3334
VV-create
p3335
s.