(dp1
Velectivire
p2
VElectivire
p3
sVanchorshot
p4
VAnchor Shot
p5
sVheracross
p6
VHeracross
p7
sVcolorchange
p8
VColor Change
p9
sVlucarionite
p10
VLucarionite
p11
sVpalkia
p12
VPalkia
p13
sVchatter
p14
VChatter
p15
sValakazite
p16
VAlakazite
p17
sVtickle
p18
VTickle
p19
sVarceuselectric
p20
VArceus-Electric
p21
sVabra
p22
VAbra
p23
sVexeggutoralola
p24
VExeggutor-Alola
p25
sVrecycle
p26
VRecycle
p27
sVtimerball
p28
VTimer Ball
p29
sVsteeliumz
p30
VSteelium Z
p31
sVsharpbeak
p32
VSharp Beak
p33
sVmewtwonitex
p34
VMewtwonite X
p35
sVmewtwonitey
p36
VMewtwonite Y
p37
sVquickclaw
p38
VQuick Claw
p39
sVoricoriopompom
p40
VOricorio-Pom-Pom
p41
sVneuroforce
p42
VNeuroforce
p43
sVdoubleslap
p44
VDouble Slap
p45
sVlurantis
p46
VLurantis
p47
sVeviolite
p48
VEviolite
p49
sVprotean
p50
VProtean
p51
sVsquirtle
p52
VSquirtle
p53
sVdiglettalola
p54
VDiglett-Alola
p55
sVdarmanitanzen
p56
VDarmanitan-Zen
p57
sVnastyplot
p58
VNasty Plot
p59
sVwormadam
p60
VWormadam
p61
sVmiracleberry
p62
VMiracle Berry
p63
sVaggronmega
p64
VAggron-Mega
p65
sVwhirlwind
p66
VWhirlwind
p67
sVplumefossil
p68
VPlume Fossil
p69
sVcherrim
p70
VCherrim
p71
sVhiddenpowerelectric
p72
VHidden Power Electric
p73
sVhiddenpowerfire
p74
VHidden Power Fire
p75
sVguillotine
p76
VGuillotine
p77
sVlevitate
p78
VLevitate
p79
sVgyaradosite
p80
VGyaradosite
p81
sVpomegberry
p82
VPomeg Berry
p83
sVpokestargiant
p84
VPokestar Giant
p85
sVmasquerain
p86
VMasquerain
p87
sVaccelerock
p88
VAccelerock
p89
sVthunder
p90
VThunder
p91
sVhaze
p92
VHaze
p93
sVdarkgem
p94
VDark Gem
p95
sVpokestarmt2
p96
VPokestar MT2
p97
sVfraxure
p98
VFraxure
p99
sVmoldbreaker
p100
VMold Breaker
p101
sVcrunch
p102
VCrunch
p103
sVrindoberry
p104
VRindo Berry
p105
sVlatiosite
p106
VLatiosite
p107
sVreflecttype
p108
VReflect Type
p109
sVsnivy
p110
VSnivy
p111
sVmefirst
p112
VMe First
p113
sVstarfberry
p114
VStarf Berry
p115
sVscizorite
p116
VScizorite
p117
sVmew
p118
VMew
p119
sVpursuit
p120
VPursuit
p121
sVheadsmash
p122
VHead Smash
p123
sVaftermath
p124
VAftermath
p125
sVmintberry
p126
VMint Berry
p127
sVclawitzer
p128
VClawitzer
p129
sVpixilate
p130
VPixilate
p131
sVtornadustherian
p132
VTornadus-Therian
p133
sVmoonstone
p134
VMoon Stone
p135
sVlunatone
p136
VLunatone
p137
sVpunishment
p138
VPunishment
p139
sVpoisontouch
p140
VPoison Touch
p141
sVfeebas
p142
VFeebas
p143
sVneedlearm
p144
VNeedle Arm
p145
sValtarianite
p146
VAltarianite
p147
sVblastburn
p148
VBlast Burn
p149
sVhonchkrow
p150
VHonchkrow
p151
sVtactite
p152
VTactite
p153
sVschooling
p154
VSchooling
p155
sVtirtouga
p156
VTirtouga
p157
sVampharos
p158
VAmpharos
p159
sVdusclops
p160
VDusclops
p161
sVpoisonbarb
p162
VPoison Barb
p163
sVmorningsun
p164
VMorning Sun
p165
sVfreezedry
p166
VFreeze-Dry
p167
sVmandibuzz
p168
VMandibuzz
p169
sVoverheat
p170
VOverheat
p171
sVwishiwashischool
p172
VWishiwashi-School
p173
sVspiritomb
p174
VSpiritomb
p175
sVvoltabsorb
p176
VVolt Absorb
p177
sVpurugly
p178
VPurugly
p179
sVshiftgear
p180
VShift Gear
p181
sVvenomoth
p182
VVenomoth
p183
sVfirstimpression
p184
VFirst Impression
p185
sVcastformrainy
p186
VCastform-Rainy
p187
sVbigroot
p188
VBig Root
p189
sVcobalion
p190
VCobalion
p191
sVgardevoir
p192
VGardevoir
p193
sVsheerforce
p194
VSheer Force
p195
sVmagnetrise
p196
VMagnet Rise
p197
sVnaive
p198
VNaive
p199
sVreuniclus
p200
VReuniclus
p201
sVbeastboost
p202
VBeast Boost
p203
sVsceptilemega
p204
VSceptile-Mega
p205
sVlunge
p206
VLunge
p207
sVcharjabug
p208
VCharjabug
p209
sVsteelmemory
p210
VSteel Memory
p211
sVbeastball
p212
VBeast Ball
p213
sVkitsunoh
p214
VKitsunoh
p215
sVarceusbug
p216
VArceus-Bug
p217
sVgranbull
p218
VGranbull
p219
sVmeditite
p220
VMeditite
p221
sVgengarmega
p222
VGengar-Mega
p223
sVpidgeot
p224
VPidgeot
p225
sVstakataka
p226
VStakataka
p227
sVsilvallypoison
p228
VSilvally-Poison
p229
sVtangledfeet
p230
VTangled Feet
p231
sVigglybuff
p232
VIgglybuff
p233
sVonix
p234
VOnix
p235
sVgrimer
p236
VGrimer
p237
sVrototiller
p238
VRototiller
p239
sVlucariomega
p240
VLucario-Mega
p241
sVbugbite
p242
VBug Bite
p243
sVpoisongas
p244
VPoison Gas
p245
sVmakuhita
p246
VMakuhita
p247
sVfriendball
p248
VFriend Ball
p249
sVwigglytuff
p250
VWigglytuff
p251
sVattract
p252
VAttract
p253
sVcharizarditey
p254
VCharizardite Y
p255
sVcharizarditex
p256
VCharizardite X
p257
sVhyperspacehole
p258
VHyperspace Hole
p259
sVskydrop
p260
VSky Drop
p261
sVcrabhammer
p262
VCrabhammer
p263
sVtoxic
p264
VToxic
p265
sVcastformsunny
p266
VCastform-Sunny
p267
sVrotomheat
p268
VRotom-Heat
p269
sVsportball
p270
VSport Ball
p271
sVpoisonpowder
p272
VPoison Powder
p273
sVredcard
p274
VRed Card
p275
sVmodest
p276
VModest
p277
sVtynamo
p278
VTynamo
p279
sVliquidvoice
p280
VLiquid Voice
p281
sVcherubi
p282
VCherubi
p283
sVleafstorm
p284
VLeaf Storm
p285
sVpokestarufo2
p286
VPokestar UFO-2
p287
sVpoweranklet
p288
VPower Anklet
p289
sVgumshoostotem
p290
VGumshoos-Totem
p291
sVspookyplate
p292
VSpooky Plate
p293
sVhasty
p294
VHasty
p295
sVraichualola
p296
VRaichu-Alola
p297
sVentei
p298
VEntei
p299
sVdecidueye
p300
VDecidueye
p301
sVarceussteel
p302
VArceus-Steel
p303
sVtogedemarutotem
p304
VTogedemaru-Totem
p305
sVcobaberry
p306
VCoba Berry
p307
sVlaggingtail
p308
VLagging Tail
p309
sVfinalgambit
p310
VFinal Gambit
p311
sVrapidash
p312
VRapidash
p313
sVblacephalon
p314
VBlacephalon
p315
sVdoubleteam
p316
VDouble Team
p317
sVlumineon
p318
VLumineon
p319
sVgligar
p320
VGligar
p321
sVshielddust
p322
VShield Dust
p323
sVmagicbounce
p324
VMagic Bounce
p325
sVfakeout
p326
VFake Out
p327
sVsludge
p328
VSludge
p329
sVvenusaur
p330
VVenusaur
p331
sVphione
p332
VPhione
p333
sVmindplate
p334
VMind Plate
p335
sVgrassyseed
p336
VGrassy Seed
p337
sVflameburst
p338
VFlame Burst
p339
sVzapplate
p340
VZap Plate
p341
sVmunna
p342
VMunna
p343
sVdragonscale
p344
VDragon Scale
p345
sVjawfossil
p346
VJaw Fossil
p347
sVnihilego
p348
VNihilego
p349
sVmimikyu
p350
VMimikyu
p351
sVkricketot
p352
VKricketot
p353
sVgroundiumz
p354
VGroundium Z
p355
sVroost
p356
VRoost
p357
sVfurycutter
p358
VFury Cutter
p359
sVirontail
p360
VIron Tail
p361
sVclangingscales
p362
VClanging Scales
p363
sVheatmor
p364
VHeatmor
p365
sVeggbomb
p366
VEgg Bomb
p367
sVluxray
p368
VLuxray
p369
sVpayback
p370
VPayback
p371
sVexcadrill
p372
VExcadrill
p373
sVgloom
p374
VGloom
p375
sVgluttony
p376
VGluttony
p377
sVtapukoko
p378
VTapu Koko
p379
sVvulpix
p380
VVulpix
p381
sVcradily
p382
VCradily
p383
sVwimpod
p384
VWimpod
p385
sVthunderfang
p386
VThunder Fang
p387
sVblastoisemega
p388
VBlastoise-Mega
p389
sVespeon
p390
VEspeon
p391
sVtogedemaru
p392
VTogedemaru
p393
sVmultitype
p394
VMultitype
p395
sVflameorb
p396
VFlame Orb
p397
sVpanpour
p398
VPanpour
p399
sVhiddenpowerdragon
p400
VHidden Power Dragon
p401
sVfairywind
p402
VFairy Wind
p403
sVgothorita
p404
VGothorita
p405
sVomastar
p406
VOmastar
p407
sVwalrein
p408
VWalrein
p409
sVsawsbuck
p410
VSawsbuck
p411
sVtruant
p412
VTruant
p413
sVqualotberry
p414
VQualot Berry
p415
sVflowergift
p416
VFlower Gift
p417
sVsuperluck
p418
VSuper Luck
p419
sVpsychic
p420
VPsychic
p421
sVlifeorb
p422
VLife Orb
p423
sVvulpixalola
p424
VVulpix-Alola
p425
sVwaterstone
p426
VWater Stone
p427
sVkasibberry
p428
VKasib Berry
p429
sVribombee
p430
VRibombee
p431
sVargalis
p432
VArgalis
p433
sVcottonguard
p434
VCotton Guard
p435
sVtornadus
p436
VTornadus
p437
sVshedshell
p438
VShed Shell
p439
sVbarrier
p440
VBarrier
p441
sVleftovers
p442
VLeftovers
p443
sVcoreenforcer
p444
VCore Enforcer
p445
sVsynchronoise
p446
VSynchronoise
p447
sVbestow
p448
VBestow
p449
sVtrumpcard
p450
VTrump Card
p451
sVsweetveil
p452
VSweet Veil
p453
sViceball
p454
VIce Ball
p455
sVgalladite
p456
VGalladite
p457
sVshiftry
p458
VShiftry
p459
sVfletchinder
p460
VFletchinder
p461
sVbeartic
p462
VBeartic
p463
sVkyuremblack
p464
VKyurem-Black
p465
sVsonicboom
p466
VSonic Boom
p467
sVpikachupartner
p468
VPikachu-Partner
p469
sVfightinggem
p470
VFighting Gem
p471
sVgroudonprimal
p472
VGroudon-Primal
p473
sVlatias
p474
VLatias
p475
sVfilter
p476
VFilter
p477
sVsteelixmega
p478
VSteelix-Mega
p479
sVtapuniumz
p480
VTapunium Z
p481
sVcherishball
p482
VCherish Ball
p483
sVcheriberry
p484
VCheri Berry
p485
sVfightingmemory
p486
VFighting Memory
p487
sVnaughty
p488
VNaughty
p489
sVseedflare
p490
VSeed Flare
p491
sVhydrocannon
p492
VHydro Cannon
p493
sVmagneticflux
p494
VMagnetic Flux
p495
sVdeoxys
p496
VDeoxys
p497
sVursaring
p498
VUrsaring
p499
sVlatiasmega
p500
VLatias-Mega
p501
sVrattataalola
p502
VRattata-Alola
p503
sVinstruct
p504
VInstruct
p505
sVembirch
p506
VEmbirch
p507
sVshieldon
p508
VShieldon
p509
sVslugma
p510
VSlugma
p511
sVheracrossmega
p512
VHeracross-Mega
p513
sVwaveincense
p514
VWave Incense
p515
sVmanectite
p516
VManectite
p517
sVinnardsout
p518
VInnards Out
p519
sVpikachupopstar
p520
VPikachu-Pop-Star
p521
sVmudsdale
p522
VMudsdale
p523
sVaircutter
p524
VAir Cutter
p525
sVgiratinaorigin
p526
VGiratina-Origin
p527
sVgrowlithe
p528
VGrowlithe
p529
sVinferno
p530
VInferno
p531
sVtwister
p532
VTwister
p533
sVarceusdragon
p534
VArceus-Dragon
p535
sVflamethrower
p536
VFlamethrower
p537
sVtoxicorb
p538
VToxic Orb
p539
sVfairylock
p540
VFairy Lock
p541
sVrockclimb
p542
VRock Climb
p543
sVwonderroom
p544
VWonder Room
p545
sVmegakick
p546
VMega Kick
p547
sVdoomdesire
p548
VDoom Desire
p549
sVmirrormove
p550
VMirror Move
p551
sVsandshrew
p552
VSandshrew
p553
sVpolitoed
p554
VPolitoed
p555
sVminun
p556
VMinun
p557
sVbelueberry
p558
VBelue Berry
p559
sVgeodudealola
p560
VGeodude-Alola
p561
sVfloralhealing
p562
VFloral Healing
p563
sVfiriumz
p564
VFirium Z
p565
sVendure
p566
VEndure
p567
sVswiftswim
p568
VSwift Swim
p569
sVshellbell
p570
VShell Bell
p571
sVminus
p572
VMinus
p573
sVmeowth
p574
VMeowth
p575
sVprankster
p576
VPrankster
p577
sVwacanberry
p578
VWacan Berry
p579
sVsylveon
p580
VSylveon
p581
sVpayapaberry
p582
VPayapa Berry
p583
sVclosecombat
p584
VClose Combat
p585
sVsilvallydark
p586
VSilvally-Dark
p587
sVmetalclaw
p588
VMetal Claw
p589
sVseel
p590
VSeel
p591
sVblastoise
p592
VBlastoise
p593
sVstrength
p594
VStrength
p595
sVchingling
p596
VChingling
p597
sVgothita
p598
VGothita
p599
sVyungoos
p600
VYungoos
p601
sVcraftyshield
p602
VCrafty Shield
p603
sVgyroball
p604
VGyro Ball
p605
sVrhyperior
p606
VRhyperior
p607
sVgolbat
p608
VGolbat
p609
sVgrassyterrain
p610
VGrassy Terrain
p611
sVdeoxysspeed
p612
VDeoxys-Speed
p613
sVpikachucosplay
p614
VPikachu-Cosplay
p615
sVshadowforce
p616
VShadow Force
p617
sVcoil
p618
VCoil
p619
sVdrought
p620
VDrought
p621
sVfeint
p622
VFeint
p623
sVcosmicpower
p624
VCosmic Power
p625
sVempoleon
p626
VEmpoleon
p627
sVthousandwaves
p628
VThousand Waves
p629
sVdunsparce
p630
VDunsparce
p631
sVnincada
p632
VNincada
p633
sVconstrict
p634
VConstrict
p635
sVvileplume
p636
VVileplume
p637
sVraticate
p638
VRaticate
p639
sVcinccino
p640
VCinccino
p641
sVjirachi
p642
VJirachi
p643
sVgolduck
p644
VGolduck
p645
sVshiinotic
p646
VShiinotic
p647
sVarmorfossil
p648
VArmor Fossil
p649
sVstickyweb
p650
VSticky Web
p651
sVlycanrocdusk
p652
VLycanroc-Dusk
p653
sVtogekiss
p654
VTogekiss
p655
sVhippopotas
p656
VHippopotas
p657
sVdialga
p658
VDialga
p659
sVlastresort
p660
VLast Resort
p661
sVpsychicterrain
p662
VPsychic Terrain
p663
sVbulletpunch
p664
VBullet Punch
p665
sVicegem
p666
VIce Gem
p667
sVspite
p668
VSpite
p669
sVcarbink
p670
VCarbink
p671
sVwaterpulse
p672
VWater Pulse
p673
sVstoutland
p674
VStoutland
p675
sVgenesissupernova
p676
VGenesis Supernova
p677
sVbidoof
p678
VBidoof
p679
sVsyclant
p680
VSyclant
p681
sVhaunter
p682
VHaunter
p683
sVweedle
p684
VWeedle
p685
sVaerilate
p686
VAerilate
p687
sVhoneygather
p688
VHoney Gather
p689
sVmachop
p690
VMachop
p691
sVmetalpowder
p692
VMetal Powder
p693
sVguardianofalola
p694
VGuardian of Alola
p695
sVdusknoir
p696
VDusknoir
p697
sVmeditate
p698
VMeditate
p699
sVreversal
p700
VReversal
p701
sVlunardance
p702
VLunar Dance
p703
sVpumpkaboosmall
p704
VPumpkaboo-Small
p705
sVtentacool
p706
VTentacool
p707
sVpokeball
p708
VPoke Ball
p709
sVsilvally
p710
VSilvally
p711
sVdiancie
p712
VDiancie
p713
sVplasmanta
p714
VPlasmanta
p715
sVnosepass
p716
VNosepass
p717
sVmawilite
p718
VMawilite
p719
sVlaxincense
p720
VLax Incense
p721
sVmagneton
p722
VMagneton
p723
sVstickyhold
p724
VSticky Hold
p725
sVbeatup
p726
VBeat Up
p727
sVleafblade
p728
VLeaf Blade
p729
sVfluffy
p730
VFluffy
p731
sVserperior
p732
VSerperior
p733
sVlopunnite
p734
VLopunnite
p735
sVwooper
p736
VWooper
p737
sVforretress
p738
VForretress
p739
sVmindreader
p740
VMind Reader
p741
sVseaincense
p742
VSea Incense
p743
sVsimisage
p744
VSimisage
p745
sVsolarblade
p746
VSolar Blade
p747
sVarcheops
p748
VArcheops
p749
sVheavymetal
p750
VHeavy Metal
p751
sVwormadamsandy
p752
VWormadam-Sandy
p753
sVpsychiumz
p754
VPsychium Z
p755
sVspiritshackle
p756
VSpirit Shackle
p757
sVcontinentalcrush
p758
VContinental Crush
p759
sVmuscleband
p760
VMuscle Band
p761
sVtwinkletackle
p762
VTwinkle Tackle
p763
sVmatblock
p764
VMat Block
p765
sVmoongeistbeam
p766
VMoongeist Beam
p767
sVdoduo
p768
VDoduo
p769
sVmuk
p770
VMuk
p771
sVnecrozmadawnwings
p772
VNecrozma-Dawn-Wings
p773
sVmotordrive
p774
VMotor Drive
p775
sVconfusion
p776
VConfusion
p777
sVslowpoke
p778
VSlowpoke
p779
sVfrostbreath
p780
VFrost Breath
p781
sVvirizion
p782
VVirizion
p783
sVspinda
p784
VSpinda
p785
sVcosmoem
p786
VCosmoem
p787
sVmeadowplate
p788
VMeadow Plate
p789
sVparasect
p790
VParasect
p791
sVgourgeistsmall
p792
VGourgeist-Small
p793
sVadamantorb
p794
VAdamant Orb
p795
sVprotect
p796
VProtect
p797
sVplaynice
p798
VPlay Nice
p799
sVsamurott
p800
VSamurott
p801
sVmenacingmoonrazemaelstrom
p802
VMenacing Moonraze Maelstrom
p803
sVreceiver
p804
VReceiver
p805
sVmawile
p806
VMawile
p807
sVchimecho
p808
VChimecho
p809
sVpetayaberry
p810
VPetaya Berry
p811
sVdoublade
p812
VDoublade
p813
sVsailfossil
p814
VSail Fossil
p815
sVdeltastream
p816
VDelta Stream
p817
sVluckychant
p818
VLucky Chant
p819
sVleppaberry
p820
VLeppa Berry
p821
sVlick
p822
VLick
p823
sVoblivious
p824
VOblivious
p825
sVfierydance
p826
VFiery Dance
p827
sVfloatzel
p828
VFloatzel
p829
sVsmackdown
p830
VSmack Down
p831
sVcopycat
p832
VCopycat
p833
sVsalamencite
p834
VSalamencite
p835
sVbuneary
p836
VBuneary
p837
sVrevelationdance
p838
VRevelation Dance
p839
sVshockdrive
p840
VShock Drive
p841
sVnightdaze
p842
VNight Daze
p843
sVfriendguard
p844
VFriend Guard
p845
sVscaryface
p846
VScary Face
p847
sVmarowakalolatotem
p848
VMarowak-Alola-Totem
p849
sVsteamroller
p850
VSteamroller
p851
sVsalazzle
p852
VSalazzle
p853
sVwimpout
p854
VWimp Out
p855
sVkakuna
p856
VKakuna
p857
sVpowertrick
p858
VPower Trick
p859
sVyanma
p860
VYanma
p861
sVsilvallyfire
p862
VSilvally-Fire
p863
sVchatot
p864
VChatot
p865
sVaciddownpour
p866
VAcid Downpour
p867
sVmarshtomp
p868
VMarshtomp
p869
sVgurdurr
p870
VGurdurr
p871
sVsoundproof
p872
VSoundproof
p873
sVslam
p874
VSlam
p875
sVthrash
p876
VThrash
p877
sVsandrush
p878
VSand Rush
p879
sVsliggoo
p880
VSliggoo
p881
sVtotodile
p882
VTotodile
p883
sVgarchompite
p884
VGarchompite
p885
sVslowbro
p886
VSlowbro
p887
sVprismaticlaser
p888
VPrismatic Laser
p889
sVnaganadel
p890
VNaganadel
p891
sValakazam
p892
VAlakazam
p893
sVbinacle
p894
VBinacle
p895
sVhitmonlee
p896
VHitmonlee
p897
sVmarowakalola
p898
VMarowak-Alola
p899
sVnevermeltice
p900
VNever-Melt Ice
p901
sVgrowl
p902
VGrowl
p903
sViciumz
p904
VIcium Z
p905
sVaguavberry
p906
VAguav Berry
p907
sVdrilbur
p908
VDrilbur
p909
sVcameruptite
p910
VCameruptite
p911
sVwhippeddream
p912
VWhipped Dream
p913
sVralts
p914
VRalts
p915
sVpupitar
p916
VPupitar
p917
sVkyurem
p918
VKyurem
p919
sVslowking
p920
VSlowking
p921
sVpowerherb
p922
VPower Herb
p923
sVnoivern
p924
VNoivern
p925
sVwaterfall
p926
VWaterfall
p927
sVdewgong
p928
VDewgong
p929
sVflyiniumz
p930
VFlyinium Z
p931
sVkirlia
p932
VKirlia
p933
sVknockoff
p934
VKnock Off
p935
sVoctazooka
p936
VOctazooka
p937
sVcawmodore
p938
VCawmodore
p939
sVpikachubelle
p940
VPikachu-Belle
p941
sVluxuryball
p942
VLuxury Ball
p943
sVhydration
p944
VHydration
p945
sVkrokorok
p946
VKrokorok
p947
sVamoonguss
p948
VAmoonguss
p949
sVsilvallygrass
p950
VSilvally-Grass
p951
sVquilladin
p952
VQuilladin
p953
sVshellarmor
p954
VShell Armor
p955
sVpoliwag
p956
VPoliwag
p957
sVslushrush
p958
VSlush Rush
p959
sVmetalcoat
p960
VMetal Coat
p961
sVthickclub
p962
VThick Club
p963
sVdugtrioalola
p964
VDugtrio-Alola
p965
sVdisguise
p966
VDisguise
p967
sVscizor
p968
VScizor
p969
sVfloetteeternal
p970
VFloette-Eternal
p971
sVkerfluffle
p972
VKerfluffle
p973
sVsilcoon
p974
VSilcoon
p975
sVbuggem
p976
VBug Gem
p977
sVdragonmemory
p978
VDragon Memory
p979
sVoshawott
p980
VOshawott
p981
sVtorterra
p982
VTorterra
p983
sVtogepi
p984
VTogepi
p985
sVdomefossil
p986
VDome Fossil
p987
sVadamant
p988
VAdamant
p989
sVlowkick
p990
VLow Kick
p991
sVhealbell
p992
VHeal Bell
p993
sVmirrorshot
p994
VMirror Shot
p995
sVtapufini
p996
VTapu Fini
p997
sVlickitung
p998
VLickitung
p999
sVpassimian
p1000
VPassimian
p1001
sVlatiosmega
p1002
VLatios-Mega
p1003
sVdragonrush
p1004
VDragon Rush
p1005
sVredorb
p1006
VRed Orb
p1007
sVspinarak
p1008
VSpinarak
p1009
sVdiggersby
p1010
VDiggersby
p1011
sVsilverwind
p1012
VSilver Wind
p1013
sVpaleowave
p1014
VPaleo Wave
p1015
sVludicolo
p1016
VLudicolo
p1017
sVditto
p1018
VDitto
p1019
sVcirclethrow
p1020
VCircle Throw
p1021
sVfullmetalbody
p1022
VFull Metal Body
p1023
sValloutpummeling
p1024
VAll-Out Pummeling
p1025
sVinfernooverdrive
p1026
VInferno Overdrive
p1027
sVthunderstone
p1028
VThunder Stone
p1029
sVhiddenpowerpoison
p1030
VHidden Power Poison
p1031
sVflatter
p1032
VFlatter
p1033
sVtoxicspikes
p1034
VToxic Spikes
p1035
sVfirepledge
p1036
VFire Pledge
p1037
sVnoctowl
p1038
VNoctowl
p1039
sVcornnberry
p1040
VCornn Berry
p1041
sVskullfossil
p1042
VSkull Fossil
p1043
sVcheekpouch
p1044
VCheek Pouch
p1045
sVuproar
p1046
VUproar
p1047
sVgoldberry
p1048
VGold Berry
p1049
sVferrothorn
p1050
VFerrothorn
p1051
sVexpertbelt
p1052
VExpert Belt
p1053
sVholdhands
p1054
VHold Hands
p1055
sVcrosschop
p1056
VCross Chop
p1057
sVpsyshock
p1058
VPsyshock
p1059
sVicyrock
p1060
VIcy Rock
p1061
sVsoulheart
p1062
VSoul-Heart
p1063
sVtrevenant
p1064
VTrevenant
p1065
sVabsorbbulb
p1066
VAbsorb Bulb
p1067
sVbold
p1068
VBold
p1069
sVgunkshot
p1070
VGunk Shot
p1071
sVmagearna
p1072
VMagearna
p1073
sVarceusfire
p1074
VArceus-Fire
p1075
sVgarchomp
p1076
VGarchomp
p1077
sVgeodude
p1078
VGeodude
p1079
sVlightscreen
p1080
VLight Screen
p1081
sVwhimsicott
p1082
VWhimsicott
p1083
sVlavaplume
p1084
VLava Plume
p1085
sVkeeneye
p1086
VKeen Eye
p1087
sVsimipour
p1088
VSimipour
p1089
sVtrumbeak
p1090
VTrumbeak
p1091
sVautotomize
p1092
VAutotomize
p1093
sVspikecannon
p1094
VSpike Cannon
p1095
sVnecturna
p1096
VNecturna
p1097
sVplus
p1098
VPlus
p1099
sVnidoqueen
p1100
VNidoqueen
p1101
sVsapsipper
p1102
VSap Sipper
p1103
sVpikachulibre
p1104
VPikachu-Libre
p1105
sVthunderpunch
p1106
VThunder Punch
p1107
sVhornleech
p1108
VHorn Leech
p1109
sVbraixen
p1110
VBraixen
p1111
sVdarkvoid
p1112
VDark Void
p1113
sVsupersonicskystrike
p1114
VSupersonic Skystrike
p1115
sVhoundour
p1116
VHoundour
p1117
sVdualchop
p1118
VDual Chop
p1119
sVpinsirmega
p1120
VPinsir-Mega
p1121
sVfoulplay
p1122
VFoul Play
p1123
sVscyther
p1124
VScyther
p1125
sVgalewings
p1126
VGale Wings
p1127
sVstormdrain
p1128
VStorm Drain
p1129
sVseadra
p1130
VSeadra
p1131
sVovergrow
p1132
VOvergrow
p1133
sVprismscale
p1134
VPrism Scale
p1135
sVbronzor
p1136
VBronzor
p1137
sVwrap
p1138
VWrap
p1139
sVrebble
p1140
VRebble
p1141
sVterrainextender
p1142
VTerrain Extender
p1143
sVcorsola
p1144
VCorsola
p1145
sVtransform
p1146
VTransform
p1147
sVklefki
p1148
VKlefki
p1149
sVrowapberry
p1150
VRowap Berry
p1151
sVquirky
p1152
VQuirky
p1153
sVquickattack
p1154
VQuick Attack
p1155
sVsynthesis
p1156
VSynthesis
p1157
sVmultiscale
p1158
VMultiscale
p1159
sVgroundgem
p1160
VGround Gem
p1161
sVreshiram
p1162
VReshiram
p1163
sVrocksmash
p1164
VRock Smash
p1165
sVvolttackle
p1166
VVolt Tackle
p1167
sVghostgem
p1168
VGhost Gem
p1169
sVleafage
p1170
VLeafage
p1171
sVroughskin
p1172
VRough Skin
p1173
sVsafeguard
p1174
VSafeguard
p1175
sVsmoothrock
p1176
VSmooth Rock
p1177
sVcosmog
p1178
VCosmog
p1179
sVgearup
p1180
VGear Up
p1181
sVbide
p1182
VBide
p1183
sVaurabreak
p1184
VAura Break
p1185
sVaurorus
p1186
VAurorus
p1187
sVlightofruin
p1188
VLight of Ruin
p1189
sVstokedsparksurfer
p1190
VStoked Sparksurfer
p1191
sVholdback
p1192
VHold Back
p1193
sVpoweruppunch
p1194
VPower-Up Punch
p1195
sVunnerve
p1196
VUnnerve
p1197
sVparentalbond
p1198
VParental Bond
p1199
sVlunaliumz
p1200
VLunalium Z
p1201
sVferaligatr
p1202
VFeraligatr
p1203
sVpokestarbrycenman
p1204
VPokestar Brycen-Man
p1205
sVoddish
p1206
VOddish
p1207
sVleer
p1208
VLeer
p1209
sVmagby
p1210
VMagby
p1211
sVtypenull
p1212
VType: Null
p1213
sVswadloon
p1214
VSwadloon
p1215
sVvibrava
p1216
VVibrava
p1217
sVuxie
p1218
VUxie
p1219
sVsmoochum
p1220
VSmoochum
p1221
sVlansatberry
p1222
VLansat Berry
p1223
sVbutterfree
p1224
VButterfree
p1225
sVferroseed
p1226
VFerroseed
p1227
sVgoomy
p1228
VGoomy
p1229
sVamaura
p1230
VAmaura
p1231
sVminiormeteor
p1232
VMinior-Meteor
p1233
sVclawfossil
p1234
VClaw Fossil
p1235
sVdischarge
p1236
VDischarge
p1237
sVkyogre
p1238
VKyogre
p1239
sVstrengthsap
p1240
VStrength Sap
p1241
sVpoisonpoint
p1242
VPoison Point
p1243
sVhiddenpowerground
p1244
VHidden Power Ground
p1245
sVarceuspoison
p1246
VArceus-Poison
p1247
sVliechiberry
p1248
VLiechi Berry
p1249
sVlillipup
p1250
VLillipup
p1251
sVsilvallyflying
p1252
VSilvally-Flying
p1253
sVspectralthief
p1254
VSpectral Thief
p1255
sVflareboost
p1256
VFlare Boost
p1257
sVmareep
p1258
VMareep
p1259
sVoccaberry
p1260
VOcca Berry
p1261
sVironfist
p1262
VIron Fist
p1263
sVserious
p1264
VSerious
p1265
sVmegadrain
p1266
VMega Drain
p1267
sVsalacberry
p1268
VSalac Berry
p1269
sVpolkadotbow
p1270
VPolkadot Bow
p1271
sVsnubbull
p1272
VSnubbull
p1273
sVsandveil
p1274
VSand Veil
p1275
sVabsolite
p1276
VAbsolite
p1277
sVbonsly
p1278
VBonsly
p1279
sVnecrozma
p1280
VNecrozma
p1281
sVcelebi
p1282
VCelebi
p1283
sVavalanche
p1284
VAvalanche
p1285
sVshadowsneak
p1286
VShadow Sneak
p1287
sVsuctioncups
p1288
VSuction Cups
p1289
sVwaterbubble
p1290
VWater Bubble
p1291
sVsuperpower
p1292
VSuperpower
p1293
sVchinchou
p1294
VChinchou
p1295
sVanticipation
p1296
VAnticipation
p1297
sVweezing
p1298
VWeezing
p1299
sVdragonpulse
p1300
VDragon Pulse
p1301
sVelectroball
p1302
VElectro Ball
p1303
sVflash
p1304
VFlash
p1305
sVnetball
p1306
VNet Ball
p1307
sVcharge
p1308
VCharge
p1309
sVquash
p1310
VQuash
p1311
sVsnorlax
p1312
VSnorlax
p1313
sVblackholeeclipse
p1314
VBlack Hole Eclipse
p1315
sVunburden
p1316
VUnburden
p1317
sVrufflet
p1318
VRufflet
p1319
sVmachamp
p1320
VMachamp
p1321
sVkricketune
p1322
VKricketune
p1323
sVtailslap
p1324
VTail Slap
p1325
sVchilanberry
p1326
VChilan Berry
p1327
sVlopunny
p1328
VLopunny
p1329
sVtoxicplate
p1330
VToxic Plate
p1331
sVtoucannon
p1332
VToucannon
p1333
sVpikachualola
p1334
VPikachu-Alola
p1335
sVsplinteredstormshards
p1336
VSplintered Stormshards
p1337
sVskyuppercut
p1338
VSky Uppercut
p1339
sVmimejr
p1340
VMime Jr.
p1341
sVguzzlord
p1342
VGuzzlord
p1343
sVpoisonsting
p1344
VPoison Sting
p1345
sVdig
p1346
VDig
p1347
sVfocusblast
p1348
VFocus Blast
p1349
sVmesprit
p1350
VMesprit
p1351
sVmagnet
p1352
VMagnet
p1353
sVbanettemega
p1354
VBanette-Mega
p1355
sVround
p1356
VRound
p1357
sVunaware
p1358
VUnaware
p1359
sVduskball
p1360
VDusk Ball
p1361
sVfalseswipe
p1362
VFalse Swipe
p1363
sVtalonflame
p1364
VTalonflame
p1365
sVleafeon
p1366
VLeafeon
p1367
sVpokestarufopropu2
p1368
VPokestar UFO-PropU2
p1369
sVminior
p1370
VMinior
p1371
sVzorua
p1372
VZorua
p1373
sVfairymemory
p1374
VFairy Memory
p1375
sVvitalthrow
p1376
VVital Throw
p1377
sVsubstitute
p1378
VSubstitute
p1379
sVcurse
p1380
VCurse
p1381
sVfocusband
p1382
VFocus Band
p1383
sVmoltres
p1384
VMoltres
p1385
sVpasshoberry
p1386
VPassho Berry
p1387
sVtanglinghair
p1388
VTangling Hair
p1389
sVdragondance
p1390
VDragon Dance
p1391
sVaxew
p1392
VAxew
p1393
sVgolemalola
p1394
VGolem-Alola
p1395
sVkecleon
p1396
VKecleon
p1397
sVglameow
p1398
VGlameow
p1399
sVaeroblast
p1400
VAeroblast
p1401
sVwartortle
p1402
VWartortle
p1403
sVexplosion
p1404
VExplosion
p1405
sVmiracleeye
p1406
VMiracle Eye
p1407
sVpumpkaboo
p1408
VPumpkaboo
p1409
sVsimisear
p1410
VSimisear
p1411
sVhoopa
p1412
VHoopa
p1413
sVtropius
p1414
VTropius
p1415
sVgroundmemory
p1416
VGround Memory
p1417
sVmysticwater
p1418
VMystic Water
p1419
sVearthquake
p1420
VEarthquake
p1421
sVgastroacid
p1422
VGastro Acid
p1423
sVejectbutton
p1424
VEject Button
p1425
sVbeedrillmega
p1426
VBeedrill-Mega
p1427
sVexploud
p1428
VExploud
p1429
sVaraquanidtotem
p1430
VAraquanid-Totem
p1431
sVdiveball
p1432
VDive Ball
p1433
sVsawk
p1434
VSawk
p1435
sVsandygast
p1436
VSandygast
p1437
sVdedenne
p1438
VDedenne
p1439
sVdragonite
p1440
VDragonite
p1441
sVbagon
p1442
VBagon
p1443
sVregenerator
p1444
VRegenerator
p1445
sViondeluge
p1446
VIon Deluge
p1447
sVlarvesta
p1448
VLarvesta
p1449
sVmudslap
p1450
VMud-Slap
p1451
sVhawlucha
p1452
VHawlucha
p1453
sVmagicroom
p1454
VMagic Room
p1455
sVampharosite
p1456
VAmpharosite
p1457
sVdesolateland
p1458
VDesolate Land
p1459
sVpinsirite
p1460
VPinsirite
p1461
sVheavyslam
p1462
VHeavy Slam
p1463
sVpinmissile
p1464
VPin Missile
p1465
sVkyogreprimal
p1466
VKyogre-Primal
p1467
sVbanefulbunker
p1468
VBaneful Bunker
p1469
sVtakedown
p1470
VTake Down
p1471
sVcaptivate
p1472
VCaptivate
p1473
sVflamecharge
p1474
VFlame Charge
p1475
sVswagger
p1476
VSwagger
p1477
sVxatu
p1478
VXatu
p1479
sVrockslide
p1480
VRock Slide
p1481
sVcaterpie
p1482
VCaterpie
p1483
sVhypno
p1484
VHypno
p1485
sVscratchet
p1486
VScratchet
p1487
sVelectrike
p1488
VElectrike
p1489
sVfletchling
p1490
VFletchling
p1491
sVseismictoss
p1492
VSeismic Toss
p1493
sVfly
p1494
VFly
p1495
sVuturn
p1496
VU-turn
p1497
sVflygon
p1498
VFlygon
p1499
sVsandstorm
p1500
VSandstorm
p1501
sVswampertite
p1502
VSwampertite
p1503
sVswablu
p1504
VSwablu
p1505
sVcatastropika
p1506
VCatastropika
p1507
sVspikyshield
p1508
VSpiky Shield
p1509
sVscolipede
p1510
VScolipede
p1511
sVdwebble
p1512
VDwebble
p1513
sVpignite
p1514
VPignite
p1515
sVsolarpower
p1516
VSolar Power
p1517
sVvespiquen
p1518
VVespiquen
p1519
sVpalpitoad
p1520
VPalpitoad
p1521
sVchilldrive
p1522
VChill Drive
p1523
sVnormalize
p1524
VNormalize
p1525
sVbanette
p1526
VBanette
p1527
sVtearfullook
p1528
VTearful Look
p1529
sVtailwind
p1530
VTailwind
p1531
sVdianciemega
p1532
VDiancie-Mega
p1533
sVwideguard
p1534
VWide Guard
p1535
sVeelektrik
p1536
VEelektrik
p1537
sVlightthatburnsthesky
p1538
VLight That Burns the Sky
p1539
sVsandforce
p1540
VSand Force
p1541
sVdarkestlariat
p1542
VDarkest Lariat
p1543
sVpowerbelt
p1544
VPower Belt
p1545
sVelectricterrain
p1546
VElectric Terrain
p1547
sVoctillery
p1548
VOctillery
p1549
sVselfdestruct
p1550
VSelf-Destruct
p1551
sVstantler
p1552
VStantler
p1553
sVdive
p1554
VDive
p1555
sVarmaldo
p1556
VArmaldo
p1557
sVdarkmemory
p1558
VDark Memory
p1559
sVwiseglasses
p1560
VWise Glasses
p1561
sVmilkdrink
p1562
VMilk Drink
p1563
sVpowerwhip
p1564
VPower Whip
p1565
sVancientpower
p1566
VAncient Power
p1567
sVletssnuggleforever
p1568
VLet's Snuggle Forever
p1569
sVcryogonal
p1570
VCryogonal
p1571
sVsupersonic
p1572
VSupersonic
p1573
sVpsychicfangs
p1574
VPsychic Fangs
p1575
sVdelibird
p1576
VDelibird
p1577
sVelectricsurge
p1578
VElectric Surge
p1579
sVmalamar
p1580
VMalamar
p1581
sVpurify
p1582
VPurify
p1583
sVshinx
p1584
VShinx
p1585
sVclamperl
p1586
VClamperl
p1587
sVlitwick
p1588
VLitwick
p1589
sVslowbronite
p1590
VSlowbronite
p1591
sVriolu
p1592
VRiolu
p1593
sVlugia
p1594
VLugia
p1595
sVbulletseed
p1596
VBullet Seed
p1597
sVbubblebeam
p1598
VBubble Beam
p1599
sVpachirisu
p1600
VPachirisu
p1601
sVpoipole
p1602
VPoipole
p1603
sVtoxicthread
p1604
VToxic Thread
p1605
sVarcanine
p1606
VArcanine
p1607
sVsneasel
p1608
VSneasel
p1609
sVgrassknot
p1610
VGrass Knot
p1611
sVauroraveil
p1612
VAurora Veil
p1613
sVklutz
p1614
VKlutz
p1615
sVpokestarspirit
p1616
VPokestar Spirit
p1617
sVbulldoze
p1618
VBulldoze
p1619
sVfocusenergy
p1620
VFocus Energy
p1621
sVmimikyutotem
p1622
VMimikyu-Totem
p1623
sVprimordialsea
p1624
VPrimordial Sea
p1625
sVsnugglow
p1626
VSnugglow
p1627
sVkabuto
p1628
VKabuto
p1629
sVmail
p1630
VMail
p1631
sVfuryswipes
p1632
VFury Swipes
p1633
sVlonely
p1634
VLonely
p1635
sVfling
p1636
VFling
p1637
sVrattled
p1638
VRattled
p1639
sVinsomnia
p1640
VInsomnia
p1641
sVwatermemory
p1642
VWater Memory
p1643
sVfusionflare
p1644
VFusion Flare
p1645
sVsafariball
p1646
VSafari Ball
p1647
sVeffectspore
p1648
VEffect Spore
p1649
sVboomburst
p1650
VBoomburst
p1651
sVregice
p1652
VRegice
p1653
sVlinoone
p1654
VLinoone
p1655
sValtariamega
p1656
VAltaria-Mega
p1657
sVpowerconstruct
p1658
VPower Construct
p1659
sVsynchronize
p1660
VSynchronize
p1661
sVsilvallyghost
p1662
VSilvally-Ghost
p1663
sVmantine
p1664
VMantine
p1665
sVglalie
p1666
VGlalie
p1667
sVpsyduck
p1668
VPsyduck
p1669
sVmentalherb
p1670
VMental Herb
p1671
sVswalot
p1672
VSwalot
p1673
sVgenesectburn
p1674
VGenesect-Burn
p1675
sVporygonz
p1676
VPorygon-Z
p1677
sVstrugglebug
p1678
VStruggle Bug
p1679
sVpersian
p1680
VPersian
p1681
sVcorkscrewcrash
p1682
VCorkscrew Crash
p1683
sVsilvallybug
p1684
VSilvally-Bug
p1685
sVsinisterarrowraid
p1686
VSinister Arrow Raid
p1687
sVsandslashalola
p1688
VSandslash-Alola
p1689
sVlycanroc
p1690
VLycanroc
p1691
sVshaymin
p1692
VShaymin
p1693
sVpidove
p1694
VPidove
p1695
sVrockiumz
p1696
VRockium Z
p1697
sVskillswap
p1698
VSkill Swap
p1699
sVtorracat
p1700
VTorracat
p1701
sVassurance
p1702
VAssurance
p1703
sVpoochyena
p1704
VPoochyena
p1705
sVpokestarblackdoor
p1706
VPokestar Black Door
p1707
sVporygon2
p1708
VPorygon2
p1709
sVtoxicroak
p1710
VToxicroak
p1711
sVsteelwing
p1712
VSteel Wing
p1713
sVunown
p1714
VUnown
p1715
sVbitterberry
p1716
VBitter Berry
p1717
sVpoliwhirl
p1718
VPoliwhirl
p1719
sVpetilil
p1720
VPetilil
p1721
sVtelepathy
p1722
VTelepathy
p1723
sVstufful
p1724
VStufful
p1725
sVnidorino
p1726
VNidorino
p1727
sVmeloettapirouette
p1728
VMeloetta-Pirouette
p1729
sVnidorina
p1730
VNidorina
p1731
sVhypnosis
p1732
VHypnosis
p1733
sVdurinberry
p1734
VDurin Berry
p1735
sVdragonrage
p1736
VDragon Rage
p1737
sVjolteon
p1738
VJolteon
p1739
sVdefensecurl
p1740
VDefense Curl
p1741
sVnecturine
p1742
VNecturine
p1743
sVrocktomb
p1744
VRock Tomb
p1745
sVchikorita
p1746
VChikorita
p1747
sVrockyhelmet
p1748
VRocky Helmet
p1749
sVspewpa
p1750
VSpewpa
p1751
sVjabocaberry
p1752
VJaboca Berry
p1753
sVhoppip
p1754
VHoppip
p1755
sVpalossand
p1756
VPalossand
p1757
sViceshard
p1758
VIce Shard
p1759
sVgiratina
p1760
VGiratina
p1761
sVteravolt
p1762
VTeravolt
p1763
sVbite
p1764
VBite
p1765
sVduosion
p1766
VDuosion
p1767
sVaromatherapy
p1768
VAromatherapy
p1769
sVsleeptalk
p1770
VSleep Talk
p1771
sVconfuseray
p1772
VConfuse Ray
p1773
sVdrainpunch
p1774
VDrain Punch
p1775
sVgliscor
p1776
VGliscor
p1777
sVseedot
p1778
VSeedot
p1779
sVsnatch
p1780
VSnatch
p1781
sVslakoth
p1782
VSlakoth
p1783
sVbunnelby
p1784
VBunnelby
p1785
sVdrapion
p1786
VDrapion
p1787
sVpeck
p1788
VPeck
p1789
sVchespin
p1790
VChespin
p1791
sVghostmemory
p1792
VGhost Memory
p1793
sVkartana
p1794
VKartana
p1795
sVearthplate
p1796
VEarth Plate
p1797
sVsalazzletotem
p1798
VSalazzle-Totem
p1799
sVgarbodor
p1800
VGarbodor
p1801
sVtrickortreat
p1802
VTrick-or-Treat
p1803
sVcubone
p1804
VCubone
p1805
sVhiddenpowerrock
p1806
VHidden Power Rock
p1807
sVrazzberry
p1808
VRazz Berry
p1809
sVchlorophyll
p1810
VChlorophyll
p1811
sVpluffle
p1812
VPluffle
p1813
sVsilvallyrock
p1814
VSilvally-Rock
p1815
sViceberry
p1816
VIce Berry
p1817
sVsandstream
p1818
VSand Stream
p1819
sVledyba
p1820
VLedyba
p1821
sVaquatail
p1822
VAqua Tail
p1823
sVarceusdark
p1824
VArceus-Dark
p1825
sVkrilowatt
p1826
VKrilowatt
p1827
sVrecover
p1828
VRecover
p1829
sVflyingmemory
p1830
VFlying Memory
p1831
sVconversion
p1832
VConversion
p1833
sVelectrode
p1834
VElectrode
p1835
sVreckless
p1836
VReckless
p1837
sVhiddenpowerdark
p1838
VHidden Power Dark
p1839
sVmetalsound
p1840
VMetal Sound
p1841
sVarghonaut
p1842
VArghonaut
p1843
sVbeedrill
p1844
VBeedrill
p1845
sVsurf
p1846
VSurf
p1847
sVgriseousorb
p1848
VGriseous Orb
p1849
sVneverendingnightmare
p1850
VNever-Ending Nightmare
p1851
sVmountaineer
p1852
VMountaineer
p1853
sVstunky
p1854
VStunky
p1855
sVtrace
p1856
VTrace
p1857
sVquagsire
p1858
VQuagsire
p1859
sVgeargrind
p1860
VGear Grind
p1861
sVdarkrai
p1862
VDarkrai
p1863
sVbarrage
p1864
VBarrage
p1865
sVbonemerang
p1866
VBonemerang
p1867
sVultranecroziumz
p1868
VUltranecrozium Z
p1869
sVstunfisk
p1870
VStunfisk
p1871
sVadaptability
p1872
VAdaptability
p1873
sVespurr
p1874
VEspurr
p1875
sVleaftornado
p1876
VLeaf Tornado
p1877
sVhyperfang
p1878
VHyper Fang
p1879
sVdracoplate
p1880
VDraco Plate
p1881
sVhyperspacefury
p1882
VHyperspace Fury
p1883
sVelectirizer
p1884
VElectirizer
p1885
sVmollux
p1886
VMollux
p1887
sVmuddywater
p1888
VMuddy Water
p1889
sVmothim
p1890
VMothim
p1891
sVcompoundeyes
p1892
VCompound Eyes
p1893
sVdelphox
p1894
VDelphox
p1895
sVbrattler
p1896
VBrattler
p1897
sVhakamoo
p1898
VHakamo-o
p1899
sVtintedlens
p1900
VTinted Lens
p1901
sVgolurk
p1902
VGolurk
p1903
sVfigyberry
p1904
VFigy Berry
p1905
sVgoodra
p1906
VGoodra
p1907
sVrevenankh
p1908
VRevenankh
p1909
sVvolbeat
p1910
VVolbeat
p1911
sVpulverizingpancake
p1912
VPulverizing Pancake
p1913
sVemergencyexit
p1914
VEmergency Exit
p1915
sVupgrade
p1916
VUp-Grade
p1917
sVburndrive
p1918
VBurn Drive
p1919
sVpartingshot
p1920
VParting Shot
p1921
sVpatrat
p1922
VPatrat
p1923
sVacupressure
p1924
VAcupressure
p1925
sVanalytic
p1926
VAnalytic
p1927
sVsilvallysteel
p1928
VSilvally-Steel
p1929
sVprobopass
p1930
VProbopass
p1931
sVoutrage
p1932
VOutrage
p1933
sVleavanny
p1934
VLeavanny
p1935
sVlycanrocmidnight
p1936
VLycanroc-Midnight
p1937
sVkinesis
p1938
VKinesis
p1939
sVweaknesspolicy
p1940
VWeakness Policy
p1941
sVstomp
p1942
VStomp
p1943
sVpersianalola
p1944
VPersian-Alola
p1945
sVmimikiumz
p1946
VMimikium Z
p1947
sVboneclub
p1948
VBone Club
p1949
sVtelekinesis
p1950
VTelekinesis
p1951
sVmoxie
p1952
VMoxie
p1953
sVcelebrate
p1954
VCelebrate
p1955
sVshuppet
p1956
VShuppet
p1957
sVparkball
p1958
VPark Ball
p1959
sVzeraora
p1960
VZeraora
p1961
sVcupra
p1962
VCupra
p1963
sVlatiasite
p1964
VLatiasite
p1965
sVcrucibelle
p1966
VCrucibelle
p1967
sVwonderskin
p1968
VWonder Skin
p1969
sVhiddenpowerfighting
p1970
VHidden Power Fighting
p1971
sVimposter
p1972
VImposter
p1973
sVspore
p1974
VSpore
p1975
sVnecrozmaultra
p1976
VNecrozma-Ultra
p1977
sVkommoniumz
p1978
VKommonium Z
p1979
sVforesight
p1980
VForesight
p1981
sVfirestone
p1982
VFire Stone
p1983
sVdetect
p1984
VDetect
p1985
sVsteadfast
p1986
VSteadfast
p1987
sVlimber
p1988
VLimber
p1989
sVbatonpass
p1990
VBaton Pass
p1991
sVbeakblast
p1992
VBeak Blast
p1993
sVforecast
p1994
VForecast
p1995
sVwhiscash
p1996
VWhiscash
p1997
sVsnowwarning
p1998
VSnow Warning
p1999
sVjustified
p2000
VJustified
p2001
sVghostiumz
p2002
VGhostium Z
p2003
sVdamprock
p2004
VDamp Rock
p2005
sVhariyama
p2006
VHariyama
p2007
sVcrawdaunt
p2008
VCrawdaunt
p2009
sVpluck
p2010
VPluck
p2011
sVfuryattack
p2012
VFury Attack
p2013
sVroseincense
p2014
VRose Incense
p2015
sVspiderweb
p2016
VSpider Web
p2017
sVbrutalswing
p2018
VBrutal Swing
p2019
sVdestinyknot
p2020
VDestiny Knot
p2021
sVluminousmoss
p2022
VLuminous Moss
p2023
sVvivillonpokeball
p2024
VVivillon-Pokeball
p2025
sVpoisonmemory
p2026
VPoison Memory
p2027
sVsteelix
p2028
VSteelix
p2029
sVnestball
p2030
VNest Ball
p2031
sVberry
p2032
VBerry
p2033
sVcellbattery
p2034
VCell Battery
p2035
sVpheromosa
p2036
VPheromosa
p2037
sVwingattack
p2038
VWing Attack
p2039
sVnormalgem
p2040
VNormal Gem
p2041
sVsmartstrike
p2042
VSmart Strike
p2043
sVhiddenpowersteel
p2044
VHidden Power Steel
p2045
sVtyranitarite
p2046
VTyranitarite
p2047
sVdodrio
p2048
VDodrio
p2049
sVtapubulu
p2050
VTapu Bulu
p2051
sVstancechange
p2052
VStance Change
p2053
sVzapdos
p2054
VZapdos
p2055
sVendeavor
p2056
VEndeavor
p2057
sVechoedvoice
p2058
VEchoed Voice
p2059
sVrunaway
p2060
VRun Away
p2061
sVlandswrath
p2062
VLand's Wrath
p2063
sVmawilemega
p2064
VMawile-Mega
p2065
sVdewpider
p2066
VDewpider
p2067
sVlightmetal
p2068
VLight Metal
p2069
sVburntberry
p2070
VBurnt Berry
p2071
sVstunspore
p2072
VStun Spore
p2073
sVxerneas
p2074
VXerneas
p2075
sVchopleberry
p2076
VChople Berry
p2077
sVhighjumpkick
p2078
VHigh Jump Kick
p2079
sVpokestarsmeargle
p2080
VPokestar Smeargle
p2081
sVheatrock
p2082
VHeat Rock
p2083
sVlopunnymega
p2084
VLopunny-Mega
p2085
sVwhirlipede
p2086
VWhirlipede
p2087
sVflamebody
p2088
VFlame Body
p2089
sVhelioptile
p2090
VHelioptile
p2091
sVcresselia
p2092
VCresselia
p2093
sVvictreebel
p2094
VVictreebel
p2095
sVomanyte
p2096
VOmanyte
p2097
sVbreloom
p2098
VBreloom
p2099
sVstormthrow
p2100
VStorm Throw
p2101
sVhealblock
p2102
VHeal Block
p2103
sVswanna
p2104
VSwanna
p2105
sVskiddo
p2106
VSkiddo
p2107
sVcareful
p2108
VCareful
p2109
sVmudshot
p2110
VMud Shot
p2111
sVclangoroussoulblaze
p2112
VClangorous Soulblaze
p2113
sVdryskin
p2114
VDry Skin
p2115
sVsteelworker
p2116
VSteelworker
p2117
sVdefeatist
p2118
VDefeatist
p2119
sVbugmemory
p2120
VBug Memory
p2121
sVtrick
p2122
VTrick
p2123
sVlandorus
p2124
VLandorus
p2125
sVgroudon
p2126
VGroudon
p2127
sVspotlight
p2128
VSpotlight
p2129
sVrhyhorn
p2130
VRhyhorn
p2131
sVquiet
p2132
VQuiet
p2133
sVshadowclaw
p2134
VShadow Claw
p2135
sVsacredfire
p2136
VSacred Fire
p2137
sVmonferno
p2138
VMonferno
p2139
sVvicegrip
p2140
VVice Grip
p2141
sVgourgeistlarge
p2142
VGourgeist-Large
p2143
sVcubchoo
p2144
VCubchoo
p2145
sVprimariumz
p2146
VPrimarium Z
p2147
sVhiddenpowerice
p2148
VHidden Power Ice
p2149
sVextremespeed
p2150
VExtreme Speed
p2151
sVangerpoint
p2152
VAnger Point
p2153
sVphantomforce
p2154
VPhantom Force
p2155
sVstrongjaw
p2156
VStrong Jaw
p2157
sVbrionne
p2158
VBrionne
p2159
sVkrookodile
p2160
VKrookodile
p2161
sVnuzzle
p2162
VNuzzle
p2163
sVmistysurge
p2164
VMisty Surge
p2165
sVgenesectshock
p2166
VGenesect-Shock
p2167
sVmagnetbomb
p2168
VMagnet Bomb
p2169
sVassist
p2170
VAssist
p2171
sVblaziken
p2172
VBlaziken
p2173
sVbulletproof
p2174
VBulletproof
p2175
sVsteelgem
p2176
VSteel Gem
p2177
sVpangoro
p2178
VPangoro
p2179
sVhypervoice
p2180
VHyper Voice
p2181
sVminimize
p2182
VMinimize
p2183
sVdoublehit
p2184
VDouble Hit
p2185
sVmedicham
p2186
VMedicham
p2187
sVmrmime
p2188
VMr. Mime
p2189
sVmasterball
p2190
VMaster Ball
p2191
sVspark
p2192
VSpark
p2193
sVdrampa
p2194
VDrampa
p2195
sVrazorwind
p2196
VRazor Wind
p2197
sVfurcoat
p2198
VFur Coat
p2199
sVhealingwish
p2200
VHealing Wish
p2201
sVquickguard
p2202
VQuick Guard
p2203
sVpowerband
p2204
VPower Band
p2205
sVwingull
p2206
VWingull
p2207
sVsnorliumz
p2208
VSnorlium Z
p2209
sVfurfrou
p2210
VFurfrou
p2211
sVchimchar
p2212
VChimchar
p2213
sVdarkaura
p2214
VDark Aura
p2215
sVrazorclaw
p2216
VRazor Claw
p2217
sVdragonbreath
p2218
VDragon Breath
p2219
sVsearingsunrazesmash
p2220
VSearing Sunraze Smash
p2221
sVelgyem
p2222
VElgyem
p2223
sVduskull
p2224
VDuskull
p2225
sVcometpunch
p2226
VComet Punch
p2227
sVaerialace
p2228
VAerial Ace
p2229
sVparas
p2230
VParas
p2231
sVrayquazamega
p2232
VRayquaza-Mega
p2233
sVflareblitz
p2234
VFlare Blitz
p2235
sVxurkitree
p2236
VXurkitree
p2237
sVtrubbish
p2238
VTrubbish
p2239
sVsnarl
p2240
VSnarl
p2241
sVmachpunch
p2242
VMach Punch
p2243
sVvolkraken
p2244
VVolkraken
p2245
sVsunkern
p2246
VSunkern
p2247
sVbreakneckblitz
p2248
VBreakneck Blitz
p2249
sVcolossoil
p2250
VColossoil
p2251
sVdreamball
p2252
VDream Ball
p2253
sVsnore
p2254
VSnore
p2255
sVfloatstone
p2256
VFloat Stone
p2257
sVskiploom
p2258
VSkiploom
p2259
sVregigigas
p2260
VRegigigas
p2261
sVzingzap
p2262
VZing Zap
p2263
sVvoltswitch
p2264
VVolt Switch
p2265
sVarceusrock
p2266
VArceus-Rock
p2267
sVbrightpowder
p2268
VBrightPowder
p2269
sVhypercutter
p2270
VHyper Cutter
p2271
sVvanillite
p2272
VVanillite
p2273
sVchoiceband
p2274
VChoice Band
p2275
sVheartswap
p2276
VHeart Swap
p2277
sVsubzeroslammer
p2278
VSubzero Slammer
p2279
sVheatcrash
p2280
VHeat Crash
p2281
sVpinapberry
p2282
VPinap Berry
p2283
sVminccino
p2284
VMinccino
p2285
sVbellsprout
p2286
VBellsprout
p2287
sVprinplup
p2288
VPrinplup
p2289
sVaudinomega
p2290
VAudino-Mega
p2291
sVmachoke
p2292
VMachoke
p2293
sVultraball
p2294
VUltra Ball
p2295
sVcrustle
p2296
VCrustle
p2297
sVpowergem
p2298
VPower Gem
p2299
sViceburn
p2300
VIce Burn
p2301
sVbattlearmor
p2302
VBattle Armor
p2303
sVvolcanion
p2304
VVolcanion
p2305
sVcastformsnowy
p2306
VCastform-Snowy
p2307
sVraticatealolatotem
p2308
VRaticate-Alola-Totem
p2309
sVhustle
p2310
VHustle
p2311
sVthroh
p2312
VThroh
p2313
sVmusharna
p2314
VMusharna
p2315
sVinnerfocus
p2316
VInner Focus
p2317
sVbasculinbluestriped
p2318
VBasculin-Blue-Striped
p2319
sVdragonhammer
p2320
VDragon Hammer
p2321
sVhornattack
p2322
VHorn Attack
p2323
sVcomfey
p2324
VComfey
p2325
sVzapcannon
p2326
VZap Cannon
p2327
sVroar
p2328
VRoar
p2329
sVlockon
p2330
VLock-On
p2331
sVfloette
p2332
VFloette
p2333
sVgengar
p2334
VGengar
p2335
sVroserade
p2336
VRoserade
p2337
sVaudino
p2338
VAudino
p2339
sVquilava
p2340
VQuilava
p2341
sVcustapberry
p2342
VCustap Berry
p2343
sVsearingshot
p2344
VSearing Shot
p2345
sVstratagem
p2346
VStratagem
p2347
sVpyroar
p2348
VPyroar
p2349
sVfennekin
p2350
VFennekin
p2351
sVshadowpunch
p2352
VShadow Punch
p2353
sVfocuspunch
p2354
VFocus Punch
p2355
sVbindingband
p2356
VBinding Band
p2357
sVtoughclaws
p2358
VTough Claws
p2359
sVforewarn
p2360
VForewarn
p2361
sViciclespear
p2362
VIcicle Spear
p2363
sVpyroak
p2364
VPyroak
p2365
sVgigalith
p2366
VGigalith
p2367
sVsurgesurfer
p2368
VSurge Surfer
p2369
sVhex
p2370
VHex
p2371
sVmarill
p2372
VMarill
p2373
sVprimarina
p2374
VPrimarina
p2375
sVsymbiosis
p2376
VSymbiosis
p2377
sVgalvanize
p2378
VGalvanize
p2379
sVwillowisp
p2380
VWill-O-Wisp
p2381
sVbubble
p2382
VBubble
p2383
sVfastball
p2384
VFast Ball
p2385
sVglaciate
p2386
VGlaciate
p2387
sVnightshade
p2388
VNight Shade
p2389
sVfrogadier
p2390
VFrogadier
p2391
sVporygon
p2392
VPorygon
p2393
sVgripclaw
p2394
VGrip Claw
p2395
sVvitalspirit
p2396
VVital Spirit
p2397
sVcrabominable
p2398
VCrabominable
p2399
sVrage
p2400
VRage
p2401
sVsandshrewalola
p2402
VSandshrew-Alola
p2403
sVvictorystar
p2404
VVictory Star
p2405
sVvinewhip
p2406
VVine Whip
p2407
sVstoneplate
p2408
VStone Plate
p2409
sVember
p2410
VEmber
p2411
sVsplashplate
p2412
VSplash Plate
p2413
sVpowdersnow
p2414
VPowder Snow
p2415
sVrockruff
p2416
VRockruff
p2417
sVchesnaught
p2418
VChesnaught
p2419
sVgrepaberry
p2420
VGrepa Berry
p2421
sVrhydon
p2422
VRhydon
p2423
sVsmokescreen
p2424
VSmokescreen
p2425
sVmoonblast
p2426
VMoonblast
p2427
sVcolburberry
p2428
VColbur Berry
p2429
sVsilvallydragon
p2430
VSilvally-Dragon
p2431
sVhydrovortex
p2432
VHydro Vortex
p2433
sVsoulstealing7starstrike
p2434
VSoul-Stealing 7-Star Strike
p2435
sVimmunity
p2436
VImmunity
p2437
sVtangela
p2438
VTangela
p2439
sVcharizard
p2440
VCharizard
p2441
sVgolem
p2442
VGolem
p2443
sVstompingtantrum
p2444
VStomping Tantrum
p2445
sVmirrorcoat
p2446
VMirror Coat
p2447
sVemboar
p2448
VEmboar
p2449
sVdustox
p2450
VDustox
p2451
sVrootfossil
p2452
VRoot Fossil
p2453
sVzigzagoon
p2454
VZigzagoon
p2455
sVtackle
p2456
VTackle
p2457
sVpopplio
p2458
VPopplio
p2459
sVrotomwash
p2460
VRotom-Wash
p2461
sVgrudge
p2462
VGrudge
p2463
sVcyndaquil
p2464
VCyndaquil
p2465
sVblueflare
p2466
VBlue Flare
p2467
sVdefog
p2468
VDefog
p2469
sVberserkgene
p2470
VBerserk Gene
p2471
sVskyattack
p2472
VSky Attack
p2473
sVmoonlight
p2474
VMoonlight
p2475
sVmimic
p2476
VMimic
p2477
sVstockpile
p2478
VStockpile
p2479
sVoddincense
p2480
VOdd Incense
p2481
sVmeloetta
p2482
VMeloetta
p2483
sVgardevoirmega
p2484
VGardevoir-Mega
p2485
sVlairon
p2486
VLairon
p2487
sVeerieimpulse
p2488
VEerie Impulse
p2489
sVscrappy
p2490
VScrappy
p2491
sVtogetic
p2492
VTogetic
p2493
sVfirepunch
p2494
VFire Punch
p2495
sVunfezant
p2496
VUnfezant
p2497
sVmicleberry
p2498
VMicle Berry
p2499
sVjolly
p2500
VJolly
p2501
sVsalandit
p2502
VSalandit
p2503
sVbewear
p2504
VBewear
p2505
sVlightningrod
p2506
VLightning Rod
p2507
sVgigadrain
p2508
VGiga Drain
p2509
sVsilverpowder
p2510
VSilverPowder
p2511
sVvanillish
p2512
VVanillish
p2513
sVvenomdrench
p2514
VVenom Drench
p2515
sVbayleef
p2516
VBayleef
p2517
sVhondewberry
p2518
VHondew Berry
p2519
sVbloomdoom
p2520
VBloom Doom
p2521
sVtympole
p2522
VTympole
p2523
sVplasmafists
p2524
VPlasma Fists
p2525
sVtyranitarmega
p2526
VTyranitar-Mega
p2527
sVicepunch
p2528
VIce Punch
p2529
sVgalvantula
p2530
VGalvantula
p2531
sVshinystone
p2532
VShiny Stone
p2533
sVcombusken
p2534
VCombusken
p2535
sVcloudnine
p2536
VCloud Nine
p2537
sVmienshao
p2538
VMienshao
p2539
sVkeeberry
p2540
VKee Berry
p2541
sVsteameruption
p2542
VSteam Eruption
p2543
sVmild
p2544
VMild
p2545
sVscrafty
p2546
VScrafty
p2547
sVnoability
p2548
VNo Ability
p2549
sVsecretpower
p2550
VSecret Power
p2551
sVshadowtag
p2552
VShadow Tag
p2553
sVpidgeotmega
p2554
VPidgeot-Mega
p2555
sVmagearnaoriginal
p2556
VMagearna-Original
p2557
sVdoublekick
p2558
VDouble Kick
p2559
sVsandtomb
p2560
VSand Tomb
p2561
sVflorges
p2562
VFlorges
p2563
sVgourgeistsuper
p2564
VGourgeist-Super
p2565
sVironbarbs
p2566
VIron Barbs
p2567
sValtaria
p2568
VAltaria
p2569
sVcrushgrip
p2570
VCrush Grip
p2571
sVmagikarp
p2572
VMagikarp
p2573
sVseedbomb
p2574
VSeed Bomb
p2575
sVmeganium
p2576
VMeganium
p2577
sVchipaway
p2578
VChip Away
p2579
sVhealer
p2580
VHealer
p2581
sVfeatherdance
p2582
VFeather Dance
p2583
sVshockwave
p2584
VShock Wave
p2585
sVironplate
p2586
VIron Plate
p2587
sVgreatball
p2588
VGreat Ball
p2589
sVcawdet
p2590
VCawdet
p2591
sVwateriumz
p2592
VWaterium Z
p2593
sVfightiniumz
p2594
VFightinium Z
p2595
sVheartstamp
p2596
VHeart Stamp
p2597
sVboldore
p2598
VBoldore
p2599
sVcombee
p2600
VCombee
p2601
sVdragonfang
p2602
VDragon Fang
p2603
sVgastly
p2604
VGastly
p2605
sVrevenge
p2606
VRevenge
p2607
sVclearsmog
p2608
VClear Smog
p2609
sVsteenee
p2610
VSteenee
p2611
sVvenusaurmega
p2612
VVenusaur-Mega
p2613
sVinfernape
p2614
VInfernape
p2615
sVdecidiumz
p2616
VDecidium Z
p2617
sVaromatisse
p2618
VAromatisse
p2619
sVbattlebond
p2620
VBattle Bond
p2621
sVkyuremwhite
p2622
VKyurem-White
p2623
sVpokestarhumanoid
p2624
VPokestar Humanoid
p2625
sVacidspray
p2626
VAcid Spray
p2627
sVcursedbody
p2628
VCursed Body
p2629
sVpowerbracer
p2630
VPower Bracer
p2631
sVwringout
p2632
VWring Out
p2633
sVstarly
p2634
VStarly
p2635
sVstruggle
p2636
VStruggle
p2637
sVgolett
p2638
VGolett
p2639
sVinciniumz
p2640
VIncinium Z
p2641
sVgyaradosmega
p2642
VGyarados-Mega
p2643
sVgallade
p2644
VGallade
p2645
sVoranguru
p2646
VOranguru
p2647
sVledian
p2648
VLedian
p2649
sVcutiefly
p2650
VCutiefly
p2651
sVscraggy
p2652
VScraggy
p2653
sVelectricseed
p2654
VElectric Seed
p2655
sVluvdisc
p2656
VLuvdisc
p2657
sVhelixfossil
p2658
VHelix Fossil
p2659
sVsavagespinout
p2660
VSavage Spin-Out
p2661
sVsplash
p2662
VSplash
p2663
sVillumise
p2664
VIllumise
p2665
sVgirafarig
p2666
VGirafarig
p2667
sVanorith
p2668
VAnorith
p2669
sVfairiumz
p2670
VFairium Z
p2671
sVdizzypunch
p2672
VDizzy Punch
p2673
sVflyingpress
p2674
VFlying Press
p2675
sVbounsweet
p2676
VBounsweet
p2677
sVpumpkaboosuper
p2678
VPumpkaboo-Super
p2679
sVhorsea
p2680
VHorsea
p2681
sVstick
p2682
VStick
p2683
sVrazorfang
p2684
VRazor Fang
p2685
sVwatergem
p2686
VWater Gem
p2687
sVturboblaze
p2688
VTurboblaze
p2689
sVaegislashblade
p2690
VAegislash-Blade
p2691
sVnaturalgift
p2692
VNatural Gift
p2693
sVenergypowder
p2694
VEnergy Powder
p2695
sVchartiberry
p2696
VCharti Berry
p2697
sVlumberry
p2698
VLum Berry
p2699
sVvoltorb
p2700
VVoltorb
p2701
sVshadowshield
p2702
VShadow Shield
p2703
sVskyplate
p2704
VSky Plate
p2705
sVsableye
p2706
VSableye
p2707
sVseviper
p2708
VSeviper
p2709
sVmarvelscale
p2710
VMarvel Scale
p2711
sVaurumoth
p2712
VAurumoth
p2713
sVflowerveil
p2714
VFlower Veil
p2715
sVstaryu
p2716
VStaryu
p2717
sVwishiwashi
p2718
VWishiwashi
p2719
sVshelltrap
p2720
VShell Trap
p2721
sVwikiberry
p2722
VWiki Berry
p2723
sVwobbuffet
p2724
VWobbuffet
p2725
sVteleport
p2726
VTeleport
p2727
sVshelmet
p2728
VShelmet
p2729
sVkommoototem
p2730
VKommo-o-Totem
p2731
sVglalitite
p2732
VGlalitite
p2733
sVflyinggem
p2734
VFlying Gem
p2735
sVbulkup
p2736
VBulk Up
p2737
sVglaceon
p2738
VGlaceon
p2739
sVwonderguard
p2740
VWonder Guard
p2741
sVprismarmor
p2742
VPrism Armor
p2743
sVelectricgem
p2744
VElectric Gem
p2745
sVrotomfan
p2746
VRotom-Fan
p2747
sVsignalbeam
p2748
VSignal Beam
p2749
sVshuckle
p2750
VShuckle
p2751
sVjynx
p2752
VJynx
p2753
sVreflect
p2754
VReflect
p2755
sVdisable
p2756
VDisable
p2757
sVliquidooze
p2758
VLiquid Ooze
p2759
sVmistyterrain
p2760
VMisty Terrain
p2761
sVfairygem
p2762
VFairy Gem
p2763
sVmedichammega
p2764
VMedicham-Mega
p2765
sVtwistedspoon
p2766
VTwisted Spoon
p2767
sVlanturn
p2768
VLanturn
p2769
sVpineco
p2770
VPineco
p2771
sVcomatose
p2772
VComatose
p2773
sVretaliate
p2774
VRetaliate
p2775
sVphantump
p2776
VPhantump
p2777
sVgolisopod
p2778
VGolisopod
p2779
sVqueenlymajesty
p2780
VQueenly Majesty
p2781
sVcorphish
p2782
VCorphish
p2783
sVbastiodon
p2784
VBastiodon
p2785
sVwatmelberry
p2786
VWatmel Berry
p2787
sVarticuno
p2788
VArticuno
p2789
sVfissure
p2790
VFissure
p2791
sVvolcarona
p2792
VVolcarona
p2793
sVblackglasses
p2794
VBlack Glasses
p2795
sVplayrough
p2796
VPlay Rough
p2797
sVhealorder
p2798
VHeal Order
p2799
sVjigglypuff
p2800
VJigglypuff
p2801
sVsandslash
p2802
VSandslash
p2803
sVastonish
p2804
VAstonish
p2805
sVenergyball
p2806
VEnergy Ball
p2807
sVaggron
p2808
VAggron
p2809
sVlampent
p2810
VLampent
p2811
sVfistplate
p2812
VFist Plate
p2813
sVreturn
p2814
VReturn
p2815
sVmanectricmega
p2816
VManectric-Mega
p2817
sVsnowball
p2818
VSnowball
p2819
sVsolarbeam
p2820
VSolar Beam
p2821
sVcharizardmegax
p2822
VCharizard-Mega-X
p2823
sVcharizardmegay
p2824
VCharizard-Mega-Y
p2825
sVclefable
p2826
VClefable
p2827
sVpokestarmt
p2828
VPokestar MT
p2829
sVskuntank
p2830
VSkuntank
p2831
sVprimeape
p2832
VPrimeape
p2833
sVgabite
p2834
VGabite
p2835
sVgrubbin
p2836
VGrubbin
p2837
sVmanaphy
p2838
VManaphy
p2839
sVmissingno
p2840
VMissingno.
p2841
sVhooh
p2842
VHo-Oh
p2843
sVrefresh
p2844
VRefresh
p2845
sVspoink
p2846
VSpoink
p2847
sVlovelykiss
p2848
VLovely Kiss
p2849
sVmeanlook
p2850
VMean Look
p2851
sVgumshoos
p2852
VGumshoos
p2853
sVclamp
p2854
VClamp
p2855
sVtopsyturvy
p2856
VTopsy-Turvy
p2857
sVquickfeet
p2858
VQuick Feet
p2859
sVsilvallyelectric
p2860
VSilvally-Electric
p2861
sVwatershuriken
p2862
VWater Shuriken
p2863
sVtsareena
p2864
VTsareena
p2865
sVthunderbolt
p2866
VThunderbolt
p2867
sVmagnezone
p2868
VMagnezone
p2869
sVtrickroom
p2870
VTrick Room
p2871
sVmist
p2872
VMist
p2873
sVwatercompaction
p2874
VWater Compaction
p2875
sVhiddenpowerpsychic
p2876
VHidden Power Psychic
p2877
sVelectroweb
p2878
VElectroweb
p2879
sVkangaskhanmega
p2880
VKangaskhan-Mega
p2881
sVsalamence
p2882
VSalamence
p2883
sVarceuswater
p2884
VArceus-Water
p2885
sVarceusice
p2886
VArceus-Ice
p2887
sVsuperfang
p2888
VSuper Fang
p2889
sVsilvallyground
p2890
VSilvally-Ground
p2891
sVchoicescarf
p2892
VChoice Scarf
p2893
sVroggenrola
p2894
VRoggenrola
p2895
sVflashcannon
p2896
VFlash Cannon
p2897
sVironhead
p2898
VIron Head
p2899
sVsentret
p2900
VSentret
p2901
sVpichuspikyeared
p2902
VPichu-Spiky-eared
p2903
sVtyrogue
p2904
VTyrogue
p2905
sVcleffa
p2906
VCleffa
p2907
sVwaterabsorb
p2908
VWater Absorb
p2909
sVtoxicboost
p2910
VToxic Boost
p2911
sVninetales
p2912
VNinetales
p2913
sVnidoranf
p2914
VNidoran-F
p2915
sVcottonspore
p2916
VCotton Spore
p2917
sVnidoranm
p2918
VNidoran-M
p2919
sVparaboliccharge
p2920
VParabolic Charge
p2921
sVscopelens
p2922
VScope Lens
p2923
sVhydreigon
p2924
VHydreigon
p2925
sVrockpolish
p2926
VRock Polish
p2927
sVmightyena
p2928
VMightyena
p2929
sVabomasnowmega
p2930
VAbomasnow-Mega
p2931
sVsolganiumz
p2932
VSolganium Z
p2933
sVbrave
p2934
VBrave
p2935
sVstoredpower
p2936
VStored Power
p2937
sVapicotberry
p2938
VApicot Berry
p2939
sVpetaldance
p2940
VPetal Dance
p2941
sVmeowstic
p2942
VMeowstic
p2943
sVboltstrike
p2944
VBolt Strike
p2945
sVraikou
p2946
VRaikou
p2947
sVswarm
p2948
VSwarm
p2949
sVbibarel
p2950
VBibarel
p2951
sVpsncureberry
p2952
VPSN Cure Berry
p2953
sVdazzlinggleam
p2954
VDazzling Gleam
p2955
sVlandorustherian
p2956
VLandorus-Therian
p2957
sVshedinja
p2958
VShedinja
p2959
sVpikashuniumz
p2960
VPikashunium Z
p2961
sVpsybeam
p2962
VPsybeam
p2963
sVsuckerpunch
p2964
VSucker Punch
p2965
sVaspearberry
p2966
VAspear Berry
p2967
sVdragonascent
p2968
VDragon Ascent
p2969
sVfreezeshock
p2970
VFreeze Shock
p2971
sVpsywave
p2972
VPsywave
p2973
sVdrillrun
p2974
VDrill Run
p2975
sVwhiteherb
p2976
VWhite Herb
p2977
sVringtarget
p2978
VRing Target
p2979
sVvenipede
p2980
VVenipede
p2981
sVdarkpulse
p2982
VDark Pulse
p2983
sVyamask
p2984
VYamask
p2985
sVstall
p2986
VStall
p2987
sVsharpedonite
p2988
VSharpedonite
p2989
sVmerciless
p2990
VMerciless
p2991
sVdoubleedge
p2992
VDouble-Edge
p2993
sVremoraid
p2994
VRemoraid
p2995
sVclefairy
p2996
VClefairy
p2997
sVklink
p2998
VKlink
p2999
sVfirespin
p3000
VFire Spin
p3001
sVgenesectchill
p3002
VGenesect-Chill
p3003
sVsuicune
p3004
VSuicune
p3005
sVthundurustherian
p3006
VThundurus-Therian
p3007
sVpamtreberry
p3008
VPamtre Berry
p3009
sVmegahorn
p3010
VMegahorn
p3011
sVslowbromega
p3012
VSlowbro-Mega
p3013
sVzenmode
p3014
VZen Mode
p3015
sVsunflora
p3016
VSunflora
p3017
sVariados
p3018
VAriados
p3019
sVgourgeist
p3020
VGourgeist
p3021
sVbarbaracle
p3022
VBarbaracle
p3023
sVairballoon
p3024
VAir Balloon
p3025
sVswirlix
p3026
VSwirlix
p3027
sVlitleo
p3028
VLitleo
p3029
sVcamouflage
p3030
VCamouflage
p3031
sVfrillish
p3032
VFrillish
p3033
sVroselia
p3034
VRoselia
p3035
sVkangaskhan
p3036
VKangaskhan
p3037
sVregirock
p3038
VRegirock
p3039
sVpansage
p3040
VPansage
p3041
sVswitcheroo
p3042
VSwitcheroo
p3043
sValakazammega
p3044
VAlakazam-Mega
p3045
sVrockgem
p3046
VRock Gem
p3047
sVeruption
p3048
VEruption
p3049
sVyawn
p3050
VYawn
p3051
sVcharm
p3052
VCharm
p3053
sVdiglett
p3054
VDiglett
p3055
sVbeldum
p3056
VBeldum
p3057
sVhabanberry
p3058
VHaban Berry
p3059
sVcrosspoison
p3060
VCross Poison
p3061
sVcarvanha
p3062
VCarvanha
p3063
sVrefrigerate
p3064
VRefrigerate
p3065
sVlowsweep
p3066
VLow Sweep
p3067
sVsturdy
p3068
VSturdy
p3069
sVcovet
p3070
VCovet
p3071
sVlax
p3072
VLax
p3073
sVlunala
p3074
VLunala
p3075
sVmarshadiumz
p3076
VMarshadium Z
p3077
sVgenesectdouse
p3078
VGenesect-Douse
p3079
sVkaratechop
p3080
VKarate Chop
p3081
sVworryseed
p3082
VWorry Seed
p3083
sVazumarill
p3084
VAzumarill
p3085
sVmetalburst
p3086
VMetal Burst
p3087
sVherdier
p3088
VHerdier
p3089
sVguardsplit
p3090
VGuard Split
p3091
sVnanabberry
p3092
VNanab Berry
p3093
sVzoomlens
p3094
VZoom Lens
p3095
sVblackbelt
p3096
VBlack Belt
p3097
sVhammerarm
p3098
VHammer Arm
p3099
sVmagmaarmor
p3100
VMagma Armor
p3101
sVcrabrawler
p3102
VCrabrawler
p3103
sVpayday
p3104
VPay Day
p3105
sVgooey
p3106
VGooey
p3107
sVoblivionwing
p3108
VOblivion Wing
p3109
sVtyrantrum
p3110
VTyrantrum
p3111
sVhealpulse
p3112
VHeal Pulse
p3113
sVheadcharge
p3114
VHead Charge
p3115
sVpawniard
p3116
VPawniard
p3117
sVpoisontail
p3118
VPoison Tail
p3119
sVrest
p3120
VRest
p3121
sVdocile
p3122
VDocile
p3123
sVfireblast
p3124
VFire Blast
p3125
sVmaliciousmoonsault
p3126
VMalicious Moonsault
p3127
sVshroomish
p3128
VShroomish
p3129
sVlitten
p3130
VLitten
p3131
sVwhismur
p3132
VWhismur
p3133
sVspikes
p3134
VSpikes
p3135
sVshadowstrike
p3136
VShadow Strike
p3137
sVlongreach
p3138
VLong Reach
p3139
sVskorupi
p3140
VSkorupi
p3141
sVgengarite
p3142
VGengarite
p3143
sVpokestartransport
p3144
VPokestar Transport
p3145
sVpinkbow
p3146
VPink Bow
p3147
sVblitzle
p3148
VBlitzle
p3149
sVspeedswap
p3150
VSpeed Swap
p3151
sVlustrousorb
p3152
VLustrous Orb
p3153
sVflarelm
p3154
VFlarelm
p3155
sVtamatoberry
p3156
VTamato Berry
p3157
sVblazikenite
p3158
VBlazikenite
p3159
sVfarfetchd
p3160
VFarfetch'd
p3161
sVinkay
p3162
VInkay
p3163
sVnecrozmaduskmane
p3164
VNecrozma-Dusk-Mane
p3165
sVpickup
p3166
VPickup
p3167
sVcontrary
p3168
VContrary
p3169
sVkarrablast
p3170
VKarrablast
p3171
sVberserk
p3172
VBerserk
p3173
sVmarowak
p3174
VMarowak
p3175
sVmachobrace
p3176
VMacho Brace
p3177
sVsilvallywater
p3178
VSilvally-Water
p3179
sVelekid
p3180
VElekid
p3181
sVmagmortar
p3182
VMagmortar
p3183
sVchansey
p3184
VChansey
p3185
sVroaroftime
p3186
VRoar of Time
p3187
sVwildcharge
p3188
VWild Charge
p3189
sVgraveleralola
p3190
VGraveler-Alola
p3191
sVhoundoommega
p3192
VHoundoom-Mega
p3193
sVclaydol
p3194
VClaydol
p3195
sVrelicanth
p3196
VRelicanth
p3197
sVtorchic
p3198
VTorchic
p3199
sVlapras
p3200
VLapras
p3201
sVmankey
p3202
VMankey
p3203
sVsweetscent
p3204
VSweet Scent
p3205
sVraticatealola
p3206
VRaticate-Alola
p3207
sVshayminsky
p3208
VShaymin-Sky
p3209
sVsludgebomb
p3210
VSludge Bomb
p3211
sVsandile
p3212
VSandile
p3213
sVtyphlosion
p3214
VTyphlosion
p3215
sVsimple
p3216
VSimple
p3217
sVdrillpeck
p3218
VDrill Peck
p3219
sVicebody
p3220
VIce Body
p3221
sVdancer
p3222
VDancer
p3223
sVfearow
p3224
VFearow
p3225
sVxscissor
p3226
VX-Scissor
p3227
sVbellossom
p3228
VBellossom
p3229
sVquiverdance
p3230
VQuiver Dance
p3231
sVblastoisinite
p3232
VBlastoisinite
p3233
sVmegapunch
p3234
VMega Punch
p3235
sVdamp
p3236
VDamp
p3237
sVskitty
p3238
VSkitty
p3239
sVmienfoo
p3240
VMienfoo
p3241
sVpollenpuff
p3242
VPollen Puff
p3243
sVliepard
p3244
VLiepard
p3245
sVamnesia
p3246
VAmnesia
p3247
sVdestinybond
p3248
VDestiny Bond
p3249
sVcastform
p3250
VCastform
p3251
sVmeowthalola
p3252
VMeowth-Alola
p3253
sVdruddigon
p3254
VDruddigon
p3255
sVtaillow
p3256
VTaillow
p3257
sVbashful
p3258
VBashful
p3259
sVdragontail
p3260
VDragon Tail
p3261
sVswellow
p3262
VSwellow
p3263
sVstringshot
p3264
VString Shot
p3265
sValomomola
p3266
VAlomomola
p3267
sVwatergun
p3268
VWater Gun
p3269
sVvcreate
p3270
VV-create
p3271
sVnomelberry
p3272
VNomel Berry
p3273
sVdrainingkiss
p3274
VDraining Kiss
p3275
sVbasculin
p3276
VBasculin
p3277
sVgrassiumz
p3278
VGrassium Z
p3279
sVescavalier
p3280
VEscavalier
p3281
sVpsychoshift
p3282
VPsycho Shift
p3283
sVbisharp
p3284
VBisharp
p3285
sVhoundoom
p3286
VHoundoom
p3287
sVgulpin
p3288
VGulpin
p3289
sVpancham
p3290
VPancham
p3291
sVmantyke
p3292
VMantyke
p3293
sVpound
p3294
VPound
p3295
sVmedichamite
p3296
VMedichamite
p3297
sVrotommow
p3298
VRotom-Mow
p3299
sVdefendorder
p3300
VDefend Order
p3301
sVsurskit
p3302
VSurskit
p3303
sVmegalauncher
p3304
VMega Launcher
p3305
sVicebeam
p3306
VIce Beam
p3307
sVfacade
p3308
VFacade
p3309
sVzubat
p3310
VZubat
p3311
sVmagikarpsrevenge
p3312
VMagikarp's Revenge
p3313
sVingrain
p3314
VIngrain
p3315
sVcottonee
p3316
VCottonee
p3317
sVpikachuphd
p3318
VPikachu-PhD
p3319
sVpowerlens
p3320
VPower Lens
p3321
sVzweilous
p3322
VZweilous
p3323
sVpoisonjab
p3324
VPoison Jab
p3325
sVcameruptmega
p3326
VCamerupt-Mega
p3327
sVprotectivepads
p3328
VProtective Pads
p3329
sVcrucibellemega
p3330
VCrucibelle-Mega
p3331
sVadrenalineorb
p3332
VAdrenaline Orb
p3333
sVtaunt
p3334
VTaunt
p3335
sVgorebyss
p3336
VGorebyss
p3337
sVgrotle
p3338
VGrotle
p3339
sVpikachu
p3340
VPikachu
p3341
sVrayquaza
p3342
VRayquaza
p3343
sVfroakie
p3344
VFroakie
p3345
sVloveball
p3346
VLove Ball
p3347
sVjumpluff
p3348
VJumpluff
p3349
sVkomala
p3350
VKomala
p3351
sVtimid
p3352
VTimid
p3353
sVmismagius
p3354
VMismagius
p3355
sVhiddenpowerbug
p3356
VHidden Power Bug
p3357
sVinfiltrator
p3358
VInfiltrator
p3359
sVpsychup
p3360
VPsych Up
p3361
sVsunstone
p3362
VSun Stone
p3363
sVtangrowth
p3364
VTangrowth
p3365
sVfiregem
p3366
VFire Gem
p3367
sVshellder
p3368
VShellder
p3369
sVwithdraw
p3370
VWithdraw
p3371
sVmoonball
p3372
VMoon Ball
p3373
sVpainsplit
p3374
VPain Split
p3375
sVstoneedge
p3376
VStone Edge
p3377
sVhowl
p3378
VHowl
p3379
sVeeviumz
p3380
VEevium Z
p3381
sVwaterpledge
p3382
VWater Pledge
p3383
sVspearow
p3384
VSpearow
p3385
sVdarmanitan
p3386
VDarmanitan
p3387
sVrockwrecker
p3388
VRock Wrecker
p3389
sVoriginpulse
p3390
VOrigin Pulse
p3391
sVcompetitive
p3392
VCompetitive
p3393
sVzygarde
p3394
VZygarde
p3395
sVsolrock
p3396
VSolrock
p3397
sVthousandarrows
p3398
VThousand Arrows
p3399
sVcut
p3400
VCut
p3401
sVincineroar
p3402
VIncineroar
p3403
sVcloyster
p3404
VCloyster
p3405
sVshoreup
p3406
VShore Up
p3407
sVmetapod
p3408
VMetapod
p3409
sVairslash
p3410
VAir Slash
p3411
sVmagiccoat
p3412
VMagic Coat
p3413
sVacrobatics
p3414
VAcrobatics
p3415
sVspheal
p3416
VSpheal
p3417
sVlatios
p3418
VLatios
p3419
sVchoicespecs
p3420
VChoice Specs
p3421
sVrebound
p3422
VRebound
p3423
sVlusterpurge
p3424
VLuster Purge
p3425
sVkeldeoresolute
p3426
VKeldeo-Resolute
p3427
sVzygardecomplete
p3428
VZygarde-Complete
p3429
sVmoody
p3430
VMoody
p3431
sVglaliemega
p3432
VGlalie-Mega
p3433
sVgothitelle
p3434
VGothitelle
p3435
sVskilllink
p3436
VSkill Link
p3437
sVponyta
p3438
VPonyta
p3439
sVsunnyday
p3440
VSunny Day
p3441
sVsubmission
p3442
VSubmission
p3443
sVstaravia
p3444
VStaravia
p3445
sVtailglow
p3446
VTail Glow
p3447
sVnoibat
p3448
VNoibat
p3449
sVstealthrock
p3450
VStealth Rock
p3451
sVtechnoblast
p3452
VTechno Blast
p3453
sVbaltoy
p3454
VBaltoy
p3455
sVflamewheel
p3456
VFlame Wheel
p3457
sVsketch
p3458
VSketch
p3459
sVfrisk
p3460
VFrisk
p3461
sVmagmarizer
p3462
VMagmarizer
p3463
sVbounce
p3464
VBounce
p3465
sVphotongeyser
p3466
VPhoton Geyser
p3467
sVsouldew
p3468
VSoul Dew
p3469
sVgigaimpact
p3470
VGiga Impact
p3471
sVaurorabeam
p3472
VAurora Beam
p3473
sVsewaddle
p3474
VSewaddle
p3475
sVkommoo
p3476
VKommo-o
p3477
sVscald
p3478
VScald
p3479
sVominouswind
p3480
VOminous Wind
p3481
sVdeepseascale
p3482
VDeep Sea Scale
p3483
sVmummy
p3484
VMummy
p3485
sVhuntail
p3486
VHuntail
p3487
sVswordsdance
p3488
VSwords Dance
p3489
sVearlybird
p3490
VEarly Bird
p3491
sVslash
p3492
VSlash
p3493
sVhiddenpowergrass
p3494
VHidden Power Grass
p3495
sVpidgeotite
p3496
VPidgeotite
p3497
sVgarchompmega
p3498
VGarchomp-Mega
p3499
sV10000000voltthunderbolt
p3500
V10,000,000 Volt Thunderbolt
p3501
sVoricoriopau
p3502
VOricorio-Pa'u
p3503
sVseismitoad
p3504
VSeismitoad
p3505
sVodorsleuth
p3506
VOdor Sleuth
p3507
sVmewtwomegax
p3508
VMewtwo-Mega-X
p3509
sVmewtwomegay
p3510
VMewtwo-Mega-Y
p3511
sVfocussash
p3512
VFocus Sash
p3513
sVjellicent
p3514
VJellicent
p3515
sVspelonberry
p3516
VSpelon Berry
p3517
sVnobleroar
p3518
VNoble Roar
p3519
sVkangaskhanite
p3520
VKangaskhanite
p3521
sVblazekick
p3522
VBlaze Kick
p3523
sViapapaberry
p3524
VIapapa Berry
p3525
sVmudkip
p3526
VMudkip
p3527
sVbouffalant
p3528
VBouffalant
p3529
sVarceusghost
p3530
VArceus-Ghost
p3531
sVblock
p3532
VBlock
p3533
sVsharpedo
p3534
VSharpedo
p3535
sVarmthrust
p3536
VArm Thrust
p3537
sVchargebeam
p3538
VCharge Beam
p3539
sVshellos
p3540
VShellos
p3541
sVnidoking
p3542
VNidoking
p3543
sVliquidation
p3544
VLiquidation
p3545
sVextremeevoboost
p3546
VExtreme Evoboost
p3547
sVsablenite
p3548
VSablenite
p3549
sVbarboach
p3550
VBarboach
p3551
sVstench
p3552
VStench
p3553
sViciclecrash
p3554
VIcicle Crash
p3555
sVcacnea
p3556
VCacnea
p3557
sVdevastatingdrake
p3558
VDevastating Drake
p3559
sVswampertmega
p3560
VSwampert-Mega
p3561
sVpajantom
p3562
VPajantom
p3563
sVpokestarmonster
p3564
VPokestar Monster
p3565
sVsyclar
p3566
VSyclar
p3567
sVmimikyubusted
p3568
VMimikyu-Busted
p3569
sVsnorunt
p3570
VSnorunt
p3571
sVrelaxed
p3572
VRelaxed
p3573
sVeevee
p3574
VEevee
p3575
sVpsychocut
p3576
VPsycho Cut
p3577
sVtranquill
p3578
VTranquill
p3579
sVragepowder
p3580
VRage Powder
p3581
sVbuizel
p3582
VBuizel
p3583
sVsharpen
p3584
VSharpen
p3585
sVgrasspledge
p3586
VGrass Pledge
p3587
sVbuzzwole
p3588
VBuzzwole
p3589
sVabsolmega
p3590
VAbsol-Mega
p3591
sVwatchog
p3592
VWatchog
p3593
sVpokestarwhitedoor
p3594
VPokestar White Door
p3595
sVspacialrend
p3596
VSpacial Rend
p3597
sVbaddreams
p3598
VBad Dreams
p3599
sVgrowth
p3600
VGrowth
p3601
sVpoliwrath
p3602
VPoliwrath
p3603
sVhappyhour
p3604
VHappy Hour
p3605
sVmurkrow
p3606
VMurkrow
p3607
sVpechaberry
p3608
VPecha Berry
p3609
sVpikachusinnoh
p3610
VPikachu-Sinnoh
p3611
sVarceusfairy
p3612
VArceus-Fairy
p3613
sVovalstone
p3614
VOval Stone
p3615
sVmiracleseed
p3616
VMiracle Seed
p3617
sVnaturesmadness
p3618
VNature's Madness
p3619
sVrockhead
p3620
VRock Head
p3621
sVcalm
p3622
VCalm
p3623
sVstickybarb
p3624
VSticky Barb
p3625
sVganlonberry
p3626
VGanlon Berry
p3627
sVbulbasaur
p3628
VBulbasaur
p3629
sVpichu
p3630
VPichu
p3631
sVheatwave
p3632
VHeat Wave
p3633
sVpokestarf00
p3634
VPokestar F-00
p3635
sVdrifloon
p3636
VDrifloon
p3637
sVsnowcloak
p3638
VSnow Cloak
p3639
sVrazorshell
p3640
VRazor Shell
p3641
sVmetagross
p3642
VMetagross
p3643
sVsparklingaria
p3644
VSparkling Aria
p3645
sVpokestarufo
p3646
VPokestar UFO
p3647
sVmeowsticf
p3648
VMeowstic-F
p3649
sVlickilicky
p3650
VLickilicky
p3651
sVaccelgor
p3652
VAccelgor
p3653
sVmysteryberry
p3654
VMystery Berry
p3655
sVmudbray
p3656
VMudbray
p3657
sVprecipiceblades
p3658
VPrecipice Blades
p3659
sVslaking
p3660
VSlaking
p3661
sVavalugg
p3662
VAvalugg
p3663
sVscratch
p3664
VScratch
p3665
sVcharmeleon
p3666
VCharmeleon
p3667
sVhighhorsepower
p3668
VHigh Horsepower
p3669
sVnormaliumz
p3670
VNormalium Z
p3671
sVcharmander
p3672
VCharmander
p3673
sVspeedboost
p3674
VSpeed Boost
p3675
sVwakeupslap
p3676
VWake-Up Slap
p3677
sVpsychicgem
p3678
VPsychic Gem
p3679
sVharvest
p3680
VHarvest
p3681
sVperishsong
p3682
VPerish Song
p3683
sVcutecharm
p3684
VCute Charm
p3685
sVblaze
p3686
VBlaze
p3687
sVsniper
p3688
VSniper
p3689
sVtriplekick
p3690
VTriple Kick
p3691
sVdarumaka
p3692
VDarumaka
p3693
sVnightslash
p3694
VNight Slash
p3695
sVextrasensory
p3696
VExtrasensory
p3697
sVteddiursa
p3698
VTeddiursa
p3699
sVthundershock
p3700
VThunder Shock
p3701
sVazurill
p3702
VAzurill
p3703
sVbigpecks
p3704
VBig Pecks
p3705
sVlureball
p3706
VLure Ball
p3707
sVqwilfish
p3708
VQwilfish
p3709
sVhyperbeam
p3710
VHyper Beam
p3711
sVdynamicpunch
p3712
VDynamic Punch
p3713
sVlurantistotem
p3714
VLurantis-Totem
p3715
sVmagnemite
p3716
VMagnemite
p3717
sVtyrunt
p3718
VTyrunt
p3719
sVmultiattack
p3720
VMulti-Attack
p3721
sVirondefense
p3722
VIron Defense
p3723
sVmisdreavus
p3724
VMisdreavus
p3725
sVfidgit
p3726
VFidgit
p3727
sVdousedrive
p3728
VDouse Drive
p3729
sVribombeetotem
p3730
VRibombee-Totem
p3731
sVcrushclaw
p3732
VCrush Claw
p3733
sVsoftboiled
p3734
VSoft-Boiled
p3735
sVpoisongem
p3736
VPoison Gem
p3737
sVtectonicrage
p3738
VTectonic Rage
p3739
sVdownload
p3740
VDownload
p3741
sVacid
p3742
VAcid
p3743
sVvigoroth
p3744
VVigoroth
p3745
sVjumbao
p3746
VJumbao
p3747
sVlombre
p3748
VLombre
p3749
sVdelcatty
p3750
VDelcatty
p3751
sVhoundoominite
p3752
VHoundoominite
p3753
sVturtonator
p3754
VTurtonator
p3755
sVtriattack
p3756
VTri Attack
p3757
sVtyranitar
p3758
VTyranitar
p3759
sVturtwig
p3760
VTurtwig
p3761
sVbruxish
p3762
VBruxish
p3763
sVmagmastorm
p3764
VMagma Storm
p3765
sVpansear
p3766
VPansear
p3767
sVdeerling
p3768
VDeerling
p3769
sVswinub
p3770
VSwinub
p3771
sVgigavolthavoc
p3772
VGigavolt Havoc
p3773
sVabomasnow
p3774
VAbomasnow
p3775
sVrowlet
p3776
VRowlet
p3777
sVsing
p3778
VSing
p3779
sVtriage
p3780
VTriage
p3781
sVpowersplit
p3782
VPower Split
p3783
sVincinerate
p3784
VIncinerate
p3785
sVmarangaberry
p3786
VMaranga Berry
p3787
sVrampardos
p3788
VRampardos
p3789
sVscreech
p3790
VScreech
p3791
sVtentacruel
p3792
VTentacruel
p3793
sVnaturalcure
p3794
VNatural Cure
p3795
sVforestscurse
p3796
VForest's Curse
p3797
sVblizzard
p3798
VBlizzard
p3799
sVteeterdance
p3800
VTeeter Dance
p3801
sVshieldsdown
p3802
VShields Down
p3803
sVfoongus
p3804
VFoongus
p3805
sVfirememory
p3806
VFire Memory
p3807
sVaquaring
p3808
VAqua Ring
p3809
sVprzcureberry
p3810
VPRZ Cure Berry
p3811
sVhardy
p3812
VHardy
p3813
sVarceusground
p3814
VArceus-Ground
p3815
sVpumpkaboolarge
p3816
VPumpkaboo-Large
p3817
sVkingdra
p3818
VKingdra
p3819
sVaerodactylite
p3820
VAerodactylite
p3821
sVstakeout
p3822
VStakeout
p3823
sVbanettite
p3824
VBanettite
p3825
sVdragongem
p3826
VDragon Gem
p3827
sVheatran
p3828
VHeatran
p3829
sVsteelixite
p3830
VSteelixite
p3831
sVheavyball
p3832
VHeavy Ball
p3833
sVcharcoal
p3834
VCharcoal
p3835
sVdubiousdisc
p3836
VDubious Disc
p3837
sVmistyseed
p3838
VMisty Seed
p3839
sVcranidos
p3840
VCranidos
p3841
sVabsol
p3842
VAbsol
p3843
sVcelesteela
p3844
VCelesteela
p3845
sVplusle
p3846
VPlusle
p3847
sVaerodactylmega
p3848
VAerodactyl-Mega
p3849
sVrivalry
p3850
VRivalry
p3851
sVwatersport
p3852
VWater Sport
p3853
sVpikaniumz
p3854
VPikanium Z
p3855
sVicicleplate
p3856
VIcicle Plate
p3857
sVmimikyubustedtotem
p3858
VMimikyu-Busted-Totem
p3859
sVfuturesight
p3860
VFuture Sight
p3861
sVfirelash
p3862
VFire Lash
p3863
sVsmellingsalts
p3864
VSmelling Salts
p3865
sVarchen
p3866
VArchen
p3867
sVexeggcute
p3868
VExeggcute
p3869
sVlucario
p3870
VLucario
p3871
sVthundurus
p3872
VThundurus
p3873
sVburnup
p3874
VBurn Up
p3875
sVdonphan
p3876
VDonphan
p3877
sVterrakion
p3878
VTerrakion
p3879
sVblacksludge
p3880
VBlack Sludge
p3881
sVsilvallypsychic
p3882
VSilvally-Psychic
p3883
sVrelicsong
p3884
VRelic Song
p3885
sVheliolisk
p3886
VHeliolisk
p3887
sVblazikenmega
p3888
VBlaziken-Mega
p3889
sVgastrodon
p3890
VGastrodon
p3891
sVbronzong
p3892
VBronzong
p3893
sVweavile
p3894
VWeavile
p3895
sVdewott
p3896
VDewott
p3897
sVchandelure
p3898
VChandelure
p3899
sVhaxorus
p3900
VHaxorus
p3901
sVsecretsword
p3902
VSecret Sword
p3903
sVowntempo
p3904
VOwn Tempo
p3905
sVhiddenpower
p3906
VHidden Power
p3907
sVrazorleaf
p3908
VRazor Leaf
p3909
sVpowerswap
p3910
VPower Swap
p3911
sVdragalge
p3912
VDragalge
p3913
sVgrasswhistle
p3914
VGrass Whistle
p3915
sVswampert
p3916
VSwampert
p3917
sVwynaut
p3918
VWynaut
p3919
sVpidgey
p3920
VPidgey
p3921
sVpoisoniumz
p3922
VPoisonium Z
p3923
sVaggronite
p3924
VAggronite
p3925
sVgenesect
p3926
VGenesect
p3927
sVlotad
p3928
VLotad
p3929
sVrkssystem
p3930
VRKS System
p3931
sVsilvallyice
p3932
VSilvally-Ice
p3933
sVvikavolttotem
p3934
VVikavolt-Totem
p3935
sVbind
p3936
VBind
p3937
sVcounter
p3938
VCounter
p3939
sVvikavolt
p3940
VVikavolt
p3941
sVfullincense
p3942
VFull Incense
p3943
sVfloatoy
p3944
VFloatoy
p3945
sVweepinbell
p3946
VWeepinbell
p3947
sVhitmonchan
p3948
VHitmonchan
p3949
sVwoobat
p3950
VWoobat
p3951
sVaquajet
p3952
VAqua Jet
p3953
sVkrabby
p3954
VKrabby
p3955
sVumbreon
p3956
VUmbreon
p3957
sVdragonair
p3958
VDragonair
p3959
sVhitmontop
p3960
VHitmontop
p3961
sVheatproof
p3962
VHeatproof
p3963
sVmukalola
p3964
VMuk-Alola
p3965
sVguardswap
p3966
VGuard Swap
p3967
sVassaultvest
p3968
VAssault Vest
p3969
sVpetalblizzard
p3970
VPetal Blizzard
p3971
sVkadabra
p3972
VKadabra
p3973
sVpurepower
p3974
VPure Power
p3975
sVironball
p3976
VIron Ball
p3977
sVdreameater
p3978
VDream Eater
p3979
sVhelpinghand
p3980
VHelping Hand
p3981
sVmunchlax
p3982
VMunchlax
p3983
sVzenheadbutt
p3984
VZen Headbutt
p3985
sVbelch
p3986
VBelch
p3987
sVpowertrip
p3988
VPower Trip
p3989
sVberryjuice
p3990
VBerry Juice
p3991
sVhiddenpowerflying
p3992
VHidden Power Flying
p3993
sVmilotic
p3994
VMilotic
p3995
sVpikachuoriginal
p3996
VPikachu-Original
p3997
sVpsychicsurge
p3998
VPsychic Surge
p3999
sVflail
p4000
VFlail
p4001
sVkabutops
p4002
VKabutops
p4003
sVhoothoot
p4004
VHoothoot
p4005
sVkoffing
p4006
VKoffing
p4007
sVtoxapex
p4008
VToxapex
p4009
sVarbok
p4010
VArbok
p4011
sVmagnitude
p4012
VMagnitude
p4013
sVarceusfighting
p4014
VArceus-Fighting
p4015
sVrapidspin
p4016
VRapid Spin
p4017
sVskullbash
p4018
VSkull Bash
p4019
sVdratini
p4020
VDratini
p4021
sVafteryou
p4022
VAfter You
p4023
sVmaractus
p4024
VMaractus
p4025
sVcrucibellite
p4026
VCrucibellite
p4027
sVmareanie
p4028
VMareanie
p4029
sVilluminate
p4030
VIlluminate
p4031
sVgallademega
p4032
VGallade-Mega
p4033
sVmagnetpull
p4034
VMagnet Pull
p4035
sVtepig
p4036
VTepig
p4037
sVkelpsyberry
p4038
VKelpsy Berry
p4039
sVstatic
p4040
VStatic
p4041
sVflameplate
p4042
VFlame Plate
p4043
sVicememory
p4044
VIce Memory
p4045
sVicefang
p4046
VIce Fang
p4047
sVvenonat
p4048
VVenonat
p4049
sVsilvallyfighting
p4050
VSilvally-Fighting
p4051
sVjoltik
p4052
VJoltik
p4053
sVrollingkick
p4054
VRolling Kick
p4055
sVoricorio
p4056
VOricorio
p4057
sVweatherball
p4058
VWeather Ball
p4059
sVshatteredpsyche
p4060
VShattered Psyche
p4061
sVmewniumz
p4062
VMewnium Z
p4063
sVmanectric
p4064
VManectric
p4065
sVnaturepower
p4066
VNature Power
p4067
sVregisteel
p4068
VRegisteel
p4069
sVsmog
p4070
VSmog
p4071
sVbabydolleyes
p4072
VBaby-Doll Eyes
p4073
sVleafguard
p4074
VLeaf Guard
p4075
sVicywind
p4076
VIcy Wind
p4077
sVemolga
p4078
VEmolga
p4079
sVmamoswine
p4080
VMamoswine
p4081
sVconkeldurr
p4082
VConkeldurr
p4083
sVduskstone
p4084
VDusk Stone
p4085
sVworkup
p4086
VWork Up
p4087
sVmetagrossite
p4088
VMetagrossite
p4089
sVhippowdon
p4090
VHippowdon
p4091
sVenigmaberry
p4092
VEnigma Berry
p4093
sVscatterbug
p4094
VScatterbug
p4095
sVaromaveil
p4096
VAroma Veil
p4097
sVcorrosion
p4098
VCorrosion
p4099
sVtropkick
p4100
VTrop Kick
p4101
sVsudowoodo
p4102
VSudowoodo
p4103
sVlarvitar
p4104
VLarvitar
p4105
sVheadbutt
p4106
VHeadbutt
p4107
sVsacredsword
p4108
VSacred Sword
p4109
sVbodyslam
p4110
VBody Slam
p4111
sVbugbuzz
p4112
VBug Buzz
p4113
sVfirefang
p4114
VFire Fang
p4115
sVdiancite
p4116
VDiancite
p4117
sVampharosmega
p4118
VAmpharos-Mega
p4119
sVmistball
p4120
VMist Ball
p4121
sVskrelp
p4122
VSkrelp
p4123
sVjumpkick
p4124
VJump Kick
p4125
sVninetalesalola
p4126
VNinetales-Alola
p4127
sVwaterspout
p4128
VWater Spout
p4129
sVpsychicmemory
p4130
VPsychic Memory
p4131
sVloudred
p4132
VLoudred
p4133
sVearthpower
p4134
VEarth Power
p4135
sVblissey
p4136
VBlissey
p4137
sVpikachukalos
p4138
VPikachu-Kalos
p4139
sVpremierball
p4140
VPremier Ball
p4141
sVrotomfrost
p4142
VRotom-Frost
p4143
sVsolidrock
p4144
VSolid Rock
p4145
sVhonedge
p4146
VHonedge
p4147
sVrabutaberry
p4148
VRabuta Berry
p4149
sVagility
p4150
VAgility
p4151
sVelectabuzz
p4152
VElectabuzz
p4153
sVhoopaunbound
p4154
VHoopa-Unbound
p4155
sVfomantis
p4156
VFomantis
p4157
sVsachet
p4158
VSachet
p4159
sVcrobat
p4160
VCrobat
p4161
sVrockblast
p4162
VRock Blast
p4163
sVslackoff
p4164
VSlack Off
p4165
sVprivatyke
p4166
VPrivatyke
p4167
sVsoftsand
p4168
VSoft Sand
p4169
sVsigilyph
p4170
VSigilyph
p4171
sVdeepseatooth
p4172
VDeep Sea Tooth
p4173
sVtorkoal
p4174
VTorkoal
p4175
sVwurmple
p4176
VWurmple
p4177
sVtapulele
p4178
VTapu Lele
p4179
sVsunsteelstrike
p4180
VSunsteel Strike
p4181
sVgrimeralola
p4182
VGrimer-Alola
p4183
sVtimburr
p4184
VTimburr
p4185
sVsealeo
p4186
VSealeo
p4187
sVpoisonfang
p4188
VPoison Fang
p4189
sVinsectplate
p4190
VInsect Plate
p4191
sVtorrent
p4192
VTorrent
p4193
sVencore
p4194
VEncore
p4195
sVquickball
p4196
VQuick Ball
p4197
sVtrapinch
p4198
VTrapinch
p4199
sVbonerush
p4200
VBone Rush
p4201
sVgentle
p4202
VGentle
p4203
sVtorment
p4204
VTorment
p4205
sVarceusflying
p4206
VArceus-Flying
p4207
sVzebstrika
p4208
VZebstrika
p4209
sVwhitesmoke
p4210
VWhite Smoke
p4211
sVlevelball
p4212
VLevel Ball
p4213
sVsoak
p4214
VSoak
p4215
sVfusionbolt
p4216
VFusion Bolt
p4217
sVflareon
p4218
VFlareon
p4219
sVcalmmind
p4220
VCalm Mind
p4221
sVdiamondstorm
p4222
VDiamond Storm
p4223
sVgravity
p4224
VGravity
p4225
sVcarnivine
p4226
VCarnivine
p4227
sVgrassgem
p4228
VGrass Gem
p4229
sVfleurcannon
p4230
VFleur Cannon
p4231
sVpsychoboost
p4232
VPsycho Boost
p4233
sVnuzleaf
p4234
VNuzleaf
p4235
sVwidelens
p4236
VWide Lens
p4237
sVshadowball
p4238
VShadow Ball
p4239
sVdrifblim
p4240
VDrifblim
p4241
sVgoldeen
p4242
VGoldeen
p4243
sVmewtwo
p4244
VMewtwo
p4245
sVrollout
p4246
VRollout
p4247
sVslurpuff
p4248
VSlurpuff
p4249
sVdracometeor
p4250
VDraco Meteor
p4251
sVsludgewave
p4252
VSludge Wave
p4253
sVsceptile
p4254
VSceptile
p4255
sVaraquanid
p4256
VAraquanid
p4257
sVgardevoirite
p4258
VGardevoirite
p4259
sVexeggutor
p4260
VExeggutor
p4261
sVshedskin
p4262
VShed Skin
p4263
sVcherrimsunshine
p4264
VCherrim-Sunshine
p4265
sVarceus
p4266
VArceus
p4267
sVimpish
p4268
VImpish
p4269
sVservine
p4270
VServine
p4271
sVwailmer
p4272
VWailmer
p4273
sVbrine
p4274
VBrine
p4275
sVdawnstone
p4276
VDawn Stone
p4277
sVsleeppowder
p4278
VSleep Powder
p4279
sVoldamber
p4280
VOld Amber
p4281
sVsnover
p4282
VSnover
p4283
sVdurant
p4284
VDurant
p4285
sVdarkiniumz
p4286
VDarkinium Z
p4287
sVsimplebeam
p4288
VSimple Beam
p4289
sVyveltal
p4290
VYveltal
p4291
sVbrickbreak
p4292
VBrick Break
p4293
sVrash
p4294
VRash
p4295
sVpiplup
p4296
VPiplup
p4297
sVflashfire
p4298
VFlash Fire
p4299
sVelectricmemory
p4300
VElectric Memory
p4301
sValoraichiumz
p4302
VAloraichium Z
p4303
sVpikipek
p4304
VPikipek
p4305
sVdeino
p4306
VDeino
p4307
sVcamerupt
p4308
VCamerupt
p4309
sVluckypunch
p4310
VLucky Punch
p4311
sVpurrloin
p4312
VPurrloin
p4313
sVrarebone
p4314
VRare Bone
p4315
sVsolosis
p4316
VSolosis
p4317
sVtangaberry
p4318
VTanga Berry
p4319
sVbellydrum
p4320
VBelly Drum
p4321
sVsassy
p4322
VSassy
p4323
sVdeoxysattack
p4324
VDeoxys-Attack
p4325
sVcroagunk
p4326
VCroagunk
p4327
sVbravebird
p4328
VBrave Bird
p4329
sVgust
p4330
VGust
p4331
sVmagicguard
p4332
VMagic Guard
p4333
sVsandattack
p4334
VSand Attack
p4335
sVkingler
p4336
VKingler
p4337
sVhugepower
p4338
VHuge Power
p4339
sVmudbomb
p4340
VMud Bomb
p4341
sVdartrix
p4342
VDartrix
p4343
sVsheercold
p4344
VSheer Cold
p4345
sVgeomancy
p4346
VGeomancy
p4347
sVleafstone
p4348
VLeaf Stone
p4349
sVcacturne
p4350
VCacturne
p4351
sVpowder
p4352
VPowder
p4353
sVvictini
p4354
VVictini
p4355
sVfinneon
p4356
VFinneon
p4357
sVtwineedle
p4358
VTwineedle
p4359
sVchestoberry
p4360
VChesto Berry
p4361
sVgrumpig
p4362
VGrumpig
p4363
sVbuginiumz
p4364
VBuginium Z
p4365
sVnightmare
p4366
VNightmare
p4367
sVgyarados
p4368
VGyarados
p4369
sVlycaniumz
p4370
VLycanium Z
p4371
sVvaporeon
p4372
VVaporeon
p4373
sVthunderwave
p4374
VThunder Wave
p4375
sVrockincense
p4376
VRock Incense
p4377
sVfroslass
p4378
VFroslass
p4379
sVaron
p4380
VAron
p4381
sVconversion2
p4382
VConversion 2
p4383
sVmysticalfire
p4384
VMystical Fire
p4385
sVzoroark
p4386
VZoroark
p4387
sVshellsmash
p4388
VShell Smash
p4389
sVhydropump
p4390
VHydro Pump
p4391
sVswift
p4392
VSwift
p4393
sVmemento
p4394
VMemento
p4395
sVmetang
p4396
VMetang
p4397
sVklinklang
p4398
VKlinklang
p4399
sVaerodactyl
p4400
VAerodactyl
p4401
sVtailwhip
p4402
VTail Whip
p4403
sVsceptilite
p4404
VSceptilite
p4405
sVsafetygoggles
p4406
VSafety Goggles
p4407
sVklang
p4408
VKlang
p4409
sVgreninjaash
p4410
VGreninja-Ash
p4411
sVswallow
p4412
VSwallow
p4413
sVspritzee
p4414
VSpritzee
p4415
sVflabebe
p4416
VFlabe\u0301be\u0301
p4417
sVnumel
p4418
VNumel
p4419
sVwoodhammer
p4420
VWood Hammer
p4421
sVhiddenpowerwater
p4422
VHidden Power Water
p4423
sVmalaconda
p4424
VMalaconda
p4425
sVgible
p4426
VGible
p4427
sVovercoat
p4428
VOvercoat
p4429
sVekans
p4430
VEkans
p4431
sVsharpedomega
p4432
VSharpedo-Mega
p4433
sVpixieplate
p4434
VPixie Plate
p4435
sVvolkritter
p4436
VVolkritter
p4437
sVdugtrio
p4438
VDugtrio
p4439
sVdisarmingvoice
p4440
VDisarming Voice
p4441
sVwailord
p4442
VWailord
p4443
sVswoobat
p4444
VSwoobat
p4445
sVelectrify
p4446
VElectrify
p4447
sVdazzling
p4448
VDazzling
p4449
sVoricoriosensu
p4450
VOricorio-Sensu
p4451
sVkeldeo
p4452
VKeldeo
p4453
sVrattata
p4454
VRattata
p4455
sVtomohawk
p4456
VTomohawk
p4457
sVivysaur
p4458
VIvysaur
p4459
sVhorndrill
p4460
VHorn Drill
p4461
sVcoverfossil
p4462
VCover Fossil
p4463
sVgraveler
p4464
VGraveler
p4465
sVsmeargle
p4466
VSmeargle
p4467
sVmetagrossmega
p4468
VMetagross-Mega
p4469
sVraindance
p4470
VRain Dance
p4471
sVbreezi
p4472
VBreezi
p4473
sVinfestation
p4474
VInfestation
p4475
sVvoodoll
p4476
VVoodoll
p4477
sVpresent
p4478
VPresent
p4479
sVgrovyle
p4480
VGrovyle
p4481
sVpokestarf002
p4482
VPokestar F-002
p4483
sVintimidate
p4484
VIntimidate
p4485
sVharden
p4486
VHarden
p4487
sVpowerweight
p4488
VPower Weight
p4489
sVflaaffy
p4490
VFlaaffy
p4491
sVbeheeyem
p4492
VBeheeyem
p4493
sVwhirlpool
p4494
VWhirlpool
p4495
sVpelipper
p4496
VPelipper
p4497
sVthickfat
p4498
VThick Fat
p4499
sVcarracosta
p4500
VCarracosta
p4501
sVluxio
p4502
VLuxio
p4503
sVvullaby
p4504
VVullaby
p4505
sVhiddenpowerghost
p4506
VHidden Power Ghost
p4507
sVlightball
p4508
VLight Ball
p4509
sVwaterveil
p4510
VWater Veil
p4511
sVspelltag
p4512
VSpell Tag
p4513
sVdeoxysdefense
p4514
VDeoxys-Defense
p4515
sVzekrom
p4516
VZekrom
p4517
sVaipom
p4518
VAipom
p4519
sVdefiant
p4520
VDefiant
p4521
sVhardstone
p4522
VHard Stone
p4523
sVkebiaberry
p4524
VKebia Berry
p4525
sVbergmite
p4526
VBergmite
p4527
sVcascoon
p4528
VCascoon
p4529
sVmindblown
p4530
VMind Blown
p4531
sVmagcargo
p4532
VMagcargo
p4533
sVabsorb
p4534
VAbsorb
p4535
sVpikachuhoenn
p4536
VPikachu-Hoenn
p4537
sVraindish
p4538
VRain Dish
p4539
sVseaking
p4540
VSeaking
p4541
sVmagician
p4542
VMagician
p4543
sVdragoniumz
p4544
VDragonium Z
p4545
sVairlock
p4546
VAir Lock
p4547
sVbabiriberry
p4548
VBabiri Berry
p4549
sVprotector
p4550
VProtector
p4551
sVeelektross
p4552
VEelektross
p4553
sVpickpocket
p4554
VPickpocket
p4555
sVsitrusberry
p4556
VSitrus Berry
p4557
sVarceuspsychic
p4558
VArceus-Psychic
p4559
sVbeautifly
p4560
VBeautifly
p4561
sVwormadamtrash
p4562
VWormadam-Trash
p4563
sVvenoshock
p4564
VVenoshock
p4565
sVsilvallyfairy
p4566
VSilvally-Fairy
p4567
sVmudsport
p4568
VMud Sport
p4569
sVazelf
p4570
VAzelf
p4571
sVyanmega
p4572
VYanmega
p4573
sVnaviathan
p4574
VNaviathan
p4575
sVfairyaura
p4576
VFairy Aura
p4577
sVpsychicseed
p4578
VPsychic Seed
p4579
sVpinsir
p4580
VPinsir
p4581
sVrotom
p4582
VRotom
p4583
sVguts
p4584
VGuts
p4585
sVtauros
p4586
VTauros
p4587
sVnatu
p4588
VNatu
p4589
sVfaketears
p4590
VFake Tears
p4591
sVbattery
p4592
VBattery
p4593
sVaromaticmist
p4594
VAromatic Mist
p4595
sVbeedrillite
p4596
VBeedrillite
p4597
sVconfide
p4598
VConfide
p4599
sVleechlife
p4600
VLeech Life
p4601
sVaegislash
p4602
VAegislash
p4603
sVkingsshield
p4604
VKing's Shield
p4605
sVkingsrock
p4606
VKing's Rock
p4607
sVblukberry
p4608
VBluk Berry
p4609
sVflowershield
p4610
VFlower Shield
p4611
sVarenatrap
p4612
VArena Trap
p4613
sVleechseed
p4614
VLeech Seed
p4615
sVlaserfocus
p4616
VLaser Focus
p4617
sVducklett
p4618
VDucklett
p4619
sVgreninja
p4620
VGreninja
p4621
sVreapercloth
p4622
VReaper Cloth
p4623
sVdhelmise
p4624
VDhelmise
p4625
sVbudew
p4626
VBudew
p4627
sVgogoat
p4628
VGogoat
p4629
sVlilligant
p4630
VLilligant
p4631
sVhealball
p4632
VHeal Ball
p4633
sVphanpy
p4634
VPhanpy
p4635
sVaudinite
p4636
VAudinite
p4637
sVimprison
p4638
VImprison
p4639
sVrepeatball
p4640
VRepeat Ball
p4641
sVglare
p4642
VGlare
p4643
sVjangmoo
p4644
VJangmo-o
p4645
sVthief
p4646
VThief
p4647
sVhail
p4648
VHail
p4649
sVcofagrigus
p4650
VCofagrigus
p4651
sVwepearberry
p4652
VWepear Berry
p4653
sVskarmory
p4654
VSkarmory
p4655
sVpersimberry
p4656
VPersim Berry
p4657
sVdragonclaw
p4658
VDragon Claw
p4659
sVdrizzle
p4660
VDrizzle
p4661
sVzygarde10
p4662
VZygarde-10%
p4663
sVstaraptor
p4664
VStaraptor
p4665
sVmagicalleaf
p4666
VMagical Leaf
p4667
sVforcepalm
p4668
VForce Palm
p4669
sVhurricane
p4670
VHurricane
p4671
sVlileep
p4672
VLileep
p4673
sVpiloswine
p4674
VPiloswine
p4675
sVjudgment
p4676
VJudgment
p4677
sVvenusaurite
p4678
VVenusaurite
p4679
sVraichu
p4680
VRaichu
p4681
sVcyclohm
p4682
VCyclohm
p4683
sVhappiny
p4684
VHappiny
p4685
sVpressure
p4686
VPressure
p4687
sVsilkscarf
p4688
VSilk Scarf
p4689
sVpidgeotto
p4690
VPidgeotto
p4691
sVdreadplate
p4692
VDread Plate
p4693
sVsableyemega
p4694
VSableye-Mega
p4695
sVfurret
p4696
VFurret
p4697
sVpsystrike
p4698
VPsystrike
p4699
sVmiltank
p4700
VMiltank
p4701
sVmeteormash
p4702
VMeteor Mash
p4703
sVshucaberry
p4704
VShuca Berry
p4705
sVrockmemory
p4706
VRock Memory
p4707
sVsweetkiss
p4708
VSweet Kiss
p4709
sVacidarmor
p4710
VAcid Armor
p4711
sVlightclay
p4712
VLight Clay
p4713
sVvoodoom
p4714
VVoodoom
p4715
sVblueorb
p4716
VBlue Orb
p4717
sVfeintattack
p4718
VFeint Attack
p4719
sVburmy
p4720
VBurmy
p4721
sVgrassysurge
p4722
VGrassy Surge
p4723
sVcaimanoe
p4724
VCaimanoe
p4725
sVmagostberry
p4726
VMagost Berry
p4727
sVgrasspelt
p4728
VGrass Pelt
p4729
sVicestone
p4730
VIce Stone
p4731
sVspitup
p4732
VSpit Up
p4733
sVstamina
p4734
VStamina
p4735
sVrockthrow
p4736
VRock Throw
p4737
sVroseliberry
p4738
VRoseli Berry
p4739
sVfrustration
p4740
VFrustration
p4741
sVambipom
p4742
VAmbipom
p4743
sVsolgaleo
p4744
VSolgaleo
p4745
sVfellstinger
p4746
VFell Stinger
p4747
sVfollowme
p4748
VFollow Me
p4749
sVclauncher
p4750
VClauncher
p4751
sVquickpowder
p4752
VQuick Powder
p4753
sVfrenzyplant
p4754
VFrenzy Plant
p4755
sVclearbody
p4756
VClear Body
p4757
sVpowerofalchemy
p4758
VPower of Alchemy
p4759
sVmagoberry
p4760
VMago Berry
p4761
sVcroconaw
p4762
VCroconaw
p4763
sVdrowzee
p4764
VDrowzee
p4765
sVserenegrace
p4766
VSerene Grace
p4767
sVoceanicoperetta
p4768
VOceanic Operetta
p4769
sVheracronite
p4770
VHeracronite
p4771
sVtechnician
p4772
VTechnician
p4773
sVarceusgrass
p4774
VArceus-Grass
p4775
sVmorelull
p4776
VMorelull
p4777
sVembargo
p4778
VEmbargo
p4779
sVpikachuunova
p4780
VPikachu-Unova
p4781
sVmetronome
p4782
VMetronome
p4783
sVattackorder
p4784
VAttack Order
p4785
sVallyswitch
p4786
VAlly Switch
p4787
sVwish
p4788
VWish
p4789
sVentrainment
p4790
VEntrainment
p4791
sVpoisonheal
p4792
VPoison Heal
p4793
sVpyukumuku
p4794
VPyukumuku
p4795
sVscizormega
p4796
VScizor-Mega
p4797
sVthroatchop
p4798
VThroat Chop
p4799
sVhoneclaws
p4800
VHone Claws
p4801
sVgrassmemory
p4802
VGrass Memory
p4803
sVpikachurockstar
p4804
VPikachu-Rock-Star
p4805
sVoranberry
p4806
VOran Berry
p4807
sVmarshadow
p4808
VMarshadow
p4809
sVninjask
p4810
VNinjask
p4811
sVslowstart
p4812
VSlow Start
p4813
sVweakarmor
p4814
VWeak Armor
p4815
sVaurasphere
p4816
VAura Sphere
p4817
sVshelgon
p4818
VShelgon
p4819
sVrawstberry
p4820
VRawst Berry
p4821
sVshadowbone
p4822
VShadow Bone
p4823
sVpokestarblackbelt
p4824
VPokestar Black Belt
p4825
sVvacuumwave
p4826
VVacuum Wave
p4827
sVillusion
p4828
VIllusion
p4829
sVroleplay
p4830
VRole Play
p4831
sVyacheberry
p4832
VYache Berry
p4833
sVelectriumz
p4834
VElectrium Z
p4835
sVtreecko
p4836
VTreecko
p4837
sVicehammer
p4838
VIce Hammer
p4839
sVbraviary
p4840
VBraviary
p4841
sVvivillon
p4842
VVivillon
p4843
sVnoguard
p4844
VNo Guard
p4845
sVsalamencemega
p4846
VSalamence-Mega
p4847
sVabomasite
p4848
VAbomasite
p4849
sVstarmie
p4850
VStarmie
p4851
sVpersistent
p4852
VPersistent
p4853
sVmagmar
p4854
VMagmar
p4855
sVzangoose
p4856
VZangoose
p4857
sVvivillonfancy
p4858
VVivillon-Fancy
p4859
sVvanilluxe
p4860
VVanilluxe
p4861
s.