(dp1
Velectivire
p2
VElectivire
p3
sVarceusice
p4
VArceus-Ice
p5
sVcolorchange
p6
VColor Change
p7
sVpersimberry
p8
VPersim Berry
p9
sVlucarionite
p10
VLucarionite
p11
sVpalkia
p12
VPalkia
p13
sVchatter
p14
VChatter
p15
sValakazite
p16
VAlakazite
p17
sVtickle
p18
VTickle
p19
sVarceuselectric
p20
VArceus-Electric
p21
sVabra
p22
VAbra
p23
sVreuniclus
p24
VReuniclus
p25
sVrecycle
p26
VRecycle
p27
sVtimerball
p28
VTimer Ball
p29
sVmeditite
p30
VMeditite
p31
sVsharpbeak
p32
VSharp Beak
p33
sVmewtwonitex
p34
VMewtwonite X
p35
sVmewtwonitey
p36
VMewtwonite Y
p37
sVquickclaw
p38
VQuick Claw
p39
sVdoubleslap
p40
VDoubleSlap
p41
sVplayaround
p42
VPlay Around
p43
sVeviolite
p44
VEviolite
p45
sVprotean
p46
VProtean
p47
sVsquirtle
p48
VSquirtle
p49
sVdarmanitanzen
p50
VDarmanitan-Zen
p51
sVnastyplot
p52
VNasty Plot
p53
sVwormadam
p54
VWormadam
p55
sVaggronmega
p56
VAggron-Mega
p57
sVwhirlwind
p58
VWhirlwind
p59
sVplumefossil
p60
VPlume Fossil
p61
sVcherrim
p62
VCherrim
p63
sVhiddenpowerelectric
p64
VHidden Power Electric
p65
sVhiddenpowerfire
p66
VHidden Power Fire
p67
sVguillotine
p68
VGuillotine
p69
sVlevitate
p70
VLevitate
p71
sVgyaradosite
p72
VGyaradosite
p73
sVpomegberry
p74
VPomeg Berry
p75
sVmasquerain
p76
VMasquerain
p77
sVthunder
p78
VThunder
p79
sVwaterpulse
p80
VWater Pulse
p81
sVdarkgem
p82
VDark Gem
p83
sVsteelwing
p84
VSteel Wing
p85
sVfraxure
p86
VFraxure
p87
sVmoldbreaker
p88
VMold Breaker
p89
sVcrunch
p90
VCrunch
p91
sVrindoberry
p92
VRindo Berry
p93
sVreflecttype
p94
VReflect Type
p95
sVsnivy
p96
VSnivy
p97
sVmefirst
p98
VMe First
p99
sVmothim
p100
VMothim
p101
sVscizorite
p102
VScizorite
p103
sVmew
p104
VMew
p105
sVpursuit
p106
VPursuit
p107
sVheadsmash
p108
VHead Smash
p109
sVaftermath
p110
VAftermath
p111
sVclawitzer
p112
VClawitzer
p113
sVpixilate
p114
VPixilate
p115
sVtornadustherian
p116
VTornadus-Therian
p117
sVlunatone
p118
VLunatone
p119
sVpunishment
p120
VPunishment
p121
sVpoisontouch
p122
VPoison Touch
p123
sVfeebas
p124
VFeebas
p125
sVneedlearm
p126
VNeedle Arm
p127
sVblastburn
p128
VBlast Burn
p129
sVhonchkrow
p130
VHonchkrow
p131
sVtirtouga
p132
VTirtouga
p133
sVampharos
p134
VAmpharos
p135
sVdusclops
p136
VDusclops
p137
sVpoisonbarb
p138
VPoison Barb
p139
sVmorningsun
p140
VMorning Sun
p141
sVfreezedry
p142
VFreeze Dry
p143
sVmandibuzz
p144
VMandibuzz
p145
sVoverheat
p146
VOverheat
p147
sVspiritomb
p148
VSpiritomb
p149
sVvoltabsorb
p150
VVolt Absorb
p151
sVpurugly
p152
VPurugly
p153
sVshiftgear
p154
VShift Gear
p155
sS'calm'
p156
S'Calm'
p157
sVcastformrainy
p158
VCastform-Rainy
p159
sVbigroot
p160
VBig Root
p161
sVtorment
p162
VTorment
p163
sVgardevoir
p164
VGardevoir
p165
sVvenomdrench
p166
VVenom Drench
p167
sVmagnetrise
p168
VMagnet Rise
p169
sS'naive'
p170
S'Naive'
p171
sVkyogre
p172
VKyogre
p173
sS'adamant'
p174
S'Adamant'
p175
sVkitsunoh
p176
VKitsunoh
p177
sVarceusbug
p178
VArceus-Bug
p179
sVnoibat
p180
VNoibat
p181
sVpidgeot
p182
VPidgeot
p183
sVtangledfeet
p184
VTangled Feet
p185
sValakazam
p186
VAlakazam
p187
sVonix
p188
VOnix
p189
sVgrimer
p190
VGrimer
p191
sVrototiller
p192
VRototiller
p193
sVlucariomega
p194
VLucario-Mega
p195
sVbugbite
p196
VBug Bite
p197
sVpoisongas
p198
VPoison Gas
p199
sVmakuhita
p200
VMakuhita
p201
sVattract
p202
VAttract
p203
sVcharizarditey
p204
VCharizardite Y
p205
sVcharizarditex
p206
VCharizardite X
p207
sVpowerwhip
p208
VPower Whip
p209
sVskydrop
p210
VSky Drop
p211
sVcrabhammer
p212
VCrabhammer
p213
sVtoxic
p214
VToxic
p215
sVcastformsunny
p216
VCastform-Sunny
p217
sVrotomheat
p218
VRotom-Heat
p219
sVsportball
p220
VSport Ball
p221
sVpoisonpowder
p222
VPoisonPowder
p223
sVredcard
p224
VRed Card
p225
sS'modest'
p226
S'Modest'
p227
sS'lax'
p228
S'Lax'
p229
sVrocktomb
p230
VRock Tomb
p231
sVcherubi
p232
VCherubi
p233
sVleafstorm
p234
VLeaf Storm
p235
sVspookyplate
p236
VSpooky Plate
p237
sS'hasty'
p238
S'Hasty'
p239
sVentei
p240
VEntei
p241
sVmemento
p242
VMemento
p243
sVarceussteel
p244
VArceus-Steel
p245
sVcobaberry
p246
VCoba Berry
p247
sVlaggingtail
p248
VLagging Tail
p249
sVfinalgambit
p250
VFinal Gambit
p251
sVrapidash
p252
VRapidash
p253
sVdoubleteam
p254
VDouble Team
p255
sVlumineon
p256
VLumineon
p257
sVshielddust
p258
VShield Dust
p259
sVmagicbounce
p260
VMagic Bounce
p261
sVfakeout
p262
VFake Out
p263
sVsludge
p264
VSludge
p265
sVvenusaur
p266
VVenusaur
p267
sVphione
p268
VPhione
p269
sVflameburst
p270
VFlame Burst
p271
sVzapplate
p272
VZap Plate
p273
sVfletchinder
p274
VFletchinder
p275
sVmunna
p276
VMunna
p277
sVhitmonlee
p278
VHitmonlee
p279
sVdryskin
p280
VDry Skin
p281
sVkricketot
p282
VKricketot
p283
sVroost
p284
VRoost
p285
sVfurycutter
p286
VFury Cutter
p287
sVirontail
p288
VIron Tail
p289
sVpoliwhirl
p290
VPoliwhirl
p291
sVeggbomb
p292
VEgg Bomb
p293
sVluxray
p294
VLuxray
p295
sVpayback
p296
VPayback
p297
sVexcadrill
p298
VExcadrill
p299
sVgloom
p300
VGloom
p301
sVgluttony
p302
VGluttony
p303
sVvulpix
p304
VVulpix
p305
sVcradily
p306
VCradily
p307
sVthunderfang
p308
VThunder Fang
p309
sVblastoisemega
p310
VBlastoise-Mega
p311
sVespeon
p312
VEspeon
p313
sVmultitype
p314
VMultitype
p315
sVflameorb
p316
VFlame Orb
p317
sVhiddenpowerdragon
p318
VHidden Power Dragon
p319
sVfairywind
p320
VFairy Wind
p321
sVgothorita
p322
VGothorita
p323
sVshadowtag
p324
VShadow Tag
p325
sVomastar
p326
VOmastar
p327
sVwalrein
p328
VWalrein
p329
sVtruant
p330
VTruant
p331
sVqualotberry
p332
VQualot Berry
p333
sVflowergift
p334
VFlower Gift
p335
sVpsychic
p336
VPsychic
p337
sVlifeorb
p338
VLife Orb
p339
sVkasibberry
p340
VKasib Berry
p341
sVseedbomb
p342
VSeed Bomb
p343
sVtornadus
p344
VTornadus
p345
sVshedshell
p346
VShed Shell
p347
sVbarrier
p348
VBarrier
p349
sVleftovers
p350
VLeftovers
p351
sVrevenge
p352
VRevenge
p353
sVsynchronoise
p354
VSynchronoise
p355
sVbestow
p356
VBestow
p357
sVtrumpcard
p358
VTrump Card
p359
sVstruggle
p360
VStruggle
p361
sVshiftry
p362
VShiftry
p363
sVhonedge
p364
VHonedge
p365
sVbeartic
p366
VBeartic
p367
sVkyuremblack
p368
VKyurem-Black
p369
sVsonicboom
p370
VSonicBoom
p371
sVfightinggem
p372
VFighting Gem
p373
sVlatias
p374
VLatias
p375
sVfilter
p376
VFilter
p377
sVcherishball
p378
VCherish Ball
p379
sVcheriberry
p380
VCheri Berry
p381
sS'naughty'
p382
S'Naughty'
p383
sVseedflare
p384
VSeed Flare
p385
sVhydrocannon
p386
VHydro Cannon
p387
sVmagneticflux
p388
VMagnetic Flux
p389
sVdeoxys
p390
VDeoxys
p391
sVhooh
p392
VHo-Oh
p393
sVshieldon
p394
VShieldon
p395
sVslugma
p396
VSlugma
p397
sVheracrossmega
p398
VHeracross-Mega
p399
sVwaveincense
p400
VWave Incense
p401
sVmanectite
p402
VManectite
p403
sVaircutter
p404
VAir Cutter
p405
sVgiratinaorigin
p406
VGiratina-Origin
p407
sVgrowlithe
p408
VGrowlithe
p409
sVinferno
p410
VInferno
p411
sVtwister
p412
VTwister
p413
sVyamask
p414
VYamask
p415
sVflamethrower
p416
VFlamethrower
p417
sVtoxicorb
p418
VToxic Orb
p419
sVfairylock
p420
VFairy Lock
p421
sVrockclimb
p422
VRock Climb
p423
sVwonderroom
p424
VWonder Room
p425
sVmachoke
p426
VMachoke
p427
sVdoomdesire
p428
VDoom Desire
p429
sVmirrormove
p430
VMirror Move
p431
sVsandshrew
p432
VSandshrew
p433
sVpolitoed
p434
VPolitoed
p435
sVminun
p436
VMinun
p437
sVbelueberry
p438
VBelue Berry
p439
sVendure
p440
VEndure
p441
sVswiftswim
p442
VSwift Swim
p443
sVshellbell
p444
VShell Bell
p445
sVminus
p446
VMinus
p447
sVmeowth
p448
VMeowth
p449
sVsweetscent
p450
VSweet Scent
p451
sVsludgebomb
p452
VSludge Bomb
p453
sVpayapaberry
p454
VPayapa Berry
p455
sVclosecombat
p456
VClose Combat
p457
sVmetalclaw
p458
VMetal Claw
p459
sVseel
p460
VSeel
p461
sVblastoise
p462
VBlastoise
p463
sVstrength
p464
VStrength
p465
sVchingling
p466
VChingling
p467
sVgothita
p468
VGothita
p469
sVdarmanitan
p470
VDarmanitan
p471
sVcraftyshield
p472
VCrafty Shield
p473
sVgyroball
p474
VGyro Ball
p475
sVursaring
p476
VUrsaring
p477
sVamoonguss
p478
VAmoonguss
p479
sVgrassyterrain
p480
VGrassy Terrain
p481
sVdeoxysspeed
p482
VDeoxys-Speed
p483
sVshadowforce
p484
VShadow Force
p485
sVcoil
p486
VCoil
p487
sVdrought
p488
VDrought
p489
sVferrothorn
p490
VFerrothorn
p491
sVcosmicpower
p492
VCosmic Power
p493
sVdunsparce
p494
VDunsparce
p495
sVconstrict
p496
VConstrict
p497
sVvileplume
p498
VVileplume
p499
sVraticate
p500
VRaticate
p501
sVslaking
p502
VSlaking
p503
sVjirachi
p504
VJirachi
p505
sVgolduck
p506
VGolduck
p507
sVarmorfossil
p508
VArmor Fossil
p509
sVstickyweb
p510
VSticky Web
p511
sVtogekiss
p512
VTogekiss
p513
sVhippopotas
p514
VHippopotas
p515
sVdialga
p516
VDialga
p517
sVlastresort
p518
VLast Resort
p519
sVbulletpunch
p520
VBullet Punch
p521
sVicegem
p522
VIce Gem
p523
sVspite
p524
VSpite
p525
sVcarbink
p526
VCarbink
p527
sVhaze
p528
VHaze
p529
sVstoutland
p530
VStoutland
p531
sVbidoof
p532
VBidoof
p533
sVsyclant
p534
VSyclant
p535
sVhaunter
p536
VHaunter
p537
sVweedle
p538
VWeedle
p539
sVaerilate
p540
VAerilate
p541
sVhoneygather
p542
VHoney Gather
p543
sVmachop
p544
VMachop
p545
sVmetalpowder
p546
VMetal Powder
p547
sVdusknoir
p548
VDusknoir
p549
sVmeditate
p550
VMeditate
p551
sVreversal
p552
VReversal
p553
sVlunardance
p554
VLunar Dance
p555
sVpumpkaboosmall
p556
VPumpkaboo-Small
p557
sVtentacool
p558
VTentacool
p559
sVmilotic
p560
VMilotic
p561
sVscizor
p562
VScizor
p563
sVwailmer
p564
VWailmer
p565
sVnosepass
p566
VNosepass
p567
sVflashcannon
p568
VFlash Cannon
p569
sVlaxincense
p570
VLax Incense
p571
sVmagneton
p572
VMagneton
p573
sVstickyhold
p574
VSticky Hold
p575
sVbeatup
p576
VBeat Up
p577
sVleafblade
p578
VLeaf Blade
p579
sVserperior
p580
VSerperior
p581
sVempoleon
p582
VEmpoleon
p583
sVwooper
p584
VWooper
p585
sVforretress
p586
VForretress
p587
sVmindreader
p588
VMind Reader
p589
sVseaincense
p590
VSea Incense
p591
sVsimisage
p592
VSimisage
p593
sVarcheops
p594
VArcheops
p595
sVheavymetal
p596
VHeavy Metal
p597
sVwormadamsandy
p598
VWormadam-Sandy
p599
sVmuscleband
p600
VMuscle Band
p601
sVmatblock
p602
VMat Block
p603
sVpurrloin
p604
VPurrloin
p605
sVdoduo
p606
VDoduo
p607
sVmuk
p608
VMuk
p609
sVmotordrive
p610
VMotor Drive
p611
sVstarfberry
p612
VStarf Berry
p613
sVslowpoke
p614
VSlowpoke
p615
sVfrostbreath
p616
VFrost Breath
p617
sVcubone
p618
VCubone
p619
sVcut
p620
VCut
p621
sVmeadowplate
p622
VMeadow Plate
p623
sVparasect
p624
VParasect
p625
sVgourgeistsmall
p626
VGourgeist-Small
p627
sVclearsmog
p628
VClear Smog
p629
sVprotect
p630
VProtect
p631
sVplaynice
p632
VPlay Nice
p633
sVsamurott
p634
VSamurott
p635
sVmawile
p636
VMawile
p637
sVchimecho
p638
VChimecho
p639
sVpetayaberry
p640
VPetaya Berry
p641
sVdoublade
p642
VDoublade
p643
sVconfide
p644
VConfide
p645
sVluckychant
p646
VLucky Chant
p647
sVleppaberry
p648
VLeppa Berry
p649
sVlick
p650
VLick
p651
sVhitmontop
p652
VHitmontop
p653
sVfierydance
p654
VFiery Dance
p655
sVfloatzel
p656
VFloatzel
p657
sVsmackdown
p658
VSmack Down
p659
sVcyclohm
p660
VCyclohm
p661
sVbuneary
p662
VBuneary
p663
sVshockdrive
p664
VShock Drive
p665
sVnightdaze
p666
VNight Daze
p667
sVfriendguard
p668
VFriend Guard
p669
sVfrisk
p670
VFrisk
p671
sVsteamroller
p672
VSteamroller
p673
sVkakuna
p674
VKakuna
p675
sVpowertrick
p676
VPower Trick
p677
sVyanma
p678
VYanma
p679
sVmagiccoat
p680
VMagic Coat
p681
sVmarshtomp
p682
VMarshtomp
p683
sVgurdurr
p684
VGurdurr
p685
sVsoundproof
p686
VSoundproof
p687
sVthrash
p688
VThrash
p689
sVchespin
p690
VChespin
p691
sVsliggoo
p692
VSliggoo
p693
sVtotodile
p694
VTotodile
p695
sVgarchompite
p696
VGarchompite
p697
sVslowbro
p698
VSlowbro
p699
sVigglybuff
p700
VIgglybuff
p701
sVbinacle
p702
VBinacle
p703
sVnevermeltice
p704
VNeverMeltIce
p705
sVgrowl
p706
VGrowl
p707
sVaguavberry
p708
VAguav Berry
p709
sVdrilbur
p710
VDrilbur
p711
sVheracross
p712
VHeracross
p713
sVralts
p714
VRalts
p715
sVpupitar
p716
VPupitar
p717
sVslowking
p718
VSlowking
p719
sVpowerherb
p720
VPower Herb
p721
sVnoivern
p722
VNoivern
p723
sVwaterfall
p724
VWaterfall
p725
sVdewgong
p726
VDewgong
p727
sVkirlia
p728
VKirlia
p729
sVknockoff
p730
VKnock Off
p731
sVoctazooka
p732
VOctazooka
p733
sVsylveon
p734
VSylveon
p735
sVluxuryball
p736
VLuxury Ball
p737
sVhydration
p738
VHydration
p739
sVkrokorok
p740
VKrokorok
p741
sVgolbat
p742
VGolbat
p743
sVquilladin
p744
VQuilladin
p745
sVshellarmor
p746
VShell Armor
p747
sVpoliwag
p748
VPoliwag
p749
sVmetalcoat
p750
VMetal Coat
p751
sVthickclub
p752
VThick Club
p753
sVsweetveil
p754
VSweet Veil
p755
sVgoomy
p756
VGoomy
p757
sVsilcoon
p758
VSilcoon
p759
sVbuggem
p760
VBug Gem
p761
sVoshawott
p762
VOshawott
p763
sVtorterra
p764
VTorterra
p765
sVtogepi
p766
VTogepi
p767
sVdomefossil
p768
VDome Fossil
p769
sVlowkick
p770
VLow Kick
p771
sVhealbell
p772
VHeal Bell
p773
sVmirrorshot
p774
VMirror Shot
p775
sVlickitung
p776
VLickitung
p777
sVdragonrush
p778
VDragon Rush
p779
sVspinarak
p780
VSpinarak
p781
sVdiggersby
p782
VDiggersby
p783
sVsilverwind
p784
VSilver Wind
p785
sVthundurustherian
p786
VThundurus-Therian
p787
sVludicolo
p788
VLudicolo
p789
sVditto
p790
VDitto
p791
sVcirclethrow
p792
VCircle Throw
p793
sVrotom
p794
VRotom
p795
sVnidoqueen
p796
VNidoqueen
p797
sVpinsirmega
p798
VPinsir-Mega
p799
sVhiddenpowerpoison
p800
VHidden Power Poison
p801
sVflatter
p802
VFlatter
p803
sVtoxicspikes
p804
VToxic Spikes
p805
sVfirepledge
p806
VFire Pledge
p807
sVnoctowl
p808
VNoctowl
p809
sVcornnberry
p810
VCornn Berry
p811
sVskullfossil
p812
VSkull Fossil
p813
sVcheekpouch
p814
VCheek Pouch
p815
sVuproar
p816
VUproar
p817
sVrhyperior
p818
VRhyperior
p819
sVtynamo
p820
VTynamo
p821
sVrufflet
p822
VRufflet
p823
sVpsyshock
p824
VPsyshock
p825
sVicyrock
p826
VIcy Rock
p827
sVwynaut
p828
VWynaut
p829
sVtrevenant
p830
VTrevenant
p831
sVabsorbbulb
p832
VAbsorb Bulb
p833
sS'bold'
p834
S'Bold'
p835
sVgunkshot
p836
VGunk Shot
p837
sVgarchomp
p838
VGarchomp
p839
sVgeodude
p840
VGeodude
p841
sVlightscreen
p842
VLight Screen
p843
sVwhimsicott
p844
VWhimsicott
p845
sVlavaplume
p846
VLava Plume
p847
sVkeeneye
p848
VKeen Eye
p849
sVsimipour
p850
VSimipour
p851
sVautotomize
p852
VAutotomize
p853
sVspikecannon
p854
VSpike Cannon
p855
sVnecturna
p856
VNecturna
p857
sVplus
p858
VPlus
p859
sVsapsipper
p860
VSap Sipper
p861
sVthunderpunch
p862
VThunder Punch
p863
sVhornleech
p864
VHorn Leech
p865
sVbraixen
p866
VBraixen
p867
sVdarkvoid
p868
VDark Void
p869
sVhoundour
p870
VHoundour
p871
sVdualchop
p872
VDual Chop
p873
sVfoulplay
p874
VFoul Play
p875
sVscyther
p876
VScyther
p877
sVgalewings
p878
VGale Wings
p879
sVstormdrain
p880
VStorm Drain
p881
sVseadra
p882
VSeadra
p883
sVovergrow
p884
VOvergrow
p885
sVbonemerang
p886
VBonemerang
p887
sVshellos
p888
VShellos
p889
sVwrap
p890
VWrap
p891
sVcorsola
p892
VCorsola
p893
sVtransform
p894
VTransform
p895
sVklefki
p896
VKlefki
p897
sVrowapberry
p898
VRowap Berry
p899
sS'quirky'
p900
S'Quirky'
p901
sVgarbodor
p902
VGarbodor
p903
sVsynthesis
p904
VSynthesis
p905
sVmultiscale
p906
VMultiscale
p907
sVgroundgem
p908
VGround Gem
p909
sVreshiram
p910
VReshiram
p911
sVrocksmash
p912
VRock Smash
p913
sVvolttackle
p914
VVolt Tackle
p915
sVghostgem
p916
VGhost Gem
p917
sVroughskin
p918
VRough Skin
p919
sVsafeguard
p920
VSafeguard
p921
sVsmoothrock
p922
VSmooth Rock
p923
sVbide
p924
VBide
p925
sVaurabreak
p926
VAura Break
p927
sVaurorus
p928
VAurorus
p929
sVchopleberry
p930
VChople Berry
p931
sVunnerve
p932
VUnnerve
p933
sVpaleowave
p934
VPaleo Wave
p935
sVparentalbond
p936
VParental Bond
p937
sVferaligatr
p938
VFeraligatr
p939
sVoddish
p940
VOddish
p941
sVleer
p942
VLeer
p943
sVmagby
p944
VMagby
p945
sVswadloon
p946
VSwadloon
p947
sVvibrava
p948
VVibrava
p949
sVuxie
p950
VUxie
p951
sVsmoochum
p952
VSmoochum
p953
sVlansatberry
p954
VLansat Berry
p955
sVbutterfree
p956
VButterfree
p957
sVferroseed
p958
VFerroseed
p959
sVamaura
p960
VAmaura
p961
sVfennekin
p962
VFennekin
p963
sVclawfossil
p964
VClaw Fossil
p965
sVdischarge
p966
VDischarge
p967
sVpoisonpoint
p968
VPoison Point
p969
sVhiddenpowerground
p970
VHidden Power Ground
p971
sVarceuspoison
p972
VArceus-Poison
p973
sVliechiberry
p974
VLiechi Berry
p975
sVlillipup
p976
VLillipup
p977
sVflareboost
p978
VFlare Boost
p979
sVmareep
p980
VMareep
p981
sVoccaberry
p982
VOcca Berry
p983
sVironfist
p984
VIron Fist
p985
sS'serious'
p986
S'Serious'
p987
sVmegadrain
p988
VMega Drain
p989
sVsalacberry
p990
VSalac Berry
p991
sVsnubbull
p992
VSnubbull
p993
sVsandveil
p994
VSand Veil
p995
sVabsolite
p996
VAbsolite
p997
sVbonsly
p998
VBonsly
p999
sVcelebi
p1000
VCelebi
p1001
sVavalanche
p1002
VAvalanche
p1003
sVshadowsneak
p1004
VShadow Sneak
p1005
sVsuctioncups
p1006
VSuction Cups
p1007
sVsuperpower
p1008
VSuperpower
p1009
sVanticipation
p1010
VAnticipation
p1011
sVpanpour
p1012
VPanpour
p1013
sVdragonpulse
p1014
VDragon Pulse
p1015
sVelectroball
p1016
VElectro Ball
p1017
sVflash
p1018
VFlash
p1019
sVnetball
p1020
VNet Ball
p1021
sVcharge
p1022
VCharge
p1023
sVquash
p1024
VQuash
p1025
sVsnorlax
p1026
VSnorlax
p1027
sVunburden
p1028
VUnburden
p1029
sVcrosschop
p1030
VCross Chop
p1031
sVmachamp
p1032
VMachamp
p1033
sVkricketune
p1034
VKricketune
p1035
sVtailslap
p1036
VTail Slap
p1037
sVjynx
p1038
VJynx
p1039
sVlopunny
p1040
VLopunny
p1041
sVtoxicplate
p1042
VToxic Plate
p1043
sVskyuppercut
p1044
VSky Uppercut
p1045
sVpoisonsting
p1046
VPoison Sting
p1047
sVarceusfire
p1048
VArceus-Fire
p1049
sVfocusblast
p1050
VFocus Blast
p1051
sVmesprit
p1052
VMesprit
p1053
sVmagnet
p1054
VMagnet
p1055
sVbanettemega
p1056
VBanette-Mega
p1057
sVround
p1058
VRound
p1059
sVunaware
p1060
VUnaware
p1061
sVduskball
p1062
VDusk Ball
p1063
sVfalseswipe
p1064
VFalse Swipe
p1065
sVtalonflame
p1066
VTalonflame
p1067
sVleafeon
p1068
VLeafeon
p1069
sVzorua
p1070
VZorua
p1071
sVzenmode
p1072
VZen Mode
p1073
sVvitalthrow
p1074
VVital Throw
p1075
sVsubstitute
p1076
VSubstitute
p1077
sVcurse
p1078
VCurse
p1079
sVfocusband
p1080
VFocus Band
p1081
sVmoltres
p1082
VMoltres
p1083
sVpasshoberry
p1084
VPassho Berry
p1085
sVdragondance
p1086
VDragon Dance
p1087
sVaxew
p1088
VAxew
p1089
sVkecleon
p1090
VKecleon
p1091
sVglameow
p1092
VGlameow
p1093
sVaeroblast
p1094
VAeroblast
p1095
sVwartortle
p1096
VWartortle
p1097
sVexplosion
p1098
VExplosion
p1099
sVmiracleeye
p1100
VMiracle Eye
p1101
sVpumpkaboo
p1102
VPumpkaboo
p1103
sVsimisear
p1104
VSimisear
p1105
sVtropius
p1106
VTropius
p1107
sVmysticwater
p1108
VMystic Water
p1109
sVearthquake
p1110
VEarthquake
p1111
sVgastroacid
p1112
VGastro Acid
p1113
sVejectbutton
p1114
VEject Button
p1115
sVexploud
p1116
VExploud
p1117
sVdiveball
p1118
VDive Ball
p1119
sVsawk
p1120
VSawk
p1121
sVscraggy
p1122
VScraggy
p1123
sVdedenne
p1124
VDedenne
p1125
sVbrickbreak
p1126
VBrick Break
p1127
sVbagon
p1128
VBagon
p1129
sVregenerator
p1130
VRegenerator
p1131
sViondeluge
p1132
VIon Deluge
p1133
sVburndrive
p1134
VBurn Drive
p1135
sVmudslap
p1136
VMud-Slap
p1137
sVflaaffy
p1138
VFlaaffy
p1139
sVmagicroom
p1140
VMagic Room
p1141
sVampharosite
p1142
VAmpharosite
p1143
sVpinsirite
p1144
VPinsirite
p1145
sVheavyslam
p1146
VHeavy Slam
p1147
sVpinmissile
p1148
VPin Missile
p1149
sVsmellingsalts
p1150
VSmelling Salts
p1151
sVcaptivate
p1152
VCaptivate
p1153
sVsharpen
p1154
VSharpen
p1155
sVswagger
p1156
VSwagger
p1157
sVxatu
p1158
VXatu
p1159
sVrockslide
p1160
VRock Slide
p1161
sVcaterpie
p1162
VCaterpie
p1163
sVhypno
p1164
VHypno
p1165
sVblazekick
p1166
VBlaze Kick
p1167
sVfletchling
p1168
VFletchling
p1169
sVseismictoss
p1170
VSeismic Toss
p1171
sVdarumaka
p1172
VDarumaka
p1173
sVuturn
p1174
VU-turn
p1175
sVflygon
p1176
VFlygon
p1177
sVsandstorm
p1178
VSandstorm
p1179
sVswablu
p1180
VSwablu
p1181
sVspikyshield
p1182
VSpiky Shield
p1183
sVscolipede
p1184
VScolipede
p1185
sVdwebble
p1186
VDwebble
p1187
sVpignite
p1188
VPignite
p1189
sVsolarpower
p1190
VSolar Power
p1191
sVdonphan
p1192
VDonphan
p1193
sVpalpitoad
p1194
VPalpitoad
p1195
sVchilldrive
p1196
VChill Drive
p1197
sVnormalize
p1198
VNormalize
p1199
sVbanette
p1200
VBanette
p1201
sVtailwind
p1202
VTailwind
p1203
sVwideguard
p1204
VWide Guard
p1205
sVwikiberry
p1206
VWiki Berry
p1207
sVarbok
p1208
VArbok
p1209
sVelectricterrain
p1210
VElectric Terrain
p1211
sVoctillery
p1212
VOctillery
p1213
sVvenonat
p1214
VVenonat
p1215
sVteleport
p1216
VTeleport
p1217
sVdive
p1218
VDive
p1219
sVmamoswine
p1220
VMamoswine
p1221
sVwiseglasses
p1222
VWise Glasses
p1223
sVmilkdrink
p1224
VMilk Drink
p1225
sVancientpower
p1226
VAncient Power
p1227
sVblissey
p1228
VBlissey
p1229
sVcryogonal
p1230
VCryogonal
p1231
sVsupersonic
p1232
VSupersonic
p1233
sVdelibird
p1234
VDelibird
p1235
sVmalamar
p1236
VMalamar
p1237
sVshinx
p1238
VShinx
p1239
sVlitwick
p1240
VLitwick
p1241
sVriolu
p1242
VRiolu
p1243
sVlugia
p1244
VLugia
p1245
sVbulletseed
p1246
VBullet Seed
p1247
sVbubblebeam
p1248
VBubbleBeam
p1249
sVpachirisu
p1250
VPachirisu
p1251
sVarcanine
p1252
VArcanine
p1253
sVsneasel
p1254
VSneasel
p1255
sVgrassknot
p1256
VGrass Knot
p1257
sVklutz
p1258
VKlutz
p1259
sVbulldoze
p1260
VBulldoze
p1261
sVfocusenergy
p1262
VFocus Energy
p1263
sVkabuto
p1264
VKabuto
p1265
sVmail
p1266
VMail
p1267
sVgarchompmega
p1268
VGarchomp-Mega
p1269
sS'lonely'
p1270
S'Lonely'
p1271
sVfling
p1272
VFling
p1273
sVrattled
p1274
VRattled
p1275
sS'bashful'
p1276
S'Bashful'
p1277
sVfusionflare
p1278
VFusion Flare
p1279
sVsafariball
p1280
VSafari Ball
p1281
sVeffectspore
p1282
VEffect Spore
p1283
sVboomburst
p1284
VBoomburst
p1285
sVlinoone
p1286
VLinoone
p1287
sVsynchronize
p1288
VSynchronize
p1289
sVmantine
p1290
VMantine
p1291
sVglalie
p1292
VGlalie
p1293
sVpsyduck
p1294
VPsyduck
p1295
sVrockthrow
p1296
VRock Throw
p1297
sVswalot
p1298
VSwalot
p1299
sVgenesectburn
p1300
VGenesect-Burn
p1301
sVporygonz
p1302
VPorygon-Z
p1303
sVstrugglebug
p1304
VStruggle Bug
p1305
sVpersian
p1306
VPersian
p1307
sVshaymin
p1308
VShaymin
p1309
sVpidove
p1310
VPidove
p1311
sVskillswap
p1312
VSkill Swap
p1313
sVassurance
p1314
VAssurance
p1315
sVpoochyena
p1316
VPoochyena
p1317
sVporygon2
p1318
VPorygon2
p1319
sVtoxicroak
p1320
VToxicroak
p1321
sVmiltank
p1322
VMiltank
p1323
sVdig
p1324
VDig
p1325
sVpetilil
p1326
VPetilil
p1327
sVtelepathy
p1328
VTelepathy
p1329
sVnidorino
p1330
VNidorino
p1331
sVmeloettapirouette
p1332
VMeloetta-Pirouette
p1333
sVnidorina
p1334
VNidorina
p1335
sVhypnosis
p1336
VHypnosis
p1337
sVdurinberry
p1338
VDurin Berry
p1339
sVdragonrage
p1340
VDragon Rage
p1341
sVjolteon
p1342
VJolteon
p1343
sVdefensecurl
p1344
VDefense Curl
p1345
sVchikorita
p1346
VChikorita
p1347
sVrockyhelmet
p1348
VRocky Helmet
p1349
sVwatergem
p1350
VWater Gem
p1351
sVjabocaberry
p1352
VJaboca Berry
p1353
sVhoppip
p1354
VHoppip
p1355
sViceshard
p1356
VIce Shard
p1357
sVgiratina
p1358
VGiratina
p1359
sVteravolt
p1360
VTeravolt
p1361
sVbite
p1362
VBite
p1363
sVduosion
p1364
VDuosion
p1365
sVaromatherapy
p1366
VAromatherapy
p1367
sVsleeptalk
p1368
VSleep Talk
p1369
sVconfuseray
p1370
VConfuse Ray
p1371
sVgliscor
p1372
VGliscor
p1373
sVseedot
p1374
VSeedot
p1375
sVsnatch
p1376
VSnatch
p1377
sVbunnelby
p1378
VBunnelby
p1379
sVdrapion
p1380
VDrapion
p1381
sVpeck
p1382
VPeck
p1383
sVwormadamtrash
p1384
VWormadam-Trash
p1385
sVearthplate
p1386
VEarth Plate
p1387
sVquickattack
p1388
VQuick Attack
p1389
sVtrickortreat
p1390
VTrick-or-Treat
p1391
sVvirizion
p1392
VVirizion
p1393
sVhiddenpowerrock
p1394
VHidden Power Rock
p1395
sVrazzberry
p1396
VRazz Berry
p1397
sVchlorophyll
p1398
VChlorophyll
p1399
sVslam
p1400
VSlam
p1401
sVsandstream
p1402
VSand Stream
p1403
sVledyba
p1404
VLedyba
p1405
sVaquatail
p1406
VAqua Tail
p1407
sVkrilowatt
p1408
VKrilowatt
p1409
sVrecover
p1410
VRecover
p1411
sVconversion
p1412
VConversion
p1413
sVelectrode
p1414
VElectrode
p1415
sVhiddenpowerdark
p1416
VHidden Power Dark
p1417
sVmetalsound
p1418
VMetal Sound
p1419
sVarghonaut
p1420
VArghonaut
p1421
sVbeedrill
p1422
VBeedrill
p1423
sVsurf
p1424
VSurf
p1425
sVgriseousorb
p1426
VGriseous Orb
p1427
sVmountaineer
p1428
VMountaineer
p1429
sVstunky
p1430
VStunky
p1431
sVtrace
p1432
VTrace
p1433
sVgeargrind
p1434
VGear Grind
p1435
sVdarkrai
p1436
VDarkrai
p1437
sVbarrage
p1438
VBarrage
p1439
sVgengarmega
p1440
VGengar-Mega
p1441
sVstunfisk
p1442
VStunfisk
p1443
sVadaptability
p1444
VAdaptability
p1445
sVespurr
p1446
VEspurr
p1447
sVleaftornado
p1448
VLeaf Tornado
p1449
sVhyperfang
p1450
VHyper Fang
p1451
sVdracoplate
p1452
VDraco Plate
p1453
sVelectirizer
p1454
VElectirizer
p1455
sVmollux
p1456
VMollux
p1457
sVmuddywater
p1458
VMuddy Water
p1459
sVcompoundeyes
p1460
VCompound Eyes
p1461
sVdelphox
p1462
VDelphox
p1463
sVtintedlens
p1464
VTinted Lens
p1465
sVgolurk
p1466
VGolurk
p1467
sVfigyberry
p1468
VFigy Berry
p1469
sVgoodra
p1470
VGoodra
p1471
sVrevenankh
p1472
VRevenankh
p1473
sVvolbeat
p1474
VVolbeat
p1475
sVlarvesta
p1476
VLarvesta
p1477
sVthunderwave
p1478
VThunder Wave
p1479
sVpatrat
p1480
VPatrat
p1481
sVacupressure
p1482
VAcupressure
p1483
sVanalytic
p1484
VAnalytic
p1485
sVprobopass
p1486
VProbopass
p1487
sVoutrage
p1488
VOutrage
p1489
sVleavanny
p1490
VLeavanny
p1491
sVkinesis
p1492
VKinesis
p1493
sVweaknesspolicy
p1494
VWeakness Policy
p1495
sVstomp
p1496
VStomp
p1497
sVboneclub
p1498
VBone Club
p1499
sVtelekinesis
p1500
VTelekinesis
p1501
sVmoxie
p1502
VMoxie
p1503
sVabsolmega
p1504
VAbsol-Mega
p1505
sVparkball
p1506
VPark Ball
p1507
sVspewpa
p1508
VSpewpa
p1509
sVwonderskin
p1510
VWonder Skin
p1511
sVhiddenpowerfighting
p1512
VHidden Power Fighting
p1513
sVimposter
p1514
VImposter
p1515
sVspore
p1516
VSpore
p1517
sVquagsire
p1518
VQuagsire
p1519
sVdetect
p1520
VDetect
p1521
sVsteadfast
p1522
VSteadfast
p1523
sVlimber
p1524
VLimber
p1525
sVbatonpass
p1526
VBaton Pass
p1527
sVforecast
p1528
VForecast
p1529
sVwhiscash
p1530
VWhiscash
p1531
sVsnowwarning
p1532
VSnow Warning
p1533
sVjustified
p1534
VJustified
p1535
sVdamprock
p1536
VDamp Rock
p1537
sVhariyama
p1538
VHariyama
p1539
sVcrawdaunt
p1540
VCrawdaunt
p1541
sVpluck
p1542
VPluck
p1543
sVspark
p1544
VSpark
p1545
sVxerneas
p1546
VXerneas
p1547
sVspoink
p1548
VSpoink
p1549
sVscatterbug
p1550
VScatterbug
p1551
sVvictreebel
p1552
VVictreebel
p1553
sVdestinyknot
p1554
VDestiny Knot
p1555
sVskiddo
p1556
VSkiddo
p1557
sVrhyhorn
p1558
VRhyhorn
p1559
sVsteelix
p1560
VSteelix
p1561
sVnestball
p1562
VNest Ball
p1563
sVkrookodile
p1564
VKrookodile
p1565
sVcellbattery
p1566
VCell Battery
p1567
sVwingattack
p1568
VWing Attack
p1569
sVnormalgem
p1570
VNormal Gem
p1571
sVhiddenpowersteel
p1572
VHidden Power Steel
p1573
sVtyranitarite
p1574
VTyranitarite
p1575
sVdodrio
p1576
VDodrio
p1577
sVstancechange
p1578
VStance Change
p1579
sVzapdos
p1580
VZapdos
p1581
sVendeavor
p1582
VEndeavor
p1583
sVechoedvoice
p1584
VEchoed Voice
p1585
sVrunaway
p1586
VRun Away
p1587
sVlandswrath
p1588
VLand's Wrath
p1589
sVmawilemega
p1590
VMawile-Mega
p1591
sVlightmetal
p1592
VLight Metal
p1593
sVstunspore
p1594
VStun Spore
p1595
sVroseincense
p1596
VRose Incense
p1597
sVgigalith
p1598
VGigalith
p1599
sVspiderweb
p1600
VSpider Web
p1601
sVstantler
p1602
VStantler
p1603
sVflamebody
p1604
VFlame Body
p1605
sVhelioptile
p1606
VHelioptile
p1607
sVcresselia
p1608
VCresselia
p1609
sVomanyte
p1610
VOmanyte
p1611
sVbreloom
p1612
VBreloom
p1613
sVtangela
p1614
VTangela
p1615
sVhealblock
p1616
VHeal Block
p1617
sVswanna
p1618
VSwanna
p1619
sVluminousmoss
p1620
VLuminous Moss
p1621
sS'careful'
p1622
S'Careful'
p1623
sVmudshot
p1624
VMud Shot
p1625
sVdefeatist
p1626
VDefeatist
p1627
sVtrick
p1628
VTrick
p1629
sVlandorus
p1630
VLandorus
p1631
sVgroudon
p1632
VGroudon
p1633
sS'quiet'
p1634
S'Quiet'
p1635
sVenergypowder
p1636
VEnergyPowder
p1637
sVsacredfire
p1638
VSacred Fire
p1639
sVstaryu
p1640
VStaryu
p1641
sVvicegrip
p1642
VViceGrip
p1643
sVgourgeistlarge
p1644
VGourgeist-Large
p1645
sVcubchoo
p1646
VCubchoo
p1647
sVhiddenpowerice
p1648
VHidden Power Ice
p1649
sVextremespeed
p1650
VExtreme Speed
p1651
sVangerpoint
p1652
VAnger Point
p1653
sVphantomforce
p1654
VPhantom Force
p1655
sVstrongjaw
p1656
VStrong Jaw
p1657
sVnuzzle
p1658
VNuzzle
p1659
sVthunderbolt
p1660
VThunderbolt
p1661
sVgenesectshock
p1662
VGenesect-Shock
p1663
sVmagnetbomb
p1664
VMagnet Bomb
p1665
sVassist
p1666
VAssist
p1667
sVblaziken
p1668
VBlaziken
p1669
sVgligar
p1670
VGligar
p1671
sVrockhead
p1672
VRock Head
p1673
sVhypervoice
p1674
VHyper Voice
p1675
sVminimize
p1676
VMinimize
p1677
sVdoublehit
p1678
VDouble Hit
p1679
sVmedicham
p1680
VMedicham
p1681
sVheatmor
p1682
VHeatmor
p1683
sVrockgem
p1684
VRock Gem
p1685
sVrazorwind
p1686
VRazor Wind
p1687
sVfurcoat
p1688
VFur Coat
p1689
sVhealingwish
p1690
VHealing Wish
p1691
sVquickguard
p1692
VQuick Guard
p1693
sVwingull
p1694
VWingull
p1695
sVrest
p1696
VRest
p1697
sVfurfrou
p1698
VFurfrou
p1699
sVchimchar
p1700
VChimchar
p1701
sVdarkaura
p1702
VDark Aura
p1703
sVrazorclaw
p1704
VRazor Claw
p1705
sVdragonbreath
p1706
VDragon Breath
p1707
sVelgyem
p1708
VElgyem
p1709
sVduskull
p1710
VDuskull
p1711
sVcometpunch
p1712
VComet Punch
p1713
sVaerialace
p1714
VAerial Ace
p1715
sVparas
p1716
VParas
p1717
sVskitty
p1718
VSkitty
p1719
sVflareblitz
p1720
VFlare Blitz
p1721
sVtrubbish
p1722
VTrubbish
p1723
sVsnarl
p1724
VSnarl
p1725
sVmachpunch
p1726
VMach Punch
p1727
sVsunkern
p1728
VSunkern
p1729
sVcolossoil
p1730
VColossoil
p1731
sVdreamball
p1732
VDream Ball
p1733
sVsnore
p1734
VSnore
p1735
sVfloatstone
p1736
VFloat Stone
p1737
sVskiploom
p1738
VSkiploom
p1739
sVregigigas
p1740
VRegigigas
p1741
sVvoltswitch
p1742
VVolt Switch
p1743
sVarceusrock
p1744
VArceus-Rock
p1745
sVbrightpowder
p1746
VBrightPowder
p1747
sVhypercutter
p1748
VHyper Cutter
p1749
sVvanillite
p1750
VVanillite
p1751
sVchoiceband
p1752
VChoice Band
p1753
sVheartswap
p1754
VHeart Swap
p1755
sVpinapberry
p1756
VPinap Berry
p1757
sVminccino
p1758
VMinccino
p1759
sVrefresh
p1760
VRefresh
p1761
sVprinplup
p1762
VPrinplup
p1763
sVultraball
p1764
VUltra Ball
p1765
sVheadcharge
p1766
VHead Charge
p1767
sVcrustle
p1768
VCrustle
p1769
sVpowergem
p1770
VPower Gem
p1771
sViceburn
p1772
VIce Burn
p1773
sVbattlearmor
p1774
VBattle Armor
p1775
sVcastformsnowy
p1776
VCastform-Snowy
p1777
sVhustle
p1778
VHustle
p1779
sVthroh
p1780
VThroh
p1781
sVmusharna
p1782
VMusharna
p1783
sVinnerfocus
p1784
VInner Focus
p1785
sVbasculinbluestriped
p1786
VBasculin-Blue-Striped
p1787
sVhornattack
p1788
VHorn Attack
p1789
sVzapcannon
p1790
VZap Cannon
p1791
sVroar
p1792
VRoar
p1793
sVlockon
p1794
VLock-On
p1795
sVfloette
p1796
VFloette
p1797
sVgengar
p1798
VGengar
p1799
sVswampert
p1800
VSwampert
p1801
sVgolem
p1802
VGolem
p1803
sVquilava
p1804
VQuilava
p1805
sVcustapberry
p1806
VCustap Berry
p1807
sVsearingshot
p1808
VSearing Shot
p1809
sVstratagem
p1810
VStratagem
p1811
sVpyroar
p1812
VPyroar
p1813
sVshadowpunch
p1814
VShadow Punch
p1815
sVfocuspunch
p1816
VFocus Punch
p1817
sVtoughclaws
p1818
VTough Claws
p1819
sVforewarn
p1820
VForewarn
p1821
sViciclespear
p1822
VIcicle Spear
p1823
sVpyroak
p1824
VPyroak
p1825
sVsacredsword
p1826
VSacred Sword
p1827
sVhex
p1828
VHex
p1829
sVmarill
p1830
VMarill
p1831
sVsymbiosis
p1832
VSymbiosis
p1833
sVwillowisp
p1834
VWill-O-Wisp
p1835
sVbubble
p1836
VBubble
p1837
sVsealeo
p1838
VSealeo
p1839
sVglaciate
p1840
VGlaciate
p1841
sVnightshade
p1842
VNight Shade
p1843
sVfrogadier
p1844
VFrogadier
p1845
sVporygon
p1846
VPorygon
p1847
sVheatrock
p1848
VHeat Rock
p1849
sVvitalspirit
p1850
VVital Spirit
p1851
sVsnover
p1852
VSnover
p1853
sVrage
p1854
VRage
p1855
sVvictorystar
p1856
VVictory Star
p1857
sVvinewhip
p1858
VVine Whip
p1859
sVstoneplate
p1860
VStone Plate
p1861
sVsheercold
p1862
VSheer Cold
p1863
sVsplashplate
p1864
VSplash Plate
p1865
sVpowdersnow
p1866
VPowder Snow
p1867
sVclamperl
p1868
VClamperl
p1869
sVchesnaught
p1870
VChesnaught
p1871
sVdugtrio
p1872
VDugtrio
p1873
sVsmokescreen
p1874
VSmokeScreen
p1875
sVmoonblast
p1876
VMoonblast
p1877
sVcolburberry
p1878
VColbur Berry
p1879
sVaegislash
p1880
VAegislash
p1881
sVimmunity
p1882
VImmunity
p1883
sVstormthrow
p1884
VStorm Throw
p1885
sVcharizard
p1886
VCharizard
p1887
sVnincada
p1888
VNincada
p1889
sVaccelgor
p1890
VAccelgor
p1891
sVmirrorcoat
p1892
VMirror Coat
p1893
sVemboar
p1894
VEmboar
p1895
sVmawilite
p1896
VMawilite
p1897
sVdustox
p1898
VDustox
p1899
sVrootfossil
p1900
VRoot Fossil
p1901
sVtackle
p1902
VTackle
p1903
sVrotomwash
p1904
VRotom-Wash
p1905
sVgrudge
p1906
VGrudge
p1907
sVcyndaquil
p1908
VCyndaquil
p1909
sVblueflare
p1910
VBlue Flare
p1911
sVdefog
p1912
VDefog
p1913
sVskyattack
p1914
VSky Attack
p1915
sVmoonlight
p1916
VMoonlight
p1917
sVmimic
p1918
VMimic
p1919
sVstockpile
p1920
VStockpile
p1921
sVoddincense
p1922
VOdd Incense
p1923
sVgardevoirmega
p1924
VGardevoir-Mega
p1925
sVlairon
p1926
VLairon
p1927
sVeerieimpulse
p1928
VEerie Impulse
p1929
sVscrappy
p1930
VScrappy
p1931
sVtogetic
p1932
VTogetic
p1933
sVfirepunch
p1934
VFire Punch
p1935
sVunfezant
p1936
VUnfezant
p1937
sVmicleberry
p1938
VMicle Berry
p1939
sVlightningrod
p1940
VLightningrod
p1941
sVgigadrain
p1942
VGiga Drain
p1943
sVsilverpowder
p1944
VSilverPowder
p1945
sVvanillish
p1946
VVanillish
p1947
sVsheerforce
p1948
VSheer Force
p1949
sVbayleef
p1950
VBayleef
p1951
sVhondewberry
p1952
VHondew Berry
p1953
sVtympole
p1954
VTympole
p1955
sVwigglytuff
p1956
VWigglytuff
p1957
sVtyranitarmega
p1958
VTyranitar-Mega
p1959
sVicepunch
p1960
VIce Punch
p1961
sVgalvantula
p1962
VGalvantula
p1963
sVcombusken
p1964
VCombusken
p1965
sVcloudnine
p1966
VCloud Nine
p1967
sVmienshao
p1968
VMienshao
p1969
sVkeeberry
p1970
VKee Berry
p1971
sVscrafty
p1972
VScrafty
p1973
sVsecretpower
p1974
VSecret Power
p1975
sS'mild'
p1976
S'Mild'
p1977
sVsawsbuck
p1978
VSawsbuck
p1979
sVdoublekick
p1980
VDouble Kick
p1981
sViceball
p1982
VIce Ball
p1983
sVflorges
p1984
VFlorges
p1985
sVgourgeistsuper
p1986
VGourgeist-Super
p1987
sVironbarbs
p1988
VIron Barbs
p1989
sValtaria
p1990
VAltaria
p1991
sVcrushgrip
p1992
VCrush Grip
p1993
sVcottonguard
p1994
VCotton Guard
p1995
sVmeganium
p1996
VMeganium
p1997
sVchipaway
p1998
VChip Away
p1999
sVhealer
p2000
VHealer
p2001
sVfeatherdance
p2002
VFeatherDance
p2003
sVshockwave
p2004
VShock Wave
p2005
sVironplate
p2006
VIron Plate
p2007
sVgreatball
p2008
VGreat Ball
p2009
sVfellstinger
p2010
VFell Stinger
p2011
sVaurorabeam
p2012
VAurora Beam
p2013
sVheartstamp
p2014
VHeart Stamp
p2015
sVboldore
p2016
VBoldore
p2017
sVchoicescarf
p2018
VChoice Scarf
p2019
sVdragonfang
p2020
VDragon Fang
p2021
sVgastly
p2022
VGastly
p2023
sVrhydon
p2024
VRhydon
p2025
sVvenusaurmega
p2026
VVenusaur-Mega
p2027
sVinfernape
p2028
VInfernape
p2029
sVweezing
p2030
VWeezing
p2031
sVaromatisse
p2032
VAromatisse
p2033
sVkyuremwhite
p2034
VKyurem-White
p2035
sVacidspray
p2036
VAcid Spray
p2037
sVarmaldo
p2038
VArmaldo
p2039
sVkyurem
p2040
VKyurem
p2041
sVwringout
p2042
VWring Out
p2043
sVstarly
p2044
VStarly
p2045
sVhawlucha
p2046
VHawlucha
p2047
sVgolett
p2048
VGolett
p2049
sVgyaradosmega
p2050
VGyarados-Mega
p2051
sVgallade
p2052
VGallade
p2053
sVledian
p2054
VLedian
p2055
sVfeint
p2056
VFeint
p2057
sVluvdisc
p2058
VLuvdisc
p2059
sVhelixfossil
p2060
VHelix Fossil
p2061
sVsplash
p2062
VSplash
p2063
sVillumise
p2064
VIllumise
p2065
sVgirafarig
p2066
VGirafarig
p2067
sVanorith
p2068
VAnorith
p2069
sVdizzypunch
p2070
VDizzy Punch
p2071
sVflyingpress
p2072
VFlying Press
p2073
sVpumpkaboosuper
p2074
VPumpkaboo-Super
p2075
sVhorsea
p2076
VHorsea
p2077
sVstick
p2078
VStick
p2079
sVrazorfang
p2080
VRazor Fang
p2081
sVchilanberry
p2082
VChilan Berry
p2083
sVturboblaze
p2084
VTurboblaze
p2085
sVaegislashblade
p2086
VAegislash-Blade
p2087
sVnaturalgift
p2088
VNatural Gift
p2089
sVshadowclaw
p2090
VShadow Claw
p2091
sVchartiberry
p2092
VCharti Berry
p2093
sVlumberry
p2094
VLum Berry
p2095
sVvoltorb
p2096
VVoltorb
p2097
sVskyplate
p2098
VSky Plate
p2099
sVsableye
p2100
VSableye
p2101
sVseviper
p2102
VSeviper
p2103
sVmarvelscale
p2104
VMarvel Scale
p2105
sVaurumoth
p2106
VAurumoth
p2107
sVslakoth
p2108
VSlakoth
p2109
sVmonferno
p2110
VMonferno
p2111
sVeelektrik
p2112
VEelektrik
p2113
sVwobbuffet
p2114
VWobbuffet
p2115
sVdrainpunch
p2116
VDrain Punch
p2117
sVshelmet
p2118
VShelmet
p2119
sVflyinggem
p2120
VFlying Gem
p2121
sVbulkup
p2122
VBulk Up
p2123
sVglaceon
p2124
VGlaceon
p2125
sVwonderguard
p2126
VWonder Guard
p2127
sVelectricgem
p2128
VElectric Gem
p2129
sVrotomfan
p2130
VRotom-Fan
p2131
sVsignalbeam
p2132
VSignal Beam
p2133
sVshuckle
p2134
VShuckle
p2135
sVreflect
p2136
VReflect
p2137
sVdisable
p2138
VDisable
p2139
sVliquidooze
p2140
VLiquid Ooze
p2141
sVmedichammega
p2142
VMedicham-Mega
p2143
sVtwistedspoon
p2144
VTwistedSpoon
p2145
sVlanturn
p2146
VLanturn
p2147
sVparaboliccharge
p2148
VParabolic Charge
p2149
sVretaliate
p2150
VRetaliate
p2151
sVphantump
p2152
VPhantump
p2153
sVcorphish
p2154
VCorphish
p2155
sVbastiodon
p2156
VBastiodon
p2157
sVmudbomb
p2158
VMud Bomb
p2159
sVarticuno
p2160
VArticuno
p2161
sVfissure
p2162
VFissure
p2163
sVvolcarona
p2164
VVolcarona
p2165
sVblackglasses
p2166
VBlackGlasses
p2167
sVplayrough
p2168
VPlay Rough
p2169
sVhealorder
p2170
VHeal Order
p2171
sVjigglypuff
p2172
VJigglypuff
p2173
sVsandslash
p2174
VSandslash
p2175
sVastonish
p2176
VAstonish
p2177
sVenergyball
p2178
VEnergy Ball
p2179
sVaggron
p2180
VAggron
p2181
sVlampent
p2182
VLampent
p2183
sVfistplate
p2184
VFist Plate
p2185
sVreturn
p2186
VReturn
p2187
sVmanectricmega
p2188
VManectric-Mega
p2189
sVsnowball
p2190
VSnowball
p2191
sVmrmime
p2192
VMr. Mime
p2193
sVcharizardmegax
p2194
VCharizard-Mega-X
p2195
sVcharizardmegay
p2196
VCharizard-Mega-Y
p2197
sVclefable
p2198
VClefable
p2199
sVskuntank
p2200
VSkuntank
p2201
sVprimeape
p2202
VPrimeape
p2203
sVgabite
p2204
VGabite
p2205
sVmissingno
p2206
VMissingno.
p2207
sVbellsprout
p2208
VBellsprout
p2209
sVlovelykiss
p2210
VLovely Kiss
p2211
sVmeanlook
p2212
VMean Look
p2213
sVclamp
p2214
VClamp
p2215
sVtopsyturvy
p2216
VTopsy-turvy
p2217
sVquickfeet
p2218
VQuick Feet
p2219
sVirondefense
p2220
VIron Defense
p2221
sVraichu
p2222
VRaichu
p2223
sVmagnezone
p2224
VMagnezone
p2225
sVtrickroom
p2226
VTrick Room
p2227
sVmist
p2228
VMist
p2229
sVhiddenpowerpsychic
p2230
VHidden Power Psychic
p2231
sVelectroweb
p2232
VElectroweb
p2233
sS'jolly'
p2234
S'Jolly'
p2235
sVsalamence
p2236
VSalamence
p2237
sVabsorb
p2238
VAbsorb
p2239
sVwhirlpool
p2240
VWhirlpool
p2241
sVsuperfang
p2242
VSuper Fang
p2243
sVcombee
p2244
VCombee
p2245
sVroggenrola
p2246
VRoggenrola
p2247
sVironhead
p2248
VIron Head
p2249
sVsentret
p2250
VSentret
p2251
sVpichuspikyeared
p2252
VPichu-Spiky-eared
p2253
sVtyrogue
p2254
VTyrogue
p2255
sVcleffa
p2256
VCleffa
p2257
sVguardsplit
p2258
VGuard Split
p2259
sVwaterabsorb
p2260
VWater Absorb
p2261
sVtoxicboost
p2262
VToxic Boost
p2263
sVninetales
p2264
VNinetales
p2265
sVnidoranf
p2266
S'NidoranF'
p2267
sVcottonspore
p2268
VCotton Spore
p2269
sVnidoranm
p2270
S'NidoranM'
p2271
sVpineco
p2272
VPineco
p2273
sVscopelens
p2274
VScope Lens
p2275
sVhydreigon
p2276
VHydreigon
p2277
sVrockpolish
p2278
VRock Polish
p2279
sVmightyena
p2280
VMightyena
p2281
sVabomasnowmega
p2282
VAbomasnow-Mega
p2283
sVmanaphy
p2284
VManaphy
p2285
sS'brave'
p2286
S'Brave'
p2287
sVstoredpower
p2288
VStored Power
p2289
sVkangaskhanmega
p2290
VKangaskhan-Mega
p2291
sVpetaldance
p2292
VPetal Dance
p2293
sVmeowstic
p2294
VMeowstic
p2295
sVboltstrike
p2296
VBolt Strike
p2297
sVswarm
p2298
VSwarm
p2299
sVbibarel
p2300
VBibarel
p2301
sVklinklang
p2302
VKlinklang
p2303
sVlandorustherian
p2304
VLandorus-Therian
p2305
sVpoisongem
p2306
VPoison Gem
p2307
sVpsybeam
p2308
VPsybeam
p2309
sVsuckerpunch
p2310
VSucker Punch
p2311
sVfreezeshock
p2312
VFreeze Shock
p2313
sVpsywave
p2314
VPsywave
p2315
sVdrillrun
p2316
VDrill Run
p2317
sVwhiteherb
p2318
VWhite Herb
p2319
sVringtarget
p2320
VRing Target
p2321
sVvenipede
p2322
VVenipede
p2323
sVdarkpulse
p2324
VDark Pulse
p2325
sVarceusdragon
p2326
VArceus-Dragon
p2327
sVstall
p2328
VStall
p2329
sVcontrary
p2330
VContrary
p2331
sVdazzlinggleam
p2332
VDazzling Gleam
p2333
sVdoubleedge
p2334
VDouble-Edge
p2335
sVremoraid
p2336
VRemoraid
p2337
sVclefairy
p2338
VClefairy
p2339
sVklink
p2340
VKlink
p2341
sVclearbody
p2342
VClear Body
p2343
sVfirespin
p2344
VFire Spin
p2345
sVgenesectchill
p2346
VGenesect-Chill
p2347
sVsuicune
p2348
VSuicune
p2349
sVpamtreberry
p2350
VPamtre Berry
p2351
sVmegahorn
p2352
VMegahorn
p2353
sVsunflora
p2354
VSunflora
p2355
sVgourgeist
p2356
VGourgeist
p2357
sVbarbaracle
p2358
VBarbaracle
p2359
sVairballoon
p2360
VAir Balloon
p2361
sVswirlix
p2362
VSwirlix
p2363
sVlitleo
p2364
VLitleo
p2365
sVcamouflage
p2366
VCamouflage
p2367
sVfrillish
p2368
VFrillish
p2369
sVspheal
p2370
VSpheal
p2371
sVkangaskhan
p2372
VKangaskhan
p2373
sVregirock
p2374
VRegirock
p2375
sVpansage
p2376
VPansage
p2377
sVswitcheroo
p2378
VSwitcheroo
p2379
sValakazammega
p2380
VAlakazam-Mega
p2381
sVmasterball
p2382
VMaster Ball
p2383
sVeruption
p2384
VEruption
p2385
sVyawn
p2386
VYawn
p2387
sVcharm
p2388
VCharm
p2389
sVdiglett
p2390
VDiglett
p2391
sVbeldum
p2392
VBeldum
p2393
sVbarboach
p2394
VBarboach
p2395
sVcrosspoison
p2396
VCross Poison
p2397
sVcarvanha
p2398
VCarvanha
p2399
sVrefrigerate
p2400
VRefrigerate
p2401
sVlowsweep
p2402
VLow Sweep
p2403
sVsturdy
p2404
VSturdy
p2405
sVcovet
p2406
VCovet
p2407
sVgenesectdouse
p2408
VGenesect-Douse
p2409
sVkaratechop
p2410
VKarate Chop
p2411
sVhoundoominite
p2412
VHoundoominite
p2413
sVazumarill
p2414
VAzumarill
p2415
sVmetalburst
p2416
VMetal Burst
p2417
sVcharmeleon
p2418
VCharmeleon
p2419
sVmeloetta
p2420
VMeloetta
p2421
sVnanabberry
p2422
VNanab Berry
p2423
sVzoomlens
p2424
VZoom Lens
p2425
sVblackbelt
p2426
VBlack Belt
p2427
sVhammerarm
p2428
VHammer Arm
p2429
sVmagmaarmor
p2430
VMagma Armor
p2431
sVpayday
p2432
VPay Day
p2433
sVgooey
p2434
VGooey
p2435
sVoblivionwing
p2436
VOblivion Wing
p2437
sVtyrantrum
p2438
VTyrantrum
p2439
sVhealpulse
p2440
VHeal Pulse
p2441
sVmagikarp
p2442
VMagikarp
p2443
sVpawniard
p2444
VPawniard
p2445
sVpoisontail
p2446
VPoison Tail
p2447
sVhitmonchan
p2448
VHitmonchan
p2449
sS'docile'
p2450
S'Docile'
p2451
sVfireblast
p2452
VFire Blast
p2453
sVshroomish
p2454
VShroomish
p2455
sVwhismur
p2456
VWhismur
p2457
sVspikes
p2458
VSpikes
p2459
sVshadowstrike
p2460
VShadowStrike
p2461
sVheatcrash
p2462
VHeat Crash
p2463
sVskorupi
p2464
VSkorupi
p2465
sVgengarite
p2466
VGengarite
p2467
sVblitzle
p2468
VBlitzle
p2469
sVtamatoberry
p2470
VTamato Berry
p2471
sVblazikenite
p2472
VBlazikenite
p2473
sVfarfetchd
p2474
VFarfetch'd
p2475
sVinkay
p2476
VInkay
p2477
sVpickup
p2478
VPickup
p2479
sVtangaberry
p2480
VTanga Berry
p2481
sVarceusdark
p2482
VArceus-Dark
p2483
sVmarowak
p2484
VMarowak
p2485
sVmachobrace
p2486
VMacho Brace
p2487
sVelekid
p2488
VElekid
p2489
sVmagmortar
p2490
VMagmortar
p2491
sVchansey
p2492
VChansey
p2493
sVroaroftime
p2494
VRoar of Time
p2495
sVwildcharge
p2496
VWild Charge
p2497
sVrattata
p2498
VRattata
p2499
sVhoundoommega
p2500
VHoundoom-Mega
p2501
sVclaydol
p2502
VClaydol
p2503
sVrelicanth
p2504
VRelicanth
p2505
sVtorchic
p2506
VTorchic
p2507
sVlapras
p2508
VLapras
p2509
sVmankey
p2510
VMankey
p2511
sVfuryattack
p2512
VFury Attack
p2513
sVprankster
p2514
VPrankster
p2515
sVshayminsky
p2516
VShaymin-Sky
p2517
sVwacanberry
p2518
VWacan Berry
p2519
sVsandile
p2520
VSandile
p2521
sVtyphlosion
p2522
VTyphlosion
p2523
sVariados
p2524
VAriados
p2525
sVdrillpeck
p2526
VDrill Peck
p2527
sVicebody
p2528
VIce Body
p2529
sVbronzor
p2530
VBronzor
p2531
sVnatu
p2532
VNatu
p2533
sVxscissor
p2534
VX-Scissor
p2535
sVsing
p2536
VSing
p2537
sVquiverdance
p2538
VQuiver Dance
p2539
sVblastoisinite
p2540
VBlastoisinite
p2541
sVmegapunch
p2542
VMega Punch
p2543
sVdamp
p2544
VDamp
p2545
sVmienfoo
p2546
VMienfoo
p2547
sVliepard
p2548
VLiepard
p2549
sVamnesia
p2550
VAmnesia
p2551
sVdestinybond
p2552
VDestiny Bond
p2553
sVcastform
p2554
VCastform
p2555
sVdruddigon
p2556
VDruddigon
p2557
sVaromaticmist
p2558
VAromatic Mist
p2559
sVdragontail
p2560
VDragon Tail
p2561
sVstringshot
p2562
VString Shot
p2563
sVdragonair
p2564
VDragonair
p2565
sVwatergun
p2566
VWater Gun
p2567
sVvanilluxe
p2568
VVanilluxe
p2569
sVnomelberry
p2570
VNomel Berry
p2571
sVdrainingkiss
p2572
VDraining Kiss
p2573
sVbasculin
p2574
VBasculin
p2575
sVescavalier
p2576
VEscavalier
p2577
sVpsychoshift
p2578
VPsycho Shift
p2579
sVbisharp
p2580
VBisharp
p2581
sVhoundoom
p2582
VHoundoom
p2583
sVgulpin
p2584
VGulpin
p2585
sVpancham
p2586
VPancham
p2587
sVmantyke
p2588
VMantyke
p2589
sVpound
p2590
VPound
p2591
sVmedichamite
p2592
VMedichamite
p2593
sVrotommow
p2594
VRotom-Mow
p2595
sVdefendorder
p2596
VDefend Order
p2597
sVsurskit
p2598
VSurskit
p2599
sVmegalauncher
p2600
VMega Launcher
p2601
sVicebeam
p2602
VIce Beam
p2603
sVfacade
p2604
VFacade
p2605
sVzubat
p2606
VZubat
p2607
sVmagikarpsrevenge
p2608
VMagikarp's Revenge
p2609
sVingrain
p2610
VIngrain
p2611
sVcottonee
p2612
VCottonee
p2613
sVpoisonjab
p2614
VPoison Jab
p2615
sVleechseed
p2616
VLeech Seed
p2617
sVgorebyss
p2618
VGorebyss
p2619
sVgrotle
p2620
VGrotle
p2621
sVpikachu
p2622
VPikachu
p2623
sVrayquaza
p2624
VRayquaza
p2625
sVfroakie
p2626
VFroakie
p2627
sVloveball
p2628
VLove Ball
p2629
sVjumpluff
p2630
VJumpluff
p2631
sS'timid'
p2632
S'Timid'
p2633
sVmismagius
p2634
VMismagius
p2635
sVhiddenpowerbug
p2636
VHidden Power Bug
p2637
sVinfiltrator
p2638
VInfiltrator
p2639
sVpsychup
p2640
VPsych Up
p2641
sVregice
p2642
VRegice
p2643
sVfiregem
p2644
VFire Gem
p2645
sVshellder
p2646
VShellder
p2647
sVwithdraw
p2648
VWithdraw
p2649
sVmoonball
p2650
VMoon Ball
p2651
sVpainsplit
p2652
VPain Split
p2653
sVstoneedge
p2654
VStone Edge
p2655
sVhowl
p2656
VHowl
p2657
sVwaterpledge
p2658
VWater Pledge
p2659
sVspearow
p2660
VSpearow
p2661
sVmagneticfield
p2662
VMagnetic Field
p2663
sVrockwrecker
p2664
VRock Wrecker
p2665
sVcompetitive
p2666
VCompetitive
p2667
sVsteelgem
p2668
VSteel Gem
p2669
sVzygarde
p2670
VZygarde
p2671
sVsolrock
p2672
VSolrock
p2673
sVspinda
p2674
VSpinda
p2675
sVcloyster
p2676
VCloyster
p2677
sVmetapod
p2678
VMetapod
p2679
sVairslash
p2680
VAir Slash
p2681
sVchatot
p2682
VChatot
p2683
sVacrobatics
p2684
VAcrobatics
p2685
sVchoicespecs
p2686
VChoice Specs
p2687
sVrebound
p2688
VRebound
p2689
sVsolarbeam
p2690
VSolarBeam
p2691
sVlusterpurge
p2692
VLuster Purge
p2693
sVkeldeoresolute
p2694
VKeldeo-Resolute
p2695
sVmoody
p2696
VMoody
p2697
sVgothitelle
p2698
VGothitelle
p2699
sVskilllink
p2700
VSkill Link
p2701
sVponyta
p2702
VPonyta
p2703
sVsunnyday
p2704
VSunny Day
p2705
sVsubmission
p2706
VSubmission
p2707
sVstaravia
p2708
VStaravia
p2709
sVtailglow
p2710
VTail Glow
p2711
sVstealthrock
p2712
VStealth Rock
p2713
sVtechnoblast
p2714
VTechno Blast
p2715
sVlilligant
p2716
VLilligant
p2717
sVflamewheel
p2718
VFlame Wheel
p2719
sVsketch
p2720
VSketch
p2721
sVwhirlipede
p2722
VWhirlipede
p2723
sVbounce
p2724
VBounce
p2725
sVsouldew
p2726
VSoul Dew
p2727
sVgigaimpact
p2728
VGiga Impact
p2729
sVsewaddle
p2730
VSewaddle
p2731
sVscald
p2732
VScald
p2733
sVominouswind
p2734
VOminous Wind
p2735
sVdeepseascale
p2736
VDeepSeaScale
p2737
sVmummy
p2738
VMummy
p2739
sVhuntail
p2740
VHuntail
p2741
sVswordsdance
p2742
VSwords Dance
p2743
sVearlybird
p2744
VEarly Bird
p2745
sVslash
p2746
VSlash
p2747
sVhiddenpowergrass
p2748
VHidden Power Grass
p2749
sVmimejr
p2750
VMime Jr.
p2751
sVimprison
p2752
VImprison
p2753
sVseismitoad
p2754
VSeismitoad
p2755
sVodorsleuth
p2756
VOdor Sleuth
p2757
sVmewtwomegax
p2758
VMewtwo-Mega-X
p2759
sVmewtwomegay
p2760
VMewtwo-Mega-Y
p2761
sVfocussash
p2762
VFocus Sash
p2763
sVjellicent
p2764
VJellicent
p2765
sVspelonberry
p2766
VSpelon Berry
p2767
sVnobleroar
p2768
VNoble Roar
p2769
sVkangaskhanite
p2770
VKangaskhanite
p2771
sVelectrike
p2772
VElectrike
p2773
sViapapaberry
p2774
VIapapa Berry
p2775
sVmudkip
p2776
VMudkip
p2777
sVbouffalant
p2778
VBouffalant
p2779
sVarceusghost
p2780
VArceus-Ghost
p2781
sVmurkrow
p2782
VMurkrow
p2783
sVsharpedo
p2784
VSharpedo
p2785
sVarmthrust
p2786
VArm Thrust
p2787
sVchargebeam
p2788
VCharge Beam
p2789
sVnidoking
p2790
VNidoking
p2791
sVhabanberry
p2792
VHaban Berry
p2793
sVstench
p2794
VStench
p2795
sViciclecrash
p2796
VIcicle Crash
p2797
sVunown
p2798
VUnown
p2799
sVsnorunt
p2800
VSnorunt
p2801
sS'relaxed'
p2802
S'Relaxed'
p2803
sVeevee
p2804
VEevee
p2805
sVpsychocut
p2806
VPsycho Cut
p2807
sVtranquill
p2808
VTranquill
p2809
sVragepowder
p2810
VRage Powder
p2811
sVbuizel
p2812
VBuizel
p2813
sVflamecharge
p2814
VFlame Charge
p2815
sVgrasspledge
p2816
VGrass Pledge
p2817
sVshuppet
p2818
VShuppet
p2819
sVspacialrend
p2820
VSpacial Rend
p2821
sVforesight
p2822
VForesight
p2823
sVwepearberry
p2824
VWepear Berry
p2825
sVheavyball
p2826
VHeavy Ball
p2827
sVpechaberry
p2828
VPecha Berry
p2829
sVarceusfairy
p2830
VArceus-Fairy
p2831
sVmiracleseed
p2832
VMiracle Seed
p2833
sVtakedown
p2834
VTake Down
p2835
sVpangoro
p2836
VPangoro
p2837
sVstickybarb
p2838
VSticky Barb
p2839
sVganlonberry
p2840
VGanlon Berry
p2841
sVbulbasaur
p2842
VBulbasaur
p2843
sVpichu
p2844
VPichu
p2845
sVheatwave
p2846
VHeat Wave
p2847
sVaudino
p2848
VAudino
p2849
sVdrifloon
p2850
VDrifloon
p2851
sVsnowcloak
p2852
VSnow Cloak
p2853
sVrazorshell
p2854
VRazor Shell
p2855
sVmetagross
p2856
VMetagross
p2857
sVforcepalm
p2858
VForce Palm
p2859
sVlickilicky
p2860
VLickilicky
p2861
sVzigzagoon
p2862
VZigzagoon
p2863
sVcinccino
p2864
VCinccino
p2865
sVavalugg
p2866
VAvalugg
p2867
sVscratch
p2868
VScratch
p2869
sVherdier
p2870
VHerdier
p2871
sVsandtomb
p2872
VSand Tomb
p2873
sVcharmander
p2874
VCharmander
p2875
sVspeedboost
p2876
VSpeed Boost
p2877
sVwakeupslap
p2878
VWake-Up Slap
p2879
sVcursedbody
p2880
VCursed Body
p2881
sVharvest
p2882
VHarvest
p2883
sVperishsong
p2884
VPerish Song
p2885
sVpoweruppunch
p2886
VPower-Up Punch
p2887
sVcutecharm
p2888
VCute Charm
p2889
sVblaze
p2890
VBlaze
p2891
sVsniper
p2892
VSniper
p2893
sVtriplekick
p2894
VTriple Kick
p2895
sVfly
p2896
VFly
p2897
sVnightslash
p2898
VNight Slash
p2899
sVextrasensory
p2900
VExtrasensory
p2901
sVteddiursa
p2902
VTeddiursa
p2903
sVthundershock
p2904
VThunder Shock
p2905
sVazurill
p2906
VAzurill
p2907
sVbigpecks
p2908
VBig Pecks
p2909
sVlureball
p2910
VLure Ball
p2911
sVqwilfish
p2912
VQwilfish
p2913
sVhyperbeam
p2914
VHyper Beam
p2915
sVdynamicpunch
p2916
VDynamic Punch
p2917
sVmagnemite
p2918
VMagnemite
p2919
sVtyrunt
p2920
VTyrunt
p2921
sVwatershuriken
p2922
VWater Shuriken
p2923
sVmisdreavus
p2924
VMisdreavus
p2925
sVfidgit
p2926
VFidgit
p2927
sVdousedrive
p2928
VDouse Drive
p2929
sVcrushclaw
p2930
VCrush Claw
p2931
sVsoftboiled
p2932
VSoftboiled
p2933
sVshedinja
p2934
VShedinja
p2935
sVdownload
p2936
VDownload
p2937
sVacid
p2938
VAcid
p2939
sVvigoroth
p2940
VVigoroth
p2941
sVlombre
p2942
VLombre
p2943
sVdelcatty
p2944
VDelcatty
p2945
sVworryseed
p2946
VWorry Seed
p2947
sVtriattack
p2948
VTri Attack
p2949
sVtyranitar
p2950
VTyranitar
p2951
sVturtwig
p2952
VTurtwig
p2953
sVmagmastorm
p2954
VMagma Storm
p2955
sVpansear
p2956
VPansear
p2957
sVdeerling
p2958
VDeerling
p2959
sVswinub
p2960
VSwinub
p2961
sVabomasnow
p2962
VAbomasnow
p2963
sVbellossom
p2964
VBellossom
p2965
sVpowersplit
p2966
VPower Split
p2967
sVincinerate
p2968
VIncinerate
p2969
sVmarangaberry
p2970
VMaranga Berry
p2971
sVrampardos
p2972
VRampardos
p2973
sVscreech
p2974
VScreech
p2975
sVtentacruel
p2976
VTentacruel
p2977
sVnaturalcure
p2978
VNatural Cure
p2979
sVforestscurse
p2980
VForest's Curse
p2981
sVblizzard
p2982
VBlizzard
p2983
sVteeterdance
p2984
VTeeter Dance
p2985
sVfoongus
p2986
VFoongus
p2987
sVaquaring
p2988
VAqua Ring
p2989
sS'hardy'
p2990
S'Hardy'
p2991
sVarceusground
p2992
VArceus-Ground
p2993
sVpumpkaboolarge
p2994
VPumpkaboo-Large
p2995
sVkingdra
p2996
VKingdra
p2997
sVaerodactylite
p2998
VAerodactylite
p2999
sVbanettite
p3000
VBanettite
p3001
sVdragongem
p3002
VDragon Gem
p3003
sVheatran
p3004
VHeatran
p3005
sVwatchog
p3006
VWatchog
p3007
sVpoliwrath
p3008
VPoliwrath
p3009
sVinsomnia
p3010
VInsomnia
p3011
sVcharcoal
p3012
VCharcoal
p3013
sVcranidos
p3014
VCranidos
p3015
sVabsol
p3016
VAbsol
p3017
sVplusle
p3018
VPlusle
p3019
sVaerodactylmega
p3020
VAerodactyl-Mega
p3021
sVrivalry
p3022
VRivalry
p3023
sVwatersport
p3024
VWater Sport
p3025
sVicicleplate
p3026
VIcicle Plate
p3027
sVfuturesight
p3028
VFuture Sight
p3029
sVlustrousorb
p3030
VLustrous Orb
p3031
sVarchen
p3032
VArchen
p3033
sVexeggcute
p3034
VExeggcute
p3035
sVlucario
p3036
VLucario
p3037
sVthundurus
p3038
VThundurus
p3039
sVtangrowth
p3040
VTangrowth
p3041
sVvespiquen
p3042
VVespiquen
p3043
sVterrakion
p3044
VTerrakion
p3045
sVblacksludge
p3046
VBlack Sludge
p3047
sVadamantorb
p3048
VAdamant Orb
p3049
sVrelicsong
p3050
VRelic Song
p3051
sVheliolisk
p3052
VHeliolisk
p3053
sVblazikenmega
p3054
VBlaziken-Mega
p3055
sVgastrodon
p3056
VGastrodon
p3057
sVbronzong
p3058
VBronzong
p3059
sVweavile
p3060
VWeavile
p3061
sVdewott
p3062
VDewott
p3063
sVchandelure
p3064
VChandelure
p3065
sVhaxorus
p3066
VHaxorus
p3067
sVsecretsword
p3068
VSecret Sword
p3069
sVowntempo
p3070
VOwn Tempo
p3071
sVhiddenpower
p3072
VHidden Power
p3073
sVrazorleaf
p3074
VRazor Leaf
p3075
sVpowerswap
p3076
VPower Swap
p3077
sVdragalge
p3078
VDragalge
p3079
sVgrasswhistle
p3080
VGrassWhistle
p3081
sVroserade
p3082
VRoserade
p3083
sVpidgey
p3084
VPidgey
p3085
sVaggronite
p3086
VAggronite
p3087
sVgenesect
p3088
VGenesect
p3089
sVlotad
p3090
VLotad
p3091
sVbind
p3092
VBind
p3093
sVcounter
p3094
VCounter
p3095
sVfullincense
p3096
VFull Incense
p3097
sVweepinbell
p3098
VWeepinbell
p3099
sVwoobat
p3100
VWoobat
p3101
sVaquajet
p3102
VAqua Jet
p3103
sVkrabby
p3104
VKrabby
p3105
sVumbreon
p3106
VUmbreon
p3107
sVheatproof
p3108
VHeatproof
p3109
sVguardswap
p3110
VGuard Swap
p3111
sVassaultvest
p3112
VAssault Vest
p3113
sVpetalblizzard
p3114
VPetal Blizzard
p3115
sVkadabra
p3116
VKadabra
p3117
sVpurepower
p3118
VPure Power
p3119
sVironball
p3120
VIron Ball
p3121
sVdreameater
p3122
VDream Eater
p3123
sVhelpinghand
p3124
VHelping Hand
p3125
sVmunchlax
p3126
VMunchlax
p3127
sVdeoxysdefense
p3128
VDeoxys-Defense
p3129
sVbelch
p3130
VBelch
p3131
sVsuperluck
p3132
VSuper Luck
p3133
sVberryjuice
p3134
VBerry Juice
p3135
sVhiddenpowerflying
p3136
VHidden Power Flying
p3137
sVflowerveil
p3138
VFlower Veil
p3139
sVpokeball
p3140
VPoke Ball
p3141
sVsandforce
p3142
VSand Force
p3143
sVflail
p3144
VFlail
p3145
sVkabutops
p3146
VKabutops
p3147
sVgreninja
p3148
VGreninja
p3149
sVchinchou
p3150
VChinchou
p3151
sVmagnitude
p3152
VMagnitude
p3153
sVarceusfighting
p3154
VArceus-Fighting
p3155
sVrapidspin
p3156
VRapid Spin
p3157
sVskullbash
p3158
VSkull Bash
p3159
sVdratini
p3160
VDratini
p3161
sVafteryou
p3162
VAfter You
p3163
sVmaractus
p3164
VMaractus
p3165
sVilluminate
p3166
VIlluminate
p3167
sVmagnetpull
p3168
VMagnet Pull
p3169
sVtepig
p3170
VTepig
p3171
sVkelpsyberry
p3172
VKelpsy Berry
p3173
sVstatic
p3174
VStatic
p3175
sVflameplate
p3176
VFlame Plate
p3177
sVicefang
p3178
VIce Fang
p3179
sVninjask
p3180
VNinjask
p3181
sVjoltik
p3182
VJoltik
p3183
sVrollingkick
p3184
VRolling Kick
p3185
sVweatherball
p3186
VWeather Ball
p3187
sVmanectric
p3188
VManectric
p3189
sVnaturepower
p3190
VNature Power
p3191
sVregisteel
p3192
VRegisteel
p3193
sVsmog
p3194
VSmog
p3195
sVbabydolleyes
p3196
VBaby-Doll Eyes
p3197
sVleafguard
p3198
VLeaf Guard
p3199
sVicywind
p3200
VIcy Wind
p3201
sVemolga
p3202
VEmolga
p3203
sVconkeldurr
p3204
VConkeldurr
p3205
sVworkup
p3206
VWork Up
p3207
sVhippowdon
p3208
VHippowdon
p3209
sVenigmaberry
p3210
VEnigma Berry
p3211
sVvenomoth
p3212
VVenomoth
p3213
sVcobalion
p3214
VCobalion
p3215
sVbergmite
p3216
VBergmite
p3217
sVsudowoodo
p3218
VSudowoodo
p3219
sVlarvitar
p3220
VLarvitar
p3221
sVheadbutt
p3222
VHeadbutt
p3223
sVbodyslam
p3224
VBody Slam
p3225
sVexpertbelt
p3226
VExpert Belt
p3227
sVbugbuzz
p3228
VBug Buzz
p3229
sVfirefang
p3230
VFire Fang
p3231
sVmindplate
p3232
VMind Plate
p3233
sVampharosmega
p3234
VAmpharos-Mega
p3235
sVmistball
p3236
VMist Ball
p3237
sVskrelp
p3238
VSkrelp
p3239
sVjumpkick
p3240
VJump Kick
p3241
sVwaterspout
p3242
VWater Spout
p3243
sVloudred
p3244
VLoudred
p3245
sVearthpower
p3246
VEarth Power
p3247
sVpremierball
p3248
VPremier Ball
p3249
sVrotomfrost
p3250
VRotom-Frost
p3251
sVsolidrock
p3252
VSolid Rock
p3253
sVrabutaberry
p3254
VRabuta Berry
p3255
sVagility
p3256
VAgility
p3257
sVelectabuzz
p3258
VElectabuzz
p3259
sVcrobat
p3260
VCrobat
p3261
sVrockblast
p3262
VRock Blast
p3263
sVslackoff
p3264
VSlack Off
p3265
sVsoftsand
p3266
VSoft Sand
p3267
sVsigilyph
p3268
VSigilyph
p3269
sVdeepseatooth
p3270
VDeepSeaTooth
p3271
sVtorkoal
p3272
VTorkoal
p3273
sVwurmple
p3274
VWurmple
p3275
sVtimburr
p3276
VTimburr
p3277
sVfastball
p3278
VFast Ball
p3279
sVpoisonfang
p3280
VPoison Fang
p3281
sVinsectplate
p3282
VInsect Plate
p3283
sVtorrent
p3284
VTorrent
p3285
sVencore
p3286
VEncore
p3287
sVquickball
p3288
VQuick Ball
p3289
sVtrapinch
p3290
VTrapinch
p3291
sVbonerush
p3292
VBone Rush
p3293
sS'gentle'
p3294
S'Gentle'
p3295
sVsandrush
p3296
VSand Rush
p3297
sVarceusflying
p3298
VArceus-Flying
p3299
sVzebstrika
p3300
VZebstrika
p3301
sVwhitesmoke
p3302
VWhite Smoke
p3303
sVlevelball
p3304
VLevel Ball
p3305
sVsoak
p3306
VSoak
p3307
sVfusionbolt
p3308
VFusion Bolt
p3309
sVflareon
p3310
VFlareon
p3311
sVcalmmind
p3312
VCalm Mind
p3313
sVgravity
p3314
VGravity
p3315
sVcarnivine
p3316
VCarnivine
p3317
sVmistyterrain
p3318
VMisty Terrain
p3319
sVpsychoboost
p3320
VPsycho Boost
p3321
sVnuzleaf
p3322
VNuzleaf
p3323
sVwidelens
p3324
VWide Lens
p3325
sVshadowball
p3326
VShadow Ball
p3327
sVdrifblim
p3328
VDrifblim
p3329
sVmewtwo
p3330
VMewtwo
p3331
sVrollout
p3332
VRollout
p3333
sVslurpuff
p3334
VSlurpuff
p3335
sVgrassgem
p3336
VGrass Gem
p3337
sVdracometeor
p3338
VDraco Meteor
p3339
sVsludgewave
p3340
VSludge Wave
p3341
sVsceptile
p3342
VSceptile
p3343
sVgardevoirite
p3344
VGardevoirite
p3345
sVexeggutor
p3346
VExeggutor
p3347
sVshedskin
p3348
VShed Skin
p3349
sVcherrimsunshine
p3350
VCherrim-Sunshine
p3351
sVarceus
p3352
VArceus
p3353
sS'impish'
p3354
S'Impish'
p3355
sVservine
p3356
VServine
p3357
sVroselia
p3358
VRoselia
p3359
sVbrine
p3360
VBrine
p3361
sVzweilous
p3362
VZweilous
p3363
sVsleeppowder
p3364
VSleep Powder
p3365
sVoldamber
p3366
VOld Amber
p3367
sVdurant
p3368
VDurant
p3369
sVsimplebeam
p3370
VSimple Beam
p3371
sVyveltal
p3372
VYveltal
p3373
sVdragonite
p3374
VDragonite
p3375
sS'rash'
p3376
S'Rash'
p3377
sVpiplup
p3378
VPiplup
p3379
sVflashfire
p3380
VFlash Fire
p3381
sVdeino
p3382
VDeino
p3383
sVcamerupt
p3384
VCamerupt
p3385
sVluckypunch
p3386
VLucky Punch
p3387
sVpsychicgem
p3388
VPsychic Gem
p3389
sVrarebone
p3390
VRare Bone
p3391
sVsolosis
p3392
VSolosis
p3393
sVbellydrum
p3394
VBelly Drum
p3395
sS'sassy'
p3396
S'Sassy'
p3397
sVdeoxysattack
p3398
VDeoxys-Attack
p3399
sVcroagunk
p3400
VCroagunk
p3401
sVbravebird
p3402
VBrave Bird
p3403
sVgust
p3404
VGust
p3405
sVmagicguard
p3406
VMagic Guard
p3407
sVsandattack
p3408
VSand Attack
p3409
sVkingler
p3410
VKingler
p3411
sVwish
p3412
VWish
p3413
sVwatmelberry
p3414
VWatmel Berry
p3415
sVember
p3416
VEmber
p3417
sVgeomancy
p3418
VGeomancy
p3419
sVcacturne
p3420
VCacturne
p3421
sVpowder
p3422
VPowder
p3423
sVvictini
p3424
VVictini
p3425
sVfinneon
p3426
VFinneon
p3427
sVtwineedle
p3428
VTwineedle
p3429
sVchestoberry
p3430
VChesto Berry
p3431
sVgrumpig
p3432
VGrumpig
p3433
sVnightmare
p3434
VNightmare
p3435
sVgyarados
p3436
VGyarados
p3437
sVvaporeon
p3438
VVaporeon
p3439
sVpartingshot
p3440
VParting Shot
p3441
sVrockincense
p3442
VRock Incense
p3443
sVfroslass
p3444
VFroslass
p3445
sVconfusion
p3446
VConfusion
p3447
sVaron
p3448
VAron
p3449
sVconversion2
p3450
VConversion 2
p3451
sVmysticalfire
p3452
VMystical Fire
p3453
sVcacnea
p3454
VCacnea
p3455
sVzoroark
p3456
VZoroark
p3457
sVshellsmash
p3458
VShell Smash
p3459
sVhydropump
p3460
VHydro Pump
p3461
sVswift
p3462
VSwift
p3463
sVhighjumpkick
p3464
VHigh Jump Kick
p3465
sVmetang
p3466
VMetang
p3467
sVbaddreams
p3468
VBad Dreams
p3469
sVaerodactyl
p3470
VAerodactyl
p3471
sVtailwhip
p3472
VTail Whip
p3473
sVsafetygoggles
p3474
VSafety Goggles
p3475
sVklang
p3476
VKlang
p3477
sVswallow
p3478
VSwallow
p3479
sVspritzee
p3480
VSpritzee
p3481
sVflabebe
p3482
VFlabebe
p3483
sVapicotberry
p3484
VApicot Berry
p3485
sVnumel
p3486
VNumel
p3487
sVwoodhammer
p3488
VWood Hammer
p3489
sVhiddenpowerwater
p3490
VHidden Power Water
p3491
sVmalaconda
p3492
VMalaconda
p3493
sVgible
p3494
VGible
p3495
sVovercoat
p3496
VOvercoat
p3497
sVekans
p3498
VEkans
p3499
sVpixieplate
p3500
VPixie Plate
p3501
sVgrepaberry
p3502
VGrepa Berry
p3503
sVdisarmingvoice
p3504
VDisarming Voice
p3505
sVwailord
p3506
VWailord
p3507
sVswoobat
p3508
VSwoobat
p3509
sVelectrify
p3510
VElectrify
p3511
sVbindingband
p3512
VBinding Band
p3513
sVkeldeo
p3514
VKeldeo
p3515
sVtomohawk
p3516
VTomohawk
p3517
sVivysaur
p3518
VIvysaur
p3519
sVgripclaw
p3520
VGrip Claw
p3521
sVhorndrill
p3522
VHorn Drill
p3523
sVcoverfossil
p3524
VCover Fossil
p3525
sVgraveler
p3526
VGraveler
p3527
sVsmeargle
p3528
VSmeargle
p3529
sVraindance
p3530
VRain Dance
p3531
sVinfestation
p3532
VInfestation
p3533
sVpresent
p3534
VPresent
p3535
sVgrovyle
p3536
VGrovyle
p3537
sVintimidate
p3538
VIntimidate
p3539
sVharden
p3540
VHarden
p3541
sVbeheeyem
p3542
VBeheeyem
p3543
sVfuryswipes
p3544
VFury Swipes
p3545
sVpelipper
p3546
VPelipper
p3547
sVthickfat
p3548
VThick Fat
p3549
sVcarracosta
p3550
VCarracosta
p3551
sVluxio
p3552
VLuxio
p3553
sVvullaby
p3554
VVullaby
p3555
sVhiddenpowerghost
p3556
VHidden Power Ghost
p3557
sVlightball
p3558
VLight Ball
p3559
sVwaterveil
p3560
VWater Veil
p3561
sVspelltag
p3562
VSpell Tag
p3563
sVzenheadbutt
p3564
VZen Headbutt
p3565
sVzekrom
p3566
VZekrom
p3567
sVaipom
p3568
VAipom
p3569
sVdefiant
p3570
VDefiant
p3571
sVhardstone
p3572
VHard Stone
p3573
sVkebiaberry
p3574
VKebia Berry
p3575
sVcascoon
p3576
VCascoon
p3577
sVmagcargo
p3578
VMagcargo
p3579
sVarceuswater
p3580
VArceus-Water
p3581
sVraindish
p3582
VRain Dish
p3583
sVseaking
p3584
VSeaking
p3585
sVmagician
p3586
VMagician
p3587
sVjudgment
p3588
VJudgment
p3589
sVairlock
p3590
VAir Lock
p3591
sVbabiriberry
p3592
VBabiri Berry
p3593
sVaspearberry
p3594
VAspear Berry
p3595
sVeelektross
p3596
VEelektross
p3597
sVpickpocket
p3598
VPickpocket
p3599
sVsitrusberry
p3600
VSitrus Berry
p3601
sVarceuspsychic
p3602
VArceus-Psychic
p3603
sVbeautifly
p3604
VBeautifly
p3605
sVvenoshock
p3606
VVenoshock
p3607
sVmudsport
p3608
VMud Sport
p3609
sVazelf
p3610
VAzelf
p3611
sVyanmega
p3612
VYanmega
p3613
sVfairyaura
p3614
VFairy Aura
p3615
sVkarrablast
p3616
VKarrablast
p3617
sVpinsir
p3618
VPinsir
p3619
sVguts
p3620
VGuts
p3621
sVtauros
p3622
VTauros
p3623
sVfearow
p3624
VFearow
p3625
sVfaketears
p3626
VFake Tears
p3627
sVsimple
p3628
VSimple
p3629
sVraikou
p3630
VRaikou
p3631
sVswellow
p3632
VSwellow
p3633
sVleechlife
p3634
VLeech Life
p3635
sVkingsshield
p3636
VKing's Shield
p3637
sVkingsrock
p3638
VKing's Rock
p3639
sVblukberry
p3640
VBluk Berry
p3641
sVflowershield
p3642
VFlower Shield
p3643
sVarenatrap
p3644
VArena Trap
p3645
sVtaunt
p3646
VTaunt
p3647
sVselfdestruct
p3648
VSelfdestruct
p3649
sVgoldeen
p3650
VGoldeen
p3651
sVducklett
p3652
VDucklett
p3653
sVglowpunch
p3654
VGlow Punch
p3655
sVhoothoot
p3656
VHoothoot
p3657
sVlatios
p3658
VLatios
p3659
sVbudew
p3660
VBudew
p3661
sVgogoat
p3662
VGogoat
p3663
sVbaltoy
p3664
VBaltoy
p3665
sVhealball
p3666
VHeal Ball
p3667
sVphanpy
p3668
VPhanpy
p3669
sVroleplay
p3670
VRole Play
p3671
sVkoffing
p3672
VKoffing
p3673
sVrepeatball
p3674
VRepeat Ball
p3675
sVglare
p3676
VGlare
p3677
sVthief
p3678
VThief
p3679
sVhail
p3680
VHail
p3681
sVcofagrigus
p3682
VCofagrigus
p3683
sVgrowth
p3684
VGrowth
p3685
sVskarmory
p3686
VSkarmory
p3687
sVoblivious
p3688
VOblivious
p3689
sVdragonclaw
p3690
VDragon Claw
p3691
sVdrizzle
p3692
VDrizzle
p3693
sVstaraptor
p3694
VStaraptor
p3695
sVmagicalleaf
p3696
VMagical Leaf
p3697
sVmeowsticf
p3698
VMeowstic-F
p3699
sVhurricane
p3700
VHurricane
p3701
sVlileep
p3702
VLileep
p3703
sVpiloswine
p3704
VPiloswine
p3705
sVvenusaurite
p3706
VVenusaurite
p3707
sVcopycat
p3708
VCopycat
p3709
sVhappiny
p3710
VHappiny
p3711
sVpressure
p3712
VPressure
p3713
sVsilkscarf
p3714
VSilk Scarf
p3715
sVpidgeotto
p3716
VPidgeotto
p3717
sVdreadplate
p3718
VDread Plate
p3719
sVfurret
p3720
VFurret
p3721
sVpsystrike
p3722
VPsystrike
p3723
sVmeteormash
p3724
VMeteor Mash
p3725
sVshucaberry
p3726
VShuca Berry
p3727
sVsweetkiss
p3728
VSweet Kiss
p3729
sVacidarmor
p3730
VAcid Armor
p3731
sVlightclay
p3732
VLight Clay
p3733
sVvoodoom
p3734
VVoodoom
p3735
sVfeintattack
p3736
VFeint Attack
p3737
sVburmy
p3738
VBurmy
p3739
sVmagostberry
p3740
VMagost Berry
p3741
sVgrasspelt
p3742
VGrass Pelt
p3743
sVspitup
p3744
VSpit Up
p3745
sVmentalherb
p3746
VMental Herb
p3747
sVroseliberry
p3748
VRoseli Berry
p3749
sVfrustration
p3750
VFrustration
p3751
sVambipom
p3752
VAmbipom
p3753
sVfollowme
p3754
VFollow Me
p3755
sVclauncher
p3756
VClauncher
p3757
sVquickpowder
p3758
VQuick Powder
p3759
sVfrenzyplant
p3760
VFrenzy Plant
p3761
sVscaryface
p3762
VScary Face
p3763
sVmagoberry
p3764
VMago Berry
p3765
sVcroconaw
p3766
VCroconaw
p3767
sVdrowzee
p3768
VDrowzee
p3769
sVserenegrace
p3770
VSerene Grace
p3771
sVheracronite
p3772
VHeracronite
p3773
sVtechnician
p3774
VTechnician
p3775
sVarceusgrass
p3776
VArceus-Grass
p3777
sVembargo
p3778
VEmbargo
p3779
sVmetronome
p3780
VMetronome
p3781
sVattackorder
p3782
VAttack Order
p3783
sVallyswitch
p3784
VAlly Switch
p3785
sVhugepower
p3786
VHuge Power
p3787
sVmegakick
p3788
VMega Kick
p3789
sVentrainment
p3790
VEntrainment
p3791
sVtaillow
p3792
VTaillow
p3793
sVpoisonheal
p3794
VPoison Heal
p3795
sVblock
p3796
VBlock
p3797
sVscizormega
p3798
VScizor-Mega
p3799
sVhoneclaws
p3800
VHone Claws
p3801
sVoranberry
p3802
VOran Berry
p3803
sVslowstart
p3804
VSlow Start
p3805
sVgranbull
p3806
VGranbull
p3807
sVweakarmor
p3808
VWeak Armor
p3809
sVaurasphere
p3810
VAura Sphere
p3811
sVshelgon
p3812
VShelgon
p3813
sVrawstberry
p3814
VRawst Berry
p3815
sVvacuumwave
p3816
VVacuum Wave
p3817
sVillusion
p3818
VIllusion
p3819
sVreckless
p3820
VReckless
p3821
sVyacheberry
p3822
VYache Berry
p3823
sVtreecko
p3824
VTreecko
p3825
sValomomola
p3826
VAlomomola
p3827
sVbraviary
p3828
VBraviary
p3829
sVvivillon
p3830
VVivillon
p3831
sVnoguard
p3832
VNo Guard
p3833
sVabomasite
p3834
VAbomasite
p3835
sVstarmie
p3836
VStarmie
p3837
sVpersistent
p3838
VPersistent
p3839
sVmagmar
p3840
VMagmar
p3841
sVzangoose
p3842
VZangoose
p3843
sVvcreate
p3844
VV-create
p3845
s.