(dp1
Velectivire
p2
VElectivire
p3
sVpsystrike
p4
VPsystrike
p5
sVcherrim
p6
VCherrim
p7
sVcolorchange
p8
VColor Change
p9
sVlucarionite
p10
VLucarionite
p11
sVpalkia
p12
VPalkia
p13
sVchatter
p14
VChatter
p15
sValakazite
p16
VAlakazite
p17
sVtickle
p18
VTickle
p19
sVarceuselectric
p20
VArceus-Electric
p21
sVabra
p22
VAbra
p23
sVreuniclus
p24
VReuniclus
p25
sVrecycle
p26
VRecycle
p27
sVtimerball
p28
VTimer Ball
p29
sVmeditite
p30
VMeditite
p31
sVsharpbeak
p32
VSharp Beak
p33
sVmewtwonitex
p34
VMewtwonite X
p35
sVmewtwonitey
p36
VMewtwonite Y
p37
sVquickclaw
p38
VQuick Claw
p39
sVdoubleslap
p40
VDoubleSlap
p41
sVplayaround
p42
VPlay Around
p43
sVeviolite
p44
VEviolite
p45
sVprotean
p46
S'Protean'
p47
sVsquirtle
p48
VSquirtle
p49
sVdarmanitanzen
p50
VDarmanitan-Zen
p51
sVnastyplot
p52
VNasty Plot
p53
sVwormadam
p54
VWormadam
p55
sVaggronmega
p56
VAggron-Mega
p57
sVwhirlwind
p58
VWhirlwind
p59
sVplumefossil
p60
VPlume Fossil
p61
sVarceusice
p62
VArceus-Ice
p63
sVhiddenpowerelectric
p64
VHidden Power Electric
p65
sVhiddenpowerfire
p66
VHidden Power Fire
p67
sVguillotine
p68
VGuillotine
p69
sVlevitate
p70
VLevitate
p71
sVgyaradosite
p72
VGyaradosite
p73
sVpomegberry
p74
VPomeg Berry
p75
sVmasquerain
p76
VMasquerain
p77
sVthunder
p78
VThunder
p79
sVhaze
p80
VHaze
p81
sVdarkgem
p82
VDark Gem
p83
sVmiltank
p84
VMiltank
p85
sVfraxure
p86
VFraxure
p87
sVmoldbreaker
p88
VMold Breaker
p89
sVcrunch
p90
VCrunch
p91
sVrindoberry
p92
VRindo Berry
p93
sVreflecttype
p94
VReflect Type
p95
sVsnivy
p96
VSnivy
p97
sVmefirst
p98
VMe First
p99
sVmothim
p100
VMothim
p101
sVscizorite
p102
VScizorite
p103
sVmew
p104
VMew
p105
sVpursuit
p106
VPursuit
p107
sVheadsmash
p108
VHead Smash
p109
sVaftermath
p110
VAftermath
p111
sVclawitzer
p112
VClawitzer
p113
sVpixilate
p114
S'Pixilate'
p115
sVsilverpowder
p116
VSilverPowder
p117
sVlunatone
p118
VLunatone
p119
sVpunishment
p120
VPunishment
p121
sVpoisontouch
p122
VPoison Touch
p123
sVfeebas
p124
VFeebas
p125
sVneedlearm
p126
VNeedle Arm
p127
sVblastburn
p128
VBlast Burn
p129
sVhonchkrow
p130
VHonchkrow
p131
sVtirtouga
p132
VTirtouga
p133
sVampharos
p134
VAmpharos
p135
sVdusclops
p136
VDusclops
p137
sVpoisonbarb
p138
VPoison Barb
p139
sVmorningsun
p140
VMorning Sun
p141
sVfreezedry
p142
VFreeze Dry
p143
sVmandibuzz
p144
VMandibuzz
p145
sVoverheat
p146
VOverheat
p147
sVspiritomb
p148
VSpiritomb
p149
sVvoltabsorb
p150
VVolt Absorb
p151
sVpurugly
p152
VPurugly
p153
sVshiftgear
p154
VShift Gear
p155
sS'calm'
p156
S'Calm'
p157
sVcastformrainy
p158
VCastform-Rainy
p159
sVbigroot
p160
VBig Root
p161
sVcobalion
p162
VCobalion
p163
sVgardevoir
p164
VGardevoir
p165
sVsheerforce
p166
VSheer Force
p167
sVmagnetrise
p168
VMagnet Rise
p169
sS'naive'
p170
S'Naive'
p171
sVkyogre
p172
VKyogre
p173
sS'adamant'
p174
S'Adamant'
p175
sVkitsunoh
p176
VKitsunoh
p177
sVarceusbug
p178
VArceus-Bug
p179
sVnoibat
p180
VNoibat
p181
sVpidgeot
p182
VPidgeot
p183
sVtangledfeet
p184
VTangled Feet
p185
sValakazam
p186
VAlakazam
p187
sVonix
p188
VOnix
p189
sVgrimer
p190
VGrimer
p191
sVrototiller
p192
VRototiller
p193
sVlucariomega
p194
VLucario-Mega
p195
sVbugbite
p196
VBug Bite
p197
sVpoisongas
p198
VPoison Gas
p199
sVmakuhita
p200
VMakuhita
p201
sVattract
p202
VAttract
p203
sVcharizarditey
p204
VCharizardite Y
p205
sVcharizarditex
p206
VCharizardite X
p207
sVpowerwhip
p208
VPower Whip
p209
sVskydrop
p210
VSky Drop
p211
sVcrabhammer
p212
VCrabhammer
p213
sVtoxic
p214
VToxic
p215
sVcastformsunny
p216
VCastform-Sunny
p217
sVrotomheat
p218
VRotom-Heat
p219
sVsportball
p220
VSport Ball
p221
sVpoisonpowder
p222
VPoisonPowder
p223
sVredcard
p224
VRed Card
p225
sS'modest'
p226
S'Modest'
p227
sS'lax'
p228
S'Lax'
p229
sVrocktomb
p230
VRock Tomb
p231
sVcherubi
p232
VCherubi
p233
sVleafstorm
p234
VLeaf Storm
p235
sVspookyplate
p236
VSpooky Plate
p237
sS'hasty'
p238
S'Hasty'
p239
sVentei
p240
VEntei
p241
sVarceussteel
p242
VArceus-Steel
p243
sVcobaberry
p244
VCoba Berry
p245
sVlaggingtail
p246
VLagging Tail
p247
sVfinalgambit
p248
VFinal Gambit
p249
sVrapidash
p250
VRapidash
p251
sVdoubleteam
p252
VDouble Team
p253
sVlumineon
p254
VLumineon
p255
sVshielddust
p256
VShield Dust
p257
sVmagicbounce
p258
VMagic Bounce
p259
sVhiddenpowerfighting
p260
VHidden Power Fighting
p261
sVsludge
p262
VSludge
p263
sVvenusaur
p264
VVenusaur
p265
sVphione
p266
VPhione
p267
sVflameburst
p268
VFlame Burst
p269
sVzapplate
p270
VZap Plate
p271
sVmunna
p272
VMunna
p273
sVhitmonlee
p274
VHitmonlee
p275
sVdryskin
p276
VDry Skin
p277
sVkricketot
p278
VKricketot
p279
sVroost
p280
VRoost
p281
sVfurycutter
p282
VFury Cutter
p283
sVirontail
p284
VIron Tail
p285
sVpoliwhirl
p286
VPoliwhirl
p287
sVeggbomb
p288
VEgg Bomb
p289
sVluxray
p290
VLuxray
p291
sVpayback
p292
VPayback
p293
sVexcadrill
p294
VExcadrill
p295
sVgloom
p296
VGloom
p297
sVgluttony
p298
VGluttony
p299
sVvulpix
p300
VVulpix
p301
sVcradily
p302
VCradily
p303
sVthunderfang
p304
VThunder Fang
p305
sVblastoisemega
p306
VBlastoise-Mega
p307
sVespeon
p308
VEspeon
p309
sVmultitype
p310
VMultitype
p311
sVflameorb
p312
VFlame Orb
p313
sVhiddenpowerdragon
p314
VHidden Power Dragon
p315
sVfairywind
p316
VFairy Wind
p317
sVgothorita
p318
VGothorita
p319
sVomastar
p320
VOmastar
p321
sVwalrein
p322
VWalrein
p323
sVtruant
p324
VTruant
p325
sVqualotberry
p326
VQualot Berry
p327
sVflowergift
p328
VFlower Gift
p329
sVpsychic
p330
VPsychic
p331
sVkasibberry
p332
VKasib Berry
p333
sVcottonguard
p334
VCotton Guard
p335
sVtornadus
p336
VTornadus
p337
sVshedshell
p338
VShed Shell
p339
sVbarrier
p340
VBarrier
p341
sVleftovers
p342
VLeftovers
p343
sVrevenge
p344
VRevenge
p345
sVsynchronoise
p346
VSynchronoise
p347
sVbestow
p348
VBestow
p349
sVtrumpcard
p350
VTrump Card
p351
sVsweetveil
p352
VSweet Veil
p353
sVshiftry
p354
VShiftry
p355
sVhonedge
p356
VHonedge
p357
sVbeartic
p358
VBeartic
p359
sVkyuremblack
p360
VKyurem-Black
p361
sVsonicboom
p362
VSonicBoom
p363
sVfightinggem
p364
VFighting Gem
p365
sVlatias
p366
VLatias
p367
sVfilter
p368
VFilter
p369
sVcherishball
p370
VCherish Ball
p371
sVcheriberry
p372
VCheri Berry
p373
sS'naughty'
p374
S'Naughty'
p375
sVseedflare
p376
VSeed Flare
p377
sVhydrocannon
p378
VHydro Cannon
p379
sVmagneticflux
p380
VMagnetic Flux
p381
sVdeoxys
p382
VDeoxys
p383
sVhooh
p384
VHo-Oh
p385
sVshieldon
p386
VShieldon
p387
sVslugma
p388
VSlugma
p389
sVheracrossmega
p390
VHeracross-Mega
p391
sVwaveincense
p392
VWave Incense
p393
sVmanectite
p394
VManectite
p395
sVaircutter
p396
VAir Cutter
p397
sVmightyena
p398
VMightyena
p399
sVgrowlithe
p400
VGrowlithe
p401
sVinferno
p402
VInferno
p403
sVtwister
p404
VTwister
p405
sVyamask
p406
VYamask
p407
sVflamethrower
p408
VFlamethrower
p409
sVtoxicorb
p410
VToxic Orb
p411
sVfairylock
p412
VFairy Lock
p413
sVrockclimb
p414
VRock Climb
p415
sVwonderroom
p416
VWonder Room
p417
sVmachoke
p418
VMachoke
p419
sVdoomdesire
p420
VDoom Desire
p421
sVmirrormove
p422
VMirror Move
p423
sVsandshrew
p424
VSandshrew
p425
sVpolitoed
p426
VPolitoed
p427
sVminun
p428
VMinun
p429
sVbelueberry
p430
VBelue Berry
p431
sVendure
p432
VEndure
p433
sVswiftswim
p434
VSwift Swim
p435
sVshellbell
p436
VShell Bell
p437
sVminus
p438
VMinus
p439
sVmeowth
p440
VMeowth
p441
sVprankster
p442
VPrankster
p443
sVsludgebomb
p444
VSludge Bomb
p445
sVpayapaberry
p446
VPayapa Berry
p447
sVclosecombat
p448
VClose Combat
p449
sVhealer
p450
VHealer
p451
sVseel
p452
VSeel
p453
sVblastoise
p454
VBlastoise
p455
sVstrength
p456
VStrength
p457
sVchingling
p458
VChingling
p459
sVgothita
p460
VGothita
p461
sVdarmanitan
p462
VDarmanitan
p463
sVcraftyshield
p464
VCrafty Shield
p465
sVgyroball
p466
VGyro Ball
p467
sVponyta
p468
VPonyta
p469
sVamoonguss
p470
VAmoonguss
p471
sVgrassyterrain
p472
VGrassy Terrain
p473
sVdeoxysspeed
p474
VDeoxys-Speed
p475
sVshadowforce
p476
VShadow Force
p477
sVcoil
p478
VCoil
p479
sVdrought
p480
VDrought
p481
sVferrothorn
p482
VFerrothorn
p483
sVcosmicpower
p484
VCosmic Power
p485
sVdunsparce
p486
VDunsparce
p487
sVconstrict
p488
VConstrict
p489
sVvileplume
p490
VVileplume
p491
sVraticate
p492
VRaticate
p493
sVslaking
p494
VSlaking
p495
sVjirachi
p496
VJirachi
p497
sVgolduck
p498
VGolduck
p499
sVarmorfossil
p500
VArmor Fossil
p501
sVstickyweb
p502
VSticky Web
p503
sVtogekiss
p504
VTogekiss
p505
sVhippopotas
p506
VHippopotas
p507
sVdialga
p508
VDialga
p509
sVlastresort
p510
VLast Resort
p511
sVbulletpunch
p512
VBullet Punch
p513
sVicegem
p514
VIce Gem
p515
sVspite
p516
VSpite
p517
sVcarbink
p518
VCarbink
p519
sVwaterpulse
p520
VWater Pulse
p521
sVstoutland
p522
VStoutland
p523
sVbidoof
p524
VBidoof
p525
sVsyclant
p526
VSyclant
p527
sVhaunter
p528
VHaunter
p529
sVweedle
p530
VWeedle
p531
sVaerilate
p532
S'Aerilate'
p533
sVhoneygather
p534
VHoney Gather
p535
sVmachop
p536
VMachop
p537
sVmetalpowder
p538
VMetal Powder
p539
sVdusknoir
p540
VDusknoir
p541
sVmeditate
p542
VMeditate
p543
sVreversal
p544
VReversal
p545
sVlunardance
p546
VLunar Dance
p547
sVpumpkaboosmall
p548
VPumpkaboo-Small
p549
sVtentacool
p550
VTentacool
p551
sVmilotic
p552
VMilotic
p553
sVwailmer
p554
VWailmer
p555
sVnosepass
p556
VNosepass
p557
sVflashcannon
p558
VFlash Cannon
p559
sVlaxincense
p560
VLax Incense
p561
sVmagneton
p562
VMagneton
p563
sVstickyhold
p564
VSticky Hold
p565
sVbeatup
p566
VBeat Up
p567
sVleafblade
p568
VLeaf Blade
p569
sVserperior
p570
VSerperior
p571
sVempoleon
p572
VEmpoleon
p573
sVwooper
p574
VWooper
p575
sVforretress
p576
VForretress
p577
sVmindreader
p578
VMind Reader
p579
sVseaincense
p580
VSea Incense
p581
sVsimisage
p582
VSimisage
p583
sVarcheops
p584
VArcheops
p585
sVheavymetal
p586
VHeavy Metal
p587
sVwormadamsandy
p588
VWormadam-Sandy
p589
sVmuscleband
p590
VMuscle Band
p591
sVmatblock
p592
VMat Block
p593
sVpurrloin
p594
VPurrloin
p595
sVdoduo
p596
VDoduo
p597
sVmuk
p598
VMuk
p599
sVmotordrive
p600
VMotor Drive
p601
sVstarfberry
p602
VStarf Berry
p603
sVslowpoke
p604
VSlowpoke
p605
sVfrostbreath
p606
VFrost Breath
p607
sVcubone
p608
VCubone
p609
sVcut
p610
VCut
p611
sVmeadowplate
p612
VMeadow Plate
p613
sVparasect
p614
VParasect
p615
sVgourgeistsmall
p616
VGourgeist-Small
p617
sVrhydon
p618
VRhydon
p619
sVprotect
p620
VProtect
p621
sVplaynice
p622
VPlay Nice
p623
sVsamurott
p624
VSamurott
p625
sVmawile
p626
VMawile
p627
sVchimecho
p628
VChimecho
p629
sVpetayaberry
p630
VPetaya Berry
p631
sVdoublade
p632
VDoublade
p633
sVconfide
p634
VConfide
p635
sVluckychant
p636
VLucky Chant
p637
sVleppaberry
p638
VLeppa Berry
p639
sVchlorophyll
p640
VChlorophyll
p641
sVhitmontop
p642
VHitmontop
p643
sVfierydance
p644
VFiery Dance
p645
sVfloatzel
p646
VFloatzel
p647
sVsmackdown
p648
VSmack Down
p649
sVcyclohm
p650
VCyclohm
p651
sVbuneary
p652
VBuneary
p653
sVshockdrive
p654
VShock Drive
p655
sVnightdaze
p656
VNight Daze
p657
sVfriendguard
p658
VFriend Guard
p659
sVfrisk
p660
VFrisk
p661
sVsteamroller
p662
VSteamroller
p663
sVkakuna
p664
VKakuna
p665
sVpowertrick
p666
VPower Trick
p667
sVyanma
p668
VYanma
p669
sVmagiccoat
p670
VMagic Coat
p671
sVbonerush
p672
VBone Rush
p673
sVgurdurr
p674
VGurdurr
p675
sVsoundproof
p676
VSoundproof
p677
sVthrash
p678
VThrash
p679
sVchespin
p680
VChespin
p681
sVsliggoo
p682
VSliggoo
p683
sVtotodile
p684
VTotodile
p685
sVgarchompite
p686
VGarchompite
p687
sVslowbro
p688
VSlowbro
p689
sVigglybuff
p690
VIgglybuff
p691
sVbinacle
p692
VBinacle
p693
sVnevermeltice
p694
VNeverMeltIce
p695
sVgrowl
p696
VGrowl
p697
sVaguavberry
p698
VAguav Berry
p699
sVdrilbur
p700
VDrilbur
p701
sVheracross
p702
VHeracross
p703
sVralts
p704
VRalts
p705
sVpupitar
p706
VPupitar
p707
sVslowking
p708
VSlowking
p709
sVpowerherb
p710
VPower Herb
p711
sVnoivern
p712
VNoivern
p713
sVwaterfall
p714
VWaterfall
p715
sVdewgong
p716
VDewgong
p717
sVkirlia
p718
VKirlia
p719
sVknockoff
p720
VKnock Off
p721
sVoctazooka
p722
VOctazooka
p723
sS'cawmodore'
p724
S'Cawmodore'
p725
sVsylveon
p726
VSylveon
p727
sVhighjumpkick
p728
VHigh Jump Kick
p729
sVluxuryball
p730
VLuxury Ball
p731
sVhydration
p732
VHydration
p733
sVkrokorok
p734
VKrokorok
p735
sVgolbat
p736
VGolbat
p737
sVquilladin
p738
VQuilladin
p739
sVshellarmor
p740
VShell Armor
p741
sVpoliwag
p742
VPoliwag
p743
sVmetalcoat
p744
VMetal Coat
p745
sVthickclub
p746
VThick Club
p747
sVscizor
p748
VScizor
p749
sVgoomy
p750
VGoomy
p751
sVsilcoon
p752
VSilcoon
p753
sVbuggem
p754
VBug Gem
p755
sVoshawott
p756
VOshawott
p757
sVtorterra
p758
VTorterra
p759
sVtogepi
p760
VTogepi
p761
sVdomefossil
p762
VDome Fossil
p763
sVlowkick
p764
VLow Kick
p765
sVhealbell
p766
VHeal Bell
p767
sVmirrorshot
p768
VMirror Shot
p769
sVlickitung
p770
VLickitung
p771
sVdragonrush
p772
VDragon Rush
p773
sVspinarak
p774
VSpinarak
p775
sVdiggersby
p776
VDiggersby
p777
sVsilverwind
p778
VSilver Wind
p779
sVthundurustherian
p780
VThundurus-Therian
p781
sVludicolo
p782
VLudicolo
p783
sVditto
p784
VDitto
p785
sVcirclethrow
p786
VCircle Throw
p787
sVpsychoboost
p788
VPsycho Boost
p789
sVnidoqueen
p790
VNidoqueen
p791
sVpinsirmega
p792
VPinsir-Mega
p793
sVhiddenpowerpoison
p794
VHidden Power Poison
p795
sVflatter
p796
VFlatter
p797
sVtoxicspikes
p798
VToxic Spikes
p799
sVfirepledge
p800
VFire Pledge
p801
sVnoctowl
p802
VNoctowl
p803
sVcornnberry
p804
VCornn Berry
p805
sVskullfossil
p806
VSkull Fossil
p807
sVcheekpouch
p808
S'Cheek Pouch'
p809
sVuproar
p810
VUproar
p811
sVrhyperior
p812
VRhyperior
p813
sVgeargrind
p814
VGear Grind
p815
sVcrosschop
p816
VCross Chop
p817
sVpsyshock
p818
VPsyshock
p819
sVicyrock
p820
VIcy Rock
p821
sVwynaut
p822
VWynaut
p823
sVtrevenant
p824
VTrevenant
p825
sVabsorbbulb
p826
VAbsorb Bulb
p827
sS'bold'
p828
S'Bold'
p829
sVgunkshot
p830
VGunk Shot
p831
sVgarchomp
p832
VGarchomp
p833
sVgeodude
p834
VGeodude
p835
sVlightscreen
p836
VLight Screen
p837
sVwhimsicott
p838
VWhimsicott
p839
sVlavaplume
p840
VLava Plume
p841
sVkeeneye
p842
VKeen Eye
p843
sVsimipour
p844
VSimipour
p845
sVautotomize
p846
VAutotomize
p847
sVspikecannon
p848
VSpike Cannon
p849
sVnecturna
p850
VNecturna
p851
sVplus
p852
VPlus
p853
sVsapsipper
p854
VSap Sipper
p855
sVriolu
p856
VRiolu
p857
sVhornleech
p858
VHorn Leech
p859
sVbraixen
p860
VBraixen
p861
sVdarkvoid
p862
VDark Void
p863
sVhoundour
p864
VHoundour
p865
sVdualchop
p866
VDual Chop
p867
sVfoulplay
p868
VFoul Play
p869
sVscyther
p870
VScyther
p871
sVgalewings
p872
S'Gale Wings'
p873
sVstormdrain
p874
VStorm Drain
p875
sVseadra
p876
VSeadra
p877
sVovergrow
p878
VOvergrow
p879
sVgengarmega
p880
VGengar-Mega
p881
sVshellos
p882
VShellos
p883
sVwrap
p884
VWrap
p885
sVcorsola
p886
VCorsola
p887
sVtransform
p888
VTransform
p889
sVklefki
p890
VKlefki
p891
sVrowapberry
p892
VRowap Berry
p893
sS'quirky'
p894
S'Quirky'
p895
sVquickattack
p896
VQuick Attack
p897
sVsynthesis
p898
VSynthesis
p899
sVmultiscale
p900
VMultiscale
p901
sVgroundgem
p902
VGround Gem
p903
sVreshiram
p904
VReshiram
p905
sVrocksmash
p906
VRock Smash
p907
sVvolttackle
p908
VVolt Tackle
p909
sVghostgem
p910
VGhost Gem
p911
sVroughskin
p912
VRough Skin
p913
sVsafeguard
p914
VSafeguard
p915
sVsmoothrock
p916
VSmooth Rock
p917
sVbide
p918
VBide
p919
sVaurabreak
p920
S'Aura Break'
p921
sVaurorus
p922
VAurorus
p923
sVchopleberry
p924
VChople Berry
p925
sVunnerve
p926
VUnnerve
p927
sVpaleowave
p928
VPaleo Wave
p929
sVparentalbond
p930
S'Parental Bond'
p931
sVferaligatr
p932
VFeraligatr
p933
sVoddish
p934
VOddish
p935
sVleer
p936
VLeer
p937
sVmagby
p938
VMagby
p939
sVswadloon
p940
VSwadloon
p941
sVvibrava
p942
VVibrava
p943
sVuxie
p944
VUxie
p945
sVsmoochum
p946
VSmoochum
p947
sVlansatberry
p948
VLansat Berry
p949
sVbutterfree
p950
VButterfree
p951
sVferroseed
p952
VFerroseed
p953
sVamaura
p954
VAmaura
p955
sVfennekin
p956
VFennekin
p957
sVclawfossil
p958
VClaw Fossil
p959
sVdischarge
p960
VDischarge
p961
sVpoisonpoint
p962
VPoison Point
p963
sVhiddenpowerground
p964
VHidden Power Ground
p965
sVarceuspoison
p966
VArceus-Poison
p967
sVliechiberry
p968
VLiechi Berry
p969
sVlillipup
p970
VLillipup
p971
sVflareboost
p972
VFlare Boost
p973
sVmareep
p974
VMareep
p975
sVoccaberry
p976
VOcca Berry
p977
sVironfist
p978
VIron Fist
p979
sS'serious'
p980
S'Serious'
p981
sVmegadrain
p982
VMega Drain
p983
sVsalacberry
p984
VSalac Berry
p985
sVsnubbull
p986
VSnubbull
p987
sVsandveil
p988
VSand Veil
p989
sVabsolite
p990
VAbsolite
p991
sVbonsly
p992
VBonsly
p993
sVcelebi
p994
VCelebi
p995
sVavalanche
p996
VAvalanche
p997
sVshadowsneak
p998
VShadow Sneak
p999
sVsuctioncups
p1000
VSuction Cups
p1001
sVsuperpower
p1002
VSuperpower
p1003
sVanticipation
p1004
VAnticipation
p1005
sVpanpour
p1006
VPanpour
p1007
sVdragonpulse
p1008
VDragon Pulse
p1009
sVelectroball
p1010
VElectro Ball
p1011
sVflash
p1012
VFlash
p1013
sVnetball
p1014
VNet Ball
p1015
sVcharge
p1016
VCharge
p1017
sVquash
p1018
VQuash
p1019
sVsnorlax
p1020
VSnorlax
p1021
sVunburden
p1022
VUnburden
p1023
sVrufflet
p1024
VRufflet
p1025
sVmachamp
p1026
VMachamp
p1027
sVkricketune
p1028
VKricketune
p1029
sVtailslap
p1030
VTail Slap
p1031
sVjynx
p1032
VJynx
p1033
sVlopunny
p1034
VLopunny
p1035
sVtoxicplate
p1036
VToxic Plate
p1037
sVskyuppercut
p1038
VSky Uppercut
p1039
sVpoisonsting
p1040
VPoison Sting
p1041
sVarceusfire
p1042
VArceus-Fire
p1043
sVfocusblast
p1044
VFocus Blast
p1045
sVmesprit
p1046
VMesprit
p1047
sVmagnet
p1048
VMagnet
p1049
sVbanettemega
p1050
VBanette-Mega
p1051
sVround
p1052
VRound
p1053
sVunaware
p1054
VUnaware
p1055
sVduskball
p1056
VDusk Ball
p1057
sVfalseswipe
p1058
VFalse Swipe
p1059
sVtalonflame
p1060
VTalonflame
p1061
sVleafeon
p1062
VLeafeon
p1063
sVzorua
p1064
VZorua
p1065
sVzenmode
p1066
VZen Mode
p1067
sVvitalthrow
p1068
VVital Throw
p1069
sVsubstitute
p1070
VSubstitute
p1071
sVcurse
p1072
VCurse
p1073
sVfocusband
p1074
VFocus Band
p1075
sVmoltres
p1076
VMoltres
p1077
sVpasshoberry
p1078
VPassho Berry
p1079
sVdragondance
p1080
VDragon Dance
p1081
sVaxew
p1082
VAxew
p1083
sVkecleon
p1084
VKecleon
p1085
sVglameow
p1086
VGlameow
p1087
sVaeroblast
p1088
VAeroblast
p1089
sVwartortle
p1090
VWartortle
p1091
sVexplosion
p1092
VExplosion
p1093
sVmiracleeye
p1094
VMiracle Eye
p1095
sVpumpkaboo
p1096
VPumpkaboo
p1097
sVsimisear
p1098
VSimisear
p1099
sS'hoopa'
p1100
S'Hoopa'
p1101
sVtropius
p1102
VTropius
p1103
sVmysticwater
p1104
VMystic Water
p1105
sVearthquake
p1106
VEarthquake
p1107
sVgastroacid
p1108
VGastro Acid
p1109
sVejectbutton
p1110
VEject Button
p1111
sVexploud
p1112
VExploud
p1113
sVdiveball
p1114
VDive Ball
p1115
sVsawk
p1116
VSawk
p1117
sVodorsleuth
p1118
VOdor Sleuth
p1119
sVdedenne
p1120
VDedenne
p1121
sVdragonite
p1122
VDragonite
p1123
sVbagon
p1124
VBagon
p1125
sVregenerator
p1126
VRegenerator
p1127
sViondeluge
p1128
VIon Deluge
p1129
sVburndrive
p1130
VBurn Drive
p1131
sVmudslap
p1132
VMud-Slap
p1133
sVflaaffy
p1134
VFlaaffy
p1135
sVmagicroom
p1136
VMagic Room
p1137
sVampharosite
p1138
VAmpharosite
p1139
sVpinsirite
p1140
VPinsirite
p1141
sVheavyslam
p1142
VHeavy Slam
p1143
sVpinmissile
p1144
VPin Missile
p1145
sVcaptivate
p1146
VCaptivate
p1147
sVsharpen
p1148
VSharpen
p1149
sVswagger
p1150
VSwagger
p1151
sVxatu
p1152
VXatu
p1153
sVrockslide
p1154
VRock Slide
p1155
sVcaterpie
p1156
VCaterpie
p1157
sVhypno
p1158
VHypno
p1159
sVelectrike
p1160
VElectrike
p1161
sVfletchling
p1162
VFletchling
p1163
sVseismictoss
p1164
VSeismic Toss
p1165
sVdarumaka
p1166
VDarumaka
p1167
sVuturn
p1168
VU-turn
p1169
sVflygon
p1170
VFlygon
p1171
sVsandstorm
p1172
VSandstorm
p1173
sVswablu
p1174
VSwablu
p1175
sVspikyshield
p1176
VSpiky Shield
p1177
sVscolipede
p1178
VScolipede
p1179
sVdwebble
p1180
VDwebble
p1181
sVpignite
p1182
VPignite
p1183
sVsolarpower
p1184
VSolar Power
p1185
sVdonphan
p1186
VDonphan
p1187
sVpalpitoad
p1188
VPalpitoad
p1189
sVchilldrive
p1190
VChill Drive
p1191
sVnormalize
p1192
VNormalize
p1193
sVbanette
p1194
VBanette
p1195
sVtailwind
p1196
VTailwind
p1197
sVwideguard
p1198
VWide Guard
p1199
sVeelektrik
p1200
VEelektrik
p1201
sVarbok
p1202
VArbok
p1203
sVelectricterrain
p1204
VElectric Terrain
p1205
sVoctillery
p1206
VOctillery
p1207
sVvenonat
p1208
VVenonat
p1209
sVteleport
p1210
VTeleport
p1211
sVdive
p1212
VDive
p1213
sVmamoswine
p1214
VMamoswine
p1215
sVwiseglasses
p1216
VWise Glasses
p1217
sVmilkdrink
p1218
VMilk Drink
p1219
sVancientpower
p1220
VAncient Power
p1221
sVblissey
p1222
VBlissey
p1223
sVcryogonal
p1224
VCryogonal
p1225
sVsupersonic
p1226
VSupersonic
p1227
sVdelibird
p1228
VDelibird
p1229
sVmalamar
p1230
VMalamar
p1231
sVarceusghost
p1232
VArceus-Ghost
p1233
sVlitwick
p1234
VLitwick
p1235
sVthunderpunch
p1236
VThunder Punch
p1237
sVlugia
p1238
VLugia
p1239
sVbulletseed
p1240
VBullet Seed
p1241
sVbubblebeam
p1242
VBubbleBeam
p1243
sVpachirisu
p1244
VPachirisu
p1245
sVchilanberry
p1246
VChilan Berry
p1247
sVarcanine
p1248
VArcanine
p1249
sVsneasel
p1250
VSneasel
p1251
sVgrassknot
p1252
VGrass Knot
p1253
sVklutz
p1254
VKlutz
p1255
sVbulldoze
p1256
VBulldoze
p1257
sVfocusenergy
p1258
VFocus Energy
p1259
sVslackoff
p1260
VSlack Off
p1261
sVkabuto
p1262
VKabuto
p1263
sVmail
p1264
VMail
p1265
sVgarchompmega
p1266
VGarchomp-Mega
p1267
sS'lonely'
p1268
S'Lonely'
p1269
sVfling
p1270
VFling
p1271
sVrattled
p1272
VRattled
p1273
sS'bashful'
p1274
S'Bashful'
p1275
sVfusionflare
p1276
VFusion Flare
p1277
sVsafariball
p1278
VSafari Ball
p1279
sVeffectspore
p1280
VEffect Spore
p1281
sVboomburst
p1282
VBoomburst
p1283
sVlinoone
p1284
VLinoone
p1285
sVsynchronize
p1286
VSynchronize
p1287
sVmantine
p1288
VMantine
p1289
sVglalie
p1290
VGlalie
p1291
sVpsyduck
p1292
VPsyduck
p1293
sVrockthrow
p1294
VRock Throw
p1295
sVswalot
p1296
VSwalot
p1297
sVgenesectburn
p1298
VGenesect-Burn
p1299
sVporygonz
p1300
VPorygon-Z
p1301
sVstrugglebug
p1302
VStruggle Bug
p1303
sVpersian
p1304
VPersian
p1305
sVshaymin
p1306
VShaymin
p1307
sVpidove
p1308
VPidove
p1309
sVskillswap
p1310
VSkill Swap
p1311
sVassurance
p1312
VAssurance
p1313
sVpoochyena
p1314
VPoochyena
p1315
sVporygon2
p1316
VPorygon2
p1317
sViciclecrash
p1318
VIcicle Crash
p1319
sVsteelwing
p1320
VSteel Wing
p1321
sVdig
p1322
VDig
p1323
sVpetilil
p1324
VPetilil
p1325
sVtelepathy
p1326
VTelepathy
p1327
sVnidorino
p1328
VNidorino
p1329
sVmeloettapirouette
p1330
VMeloetta-Pirouette
p1331
sVnidorina
p1332
VNidorina
p1333
sVhypnosis
p1334
VHypnosis
p1335
sVdurinberry
p1336
VDurin Berry
p1337
sVdragonrage
p1338
VDragon Rage
p1339
sVjolteon
p1340
VJolteon
p1341
sVdefensecurl
p1342
VDefense Curl
p1343
sVchikorita
p1344
VChikorita
p1345
sVrockyhelmet
p1346
VRocky Helmet
p1347
sVjabocaberry
p1348
VJaboca Berry
p1349
sVhoppip
p1350
VHoppip
p1351
sViceshard
p1352
VIce Shard
p1353
sVgiratina
p1354
VGiratina
p1355
sVteravolt
p1356
VTeravolt
p1357
sVbite
p1358
VBite
p1359
sVduosion
p1360
VDuosion
p1361
sVaromatherapy
p1362
VAromatherapy
p1363
sVsleeptalk
p1364
VSleep Talk
p1365
sVconfuseray
p1366
VConfuse Ray
p1367
sVgliscor
p1368
VGliscor
p1369
sVseedot
p1370
VSeedot
p1371
sVsnatch
p1372
VSnatch
p1373
sVbunnelby
p1374
VBunnelby
p1375
sVdrapion
p1376
VDrapion
p1377
sVpeck
p1378
VPeck
p1379
sVwormadamtrash
p1380
VWormadam-Trash
p1381
sVmawilite
p1382
VMawilite
p1383
sVgarbodor
p1384
VGarbodor
p1385
sVtrickortreat
p1386
VTrick-or-Treat
p1387
sVvirizion
p1388
VVirizion
p1389
sVhiddenpowerrock
p1390
VHidden Power Rock
p1391
sVrazzberry
p1392
VRazz Berry
p1393
sVlick
p1394
VLick
p1395
sVslam
p1396
VSlam
p1397
sVsandstream
p1398
VSand Stream
p1399
sVledyba
p1400
VLedyba
p1401
sVaquatail
p1402
VAqua Tail
p1403
sVkrilowatt
p1404
VKrilowatt
p1405
sVrecover
p1406
VRecover
p1407
sVconversion
p1408
VConversion
p1409
sVtwineedle
p1410
VTwineedle
p1411
sVhiddenpowerdark
p1412
VHidden Power Dark
p1413
sVmetalsound
p1414
VMetal Sound
p1415
sVarghonaut
p1416
VArghonaut
p1417
sVbeedrill
p1418
VBeedrill
p1419
sVsurf
p1420
VSurf
p1421
sVgriseousorb
p1422
VGriseous Orb
p1423
sVmountaineer
p1424
VMountaineer
p1425
sVstunky
p1426
VStunky
p1427
sVtrace
p1428
VTrace
p1429
sVtynamo
p1430
VTynamo
p1431
sVearthplate
p1432
VEarth Plate
p1433
sVdarkrai
p1434
VDarkrai
p1435
sVbarrage
p1436
VBarrage
p1437
sVbonemerang
p1438
VBonemerang
p1439
sVstunfisk
p1440
VStunfisk
p1441
sVadaptability
p1442
VAdaptability
p1443
sVespurr
p1444
VEspurr
p1445
sVleaftornado
p1446
VLeaf Tornado
p1447
sVhyperfang
p1448
VHyper Fang
p1449
sVdracoplate
p1450
VDraco Plate
p1451
sVelectirizer
p1452
VElectirizer
p1453
sVmollux
p1454
VMollux
p1455
sVmuddywater
p1456
VMuddy Water
p1457
sVcompoundeyes
p1458
VCompound Eyes
p1459
sVdelphox
p1460
VDelphox
p1461
sVtintedlens
p1462
VTinted Lens
p1463
sVgolurk
p1464
VGolurk
p1465
sVfigyberry
p1466
VFigy Berry
p1467
sVgoodra
p1468
VGoodra
p1469
sVrevenankh
p1470
VRevenankh
p1471
sVvolbeat
p1472
VVolbeat
p1473
sVlarvesta
p1474
VLarvesta
p1475
sVpartingshot
p1476
VParting Shot
p1477
sVpatrat
p1478
VPatrat
p1479
sVacupressure
p1480
VAcupressure
p1481
sVanalytic
p1482
VAnalytic
p1483
sVgrasspledge
p1484
VGrass Pledge
p1485
sVoutrage
p1486
VOutrage
p1487
sVleavanny
p1488
VLeavanny
p1489
sVkinesis
p1490
VKinesis
p1491
sVweaknesspolicy
p1492
VWeakness Policy
p1493
sVstomp
p1494
VStomp
p1495
sVboneclub
p1496
VBone Club
p1497
sVtelekinesis
p1498
VTelekinesis
p1499
sVmoxie
p1500
VMoxie
p1501
sVshuppet
p1502
VShuppet
p1503
sVparkball
p1504
VPark Ball
p1505
sVspewpa
p1506
VSpewpa
p1507
sVwonderskin
p1508
VWonder Skin
p1509
sVfakeout
p1510
VFake Out
p1511
sVimposter
p1512
VImposter
p1513
sVspore
p1514
VSpore
p1515
sVquagsire
p1516
VQuagsire
p1517
sVdetect
p1518
VDetect
p1519
sVsteadfast
p1520
VSteadfast
p1521
sVlimber
p1522
VLimber
p1523
sVbatonpass
p1524
VBaton Pass
p1525
sVforecast
p1526
VForecast
p1527
sVmysticalfire
p1528
VMystical Fire
p1529
sVsnowwarning
p1530
VSnow Warning
p1531
sVjustified
p1532
VJustified
p1533
sVdamprock
p1534
VDamp Rock
p1535
sVhariyama
p1536
VHariyama
p1537
sVcrawdaunt
p1538
VCrawdaunt
p1539
sVpluck
p1540
VPluck
p1541
sVspark
p1542
VSpark
p1543
sVroseincense
p1544
VRose Incense
p1545
sVspoink
p1546
VSpoink
p1547
sVvictreebel
p1548
VVictreebel
p1549
sVdestinyknot
p1550
VDestiny Knot
p1551
sVskiddo
p1552
VSkiddo
p1553
sVrhyhorn
p1554
VRhyhorn
p1555
sVsteelix
p1556
VSteelix
p1557
sVnestball
p1558
VNest Ball
p1559
sVkrookodile
p1560
VKrookodile
p1561
sVcellbattery
p1562
VCell Battery
p1563
sVwingattack
p1564
VWing Attack
p1565
sVnormalgem
p1566
VNormal Gem
p1567
sVhiddenpowersteel
p1568
VHidden Power Steel
p1569
sVtyranitarite
p1570
VTyranitarite
p1571
sVdodrio
p1572
VDodrio
p1573
sVstancechange
p1574
VStance Change
p1575
sVzapdos
p1576
VZapdos
p1577
sVendeavor
p1578
VEndeavor
p1579
sVechoedvoice
p1580
VEchoed Voice
p1581
sVrunaway
p1582
VRun Away
p1583
sVlandswrath
p1584
VLand's Wrath
p1585
sVmawilemega
p1586
VMawile-Mega
p1587
sVlightmetal
p1588
VLight Metal
p1589
sVstunspore
p1590
VStun Spore
p1591
sVxerneas
p1592
VXerneas
p1593
sVgigalith
p1594
VGigalith
p1595
sVspiderweb
p1596
VSpider Web
p1597
sVheatrock
p1598
VHeat Rock
p1599
sVflamebody
p1600
VFlame Body
p1601
sVhelioptile
p1602
VHelioptile
p1603
sVcresselia
p1604
VCresselia
p1605
sVomanyte
p1606
VOmanyte
p1607
sVbreloom
p1608
VBreloom
p1609
sVstormthrow
p1610
VStorm Throw
p1611
sVhealblock
p1612
VHeal Block
p1613
sVswanna
p1614
VSwanna
p1615
sVluminousmoss
p1616
VLuminous Moss
p1617
sS'careful'
p1618
S'Careful'
p1619
sVmudshot
p1620
VMud Shot
p1621
sVdefeatist
p1622
VDefeatist
p1623
sVshockwave
p1624
VShock Wave
p1625
sVlandorus
p1626
VLandorus
p1627
sVgroudon
p1628
VGroudon
p1629
sS'quiet'
p1630
S'Quiet'
p1631
sVgrasswhistle
p1632
VGrassWhistle
p1633
sVshadowclaw
p1634
VShadow Claw
p1635
sVsacredfire
p1636
VSacred Fire
p1637
sVmonferno
p1638
VMonferno
p1639
sVvicegrip
p1640
VViceGrip
p1641
sVgourgeistlarge
p1642
VGourgeist-Large
p1643
sVcubchoo
p1644
VCubchoo
p1645
sVhiddenpowerice
p1646
VHidden Power Ice
p1647
sVextremespeed
p1648
VExtreme Speed
p1649
sVangerpoint
p1650
VAnger Point
p1651
sVphantomforce
p1652
VPhantom Force
p1653
sVstrongjaw
p1654
VStrong Jaw
p1655
sVnuzzle
p1656
VNuzzle
p1657
sVthunderbolt
p1658
VThunderbolt
p1659
sVgenesectshock
p1660
VGenesect-Shock
p1661
sVmagnetbomb
p1662
VMagnet Bomb
p1663
sVassist
p1664
VAssist
p1665
sVblaziken
p1666
VBlaziken
p1667
sS'bulletproof'
p1668
S'Bulletproof'
p1669
sVgligar
p1670
VGligar
p1671
sVnightmare
p1672
VNightmare
p1673
sVpangoro
p1674
VPangoro
p1675
sVhypervoice
p1676
VHyper Voice
p1677
sVminimize
p1678
VMinimize
p1679
sVdoublehit
p1680
VDouble Hit
p1681
sVmedicham
p1682
VMedicham
p1683
sVheatmor
p1684
VHeatmor
p1685
sVrockgem
p1686
VRock Gem
p1687
sVmetalburst
p1688
VMetal Burst
p1689
sVfurcoat
p1690
S'Fur Coat'
p1691
sVhealingwish
p1692
VHealing Wish
p1693
sVquickguard
p1694
VQuick Guard
p1695
sVwingull
p1696
VWingull
p1697
sVrest
p1698
VRest
p1699
sVfurfrou
p1700
VFurfrou
p1701
sVchimchar
p1702
VChimchar
p1703
sVdarkaura
p1704
S'Dark Aura'
p1705
sVrazorclaw
p1706
VRazor Claw
p1707
sVdragonbreath
p1708
VDragon Breath
p1709
sVelgyem
p1710
VElgyem
p1711
sVduskull
p1712
VDuskull
p1713
sVcometpunch
p1714
VComet Punch
p1715
sVaerialace
p1716
VAerial Ace
p1717
sVparas
p1718
VParas
p1719
sVskitty
p1720
VSkitty
p1721
sVflareblitz
p1722
VFlare Blitz
p1723
sVtrubbish
p1724
VTrubbish
p1725
sVsnarl
p1726
VSnarl
p1727
sVmachpunch
p1728
VMach Punch
p1729
sVsunkern
p1730
VSunkern
p1731
sVcolossoil
p1732
VColossoil
p1733
sVdreamball
p1734
VDream Ball
p1735
sVsnore
p1736
VSnore
p1737
sVfloatstone
p1738
VFloat Stone
p1739
sVskiploom
p1740
VSkiploom
p1741
sVregigigas
p1742
VRegigigas
p1743
sVvoltswitch
p1744
VVolt Switch
p1745
sVarceusrock
p1746
VArceus-Rock
p1747
sVbrightpowder
p1748
VBrightPowder
p1749
sVhypercutter
p1750
VHyper Cutter
p1751
sVvanillite
p1752
VVanillite
p1753
sVchoiceband
p1754
VChoice Band
p1755
sVheartswap
p1756
VHeart Swap
p1757
sVpinapberry
p1758
VPinap Berry
p1759
sVminccino
p1760
VMinccino
p1761
sVrefresh
p1762
VRefresh
p1763
sVprinplup
p1764
VPrinplup
p1765
sVultraball
p1766
VUltra Ball
p1767
sVcrustle
p1768
VCrustle
p1769
sVpowergem
p1770
VPower Gem
p1771
sViceburn
p1772
VIce Burn
p1773
sVbattlearmor
p1774
VBattle Armor
p1775
sS'volcanion'
p1776
S'Volcanion'
p1777
sVcastformsnowy
p1778
VCastform-Snowy
p1779
sVhustle
p1780
VHustle
p1781
sVthroh
p1782
VThroh
p1783
sVmusharna
p1784
VMusharna
p1785
sVinnerfocus
p1786
VInner Focus
p1787
sVbasculinbluestriped
p1788
VBasculin-Blue-Striped
p1789
sVhornattack
p1790
VHorn Attack
p1791
sVzapcannon
p1792
VZap Cannon
p1793
sVroar
p1794
VRoar
p1795
sVlockon
p1796
VLock-On
p1797
sVfloette
p1798
VFloette
p1799
sVgengar
p1800
VGengar
p1801
sVswampert
p1802
VSwampert
p1803
sVgolem
p1804
VGolem
p1805
sVquilava
p1806
VQuilava
p1807
sVcustapberry
p1808
VCustap Berry
p1809
sVsearingshot
p1810
VSearing Shot
p1811
sVstratagem
p1812
VStratagem
p1813
sVpyroar
p1814
VPyroar
p1815
sVshadowpunch
p1816
VShadow Punch
p1817
sVfocuspunch
p1818
VFocus Punch
p1819
sVtoughclaws
p1820
VTough Claws
p1821
sVstruggle
p1822
VStruggle
p1823
sViciclespear
p1824
VIcicle Spear
p1825
sVpyroak
p1826
VPyroak
p1827
sVsacredsword
p1828
VSacred Sword
p1829
sVhex
p1830
VHex
p1831
sVmarill
p1832
VMarill
p1833
sVsymbiosis
p1834
VSymbiosis
p1835
sVwillowisp
p1836
VWill-O-Wisp
p1837
sVsandrush
p1838
VSand Rush
p1839
sVbubble
p1840
VBubble
p1841
sVsealeo
p1842
VSealeo
p1843
sVglaciate
p1844
VGlaciate
p1845
sVnightshade
p1846
VNight Shade
p1847
sVfrogadier
p1848
VFrogadier
p1849
sVporygon
p1850
VPorygon
p1851
sVstantler
p1852
VStantler
p1853
sVvitalspirit
p1854
VVital Spirit
p1855
sVsnover
p1856
VSnover
p1857
sVrage
p1858
VRage
p1859
sVvictorystar
p1860
VVictory Star
p1861
sVvinewhip
p1862
VVine Whip
p1863
sVstoneplate
p1864
VStone Plate
p1865
sVsheercold
p1866
VSheer Cold
p1867
sVsplashplate
p1868
VSplash Plate
p1869
sVpowdersnow
p1870
VPowder Snow
p1871
sVclamperl
p1872
VClamperl
p1873
sVchesnaught
p1874
VChesnaught
p1875
sVdugtrio
p1876
VDugtrio
p1877
sVsmokescreen
p1878
VSmokeScreen
p1879
sVmoonblast
p1880
VMoonblast
p1881
sVcolburberry
p1882
VColbur Berry
p1883
sVhorndrill
p1884
VHorn Drill
p1885
sVaegislash
p1886
VAegislash
p1887
sVimmunity
p1888
VImmunity
p1889
sVtangela
p1890
VTangela
p1891
sVcharizard
p1892
VCharizard
p1893
sVnincada
p1894
VNincada
p1895
sVgraveler
p1896
VGraveler
p1897
sVmirrorcoat
p1898
VMirror Coat
p1899
sVemboar
p1900
VEmboar
p1901
sVdustox
p1902
VDustox
p1903
sVrootfossil
p1904
VRoot Fossil
p1905
sVtackle
p1906
VTackle
p1907
sVrotomwash
p1908
VRotom-Wash
p1909
sVgrudge
p1910
VGrudge
p1911
sVcyndaquil
p1912
VCyndaquil
p1913
sVblueflare
p1914
VBlue Flare
p1915
sVdefog
p1916
VDefog
p1917
sVskyattack
p1918
VSky Attack
p1919
sVmoonlight
p1920
VMoonlight
p1921
sVmimic
p1922
VMimic
p1923
sVstockpile
p1924
VStockpile
p1925
sVoddincense
p1926
VOdd Incense
p1927
sVgardevoirmega
p1928
VGardevoir-Mega
p1929
sVlairon
p1930
VLairon
p1931
sVeerieimpulse
p1932
VEerie Impulse
p1933
sVscrappy
p1934
VScrappy
p1935
sVtogetic
p1936
VTogetic
p1937
sVfirepunch
p1938
VFire Punch
p1939
sVunfezant
p1940
VUnfezant
p1941
sVmicleberry
p1942
VMicle Berry
p1943
sVlightningrod
p1944
VLightningrod
p1945
sVgigadrain
p1946
VGiga Drain
p1947
sVtornadustherian
p1948
VTornadus-Therian
p1949
sVvanillish
p1950
VVanillish
p1951
sVvenomdrench
p1952
VVenom Drench
p1953
sVbayleef
p1954
VBayleef
p1955
sVhondewberry
p1956
VHondew Berry
p1957
sVtympole
p1958
VTympole
p1959
sVwigglytuff
p1960
VWigglytuff
p1961
sVtyranitarmega
p1962
VTyranitar-Mega
p1963
sVicepunch
p1964
VIce Punch
p1965
sVgalvantula
p1966
VGalvantula
p1967
sVcombusken
p1968
VCombusken
p1969
sVcloudnine
p1970
VCloud Nine
p1971
sVmienshao
p1972
VMienshao
p1973
sVkeeberry
p1974
VKee Berry
p1975
sS'mild'
p1976
S'Mild'
p1977
sVscrafty
p1978
VScrafty
p1979
sVsecretpower
p1980
VSecret Power
p1981
sVshadowtag
p1982
VShadow Tag
p1983
sVsawsbuck
p1984
VSawsbuck
p1985
sVdoublekick
p1986
VDouble Kick
p1987
sViceball
p1988
VIce Ball
p1989
sVflorges
p1990
VFlorges
p1991
sVgourgeistsuper
p1992
VGourgeist-Super
p1993
sVironbarbs
p1994
VIron Barbs
p1995
sValtaria
p1996
VAltaria
p1997
sVcrushgrip
p1998
VCrush Grip
p1999
sVseedbomb
p2000
VSeed Bomb
p2001
sVmeganium
p2002
VMeganium
p2003
sVchipaway
p2004
VChip Away
p2005
sVmetalclaw
p2006
VMetal Claw
p2007
sVfeatherdance
p2008
VFeatherDance
p2009
sVtrick
p2010
VTrick
p2011
sVironplate
p2012
VIron Plate
p2013
sVgreatball
p2014
VGreat Ball
p2015
sVfellstinger
p2016
VFell Stinger
p2017
sVaurorabeam
p2018
VAurora Beam
p2019
sVheartstamp
p2020
VHeart Stamp
p2021
sVboldore
p2022
VBoldore
p2023
sVchoicescarf
p2024
VChoice Scarf
p2025
sVdragonfang
p2026
VDragon Fang
p2027
sVgastly
p2028
VGastly
p2029
sVclearsmog
p2030
VClear Smog
p2031
sVvenusaurmega
p2032
VVenusaur-Mega
p2033
sVinfernape
p2034
VInfernape
p2035
sVweezing
p2036
VWeezing
p2037
sVaromatisse
p2038
VAromatisse
p2039
sVkyuremwhite
p2040
VKyurem-White
p2041
sVacidspray
p2042
VAcid Spray
p2043
sVarmaldo
p2044
VArmaldo
p2045
sVkyurem
p2046
VKyurem
p2047
sVwringout
p2048
VWring Out
p2049
sVstarly
p2050
VStarly
p2051
sVhawlucha
p2052
VHawlucha
p2053
sVgolett
p2054
VGolett
p2055
sVgyaradosmega
p2056
VGyarados-Mega
p2057
sVgallade
p2058
VGallade
p2059
sVledian
p2060
VLedian
p2061
sVluvdisc
p2062
VLuvdisc
p2063
sVhelixfossil
p2064
VHelix Fossil
p2065
sVsplash
p2066
VSplash
p2067
sVillumise
p2068
VIllumise
p2069
sVgirafarig
p2070
VGirafarig
p2071
sVanorith
p2072
VAnorith
p2073
sVdizzypunch
p2074
VDizzy Punch
p2075
sVflyingpress
p2076
VFlying Press
p2077
sVpumpkaboosuper
p2078
VPumpkaboo-Super
p2079
sVhorsea
p2080
VHorsea
p2081
sVstick
p2082
VStick
p2083
sVrazorfang
p2084
VRazor Fang
p2085
sVwatergem
p2086
VWater Gem
p2087
sVturboblaze
p2088
VTurboblaze
p2089
sVaegislashblade
p2090
VAegislash-Blade
p2091
sVnaturalgift
p2092
VNatural Gift
p2093
sVenergypowder
p2094
VEnergyPowder
p2095
sVchartiberry
p2096
VCharti Berry
p2097
sVlumberry
p2098
VLum Berry
p2099
sVvoltorb
p2100
VVoltorb
p2101
sVskyplate
p2102
VSky Plate
p2103
sVsableye
p2104
VSableye
p2105
sVseviper
p2106
VSeviper
p2107
sVmarvelscale
p2108
VMarvel Scale
p2109
sVaurumoth
p2110
VAurumoth
p2111
sVslakoth
p2112
VSlakoth
p2113
sVstaryu
p2114
VStaryu
p2115
sVnightslash
p2116
VNight Slash
p2117
sVwikiberry
p2118
VWiki Berry
p2119
sVextrasensory
p2120
VExtrasensory
p2121
sVdrainpunch
p2122
VDrain Punch
p2123
sVshelmet
p2124
VShelmet
p2125
sVflyinggem
p2126
VFlying Gem
p2127
sVbulkup
p2128
VBulk Up
p2129
sVglaceon
p2130
VGlaceon
p2131
sVwonderguard
p2132
VWonder Guard
p2133
sVelectricgem
p2134
VElectric Gem
p2135
sVrotomfan
p2136
VRotom-Fan
p2137
sVsignalbeam
p2138
VSignal Beam
p2139
sVshuckle
p2140
VShuckle
p2141
sVreflect
p2142
VReflect
p2143
sVdisable
p2144
VDisable
p2145
sVliquidooze
p2146
VLiquid Ooze
p2147
sVmedichammega
p2148
VMedicham-Mega
p2149
sVtwistedspoon
p2150
VTwistedSpoon
p2151
sVlanturn
p2152
VLanturn
p2153
sVparaboliccharge
p2154
VParabolic Charge
p2155
sVretaliate
p2156
VRetaliate
p2157
sVcorphish
p2158
VCorphish
p2159
sVbigpecks
p2160
VBig Pecks
p2161
sVwatmelberry
p2162
VWatmel Berry
p2163
sVoblivious
p2164
VOblivious
p2165
sVarticuno
p2166
VArticuno
p2167
sVfissure
p2168
VFissure
p2169
sVvolcarona
p2170
VVolcarona
p2171
sVblackglasses
p2172
VBlackGlasses
p2173
sVplayrough
p2174
VPlay Rough
p2175
sVhealorder
p2176
VHeal Order
p2177
sVjigglypuff
p2178
VJigglypuff
p2179
sVsandslash
p2180
VSandslash
p2181
sVastonish
p2182
VAstonish
p2183
sVenergyball
p2184
VEnergy Ball
p2185
sVaggron
p2186
VAggron
p2187
sVlampent
p2188
VLampent
p2189
sVfistplate
p2190
VFist Plate
p2191
sVreturn
p2192
VReturn
p2193
sVmanectricmega
p2194
VManectric-Mega
p2195
sVsnowball
p2196
VSnowball
p2197
sVmrmime
p2198
VMr. Mime
p2199
sVcharizardmegax
p2200
VCharizard-Mega-X
p2201
sVcharizardmegay
p2202
VCharizard-Mega-Y
p2203
sVclefable
p2204
VClefable
p2205
sVskuntank
p2206
VSkuntank
p2207
sVprimeape
p2208
VPrimeape
p2209
sVgabite
p2210
VGabite
p2211
sVmissingno
p2212
VMissingno.
p2213
sVbellsprout
p2214
VBellsprout
p2215
sVlovelykiss
p2216
VLovely Kiss
p2217
sVmeanlook
p2218
VMean Look
p2219
sVclamp
p2220
VClamp
p2221
sVtopsyturvy
p2222
VTopsy-turvy
p2223
sVquickfeet
p2224
VQuick Feet
p2225
sVwatershuriken
p2226
VWater Shuriken
p2227
sVraichu
p2228
VRaichu
p2229
sVmagnezone
p2230
VMagnezone
p2231
sVtrickroom
p2232
VTrick Room
p2233
sVstoredpower
p2234
VStored Power
p2235
sVhiddenpowerpsychic
p2236
VHidden Power Psychic
p2237
sVelectroweb
p2238
VElectroweb
p2239
sS'jolly'
p2240
S'Jolly'
p2241
sVsalamence
p2242
VSalamence
p2243
sVarceuswater
p2244
VArceus-Water
p2245
sVsuperfang
p2246
VSuper Fang
p2247
sVcombee
p2248
VCombee
p2249
sVroggenrola
p2250
VRoggenrola
p2251
sVironhead
p2252
VIron Head
p2253
sVsentret
p2254
VSentret
p2255
sVpichuspikyeared
p2256
VPichu-Spiky-eared
p2257
sVtyrogue
p2258
VTyrogue
p2259
sVcleffa
p2260
VCleffa
p2261
sVwaterabsorb
p2262
VWater Absorb
p2263
sVtoxicboost
p2264
VToxic Boost
p2265
sVninetales
p2266
VNinetales
p2267
sVnidoranf
p2268
S'NidoranF'
p2269
sVcottonspore
p2270
VCotton Spore
p2271
sVnidoranm
p2272
S'NidoranM'
p2273
sVpineco
p2274
VPineco
p2275
sVscopelens
p2276
VScope Lens
p2277
sVhydreigon
p2278
VHydreigon
p2279
sVrockpolish
p2280
VRock Polish
p2281
sVgiratinaorigin
p2282
VGiratina-Origin
p2283
sVabomasnowmega
p2284
VAbomasnow-Mega
p2285
sVmanaphy
p2286
VManaphy
p2287
sS'brave'
p2288
S'Brave'
p2289
sVmist
p2290
VMist
p2291
sVkangaskhanmega
p2292
VKangaskhan-Mega
p2293
sVpetaldance
p2294
VPetal Dance
p2295
sVmeowstic
p2296
VMeowstic
p2297
sVboltstrike
p2298
VBolt Strike
p2299
sVswarm
p2300
VSwarm
p2301
sVairlock
p2302
VAir Lock
p2303
sVklinklang
p2304
VKlinklang
p2305
sVlandorustherian
p2306
VLandorus-Therian
p2307
sVshedinja
p2308
VShedinja
p2309
sVbabiriberry
p2310
VBabiri Berry
p2311
sVsuckerpunch
p2312
VSucker Punch
p2313
sVfreezeshock
p2314
VFreeze Shock
p2315
sVpsywave
p2316
VPsywave
p2317
sVdrillrun
p2318
VDrill Run
p2319
sVwhiteherb
p2320
VWhite Herb
p2321
sVringtarget
p2322
VRing Target
p2323
sVvenipede
p2324
VVenipede
p2325
sVdarkpulse
p2326
VDark Pulse
p2327
sVarceusdragon
p2328
VArceus-Dragon
p2329
sVstall
p2330
VStall
p2331
sVcontrary
p2332
VContrary
p2333
sVdazzlinggleam
p2334
VDazzling Gleam
p2335
sVdoubleedge
p2336
VDouble-Edge
p2337
sVremoraid
p2338
VRemoraid
p2339
sVclefairy
p2340
VClefairy
p2341
sVklink
p2342
VKlink
p2343
sVfirespin
p2344
VFire Spin
p2345
sVgenesectchill
p2346
VGenesect-Chill
p2347
sVsuicune
p2348
VSuicune
p2349
sVpamtreberry
p2350
VPamtre Berry
p2351
sVmegahorn
p2352
VMegahorn
p2353
sVsunflora
p2354
VSunflora
p2355
sVgourgeist
p2356
VGourgeist
p2357
sVbarbaracle
p2358
VBarbaracle
p2359
sVairballoon
p2360
VAir Balloon
p2361
sVswirlix
p2362
VSwirlix
p2363
sVlitleo
p2364
VLitleo
p2365
sVcamouflage
p2366
VCamouflage
p2367
sVfrillish
p2368
VFrillish
p2369
sVspheal
p2370
VSpheal
p2371
sVkangaskhan
p2372
VKangaskhan
p2373
sVregirock
p2374
VRegirock
p2375
sVpansage
p2376
VPansage
p2377
sVswitcheroo
p2378
VSwitcheroo
p2379
sValakazammega
p2380
VAlakazam-Mega
p2381
sVmasterball
p2382
VMaster Ball
p2383
sVeruption
p2384
VEruption
p2385
sVyawn
p2386
VYawn
p2387
sVcharm
p2388
VCharm
p2389
sVdiglett
p2390
VDiglett
p2391
sVbeldum
p2392
VBeldum
p2393
sVbarboach
p2394
VBarboach
p2395
sVcrosspoison
p2396
VCross Poison
p2397
sVcarvanha
p2398
VCarvanha
p2399
sVrefrigerate
p2400
S'Refrigerate'
p2401
sVlowsweep
p2402
VLow Sweep
p2403
sVsturdy
p2404
VSturdy
p2405
sVcovet
p2406
VCovet
p2407
sVgenesectdouse
p2408
VGenesect-Douse
p2409
sVkaratechop
p2410
VKarate Chop
p2411
sVworryseed
p2412
VWorry Seed
p2413
sVazumarill
p2414
VAzumarill
p2415
sVrazorwind
p2416
VRazor Wind
p2417
sVcharmeleon
p2418
VCharmeleon
p2419
sVmeloetta
p2420
VMeloetta
p2421
sVnanabberry
p2422
VNanab Berry
p2423
sVzoomlens
p2424
VZoom Lens
p2425
sVblackbelt
p2426
VBlack Belt
p2427
sVhammerarm
p2428
VHammer Arm
p2429
sVmagmaarmor
p2430
VMagma Armor
p2431
sVtriattack
p2432
VTri Attack
p2433
sVgooey
p2434
S'Gooey'
p2435
sVoblivionwing
p2436
VOblivion Wing
p2437
sVtyrantrum
p2438
VTyrantrum
p2439
sVhealpulse
p2440
VHeal Pulse
p2441
sVmagikarp
p2442
VMagikarp
p2443
sVpawniard
p2444
VPawniard
p2445
sVpoisontail
p2446
VPoison Tail
p2447
sVhitmonchan
p2448
VHitmonchan
p2449
sS'docile'
p2450
S'Docile'
p2451
sVfireblast
p2452
VFire Blast
p2453
sVshroomish
p2454
VShroomish
p2455
sVwhismur
p2456
VWhismur
p2457
sVspikes
p2458
VSpikes
p2459
sVshadowstrike
p2460
VShadowStrike
p2461
sVheatcrash
p2462
VHeat Crash
p2463
sVskorupi
p2464
VSkorupi
p2465
sVgengarite
p2466
VGengarite
p2467
sVblitzle
p2468
VBlitzle
p2469
sVtamatoberry
p2470
VTamato Berry
p2471
sVblazikenite
p2472
VBlazikenite
p2473
sVfarfetchd
p2474
VFarfetch'd
p2475
sVinkay
p2476
VInkay
p2477
sVpickup
p2478
VPickup
p2479
sVtangaberry
p2480
VTanga Berry
p2481
sVkarrablast
p2482
VKarrablast
p2483
sVmarowak
p2484
VMarowak
p2485
sVmachobrace
p2486
VMacho Brace
p2487
sVelekid
p2488
VElekid
p2489
sVmagmortar
p2490
VMagmortar
p2491
sVchansey
p2492
VChansey
p2493
sVroaroftime
p2494
VRoar of Time
p2495
sVwildcharge
p2496
VWild Charge
p2497
sVrattata
p2498
VRattata
p2499
sVhoundoommega
p2500
VHoundoom-Mega
p2501
sVclaydol
p2502
VClaydol
p2503
sVrelicanth
p2504
VRelicanth
p2505
sVtorchic
p2506
VTorchic
p2507
sVlapras
p2508
VLapras
p2509
sVmankey
p2510
VMankey
p2511
sVfuryattack
p2512
VFury Attack
p2513
sVsweetscent
p2514
VSweet Scent
p2515
sVshayminsky
p2516
VShaymin-Sky
p2517
sVwacanberry
p2518
VWacan Berry
p2519
sVsandile
p2520
VSandile
p2521
sVtyphlosion
p2522
VTyphlosion
p2523
sVariados
p2524
VAriados
p2525
sVdrillpeck
p2526
VDrill Peck
p2527
sVicebody
p2528
VIce Body
p2529
sVbronzor
p2530
VBronzor
p2531
sVfearow
p2532
VFearow
p2533
sVxscissor
p2534
VX-Scissor
p2535
sVbellossom
p2536
VBellossom
p2537
sVquiverdance
p2538
VQuiver Dance
p2539
sVblastoisinite
p2540
VBlastoisinite
p2541
sVmegapunch
p2542
VMega Punch
p2543
sVdamp
p2544
VDamp
p2545
sVmienfoo
p2546
VMienfoo
p2547
sVliepard
p2548
VLiepard
p2549
sVamnesia
p2550
VAmnesia
p2551
sVdestinybond
p2552
VDestiny Bond
p2553
sVpowersplit
p2554
VPower Split
p2555
sVdruddigon
p2556
VDruddigon
p2557
sVraikou
p2558
VRaikou
p2559
sVdragontail
p2560
VDragon Tail
p2561
sVstringshot
p2562
VString Shot
p2563
sVdragonair
p2564
VDragonair
p2565
sVwatergun
p2566
VWater Gun
p2567
sVvanilluxe
p2568
VVanilluxe
p2569
sVnomelberry
p2570
VNomel Berry
p2571
sVdrainingkiss
p2572
VDraining Kiss
p2573
sVbasculin
p2574
VBasculin
p2575
sVescavalier
p2576
VEscavalier
p2577
sVpsychoshift
p2578
VPsycho Shift
p2579
sVbisharp
p2580
VBisharp
p2581
sVhoundoom
p2582
VHoundoom
p2583
sVgulpin
p2584
VGulpin
p2585
sVpancham
p2586
VPancham
p2587
sVmantyke
p2588
VMantyke
p2589
sVpound
p2590
VPound
p2591
sVmedichamite
p2592
VMedichamite
p2593
sVrotommow
p2594
VRotom-Mow
p2595
sVdefendorder
p2596
VDefend Order
p2597
sVsurskit
p2598
VSurskit
p2599
sVmegalauncher
p2600
S'Mega Launcher'
p2601
sVicebeam
p2602
VIce Beam
p2603
sVfacade
p2604
VFacade
p2605
sVzubat
p2606
VZubat
p2607
sVmagikarpsrevenge
p2608
VMagikarp's Revenge
p2609
sVingrain
p2610
VIngrain
p2611
sVcottonee
p2612
VCottonee
p2613
sVpoisonjab
p2614
VPoison Jab
p2615
sVtaunt
p2616
VTaunt
p2617
sVgorebyss
p2618
VGorebyss
p2619
sVgrotle
p2620
VGrotle
p2621
sVpikachu
p2622
VPikachu
p2623
sVrayquaza
p2624
VRayquaza
p2625
sVfroakie
p2626
VFroakie
p2627
sVloveball
p2628
VLove Ball
p2629
sVjumpluff
p2630
VJumpluff
p2631
sS'timid'
p2632
S'Timid'
p2633
sVmismagius
p2634
VMismagius
p2635
sVhiddenpowerbug
p2636
VHidden Power Bug
p2637
sVinfiltrator
p2638
VInfiltrator
p2639
sVpsychup
p2640
VPsych Up
p2641
sVregice
p2642
VRegice
p2643
sVfiregem
p2644
VFire Gem
p2645
sVshellder
p2646
VShellder
p2647
sVwithdraw
p2648
VWithdraw
p2649
sVmoonball
p2650
VMoon Ball
p2651
sVpainsplit
p2652
VPain Split
p2653
sVstoneedge
p2654
VStone Edge
p2655
sVhowl
p2656
VHowl
p2657
sVwaterpledge
p2658
VWater Pledge
p2659
sVspearow
p2660
VSpearow
p2661
sVmagneticfield
p2662
VMagnetic Field
p2663
sVrockwrecker
p2664
VRock Wrecker
p2665
sVcompetitive
p2666
S'Competitive'
p2667
sVsteelgem
p2668
VSteel Gem
p2669
sVzygarde
p2670
VZygarde
p2671
sVsolrock
p2672
VSolrock
p2673
sVspinda
p2674
VSpinda
p2675
sVcloyster
p2676
VCloyster
p2677
sVmetapod
p2678
VMetapod
p2679
sVairslash
p2680
VAir Slash
p2681
sVchatot
p2682
VChatot
p2683
sVacrobatics
p2684
VAcrobatics
p2685
sVchoicespecs
p2686
VChoice Specs
p2687
sVrebound
p2688
VRebound
p2689
sVsolarbeam
p2690
VSolarBeam
p2691
sVlusterpurge
p2692
VLuster Purge
p2693
sVkeldeoresolute
p2694
VKeldeo-Resolute
p2695
sVmoody
p2696
VMoody
p2697
sVgothitelle
p2698
VGothitelle
p2699
sVskilllink
p2700
VSkill Link
p2701
sVursaring
p2702
VUrsaring
p2703
sVsunnyday
p2704
VSunny Day
p2705
sVsubmission
p2706
VSubmission
p2707
sVstaravia
p2708
VStaravia
p2709
sVtailglow
p2710
VTail Glow
p2711
sVstealthrock
p2712
VStealth Rock
p2713
sVtechnoblast
p2714
VTechno Blast
p2715
sVbaltoy
p2716
VBaltoy
p2717
sVflamewheel
p2718
VFlame Wheel
p2719
sVsketch
p2720
VSketch
p2721
sVwhirlipede
p2722
VWhirlipede
p2723
sVbounce
p2724
VBounce
p2725
sVsouldew
p2726
VSoul Dew
p2727
sVgigaimpact
p2728
VGiga Impact
p2729
sVsewaddle
p2730
VSewaddle
p2731
sVscald
p2732
VScald
p2733
sVominouswind
p2734
VOminous Wind
p2735
sVdeepseascale
p2736
VDeepSeaScale
p2737
sVmummy
p2738
VMummy
p2739
sVhuntail
p2740
VHuntail
p2741
sVswordsdance
p2742
VSwords Dance
p2743
sVearlybird
p2744
VEarly Bird
p2745
sVslash
p2746
VSlash
p2747
sVhiddenpowergrass
p2748
VHidden Power Grass
p2749
sVmimejr
p2750
VMime Jr.
p2751
sVseismitoad
p2752
VSeismitoad
p2753
sVscraggy
p2754
VScraggy
p2755
sVmewtwomegax
p2756
VMewtwo-Mega-X
p2757
sVmewtwomegay
p2758
VMewtwo-Mega-Y
p2759
sVfocussash
p2760
VFocus Sash
p2761
sVjellicent
p2762
VJellicent
p2763
sVspelonberry
p2764
VSpelon Berry
p2765
sVnobleroar
p2766
VNoble Roar
p2767
sVkangaskhanite
p2768
VKangaskhanite
p2769
sVblazekick
p2770
VBlaze Kick
p2771
sViapapaberry
p2772
VIapapa Berry
p2773
sVmudkip
p2774
VMudkip
p2775
sVbouffalant
p2776
VBouffalant
p2777
sVshinx
p2778
VShinx
p2779
sVmurkrow
p2780
VMurkrow
p2781
sVsharpedo
p2782
VSharpedo
p2783
sVarmthrust
p2784
VArm Thrust
p2785
sVchargebeam
p2786
VCharge Beam
p2787
sVnidoking
p2788
VNidoking
p2789
sVhabanberry
p2790
VHaban Berry
p2791
sVstench
p2792
VStench
p2793
sVtoxicroak
p2794
VToxicroak
p2795
sVunown
p2796
VUnown
p2797
sVearthpower
p2798
VEarth Power
p2799
sVsnorunt
p2800
VSnorunt
p2801
sS'relaxed'
p2802
S'Relaxed'
p2803
sVdragongem
p2804
VDragon Gem
p2805
sVpsychocut
p2806
VPsycho Cut
p2807
sVtranquill
p2808
VTranquill
p2809
sVragepowder
p2810
VRage Powder
p2811
sVbuizel
p2812
VBuizel
p2813
sVflamecharge
p2814
VFlame Charge
p2815
sVprobopass
p2816
VProbopass
p2817
sVabsolmega
p2818
VAbsol-Mega
p2819
sVspacialrend
p2820
VSpacial Rend
p2821
sVforesight
p2822
VForesight
p2823
sVgrowth
p2824
VGrowth
p2825
sVpoliwrath
p2826
VPoliwrath
p2827
sVpechaberry
p2828
VPecha Berry
p2829
sVarceusfairy
p2830
VArceus-Fairy
p2831
sVmiracleseed
p2832
VMiracle Seed
p2833
sVtakedown
p2834
VTake Down
p2835
sVrockhead
p2836
VRock Head
p2837
sVstickybarb
p2838
VSticky Barb
p2839
sVganlonberry
p2840
VGanlon Berry
p2841
sVbulbasaur
p2842
VBulbasaur
p2843
sVpichu
p2844
VPichu
p2845
sVheatwave
p2846
VHeat Wave
p2847
sVaudino
p2848
VAudino
p2849
sVdrifloon
p2850
VDrifloon
p2851
sVsnowcloak
p2852
VSnow Cloak
p2853
sVrazorshell
p2854
VRazor Shell
p2855
sVmetagross
p2856
VMetagross
p2857
sVmeowsticf
p2858
VMeowstic-F
p2859
sVlickilicky
p2860
VLickilicky
p2861
sVzigzagoon
p2862
VZigzagoon
p2863
sVcinccino
p2864
VCinccino
p2865
sVavalugg
p2866
VAvalugg
p2867
sVscratch
p2868
VScratch
p2869
sVherdier
p2870
VHerdier
p2871
sVsandtomb
p2872
VSand Tomb
p2873
sVcharmander
p2874
VCharmander
p2875
sVspeedboost
p2876
VSpeed Boost
p2877
sVwakeupslap
p2878
VWake-Up Slap
p2879
sVcursedbody
p2880
VCursed Body
p2881
sVrivalry
p2882
VRivalry
p2883
sVperishsong
p2884
VPerish Song
p2885
sVpoweruppunch
p2886
VPower-Up Punch
p2887
sVcutecharm
p2888
VCute Charm
p2889
sVblaze
p2890
VBlaze
p2891
sVsniper
p2892
VSniper
p2893
sVtriplekick
p2894
VTriple Kick
p2895
sVfly
p2896
VFly
p2897
sVguardsplit
p2898
VGuard Split
p2899
sVwobbuffet
p2900
VWobbuffet
p2901
sVteddiursa
p2902
VTeddiursa
p2903
sVthundershock
p2904
VThunder Shock
p2905
sVazurill
p2906
VAzurill
p2907
sVbastiodon
p2908
VBastiodon
p2909
sVlureball
p2910
VLure Ball
p2911
sVqwilfish
p2912
VQwilfish
p2913
sVhyperbeam
p2914
VHyper Beam
p2915
sVdynamicpunch
p2916
VDynamic Punch
p2917
sVmagnemite
p2918
VMagnemite
p2919
sVtyrunt
p2920
VTyrunt
p2921
sVirondefense
p2922
VIron Defense
p2923
sVmisdreavus
p2924
VMisdreavus
p2925
sVfidgit
p2926
VFidgit
p2927
sVdousedrive
p2928
VDouse Drive
p2929
sVcrushclaw
p2930
VCrush Claw
p2931
sVsoftboiled
p2932
VSoftboiled
p2933
sVpoisongem
p2934
VPoison Gem
p2935
sVdownload
p2936
VDownload
p2937
sVacid
p2938
VAcid
p2939
sVvigoroth
p2940
VVigoroth
p2941
sVlombre
p2942
VLombre
p2943
sVdelcatty
p2944
VDelcatty
p2945
sVhoundoominite
p2946
VHoundoominite
p2947
sVpayday
p2948
VPay Day
p2949
sVtyranitar
p2950
VTyranitar
p2951
sVturtwig
p2952
VTurtwig
p2953
sVmagmastorm
p2954
VMagma Storm
p2955
sVpansear
p2956
VPansear
p2957
sVdeerling
p2958
VDeerling
p2959
sVswinub
p2960
VSwinub
p2961
sVabomasnow
p2962
VAbomasnow
p2963
sVsing
p2964
VSing
p2965
sVcastform
p2966
VCastform
p2967
sVincinerate
p2968
VIncinerate
p2969
sVmarangaberry
p2970
VMaranga Berry
p2971
sVrampardos
p2972
VRampardos
p2973
sVscreech
p2974
VScreech
p2975
sVtentacruel
p2976
VTentacruel
p2977
sVnaturalcure
p2978
VNatural Cure
p2979
sVforestscurse
p2980
VForest's Curse
p2981
sVblizzard
p2982
VBlizzard
p2983
sVteeterdance
p2984
VTeeter Dance
p2985
sVfoongus
p2986
VFoongus
p2987
sVaquaring
p2988
VAqua Ring
p2989
sS'hardy'
p2990
S'Hardy'
p2991
sVarceusground
p2992
VArceus-Ground
p2993
sVpumpkaboolarge
p2994
VPumpkaboo-Large
p2995
sVkingdra
p2996
VKingdra
p2997
sVaerodactylite
p2998
VAerodactylite
p2999
sVbanettite
p3000
VBanettite
p3001
sVeevee
p3002
VEevee
p3003
sVheatran
p3004
VHeatran
p3005
sVwatchog
p3006
VWatchog
p3007
sVheavyball
p3008
VHeavy Ball
p3009
sVinsomnia
p3010
VInsomnia
p3011
sVcharcoal
p3012
VCharcoal
p3013
sVcranidos
p3014
VCranidos
p3015
sVabsol
p3016
VAbsol
p3017
sVplusle
p3018
VPlusle
p3019
sVaerodactylmega
p3020
VAerodactyl-Mega
p3021
sVharvest
p3022
VHarvest
p3023
sVwatersport
p3024
VWater Sport
p3025
sVicicleplate
p3026
VIcicle Plate
p3027
sVfuturesight
p3028
VFuture Sight
p3029
sVlustrousorb
p3030
VLustrous Orb
p3031
sVarchen
p3032
VArchen
p3033
sVexeggcute
p3034
VExeggcute
p3035
sVlucario
p3036
VLucario
p3037
sVthundurus
p3038
VThundurus
p3039
sVtangrowth
p3040
VTangrowth
p3041
sVvespiquen
p3042
VVespiquen
p3043
sVterrakion
p3044
VTerrakion
p3045
sVblacksludge
p3046
VBlack Sludge
p3047
sVrelicsong
p3048
VRelic Song
p3049
sVheliolisk
p3050
VHeliolisk
p3051
sVblazikenmega
p3052
VBlaziken-Mega
p3053
sVgastrodon
p3054
VGastrodon
p3055
sVbronzong
p3056
VBronzong
p3057
sVweavile
p3058
VWeavile
p3059
sVdewott
p3060
VDewott
p3061
sVchandelure
p3062
VChandelure
p3063
sVhaxorus
p3064
VHaxorus
p3065
sVsecretsword
p3066
VSecret Sword
p3067
sVowntempo
p3068
VOwn Tempo
p3069
sVhiddenpower
p3070
VHidden Power
p3071
sVrazorleaf
p3072
VRazor Leaf
p3073
sVpowerswap
p3074
VPower Swap
p3075
sVdragalge
p3076
VDragalge
p3077
sVheadcharge
p3078
VHead Charge
p3079
sVroserade
p3080
VRoserade
p3081
sVpidgey
p3082
VPidgey
p3083
sVaggronite
p3084
VAggronite
p3085
sVgenesect
p3086
VGenesect
p3087
sVlotad
p3088
VLotad
p3089
sVbind
p3090
VBind
p3091
sVcounter
p3092
VCounter
p3093
sVfullincense
p3094
VFull Incense
p3095
sVweepinbell
p3096
VWeepinbell
p3097
sVwoobat
p3098
VWoobat
p3099
sVaquajet
p3100
VAqua Jet
p3101
sVkrabby
p3102
VKrabby
p3103
sVumbreon
p3104
VUmbreon
p3105
sVheatproof
p3106
VHeatproof
p3107
sVguardswap
p3108
VGuard Swap
p3109
sVassaultvest
p3110
VAssault Vest
p3111
sVpetalblizzard
p3112
VPetal Blizzard
p3113
sVkadabra
p3114
VKadabra
p3115
sVpurepower
p3116
VPure Power
p3117
sVironball
p3118
VIron Ball
p3119
sVdreameater
p3120
VDream Eater
p3121
sVhelpinghand
p3122
VHelping Hand
p3123
sVmunchlax
p3124
VMunchlax
p3125
sVdeoxysdefense
p3126
VDeoxys-Defense
p3127
sVbelch
p3128
VBelch
p3129
sVsuperluck
p3130
VSuper Luck
p3131
sVberryjuice
p3132
VBerry Juice
p3133
sVhiddenpowerflying
p3134
VHidden Power Flying
p3135
sVflowerveil
p3136
S'Flower Veil'
p3137
sVpokeball
p3138
VPoke Ball
p3139
sVsandforce
p3140
VSand Force
p3141
sVflail
p3142
VFlail
p3143
sVkabutops
p3144
VKabutops
p3145
sVgreninja
p3146
VGreninja
p3147
sVchinchou
p3148
VChinchou
p3149
sVforewarn
p3150
VForewarn
p3151
sVmagnitude
p3152
VMagnitude
p3153
sVarceusfighting
p3154
VArceus-Fighting
p3155
sVrapidspin
p3156
VRapid Spin
p3157
sVskullbash
p3158
VSkull Bash
p3159
sVdratini
p3160
VDratini
p3161
sVafteryou
p3162
VAfter You
p3163
sVmaractus
p3164
VMaractus
p3165
sVscaryface
p3166
VScary Face
p3167
sVilluminate
p3168
VIlluminate
p3169
sVmagnetpull
p3170
VMagnet Pull
p3171
sVtepig
p3172
VTepig
p3173
sVkelpsyberry
p3174
VKelpsy Berry
p3175
sVstatic
p3176
VStatic
p3177
sS'diancie'
p3178
S'Diancie'
p3179
sVicefang
p3180
VIce Fang
p3181
sVninjask
p3182
VNinjask
p3183
sVjoltik
p3184
VJoltik
p3185
sVrollingkick
p3186
VRolling Kick
p3187
sVweatherball
p3188
VWeather Ball
p3189
sVmanectric
p3190
VManectric
p3191
sVnaturepower
p3192
VNature Power
p3193
sVregisteel
p3194
VRegisteel
p3195
sVsmog
p3196
VSmog
p3197
sVbabydolleyes
p3198
VBaby-Doll Eyes
p3199
sVleafguard
p3200
VLeaf Guard
p3201
sVicywind
p3202
VIcy Wind
p3203
sVemolga
p3204
VEmolga
p3205
sVconkeldurr
p3206
VConkeldurr
p3207
sVworkup
p3208
VWork Up
p3209
sVhippowdon
p3210
VHippowdon
p3211
sVenigmaberry
p3212
VEnigma Berry
p3213
sVscatterbug
p3214
VScatterbug
p3215
sS'aromaveil'
p3216
S'Aroma Veil'
p3217
sVbergmite
p3218
VBergmite
p3219
sVsudowoodo
p3220
VSudowoodo
p3221
sVlarvitar
p3222
VLarvitar
p3223
sVheadbutt
p3224
VHeadbutt
p3225
sVbodyslam
p3226
VBody Slam
p3227
sVexpertbelt
p3228
VExpert Belt
p3229
sVbugbuzz
p3230
VBug Buzz
p3231
sVfirefang
p3232
VFire Fang
p3233
sVmindplate
p3234
VMind Plate
p3235
sVampharosmega
p3236
VAmpharos-Mega
p3237
sVmistball
p3238
VMist Ball
p3239
sVskrelp
p3240
VSkrelp
p3241
sVjumpkick
p3242
VJump Kick
p3243
sVwaterspout
p3244
VWater Spout
p3245
sVloudred
p3246
VLoudred
p3247
sVfletchinder
p3248
VFletchinder
p3249
sVpremierball
p3250
VPremier Ball
p3251
sVrotomfrost
p3252
VRotom-Frost
p3253
sVsolidrock
p3254
VSolid Rock
p3255
sVrabutaberry
p3256
VRabuta Berry
p3257
sVagility
p3258
VAgility
p3259
sVelectabuzz
p3260
VElectabuzz
p3261
sVcrobat
p3262
VCrobat
p3263
sVrockblast
p3264
VRock Blast
p3265
sVfeint
p3266
VFeint
p3267
sVsoftsand
p3268
VSoft Sand
p3269
sVsigilyph
p3270
VSigilyph
p3271
sVdeepseatooth
p3272
VDeepSeaTooth
p3273
sVtorkoal
p3274
VTorkoal
p3275
sVwurmple
p3276
VWurmple
p3277
sVtimburr
p3278
VTimburr
p3279
sVfastball
p3280
VFast Ball
p3281
sVpoisonfang
p3282
VPoison Fang
p3283
sVinsectplate
p3284
VInsect Plate
p3285
sVtorrent
p3286
VTorrent
p3287
sVencore
p3288
VEncore
p3289
sVquickball
p3290
VQuick Ball
p3291
sVtrapinch
p3292
VTrapinch
p3293
sVmarshtomp
p3294
VMarshtomp
p3295
sS'gentle'
p3296
S'Gentle'
p3297
sVtorment
p3298
VTorment
p3299
sVarceusflying
p3300
VArceus-Flying
p3301
sVzebstrika
p3302
VZebstrika
p3303
sVwhitesmoke
p3304
VWhite Smoke
p3305
sVlevelball
p3306
VLevel Ball
p3307
sVsoak
p3308
VSoak
p3309
sVfusionbolt
p3310
VFusion Bolt
p3311
sVflareon
p3312
VFlareon
p3313
sVcalmmind
p3314
VCalm Mind
p3315
sVaipom
p3316
VAipom
p3317
sVgravity
p3318
VGravity
p3319
sVcarnivine
p3320
VCarnivine
p3321
sVmistyterrain
p3322
VMisty Terrain
p3323
sVrotom
p3324
VRotom
p3325
sVnuzleaf
p3326
VNuzleaf
p3327
sVwidelens
p3328
VWide Lens
p3329
sVshadowball
p3330
VShadow Ball
p3331
sVdrifblim
p3332
VDrifblim
p3333
sVmewtwo
p3334
VMewtwo
p3335
sVrollout
p3336
VRollout
p3337
sVslurpuff
p3338
VSlurpuff
p3339
sVgrassgem
p3340
VGrass Gem
p3341
sVdracometeor
p3342
VDraco Meteor
p3343
sVsludgewave
p3344
VSludge Wave
p3345
sVsceptile
p3346
VSceptile
p3347
sVgardevoirite
p3348
VGardevoirite
p3349
sVexeggutor
p3350
VExeggutor
p3351
sVshedskin
p3352
VShed Skin
p3353
sVcherrimsunshine
p3354
VCherrim-Sunshine
p3355
sVarceus
p3356
VArceus
p3357
sS'impish'
p3358
S'Impish'
p3359
sVservine
p3360
VServine
p3361
sVroselia
p3362
VRoselia
p3363
sVbrine
p3364
VBrine
p3365
sVzweilous
p3366
VZweilous
p3367
sVsleeppowder
p3368
VSleep Powder
p3369
sVoldamber
p3370
VOld Amber
p3371
sVdurant
p3372
VDurant
p3373
sVsimplebeam
p3374
VSimple Beam
p3375
sVyveltal
p3376
VYveltal
p3377
sVbrickbreak
p3378
VBrick Break
p3379
sS'rash'
p3380
S'Rash'
p3381
sVpiplup
p3382
VPiplup
p3383
sVflashfire
p3384
VFlash Fire
p3385
sVdeino
p3386
VDeino
p3387
sVcamerupt
p3388
VCamerupt
p3389
sVluckypunch
p3390
VLucky Punch
p3391
sVpsychicgem
p3392
VPsychic Gem
p3393
sVrarebone
p3394
VRare Bone
p3395
sVsolosis
p3396
VSolosis
p3397
sVbellydrum
p3398
VBelly Drum
p3399
sS'sassy'
p3400
S'Sassy'
p3401
sVdeoxysattack
p3402
VDeoxys-Attack
p3403
sVcroagunk
p3404
VCroagunk
p3405
sVbravebird
p3406
VBrave Bird
p3407
sVgust
p3408
VGust
p3409
sVmagicguard
p3410
VMagic Guard
p3411
sVsandattack
p3412
VSand Attack
p3413
sVkingler
p3414
VKingler
p3415
sVhugepower
p3416
VHuge Power
p3417
sVmudbomb
p3418
VMud Bomb
p3419
sVember
p3420
VEmber
p3421
sVgeomancy
p3422
VGeomancy
p3423
sVcacturne
p3424
VCacturne
p3425
sVpowder
p3426
VPowder
p3427
sVvictini
p3428
VVictini
p3429
sVfinneon
p3430
VFinneon
p3431
sVelectrode
p3432
VElectrode
p3433
sVchestoberry
p3434
VChesto Berry
p3435
sVgrumpig
p3436
VGrumpig
p3437
sVlifeorb
p3438
VLife Orb
p3439
sVgyarados
p3440
VGyarados
p3441
sVvaporeon
p3442
VVaporeon
p3443
sVthunderwave
p3444
VThunder Wave
p3445
sVrockincense
p3446
VRock Incense
p3447
sVfroslass
p3448
VFroslass
p3449
sVconfusion
p3450
VConfusion
p3451
sVfuryswipes
p3452
VFury Swipes
p3453
sVaron
p3454
VAron
p3455
sVconversion2
p3456
VConversion 2
p3457
sVwhiscash
p3458
VWhiscash
p3459
sVcacnea
p3460
VCacnea
p3461
sVzoroark
p3462
VZoroark
p3463
sVshellsmash
p3464
VShell Smash
p3465
sVhydropump
p3466
VHydro Pump
p3467
sVswift
p3468
VSwift
p3469
sVmemento
p3470
VMemento
p3471
sVmetang
p3472
VMetang
p3473
sVbaddreams
p3474
VBad Dreams
p3475
sVaerodactyl
p3476
VAerodactyl
p3477
sVpoisonheal
p3478
VPoison Heal
p3479
sVsafetygoggles
p3480
VSafety Goggles
p3481
sVklang
p3482
VKlang
p3483
sVswallow
p3484
VSwallow
p3485
sVspritzee
p3486
VSpritzee
p3487
sVflabebe
p3488
VFlabebe
p3489
sVapicotberry
p3490
VApicot Berry
p3491
sVnumel
p3492
VNumel
p3493
sVwoodhammer
p3494
VWood Hammer
p3495
sVhiddenpowerwater
p3496
VHidden Power Water
p3497
sVmalaconda
p3498
VMalaconda
p3499
sVgible
p3500
VGible
p3501
sVovercoat
p3502
VOvercoat
p3503
sVekans
p3504
VEkans
p3505
sVpixieplate
p3506
VPixie Plate
p3507
sVgrepaberry
p3508
VGrepa Berry
p3509
sVdisarmingvoice
p3510
VDisarming Voice
p3511
sVwailord
p3512
VWailord
p3513
sVswoobat
p3514
VSwoobat
p3515
sVelectrify
p3516
VElectrify
p3517
sVbindingband
p3518
VBinding Band
p3519
sVkeldeo
p3520
VKeldeo
p3521
sVtomohawk
p3522
VTomohawk
p3523
sVivysaur
p3524
VIvysaur
p3525
sVgripclaw
p3526
VGrip Claw
p3527
sVadamantorb
p3528
VAdamant Orb
p3529
sVcoverfossil
p3530
VCover Fossil
p3531
sVaccelgor
p3532
VAccelgor
p3533
sVsmeargle
p3534
VSmeargle
p3535
sVraindance
p3536
VRain Dance
p3537
sVinfestation
p3538
VInfestation
p3539
sVpresent
p3540
VPresent
p3541
sVgrovyle
p3542
VGrovyle
p3543
sVintimidate
p3544
VIntimidate
p3545
sVharden
p3546
VHarden
p3547
sVbeheeyem
p3548
VBeheeyem
p3549
sVwhirlpool
p3550
VWhirlpool
p3551
sVpelipper
p3552
VPelipper
p3553
sVthickfat
p3554
VThick Fat
p3555
sVcarracosta
p3556
VCarracosta
p3557
sVluxio
p3558
VLuxio
p3559
sVvullaby
p3560
VVullaby
p3561
sVhiddenpowerghost
p3562
VHidden Power Ghost
p3563
sVlightball
p3564
VLight Ball
p3565
sVwaterveil
p3566
VWater Veil
p3567
sVspelltag
p3568
VSpell Tag
p3569
sVzenheadbutt
p3570
VZen Headbutt
p3571
sVzekrom
p3572
VZekrom
p3573
sVphantump
p3574
VPhantump
p3575
sVdefiant
p3576
VDefiant
p3577
sVhardstone
p3578
VHard Stone
p3579
sVkebiaberry
p3580
VKebia Berry
p3581
sVcascoon
p3582
VCascoon
p3583
sVmagcargo
p3584
VMagcargo
p3585
sVabsorb
p3586
VAbsorb
p3587
sVraindish
p3588
VRain Dish
p3589
sVseaking
p3590
VSeaking
p3591
sVmagician
p3592
S'Magician'
p3593
sVjudgment
p3594
VJudgment
p3595
sVbibarel
p3596
VBibarel
p3597
sVpsybeam
p3598
VPsybeam
p3599
sVaspearberry
p3600
VAspear Berry
p3601
sVeelektross
p3602
VEelektross
p3603
sVpickpocket
p3604
VPickpocket
p3605
sVsitrusberry
p3606
VSitrus Berry
p3607
sVarceuspsychic
p3608
VArceus-Psychic
p3609
sVbeautifly
p3610
VBeautifly
p3611
sVvenoshock
p3612
VVenoshock
p3613
sVmudsport
p3614
VMud Sport
p3615
sVazelf
p3616
VAzelf
p3617
sVyanmega
p3618
VYanmega
p3619
sVfairyaura
p3620
S'Fairy Aura'
p3621
sVarceusdark
p3622
VArceus-Dark
p3623
sVpinsir
p3624
VPinsir
p3625
sVkoffing
p3626
VKoffing
p3627
sVguts
p3628
VGuts
p3629
sVtauros
p3630
VTauros
p3631
sVnatu
p3632
VNatu
p3633
sVfaketears
p3634
VFake Tears
p3635
sVsimple
p3636
VSimple
p3637
sVaromaticmist
p3638
VAromatic Mist
p3639
sVswellow
p3640
VSwellow
p3641
sVleechlife
p3642
VLeech Life
p3643
sVkingsshield
p3644
VKing's Shield
p3645
sVkingsrock
p3646
VKing's Rock
p3647
sVblukberry
p3648
VBluk Berry
p3649
sVflowershield
p3650
VFlower Shield
p3651
sVarenatrap
p3652
VArena Trap
p3653
sVleechseed
p3654
VLeech Seed
p3655
sVselfdestruct
p3656
VSelfdestruct
p3657
sVgoldeen
p3658
VGoldeen
p3659
sVducklett
p3660
VDucklett
p3661
sVglowpunch
p3662
VGlow Punch
p3663
sVhoothoot
p3664
VHoothoot
p3665
sVlatios
p3666
VLatios
p3667
sVbudew
p3668
VBudew
p3669
sVgogoat
p3670
VGogoat
p3671
sVlilligant
p3672
VLilligant
p3673
sVhealball
p3674
VHeal Ball
p3675
sVphanpy
p3676
VPhanpy
p3677
sVreckless
p3678
VReckless
p3679
sVimprison
p3680
VImprison
p3681
sVrepeatball
p3682
VRepeat Ball
p3683
sVglare
p3684
VGlare
p3685
sVthief
p3686
VThief
p3687
sVhail
p3688
VHail
p3689
sVcofagrigus
p3690
VCofagrigus
p3691
sVwepearberry
p3692
VWepear Berry
p3693
sVskarmory
p3694
VSkarmory
p3695
sVpersimberry
p3696
VPersim Berry
p3697
sVdragonclaw
p3698
VDragon Claw
p3699
sVdrizzle
p3700
VDrizzle
p3701
sVstaraptor
p3702
VStaraptor
p3703
sVmagicalleaf
p3704
VMagical Leaf
p3705
sVforcepalm
p3706
VForce Palm
p3707
sVhurricane
p3708
VHurricane
p3709
sVlileep
p3710
VLileep
p3711
sVpiloswine
p3712
VPiloswine
p3713
sVvenusaurite
p3714
VVenusaurite
p3715
sVcopycat
p3716
VCopycat
p3717
sVhappiny
p3718
VHappiny
p3719
sVpressure
p3720
VPressure
p3721
sVsilkscarf
p3722
VSilk Scarf
p3723
sVpidgeotto
p3724
VPidgeotto
p3725
sVdreadplate
p3726
VDread Plate
p3727
sVvenomoth
p3728
VVenomoth
p3729
sVfurret
p3730
VFurret
p3731
sVsmellingsalts
p3732
VSmelling Salts
p3733
sVmeteormash
p3734
VMeteor Mash
p3735
sVshucaberry
p3736
VShuca Berry
p3737
sVsweetkiss
p3738
VSweet Kiss
p3739
sVacidarmor
p3740
VAcid Armor
p3741
sVlightclay
p3742
VLight Clay
p3743
sVvoodoom
p3744
VVoodoom
p3745
sVfeintattack
p3746
VFeint Attack
p3747
sVburmy
p3748
VBurmy
p3749
sVmagostberry
p3750
VMagost Berry
p3751
sVgrasspelt
p3752
S'Grass Pelt'
p3753
sVspitup
p3754
VSpit Up
p3755
sVmentalherb
p3756
VMental Herb
p3757
sVroseliberry
p3758
VRoseli Berry
p3759
sVfrustration
p3760
VFrustration
p3761
sVambipom
p3762
VAmbipom
p3763
sVfollowme
p3764
VFollow Me
p3765
sVclauncher
p3766
VClauncher
p3767
sVquickpowder
p3768
VQuick Powder
p3769
sVfrenzyplant
p3770
VFrenzy Plant
p3771
sVclearbody
p3772
VClear Body
p3773
sVmagoberry
p3774
VMago Berry
p3775
sVcroconaw
p3776
VCroconaw
p3777
sVdrowzee
p3778
VDrowzee
p3779
sVserenegrace
p3780
VSerene Grace
p3781
sVheracronite
p3782
VHeracronite
p3783
sVtechnician
p3784
VTechnician
p3785
sVarceusgrass
p3786
VArceus-Grass
p3787
sVembargo
p3788
VEmbargo
p3789
sVmetronome
p3790
VMetronome
p3791
sVattackorder
p3792
VAttack Order
p3793
sVallyswitch
p3794
VAlly Switch
p3795
sVwish
p3796
VWish
p3797
sVmegakick
p3798
VMega Kick
p3799
sVentrainment
p3800
VEntrainment
p3801
sVtaillow
p3802
VTaillow
p3803
sVtailwhip
p3804
VTail Whip
p3805
sVflameplate
p3806
VFlame Plate
p3807
sVblock
p3808
VBlock
p3809
sVscizormega
p3810
VScizor-Mega
p3811
sVhoneclaws
p3812
VHone Claws
p3813
sVoranberry
p3814
VOran Berry
p3815
sVslowstart
p3816
VSlow Start
p3817
sVgranbull
p3818
VGranbull
p3819
sVweakarmor
p3820
VWeak Armor
p3821
sVaurasphere
p3822
VAura Sphere
p3823
sVshelgon
p3824
VShelgon
p3825
sVrawstberry
p3826
VRawst Berry
p3827
sVvacuumwave
p3828
VVacuum Wave
p3829
sVillusion
p3830
VIllusion
p3831
sVroleplay
p3832
VRole Play
p3833
sVyacheberry
p3834
VYache Berry
p3835
sVtreecko
p3836
VTreecko
p3837
sValomomola
p3838
VAlomomola
p3839
sVbraviary
p3840
VBraviary
p3841
sVvivillon
p3842
VVivillon
p3843
sVnoguard
p3844
VNo Guard
p3845
sVabomasite
p3846
VAbomasite
p3847
sVstarmie
p3848
VStarmie
p3849
sVpersistent
p3850
VPersistent
p3851
sVmagmar
p3852
VMagmar
p3853
sVzangoose
p3854
VZangoose
p3855
sVvcreate
p3856
VV-create
p3857
s.