(dp1
Velectivire
p2
VElectivire
p3
sVheracross
p4
VHeracross
p5
sVcolorchange
p6
VColor Change
p7
sVlucarionite
p8
VLucarionite
p9
sVpalkia
p10
VPalkia
p11
sVchatter
p12
VChatter
p13
sValakazite
p14
VAlakazite
p15
sVtickle
p16
VTickle
p17
sVarceuselectric
p18
VArceus-Electric
p19
sVabra
p20
VAbra
p21
sVreuniclus
p22
VReuniclus
p23
sVrecycle
p24
VRecycle
p25
sVtimerball
p26
VTimer Ball
p27
sVmeditite
p28
VMeditite
p29
sVsharpbeak
p30
VSharp Beak
p31
sVmewtwonitex
p32
VMewtwonite X
p33
sVmewtwonitey
p34
VMewtwonite Y
p35
sVquickclaw
p36
VQuick Claw
p37
sVdoubleslap
p38
VDouble Slap
p39
sVeviolite
p40
VEviolite
p41
sVprotean
p42
VProtean
p43
sVsquirtle
p44
VSquirtle
p45
sVdarmanitanzen
p46
VDarmanitan-Zen
p47
sVnastyplot
p48
VNasty Plot
p49
sVwormadam
p50
VWormadam
p51
sVaggronmega
p52
VAggron-Mega
p53
sVwhirlwind
p54
VWhirlwind
p55
sVplumefossil
p56
VPlume Fossil
p57
sVcherrim
p58
VCherrim
p59
sS'hiddenpowerelectric'
p60
S'Hidden Power Electric'
p61
sS'hiddenpowerfire'
p62
S'Hidden Power Fire'
p63
sVguillotine
p64
VGuillotine
p65
sVlevitate
p66
VLevitate
p67
sVgyaradosite
p68
VGyaradosite
p69
sVpomegberry
p70
VPomeg Berry
p71
sVmasquerain
p72
VMasquerain
p73
sVthunder
p74
VThunder
p75
sVhaze
p76
VHaze
p77
sVdarkgem
p78
VDark Gem
p79
sVmiltank
p80
VMiltank
p81
sVfraxure
p82
VFraxure
p83
sVmoldbreaker
p84
VMold Breaker
p85
sVcrunch
p86
VCrunch
p87
sVrindoberry
p88
VRindo Berry
p89
sVlatiosite
p90
VLatiosite
p91
sVreflecttype
p92
VReflect Type
p93
sVsnivy
p94
VSnivy
p95
sVmefirst
p96
VMe First
p97
sVstarfberry
p98
VStarf Berry
p99
sVscizorite
p100
VScizorite
p101
sVmew
p102
VMew
p103
sVpursuit
p104
VPursuit
p105
sVheadsmash
p106
VHead Smash
p107
sVaftermath
p108
VAftermath
p109
sVclawitzer
p110
VClawitzer
p111
sVpixilate
p112
VPixilate
p113
sVtornadustherian
p114
VTornadus-Therian
p115
sVlunatone
p116
VLunatone
p117
sVpunishment
p118
VPunishment
p119
sVpoisontouch
p120
VPoison Touch
p121
sVfeebas
p122
VFeebas
p123
sVneedlearm
p124
VNeedle Arm
p125
sValtarianite
p126
VAltarianite
p127
sVblastburn
p128
VBlast Burn
p129
sVhonchkrow
p130
VHonchkrow
p131
sVtirtouga
p132
VTirtouga
p133
sVampharos
p134
VAmpharos
p135
sVdusclops
p136
VDusclops
p137
sVpoisonbarb
p138
VPoison Barb
p139
sVmorningsun
p140
VMorning Sun
p141
sVfreezedry
p142
VFreeze-Dry
p143
sVmandibuzz
p144
VMandibuzz
p145
sVoverheat
p146
VOverheat
p147
sVspiritomb
p148
VSpiritomb
p149
sVvoltabsorb
p150
VVolt Absorb
p151
sVpurugly
p152
VPurugly
p153
sVshiftgear
p154
VShift Gear
p155
sS'calm'
p156
S'Calm'
p157
sVcastformrainy
p158
VCastform-Rainy
p159
sVbigroot
p160
VBig Root
p161
sVaromaveil
p162
VAroma Veil
p163
sVgardevoir
p164
VGardevoir
p165
sVsheerforce
p166
VSheer Force
p167
sVmagnetrise
p168
VMagnet Rise
p169
sS'naive'
p170
S'Naive'
p171
sVsceptilemega
p172
VSceptile-Mega
p173
sS'adamant'
p174
S'Adamant'
p175
sVkitsunoh
p176
VKitsunoh
p177
sVarceusbug
p178
VArceus-Bug
p179
sVgranbull
p180
VGranbull
p181
sVpidgeot
p182
VPidgeot
p183
sVtangledfeet
p184
VTangled Feet
p185
sVigglybuff
p186
VIgglybuff
p187
sVonix
p188
VOnix
p189
sVgrimer
p190
VGrimer
p191
sVrototiller
p192
VRototiller
p193
sVlucariomega
p194
VLucario-Mega
p195
sVbugbite
p196
VBug Bite
p197
sVpoisongas
p198
VPoison Gas
p199
sVmakuhita
p200
VMakuhita
p201
sVfriendball
p202
VFriend Ball
p203
sVattract
p204
VAttract
p205
sVcharizarditey
p206
VCharizardite Y
p207
sVcharizarditex
p208
VCharizardite X
p209
sVhyperspacehole
p210
VHyperspace Hole
p211
sVskydrop
p212
VSky Drop
p213
sVcrabhammer
p214
VCrabhammer
p215
sVtoxic
p216
VToxic
p217
sVcastformsunny
p218
VCastform-Sunny
p219
sVrotomheat
p220
VRotom-Heat
p221
sVsportball
p222
VSport Ball
p223
sVpoisonpowder
p224
VPoison Powder
p225
sVredcard
p226
VRed Card
p227
sS'modest'
p228
S'Modest'
p229
sS'lax'
p230
S'Lax'
p231
sVrocktomb
p232
VRock Tomb
p233
sVcherubi
p234
VCherubi
p235
sVleafstorm
p236
VLeaf Storm
p237
sVspookyplate
p238
VSpooky Plate
p239
sS'hasty'
p240
S'Hasty'
p241
sVentei
p242
VEntei
p243
sVarceussteel
p244
VArceus-Steel
p245
sVcobaberry
p246
VCoba Berry
p247
sVlaggingtail
p248
VLagging Tail
p249
sVfinalgambit
p250
VFinal Gambit
p251
sVrapidash
p252
VRapidash
p253
sVdoubleteam
p254
VDouble Team
p255
sVlumineon
p256
VLumineon
p257
sVshielddust
p258
VShield Dust
p259
sVmagicbounce
p260
VMagic Bounce
p261
sS'hiddenpowerfighting'
p262
S'Hidden Power Fighting'
p263
sVsludge
p264
VSludge
p265
sVvenusaur
p266
VVenusaur
p267
sVphione
p268
VPhione
p269
sVdiancite
p270
VDiancite
p271
sVflameburst
p272
VFlame Burst
p273
sVzapplate
p274
VZap Plate
p275
sVfletchinder
p276
VFletchinder
p277
sVmunna
p278
VMunna
p279
sVhitmonlee
p280
VHitmonlee
p281
sVdryskin
p282
VDry Skin
p283
sVkricketot
p284
VKricketot
p285
sVroost
p286
VRoost
p287
sVfurycutter
p288
VFury Cutter
p289
sVirontail
p290
VIron Tail
p291
sVpoliwhirl
p292
VPoliwhirl
p293
sVeggbomb
p294
VEgg Bomb
p295
sVluxray
p296
VLuxray
p297
sVpayback
p298
VPayback
p299
sVexcadrill
p300
VExcadrill
p301
sVgloom
p302
VGloom
p303
sVgluttony
p304
VGluttony
p305
sVvulpix
p306
VVulpix
p307
sVcradily
p308
VCradily
p309
sVthunderfang
p310
VThunder Fang
p311
sVblastoisemega
p312
VBlastoise-Mega
p313
sVespeon
p314
VEspeon
p315
sVmultitype
p316
VMultitype
p317
sVflameorb
p318
VFlame Orb
p319
sS'hiddenpowerdragon'
p320
S'Hidden Power Dragon'
p321
sVfairywind
p322
VFairy Wind
p323
sVgothorita
p324
VGothorita
p325
sVomastar
p326
VOmastar
p327
sVwalrein
p328
VWalrein
p329
sVsawsbuck
p330
VSawsbuck
p331
sVtruant
p332
VTruant
p333
sVqualotberry
p334
VQualot Berry
p335
sVflowergift
p336
VFlower Gift
p337
sVpsychic
p338
VPsychic
p339
sVlifeorb
p340
VLife Orb
p341
sVkasibberry
p342
VKasib Berry
p343
sVcottonguard
p344
VCotton Guard
p345
sVtornadus
p346
VTornadus
p347
sVshedshell
p348
VShed Shell
p349
sVbarrier
p350
VBarrier
p351
sVleftovers
p352
VLeftovers
p353
sVrevenge
p354
VRevenge
p355
sVsynchronoise
p356
VSynchronoise
p357
sVbestow
p358
VBestow
p359
sVtrumpcard
p360
VTrump Card
p361
sVsweetveil
p362
VSweet Veil
p363
sVgalladite
p364
VGalladite
p365
sVshiftry
p366
VShiftry
p367
sVgirafarig
p368
VGirafarig
p369
sVbeartic
p370
VBeartic
p371
sVkyuremblack
p372
VKyurem-Black
p373
sVsonicboom
p374
VSonic Boom
p375
sVfightinggem
p376
VFighting Gem
p377
sVgroudonprimal
p378
VGroudon-Primal
p379
sVlatias
p380
VLatias
p381
sVdrainpunch
p382
VDrain Punch
p383
sVsteelixmega
p384
VSteelix-Mega
p385
sVcherishball
p386
VCherish Ball
p387
sVcheriberry
p388
VCheri Berry
p389
sS'naughty'
p390
S'Naughty'
p391
sVseedflare
p392
VSeed Flare
p393
sVhydrocannon
p394
VHydro Cannon
p395
sVmagneticflux
p396
VMagnetic Flux
p397
sVfusionbolt
p398
VFusion Bolt
p399
sVdeoxys
p400
VDeoxys
p401
sVlatiasmega
p402
VLatias-Mega
p403
sVhooh
p404
VHo-Oh
p405
sVshieldon
p406
VShieldon
p407
sVslugma
p408
VSlugma
p409
sVheracrossmega
p410
VHeracross-Mega
p411
sVwaveincense
p412
VWave Incense
p413
sVmanectite
p414
VManectite
p415
sVpikachupopstar
p416
VPikachu-Pop-Star
p417
sVaircutter
p418
VAir Cutter
p419
sVgiratinaorigin
p420
VGiratina-Origin
p421
sVgrowlithe
p422
VGrowlithe
p423
sVinferno
p424
VInferno
p425
sVtwister
p426
VTwister
p427
sVarceusdragon
p428
VArceus-Dragon
p429
sVflamethrower
p430
VFlamethrower
p431
sVtoxicorb
p432
VToxic Orb
p433
sVfairylock
p434
VFairy Lock
p435
sVrockclimb
p436
VRock Climb
p437
sVwonderroom
p438
VWonder Room
p439
sVmachoke
p440
VMachoke
p441
sVdoomdesire
p442
VDoom Desire
p443
sVmirrormove
p444
VMirror Move
p445
sVsandshrew
p446
VSandshrew
p447
sVpolitoed
p448
VPolitoed
p449
sVminun
p450
VMinun
p451
sVbelueberry
p452
VBelue Berry
p453
sVendure
p454
VEndure
p455
sVswiftswim
p456
VSwift Swim
p457
sVshellbell
p458
VShell Bell
p459
sVminus
p460
VMinus
p461
sVmeowth
p462
VMeowth
p463
sVsweetscent
p464
VSweet Scent
p465
sVsludgebomb
p466
VSludge Bomb
p467
sVpayapaberry
p468
VPayapa Berry
p469
sVclosecombat
p470
VClose Combat
p471
sVhealer
p472
VHealer
p473
sVseel
p474
VSeel
p475
sVblastoise
p476
VBlastoise
p477
sVstrength
p478
VStrength
p479
sVchingling
p480
VChingling
p481
sVgothita
p482
VGothita
p483
sVdarmanitan
p484
VDarmanitan
p485
sVcraftyshield
p486
VCrafty Shield
p487
sVgyroball
p488
VGyro Ball
p489
sVursaring
p490
VUrsaring
p491
sVgolbat
p492
VGolbat
p493
sVgrassyterrain
p494
VGrassy Terrain
p495
sVdeoxysspeed
p496
VDeoxys-Speed
p497
sVshadowforce
p498
VShadow Force
p499
sVcoil
p500
VCoil
p501
sVdrought
p502
VDrought
p503
sVslackoff
p504
VSlack Off
p505
sVcosmicpower
p506
VCosmic Power
p507
sVempoleon
p508
VEmpoleon
p509
sVthousandwaves
p510
VThousand Waves
p511
sVdunsparce
p512
VDunsparce
p513
sVconstrict
p514
VConstrict
p515
sVvileplume
p516
VVileplume
p517
sVraticate
p518
VRaticate
p519
sVslaking
p520
VSlaking
p521
sVjirachi
p522
VJirachi
p523
sVgolduck
p524
VGolduck
p525
sVarmorfossil
p526
VArmor Fossil
p527
sVstickyweb
p528
VSticky Web
p529
sVtogekiss
p530
VTogekiss
p531
sVhippopotas
p532
VHippopotas
p533
sVdialga
p534
VDialga
p535
sVlastresort
p536
VLast Resort
p537
sVbulletpunch
p538
VBullet Punch
p539
sVicegem
p540
VIce Gem
p541
sVspite
p542
VSpite
p543
sVcarbink
p544
VCarbink
p545
sVwaterpulse
p546
VWater Pulse
p547
sVstoutland
p548
VStoutland
p549
sVbidoof
p550
VBidoof
p551
sVsyclant
p552
VSyclant
p553
sVhaunter
p554
VHaunter
p555
sVweedle
p556
VWeedle
p557
sVaerilate
p558
VAerilate
p559
sVhoneygather
p560
VHoney Gather
p561
sVmachop
p562
VMachop
p563
sVmetalpowder
p564
VMetal Powder
p565
sVdusknoir
p566
VDusknoir
p567
sVmeditate
p568
VMeditate
p569
sVreversal
p570
VReversal
p571
sVlunardance
p572
VLunar Dance
p573
sVpumpkaboosmall
p574
VPumpkaboo-Small
p575
sVtentacool
p576
VTentacool
p577
sVpokeball
p578
VPoke Ball
p579
sVdiancie
p580
VDiancie
p581
sVplasmanta
p582
VPlasmanta
p583
sVnosepass
p584
VNosepass
p585
sVflashcannon
p586
VFlash Cannon
p587
sVlaxincense
p588
VLax Incense
p589
sVmagneton
p590
VMagneton
p591
sVstickyhold
p592
VSticky Hold
p593
sVbeatup
p594
VBeat Up
p595
sVleafblade
p596
VLeaf Blade
p597
sVserperior
p598
VSerperior
p599
sVlopunnite
p600
VLopunnite
p601
sVwooper
p602
VWooper
p603
sVforretress
p604
VForretress
p605
sVmindreader
p606
VMind Reader
p607
sVseaincense
p608
VSea Incense
p609
sVsimisage
p610
VSimisage
p611
sVarcheops
p612
VArcheops
p613
sVheavymetal
p614
VHeavy Metal
p615
sVwormadamsandy
p616
VWormadam-Sandy
p617
sVmuscleband
p618
VMuscle Band
p619
sVmatblock
p620
VMat Block
p621
sVpurrloin
p622
VPurrloin
p623
sVdoduo
p624
VDoduo
p625
sVmuk
p626
VMuk
p627
sVmotordrive
p628
VMotor Drive
p629
sVmothim
p630
VMothim
p631
sVslowpoke
p632
VSlowpoke
p633
sVfrostbreath
p634
VFrost Breath
p635
sVcubone
p636
VCubone
p637
sVspinda
p638
VSpinda
p639
sVmeadowplate
p640
VMeadow Plate
p641
sVparasect
p642
VParasect
p643
sVgourgeistsmall
p644
VGourgeist-Small
p645
sVrhydon
p646
VRhydon
p647
sVprotect
p648
VProtect
p649
sVplaynice
p650
VPlay Nice
p651
sVsamurott
p652
VSamurott
p653
sVmawile
p654
VMawile
p655
sVchimecho
p656
VChimecho
p657
sVpetayaberry
p658
VPetaya Berry
p659
sVdoublade
p660
VDoublade
p661
sVdeltastream
p662
VDelta Stream
p663
sVluckychant
p664
VLucky Chant
p665
sVleppaberry
p666
VLeppa Berry
p667
sVchlorophyll
p668
VChlorophyll
p669
sVoblivious
p670
VOblivious
p671
sVfierydance
p672
VFiery Dance
p673
sVfloatzel
p674
VFloatzel
p675
sVsmackdown
p676
VSmack Down
p677
sVcopycat
p678
VCopycat
p679
sVsalamencite
p680
VSalamencite
p681
sVbuneary
p682
VBuneary
p683
sVshockdrive
p684
VShock Drive
p685
sVnightdaze
p686
VNight Daze
p687
sVfriendguard
p688
VFriend Guard
p689
sVscaryface
p690
VScary Face
p691
sVsteamroller
p692
VSteamroller
p693
sVkakuna
p694
VKakuna
p695
sVpowertrick
p696
VPower Trick
p697
sVyanma
p698
VYanma
p699
sVchatot
p700
VChatot
p701
sVmarshtomp
p702
VMarshtomp
p703
sVgurdurr
p704
VGurdurr
p705
sVthrash
p706
VThrash
p707
sVchespin
p708
VChespin
p709
sVtotodile
p710
VTotodile
p711
sVgarchompite
p712
VGarchompite
p713
sVslowbro
p714
VSlowbro
p715
sValakazam
p716
VAlakazam
p717
sVbinacle
p718
VBinacle
p719
sVnevermeltice
p720
VNever-Melt Ice
p721
sVgrowl
p722
VGrowl
p723
sVaguavberry
p724
VAguav Berry
p725
sVdrilbur
p726
VDrilbur
p727
sVcameruptite
p728
VCameruptite
p729
sVralts
p730
VRalts
p731
sVpupitar
p732
VPupitar
p733
sVslowking
p734
VSlowking
p735
sVpowerherb
p736
VPower Herb
p737
sVnoivern
p738
VNoivern
p739
sVwaterfall
p740
VWaterfall
p741
sVdewgong
p742
VDewgong
p743
sVkirlia
p744
VKirlia
p745
sVknockoff
p746
VKnock Off
p747
sVoctazooka
p748
VOctazooka
p749
sVcawmodore
p750
VCawmodore
p751
sVsylveon
p752
VSylveon
p753
sVhighjumpkick
p754
VHigh Jump Kick
p755
sVluxuryball
p756
VLuxury Ball
p757
sVhydration
p758
VHydration
p759
sVkrokorok
p760
VKrokorok
p761
sVamoonguss
p762
VAmoonguss
p763
sVquilladin
p764
VQuilladin
p765
sVshellarmor
p766
VShell Armor
p767
sVpoliwag
p768
VPoliwag
p769
sVmetalcoat
p770
VMetal Coat
p771
sVthickclub
p772
VThick Club
p773
sVscizor
p774
VScizor
p775
sVgoomy
p776
VGoomy
p777
sVsilcoon
p778
VSilcoon
p779
sVbuggem
p780
VBug Gem
p781
sVoshawott
p782
VOshawott
p783
sVtorterra
p784
VTorterra
p785
sVtogepi
p786
VTogepi
p787
sVdomefossil
p788
VDome Fossil
p789
sVlowkick
p790
VLow Kick
p791
sVhealbell
p792
VHeal Bell
p793
sVmirrorshot
p794
VMirror Shot
p795
sVlickitung
p796
VLickitung
p797
sVlatiosmega
p798
VLatios-Mega
p799
sVdragonrush
p800
VDragon Rush
p801
sVredorb
p802
VRed Orb
p803
sVspinarak
p804
VSpinarak
p805
sVdiggersby
p806
VDiggersby
p807
sVsilverwind
p808
VSilver Wind
p809
sVthundurustherian
p810
VThundurus-Therian
p811
sVludicolo
p812
VLudicolo
p813
sVditto
p814
VDitto
p815
sVcirclethrow
p816
VCircle Throw
p817
sVrotom
p818
VRotom
p819
sVnidoqueen
p820
VNidoqueen
p821
sVpinsirmega
p822
VPinsir-Mega
p823
sS'hiddenpowerpoison'
p824
S'Hidden Power Poison'
p825
sVflatter
p826
VFlatter
p827
sVtoxicspikes
p828
VToxic Spikes
p829
sVfirepledge
p830
VFire Pledge
p831
sVnoctowl
p832
VNoctowl
p833
sVcornnberry
p834
VCornn Berry
p835
sVskullfossil
p836
VSkull Fossil
p837
sVcheekpouch
p838
VCheek Pouch
p839
sVuproar
p840
VUproar
p841
sVrhyperior
p842
VRhyperior
p843
sVgeargrind
p844
VGear Grind
p845
sVholdhands
p846
VHold Hands
p847
sVcrosschop
p848
VCross Chop
p849
sVpsyshock
p850
VPsyshock
p851
sVicyrock
p852
VIcy Rock
p853
sVwynaut
p854
VWynaut
p855
sVtrevenant
p856
VTrevenant
p857
sVabsorbbulb
p858
VAbsorb Bulb
p859
sS'bold'
p860
S'Bold'
p861
sVgunkshot
p862
VGunk Shot
p863
sVgarchomp
p864
VGarchomp
p865
sVgeodude
p866
VGeodude
p867
sVlightscreen
p868
VLight Screen
p869
sVwhimsicott
p870
VWhimsicott
p871
sVlavaplume
p872
VLava Plume
p873
sVkeeneye
p874
VKeen Eye
p875
sVsimipour
p876
VSimipour
p877
sVautotomize
p878
VAutotomize
p879
sVspikecannon
p880
VSpike Cannon
p881
sVnecturna
p882
VNecturna
p883
sVplus
p884
VPlus
p885
sVsapsipper
p886
VSap Sipper
p887
sVpikachulibre
p888
VPikachu-Libre
p889
sVriolu
p890
VRiolu
p891
sVhornleech
p892
VHorn Leech
p893
sVbraixen
p894
VBraixen
p895
sVdarkvoid
p896
VDark Void
p897
sVhoundour
p898
VHoundour
p899
sVdualchop
p900
VDual Chop
p901
sVfoulplay
p902
VFoul Play
p903
sVscyther
p904
VScyther
p905
sVgalewings
p906
VGale Wings
p907
sVstormdrain
p908
VStorm Drain
p909
sVseadra
p910
VSeadra
p911
sVovergrow
p912
VOvergrow
p913
sVgengarmega
p914
VGengar-Mega
p915
sVchimchar
p916
VChimchar
p917
sVwrap
p918
VWrap
p919
sVcorsola
p920
VCorsola
p921
sVtransform
p922
VTransform
p923
sVklefki
p924
VKlefki
p925
sVrowapberry
p926
VRowap Berry
p927
sS'quirky'
p928
S'Quirky'
p929
sVquickattack
p930
VQuick Attack
p931
sVsynthesis
p932
VSynthesis
p933
sVmultiscale
p934
VMultiscale
p935
sVgroundgem
p936
VGround Gem
p937
sVreshiram
p938
VReshiram
p939
sVwatergem
p940
VWater Gem
p941
sVrocksmash
p942
VRock Smash
p943
sVvolttackle
p944
VVolt Tackle
p945
sVghostgem
p946
VGhost Gem
p947
sVroughskin
p948
VRough Skin
p949
sVsafeguard
p950
VSafeguard
p951
sVsmoothrock
p952
VSmooth Rock
p953
sVbide
p954
VBide
p955
sVaurabreak
p956
VAura Break
p957
sVaurorus
p958
VAurorus
p959
sVlightofruin
p960
VLight of Ruin
p961
sVholdback
p962
VHold Back
p963
sVchopleberry
p964
VChople Berry
p965
sVunnerve
p966
VUnnerve
p967
sVparentalbond
p968
VParental Bond
p969
sVferaligatr
p970
VFeraligatr
p971
sVoddish
p972
VOddish
p973
sVleer
p974
VLeer
p975
sVmagby
p976
VMagby
p977
sVswadloon
p978
VSwadloon
p979
sVvibrava
p980
VVibrava
p981
sVuxie
p982
VUxie
p983
sVsmoochum
p984
VSmoochum
p985
sVlansatberry
p986
VLansat Berry
p987
sVbutterfree
p988
VButterfree
p989
sVferroseed
p990
VFerroseed
p991
sVamaura
p992
VAmaura
p993
sVfennekin
p994
VFennekin
p995
sVclawfossil
p996
VClaw Fossil
p997
sVdischarge
p998
VDischarge
p999
sVkyogre
p1000
VKyogre
p1001
sVpoisonpoint
p1002
VPoison Point
p1003
sS'hiddenpowerground'
p1004
S'Hidden Power Ground'
p1005
sVarceuspoison
p1006
VArceus-Poison
p1007
sVliechiberry
p1008
VLiechi Berry
p1009
sVlillipup
p1010
VLillipup
p1011
sVflareboost
p1012
VFlare Boost
p1013
sVmareep
p1014
VMareep
p1015
sVoccaberry
p1016
VOcca Berry
p1017
sVironfist
p1018
VIron Fist
p1019
sS'serious'
p1020
S'Serious'
p1021
sVmegadrain
p1022
VMega Drain
p1023
sVsalacberry
p1024
VSalac Berry
p1025
sVsnubbull
p1026
VSnubbull
p1027
sVsandveil
p1028
VSand Veil
p1029
sVabsolite
p1030
VAbsolite
p1031
sVbonsly
p1032
VBonsly
p1033
sVcelebi
p1034
VCelebi
p1035
sVavalanche
p1036
VAvalanche
p1037
sVshadowsneak
p1038
VShadow Sneak
p1039
sVsuctioncups
p1040
VSuction Cups
p1041
sVsuperpower
p1042
VSuperpower
p1043
sVvenusaurmega
p1044
VVenusaur-Mega
p1045
sVpanpour
p1046
VPanpour
p1047
sVdragonpulse
p1048
VDragon Pulse
p1049
sVelectroball
p1050
VElectro Ball
p1051
sVflash
p1052
VFlash
p1053
sVnetball
p1054
VNet Ball
p1055
sVcharge
p1056
VCharge
p1057
sVquash
p1058
VQuash
p1059
sVsnorlax
p1060
VSnorlax
p1061
sVunburden
p1062
VUnburden
p1063
sVrufflet
p1064
VRufflet
p1065
sVmachamp
p1066
VMachamp
p1067
sVkricketune
p1068
VKricketune
p1069
sVtailslap
p1070
VTail Slap
p1071
sVjynx
p1072
VJynx
p1073
sVlopunny
p1074
VLopunny
p1075
sVtwistedspoon
p1076
VTwistedSpoon
p1077
sVskyuppercut
p1078
VSky Uppercut
p1079
sVpoisonsting
p1080
VPoison Sting
p1081
sVarceusfire
p1082
VArceus-Fire
p1083
sVfocusblast
p1084
VFocus Blast
p1085
sVmesprit
p1086
VMesprit
p1087
sVmagnet
p1088
VMagnet
p1089
sVbanettemega
p1090
VBanette-Mega
p1091
sVround
p1092
VRound
p1093
sVunaware
p1094
VUnaware
p1095
sVduskball
p1096
VDusk Ball
p1097
sVfalseswipe
p1098
VFalse Swipe
p1099
sVtalonflame
p1100
VTalonflame
p1101
sVleafeon
p1102
VLeafeon
p1103
sVzorua
p1104
VZorua
p1105
sVzenmode
p1106
VZen Mode
p1107
sVvitalthrow
p1108
VVital Throw
p1109
sVsubstitute
p1110
VSubstitute
p1111
sVcurse
p1112
VCurse
p1113
sVfocusband
p1114
VFocus Band
p1115
sVmoltres
p1116
VMoltres
p1117
sVpasshoberry
p1118
VPassho Berry
p1119
sVdragondance
p1120
VDragon Dance
p1121
sVaxew
p1122
VAxew
p1123
sVkecleon
p1124
VKecleon
p1125
sVglameow
p1126
VGlameow
p1127
sVaeroblast
p1128
VAeroblast
p1129
sVwartortle
p1130
VWartortle
p1131
sVexplosion
p1132
VExplosion
p1133
sVmiracleeye
p1134
VMiracle Eye
p1135
sVpumpkaboo
p1136
VPumpkaboo
p1137
sVsimisear
p1138
VSimisear
p1139
sVhoopa
p1140
VHoopa
p1141
sVtropius
p1142
VTropius
p1143
sVmysticwater
p1144
VMystic Water
p1145
sVearthquake
p1146
VEarthquake
p1147
sVgastroacid
p1148
VGastro Acid
p1149
sVejectbutton
p1150
VEject Button
p1151
sVbeedrillmega
p1152
VBeedrill-Mega
p1153
sVexploud
p1154
VExploud
p1155
sVdiveball
p1156
VDive Ball
p1157
sVsawk
p1158
VSawk
p1159
sVscraggy
p1160
VScraggy
p1161
sVdedenne
p1162
VDedenne
p1163
sVdragonite
p1164
VDragonite
p1165
sVbagon
p1166
VBagon
p1167
sVregenerator
p1168
VRegenerator
p1169
sViondeluge
p1170
VIon Deluge
p1171
sVlarvesta
p1172
VLarvesta
p1173
sVmudslap
p1174
VMud-Slap
p1175
sVflaaffy
p1176
VFlaaffy
p1177
sVmagicroom
p1178
VMagic Room
p1179
sVampharosite
p1180
VAmpharosite
p1181
sVdesolateland
p1182
VDesolate Land
p1183
sVpinsirite
p1184
VPinsirite
p1185
sVheavyslam
p1186
VHeavy Slam
p1187
sVpinmissile
p1188
VPin Missile
p1189
sVkyogreprimal
p1190
VKyogre-Primal
p1191
sVsmellingsalts
p1192
VSmelling Salts
p1193
sVcaptivate
p1194
VCaptivate
p1195
sVflamecharge
p1196
VFlame Charge
p1197
sVswagger
p1198
VSwagger
p1199
sVxatu
p1200
VXatu
p1201
sVrockslide
p1202
VRock Slide
p1203
sVcaterpie
p1204
VCaterpie
p1205
sVhypno
p1206
VHypno
p1207
sVelectrike
p1208
VElectrike
p1209
sVfletchling
p1210
VFletchling
p1211
sVseismictoss
p1212
VSeismic Toss
p1213
sVdarumaka
p1214
VDarumaka
p1215
sVuturn
p1216
VU-turn
p1217
sVflygon
p1218
VFlygon
p1219
sVsandstorm
p1220
VSandstorm
p1221
sVswampertite
p1222
VSwampertite
p1223
sVswablu
p1224
VSwablu
p1225
sVspikyshield
p1226
VSpiky Shield
p1227
sVscolipede
p1228
VScolipede
p1229
sVdwebble
p1230
VDwebble
p1231
sVpignite
p1232
VPignite
p1233
sVsolarpower
p1234
VSolar Power
p1235
sVdonphan
p1236
VDonphan
p1237
sVpalpitoad
p1238
VPalpitoad
p1239
sVchilldrive
p1240
VChill Drive
p1241
sVnormalize
p1242
VNormalize
p1243
sVbanette
p1244
VBanette
p1245
sVtailwind
p1246
VTailwind
p1247
sVdianciemega
p1248
VDiancie-Mega
p1249
sVwideguard
p1250
VWide Guard
p1251
sVeelektrik
p1252
VEelektrik
p1253
sVsandforce
p1254
VSand Force
p1255
sVelectricterrain
p1256
VElectric Terrain
p1257
sVoctillery
p1258
VOctillery
p1259
sVselfdestruct
p1260
VSelf-Destruct
p1261
sVteleport
p1262
VTeleport
p1263
sVdive
p1264
VDive
p1265
sVmamoswine
p1266
VMamoswine
p1267
sVwiseglasses
p1268
VWise Glasses
p1269
sVmilkdrink
p1270
VMilk Drink
p1271
sVpowerwhip
p1272
VPower Whip
p1273
sVancientpower
p1274
VAncient Power
p1275
sVblissey
p1276
VBlissey
p1277
sVcryogonal
p1278
VCryogonal
p1279
sVsupersonic
p1280
VSupersonic
p1281
sVdelibird
p1282
VDelibird
p1283
sVmalamar
p1284
VMalamar
p1285
sVshinx
p1286
VShinx
p1287
sVlitwick
p1288
VLitwick
p1289
sVslowbronite
p1290
VSlowbronite
p1291
sVthunderpunch
p1292
VThunder Punch
p1293
sVlugia
p1294
VLugia
p1295
sVbulletseed
p1296
VBullet Seed
p1297
sVbubblebeam
p1298
VBubble Beam
p1299
sVpachirisu
p1300
VPachirisu
p1301
sVarcanine
p1302
VArcanine
p1303
sVsneasel
p1304
VSneasel
p1305
sVgrassknot
p1306
VGrass Knot
p1307
sVklutz
p1308
VKlutz
p1309
sVbulldoze
p1310
VBulldoze
p1311
sVfocusenergy
p1312
VFocus Energy
p1313
sVprimordialsea
p1314
VPrimordial Sea
p1315
sVkabuto
p1316
VKabuto
p1317
sVmail
p1318
VMail
p1319
sVfuryswipes
p1320
VFury Swipes
p1321
sS'lonely'
p1322
S'Lonely'
p1323
sVfling
p1324
VFling
p1325
sVrattled
p1326
VRattled
p1327
sS'bashful'
p1328
S'Bashful'
p1329
sVfusionflare
p1330
VFusion Flare
p1331
sVsafariball
p1332
VSafari Ball
p1333
sVeffectspore
p1334
VEffect Spore
p1335
sVboomburst
p1336
VBoomburst
p1337
sVlinoone
p1338
VLinoone
p1339
sValtariamega
p1340
VAltaria-Mega
p1341
sVsynchronize
p1342
VSynchronize
p1343
sVmantine
p1344
VMantine
p1345
sVglalie
p1346
VGlalie
p1347
sVpsyduck
p1348
VPsyduck
p1349
sVmentalherb
p1350
VMental Herb
p1351
sVswalot
p1352
VSwalot
p1353
sVgenesectburn
p1354
VGenesect-Burn
p1355
sVporygonz
p1356
VPorygon-Z
p1357
sVstrugglebug
p1358
VStruggle Bug
p1359
sVpersian
p1360
VPersian
p1361
sVshaymin
p1362
VShaymin
p1363
sVpidove
p1364
VPidove
p1365
sVskillswap
p1366
VSkill Swap
p1367
sVassurance
p1368
VAssurance
p1369
sVpoochyena
p1370
VPoochyena
p1371
sVporygon2
p1372
VPorygon2
p1373
sVtoxicroak
p1374
VToxicroak
p1375
sVsteelwing
p1376
VSteel Wing
p1377
sVdig
p1378
VDig
p1379
sVpetilil
p1380
VPetilil
p1381
sVtelepathy
p1382
VTelepathy
p1383
sVnidorino
p1384
VNidorino
p1385
sVmeloettapirouette
p1386
VMeloetta-Pirouette
p1387
sVnidorina
p1388
VNidorina
p1389
sVhypnosis
p1390
VHypnosis
p1391
sVdurinberry
p1392
VDurin Berry
p1393
sVdragonrage
p1394
VDragon Rage
p1395
sVjolteon
p1396
VJolteon
p1397
sVdefensecurl
p1398
VDefense Curl
p1399
sVchikorita
p1400
VChikorita
p1401
sVrockyhelmet
p1402
VRocky Helmet
p1403
sS'crucibelle'
p1404
S'Crucibelle'
p1405
sVjabocaberry
p1406
VJaboca Berry
p1407
sVhoppip
p1408
VHoppip
p1409
sViceshard
p1410
VIce Shard
p1411
sVgiratina
p1412
VGiratina
p1413
sVteravolt
p1414
VTeravolt
p1415
sVbite
p1416
VBite
p1417
sVduosion
p1418
VDuosion
p1419
sVaromatherapy
p1420
VAromatherapy
p1421
sVsleeptalk
p1422
VSleep Talk
p1423
sVconfuseray
p1424
VConfuse Ray
p1425
sVgliscor
p1426
VGliscor
p1427
sVseedot
p1428
VSeedot
p1429
sVsnatch
p1430
VSnatch
p1431
sVbunnelby
p1432
VBunnelby
p1433
sVdrapion
p1434
VDrapion
p1435
sVpeck
p1436
VPeck
p1437
sVwormadamtrash
p1438
VWormadam-Trash
p1439
sVearthplate
p1440
VEarth Plate
p1441
sVgarbodor
p1442
VGarbodor
p1443
sVtrickortreat
p1444
VTrick-or-Treat
p1445
sVvirizion
p1446
VVirizion
p1447
sS'hiddenpowerrock'
p1448
S'Hidden Power Rock'
p1449
sVrazzberry
p1450
VRazz Berry
p1451
sVlick
p1452
VLick
p1453
sVslam
p1454
VSlam
p1455
sVsandstream
p1456
VSand Stream
p1457
sVledyba
p1458
VLedyba
p1459
sVaquatail
p1460
VAqua Tail
p1461
sVkrilowatt
p1462
VKrilowatt
p1463
sVrecover
p1464
VRecover
p1465
sVconversion
p1466
VConversion
p1467
sVelectrode
p1468
VElectrode
p1469
sVreckless
p1470
VReckless
p1471
sS'hiddenpowerdark'
p1472
S'Hidden Power Dark'
p1473
sVmetalsound
p1474
VMetal Sound
p1475
sVarghonaut
p1476
VArghonaut
p1477
sVbeedrill
p1478
VBeedrill
p1479
sVsurf
p1480
VSurf
p1481
sVgriseousorb
p1482
VGriseous Orb
p1483
sVmountaineer
p1484
VMountaineer
p1485
sVstunky
p1486
VStunky
p1487
sVtrace
p1488
VTrace
p1489
sVtynamo
p1490
VTynamo
p1491
sVdarkrai
p1492
VDarkrai
p1493
sVbarrage
p1494
VBarrage
p1495
sVbonemerang
p1496
VBonemerang
p1497
sVstunfisk
p1498
VStunfisk
p1499
sVadaptability
p1500
VAdaptability
p1501
sVespurr
p1502
VEspurr
p1503
sVleaftornado
p1504
VLeaf Tornado
p1505
sVhyperfang
p1506
VHyper Fang
p1507
sVdracoplate
p1508
VDraco Plate
p1509
sVhyperspacefury
p1510
VHyperspace Fury
p1511
sVelectirizer
p1512
VElectirizer
p1513
sVmollux
p1514
VMollux
p1515
sVmuddywater
p1516
VMuddy Water
p1517
sVcompoundeyes
p1518
VCompound Eyes
p1519
sVdelphox
p1520
VDelphox
p1521
sVtintedlens
p1522
VTinted Lens
p1523
sVgolurk
p1524
VGolurk
p1525
sVfigyberry
p1526
VFigy Berry
p1527
sVgoodra
p1528
VGoodra
p1529
sVrevenankh
p1530
VRevenankh
p1531
sVvolbeat
p1532
VVolbeat
p1533
sVburndrive
p1534
VBurn Drive
p1535
sVpartingshot
p1536
VParting Shot
p1537
sVpatrat
p1538
VPatrat
p1539
sVacupressure
p1540
VAcupressure
p1541
sVanalytic
p1542
VAnalytic
p1543
sVprobopass
p1544
VProbopass
p1545
sVoutrage
p1546
VOutrage
p1547
sVleavanny
p1548
VLeavanny
p1549
sVkinesis
p1550
VKinesis
p1551
sVweaknesspolicy
p1552
VWeakness Policy
p1553
sVstomp
p1554
VStomp
p1555
sVboneclub
p1556
VBone Club
p1557
sVtelekinesis
p1558
VTelekinesis
p1559
sVmoxie
p1560
VMoxie
p1561
sVcelebrate
p1562
VCelebrate
p1563
sVshuppet
p1564
VShuppet
p1565
sVparkball
p1566
VPark Ball
p1567
sVlatiasite
p1568
VLatiasite
p1569
sVspewpa
p1570
VSpewpa
p1571
sVwonderskin
p1572
VWonder Skin
p1573
sVfakeout
p1574
VFake Out
p1575
sVimposter
p1576
VImposter
p1577
sVspore
p1578
VSpore
p1579
sVquagsire
p1580
VQuagsire
p1581
sVdetect
p1582
VDetect
p1583
sVsteadfast
p1584
VSteadfast
p1585
sVlimber
p1586
VLimber
p1587
sVbatonpass
p1588
VBaton Pass
p1589
sVforecast
p1590
VForecast
p1591
sVwhiscash
p1592
VWhiscash
p1593
sVsnowwarning
p1594
VSnow Warning
p1595
sVjustified
p1596
VJustified
p1597
sVdamprock
p1598
VDamp Rock
p1599
sVhariyama
p1600
VHariyama
p1601
sVcrawdaunt
p1602
VCrawdaunt
p1603
sVpluck
p1604
VPluck
p1605
sVspark
p1606
VSpark
p1607
sVroseincense
p1608
VRose Incense
p1609
sVspoink
p1610
VSpoink
p1611
sVscatterbug
p1612
VScatterbug
p1613
sVvictreebel
p1614
VVictreebel
p1615
sVdestinyknot
p1616
VDestiny Knot
p1617
sVluminousmoss
p1618
VLuminous Moss
p1619
sVrhyhorn
p1620
VRhyhorn
p1621
sVsteelix
p1622
VSteelix
p1623
sVnestball
p1624
VNest Ball
p1625
sVkrookodile
p1626
VKrookodile
p1627
sVcellbattery
p1628
VCell Battery
p1629
sVwingattack
p1630
VWing Attack
p1631
sVnormalgem
p1632
VNormal Gem
p1633
sS'hiddenpowersteel'
p1634
S'Hidden Power Steel'
p1635
sVtyranitarite
p1636
VTyranitarite
p1637
sVdodrio
p1638
VDodrio
p1639
sVstancechange
p1640
VStance Change
p1641
sVzapdos
p1642
VZapdos
p1643
sVendeavor
p1644
VEndeavor
p1645
sViceburn
p1646
VIce Burn
p1647
sVrunaway
p1648
VRun Away
p1649
sVlandswrath
p1650
VLand's Wrath
p1651
sVmawilemega
p1652
VMawile-Mega
p1653
sVlightmetal
p1654
VLight Metal
p1655
sVstunspore
p1656
VStun Spore
p1657
sVxerneas
p1658
VXerneas
p1659
sVgigalith
p1660
VGigalith
p1661
sVspiderweb
p1662
VSpider Web
p1663
sVstantler
p1664
VStantler
p1665
sVlopunnymega
p1666
VLopunny-Mega
p1667
sVflamebody
p1668
VFlame Body
p1669
sVhelioptile
p1670
VHelioptile
p1671
sVcresselia
p1672
VCresselia
p1673
sVomanyte
p1674
VOmanyte
p1675
sVbreloom
p1676
VBreloom
p1677
sVstormthrow
p1678
VStorm Throw
p1679
sVhealblock
p1680
VHeal Block
p1681
sVswanna
p1682
VSwanna
p1683
sVskiddo
p1684
VSkiddo
p1685
sS'careful'
p1686
S'Careful'
p1687
sVmudshot
p1688
VMud Shot
p1689
sVdefeatist
p1690
VDefeatist
p1691
sVtrick
p1692
VTrick
p1693
sVlandorus
p1694
VLandorus
p1695
sVgroudon
p1696
VGroudon
p1697
sS'quiet'
p1698
S'Quiet'
p1699
sVgrasswhistle
p1700
VGrass Whistle
p1701
sVshadowclaw
p1702
VShadow Claw
p1703
sVsacredfire
p1704
VSacred Fire
p1705
sVmonferno
p1706
VMonferno
p1707
sVvicegrip
p1708
VVice Grip
p1709
sVgourgeistlarge
p1710
VGourgeist-Large
p1711
sVcubchoo
p1712
VCubchoo
p1713
sS'hiddenpowerice'
p1714
S'Hidden Power Ice'
p1715
sVextremespeed
p1716
VExtreme Speed
p1717
sVangerpoint
p1718
VAnger Point
p1719
sVphantomforce
p1720
VPhantom Force
p1721
sVstrongjaw
p1722
VStrong Jaw
p1723
sVnuzzle
p1724
VNuzzle
p1725
sVthunderbolt
p1726
VThunderbolt
p1727
sVgenesectshock
p1728
VGenesect-Shock
p1729
sVmagnetbomb
p1730
VMagnet Bomb
p1731
sVassist
p1732
VAssist
p1733
sVblaziken
p1734
VBlaziken
p1735
sVbulletproof
p1736
VBulletproof
p1737
sVgligar
p1738
VGligar
p1739
sVpangoro
p1740
VPangoro
p1741
sVhypervoice
p1742
VHyper Voice
p1743
sVminimize
p1744
VMinimize
p1745
sVdoublehit
p1746
VDouble Hit
p1747
sVmedicham
p1748
VMedicham
p1749
sVheatmor
p1750
VHeatmor
p1751
sVrockgem
p1752
VRock Gem
p1753
sVrazorwind
p1754
VRazor Wind
p1755
sVfurcoat
p1756
VFur Coat
p1757
sVhealingwish
p1758
VHealing Wish
p1759
sVquickguard
p1760
VQuick Guard
p1761
sVwingull
p1762
VWingull
p1763
sVrest
p1764
VRest
p1765
sVfurfrou
p1766
VFurfrou
p1767
sVdarkaura
p1768
VDark Aura
p1769
sVrazorclaw
p1770
VRazor Claw
p1771
sVdragonbreath
p1772
VDragon Breath
p1773
sVelgyem
p1774
VElgyem
p1775
sVduskull
p1776
VDuskull
p1777
sVcometpunch
p1778
VComet Punch
p1779
sVaerialace
p1780
VAerial Ace
p1781
sVparas
p1782
VParas
p1783
sVrayquazamega
p1784
VRayquaza-Mega
p1785
sVflareblitz
p1786
VFlare Blitz
p1787
sVtrubbish
p1788
VTrubbish
p1789
sVsnarl
p1790
VSnarl
p1791
sVmachpunch
p1792
VMach Punch
p1793
sVvolkraken
p1794
VVolkraken
p1795
sVsunkern
p1796
VSunkern
p1797
sVcolossoil
p1798
VColossoil
p1799
sVdreamball
p1800
VDream Ball
p1801
sVsnore
p1802
VSnore
p1803
sVfloatstone
p1804
VFloat Stone
p1805
sVskiploom
p1806
VSkiploom
p1807
sVregigigas
p1808
VRegigigas
p1809
sVvoltswitch
p1810
VVolt Switch
p1811
sVarceusrock
p1812
VArceus-Rock
p1813
sVbrightpowder
p1814
VBrightPowder
p1815
sVhypercutter
p1816
VHyper Cutter
p1817
sVvanillite
p1818
VVanillite
p1819
sVchoiceband
p1820
VChoice Band
p1821
sVheartswap
p1822
VHeart Swap
p1823
sVpinapberry
p1824
VPinap Berry
p1825
sVminccino
p1826
VMinccino
p1827
sVrefresh
p1828
VRefresh
p1829
sVprinplup
p1830
VPrinplup
p1831
sVaudinomega
p1832
VAudino-Mega
p1833
sVultraball
p1834
VUltra Ball
p1835
sVcrustle
p1836
VCrustle
p1837
sVpowergem
p1838
VPower Gem
p1839
sVechoedvoice
p1840
VEchoed Voice
p1841
sVbattlearmor
p1842
VBattle Armor
p1843
sVvolcanion
p1844
VVolcanion
p1845
sVcastformsnowy
p1846
VCastform-Snowy
p1847
sVhustle
p1848
VHustle
p1849
sVthroh
p1850
VThroh
p1851
sVmusharna
p1852
VMusharna
p1853
sVinnerfocus
p1854
VInner Focus
p1855
sVbasculinbluestriped
p1856
VBasculin-Blue-Striped
p1857
sVpumpkaboolarge
p1858
VPumpkaboo-Large
p1859
sVzapcannon
p1860
VZap Cannon
p1861
sVroar
p1862
VRoar
p1863
sVlockon
p1864
VLock-On
p1865
sVfloette
p1866
VFloette
p1867
sVgengar
p1868
VGengar
p1869
sVroserade
p1870
VRoserade
p1871
sVgolem
p1872
VGolem
p1873
sVquilava
p1874
VQuilava
p1875
sVcustapberry
p1876
VCustap Berry
p1877
sVsearingshot
p1878
VSearing Shot
p1879
sVstratagem
p1880
VStratagem
p1881
sVpyroar
p1882
VPyroar
p1883
sVshadowpunch
p1884
VShadow Punch
p1885
sVfocuspunch
p1886
VFocus Punch
p1887
sVtoughclaws
p1888
VTough Claws
p1889
sVstruggle
p1890
VStruggle
p1891
sViciclespear
p1892
VIcicle Spear
p1893
sVpyroak
p1894
VPyroak
p1895
sVsacredsword
p1896
VSacred Sword
p1897
sVhex
p1898
VHex
p1899
sVmarill
p1900
VMarill
p1901
sVsymbiosis
p1902
VSymbiosis
p1903
sVhoopaunbound
p1904
VHoopa-Unbound
p1905
sVwillowisp
p1906
VWill-O-Wisp
p1907
sVsandrush
p1908
VSand Rush
p1909
sVbubble
p1910
VBubble
p1911
sVfastball
p1912
VFast Ball
p1913
sVglaciate
p1914
VGlaciate
p1915
sVnightshade
p1916
VNight Shade
p1917
sVfrogadier
p1918
VFrogadier
p1919
sVporygon
p1920
VPorygon
p1921
sVheatrock
p1922
VHeat Rock
p1923
sVvitalspirit
p1924
VVital Spirit
p1925
sVsolosis
p1926
VSolosis
p1927
sVrage
p1928
VRage
p1929
sVvictorystar
p1930
VVictory Star
p1931
sVvinewhip
p1932
VVine Whip
p1933
sVstoneplate
p1934
VStone Plate
p1935
sVember
p1936
VEmber
p1937
sVsplashplate
p1938
VSplash Plate
p1939
sVpowdersnow
p1940
VPowder Snow
p1941
sVclamperl
p1942
VClamperl
p1943
sVchesnaught
p1944
VChesnaught
p1945
sVgrepaberry
p1946
VGrepa Berry
p1947
sVsmokescreen
p1948
VSmokescreen
p1949
sVmoonblast
p1950
VMoonblast
p1951
sVcolburberry
p1952
VColbur Berry
p1953
sVhorndrill
p1954
VHorn Drill
p1955
sVaegislash
p1956
VAegislash
p1957
sVimmunity
p1958
VImmunity
p1959
sVtangela
p1960
VTangela
p1961
sVcharizard
p1962
VCharizard
p1963
sVnincada
p1964
VNincada
p1965
sVaccelgor
p1966
VAccelgor
p1967
sVmirrorcoat
p1968
VMirror Coat
p1969
sVemboar
p1970
VEmboar
p1971
sVmawilite
p1972
VMawilite
p1973
sVdustox
p1974
VDustox
p1975
sVrootfossil
p1976
VRoot Fossil
p1977
sVtackle
p1978
VTackle
p1979
sVrotomwash
p1980
VRotom-Wash
p1981
sVgrudge
p1982
VGrudge
p1983
sVcyndaquil
p1984
VCyndaquil
p1985
sVblueflare
p1986
VBlue Flare
p1987
sVdefog
p1988
VDefog
p1989
sVskyattack
p1990
VSky Attack
p1991
sVmoonlight
p1992
VMoonlight
p1993
sVmimic
p1994
VMimic
p1995
sVstockpile
p1996
VStockpile
p1997
sVoddincense
p1998
VOdd Incense
p1999
sVgardevoirmega
p2000
VGardevoir-Mega
p2001
sVlairon
p2002
VLairon
p2003
sVeerieimpulse
p2004
VEerie Impulse
p2005
sVscrappy
p2006
VScrappy
p2007
sVtogetic
p2008
VTogetic
p2009
sVfirepunch
p2010
VFire Punch
p2011
sVunfezant
p2012
VUnfezant
p2013
sVmicleberry
p2014
VMicle Berry
p2015
sVlightningrod
p2016
VLightning Rod
p2017
sVgigadrain
p2018
VGiga Drain
p2019
sVsilverpowder
p2020
VSilverPowder
p2021
sVvanillish
p2022
VVanillish
p2023
sVvenomdrench
p2024
VVenom Drench
p2025
sVbayleef
p2026
VBayleef
p2027
sVhondewberry
p2028
VHondew Berry
p2029
sVtympole
p2030
VTympole
p2031
sVwigglytuff
p2032
VWigglytuff
p2033
sVtyranitarmega
p2034
VTyranitar-Mega
p2035
sVicepunch
p2036
VIce Punch
p2037
sVgalvantula
p2038
VGalvantula
p2039
sVcombusken
p2040
VCombusken
p2041
sVcloudnine
p2042
VCloud Nine
p2043
sVmienshao
p2044
VMienshao
p2045
sVkeeberry
p2046
VKee Berry
p2047
sVsteameruption
p2048
VSteam Eruption
p2049
sS'mild'
p2050
S'Mild'
p2051
sVscrafty
p2052
VScrafty
p2053
sVsecretpower
p2054
VSecret Power
p2055
sVshadowtag
p2056
VShadow Tag
p2057
sVpidgeotmega
p2058
VPidgeot-Mega
p2059
sVdoublekick
p2060
VDouble Kick
p2061
sViceball
p2062
VIce Ball
p2063
sVflorges
p2064
VFlorges
p2065
sVgourgeistsuper
p2066
VGourgeist-Super
p2067
sVironbarbs
p2068
VIron Barbs
p2069
sValtaria
p2070
VAltaria
p2071
sVcrushgrip
p2072
VCrush Grip
p2073
sVseedbomb
p2074
VSeed Bomb
p2075
sVmeganium
p2076
VMeganium
p2077
sVchipaway
p2078
VChip Away
p2079
sVmetalclaw
p2080
VMetal Claw
p2081
sVfeatherdance
p2082
VFeather Dance
p2083
sVshockwave
p2084
VShock Wave
p2085
sVironplate
p2086
VIron Plate
p2087
sVgreatball
p2088
VGreat Ball
p2089
sVfellstinger
p2090
VFell Stinger
p2091
sVaurorabeam
p2092
VAurora Beam
p2093
sVheartstamp
p2094
VHeart Stamp
p2095
sVboldore
p2096
VBoldore
p2097
sVchoicescarf
p2098
VChoice Scarf
p2099
sVdragonfang
p2100
VDragon Fang
p2101
sVgastly
p2102
VGastly
p2103
sVclearsmog
p2104
VClear Smog
p2105
sVanticipation
p2106
VAnticipation
p2107
sVinfernape
p2108
VInfernape
p2109
sVweezing
p2110
VWeezing
p2111
sVaromatisse
p2112
VAromatisse
p2113
sVkyuremwhite
p2114
VKyurem-White
p2115
sVacidspray
p2116
VAcid Spray
p2117
sVarmaldo
p2118
VArmaldo
p2119
sVkyurem
p2120
VKyurem
p2121
sVwringout
p2122
VWring Out
p2123
sVstarly
p2124
VStarly
p2125
sVhawlucha
p2126
VHawlucha
p2127
sVgolett
p2128
VGolett
p2129
sVgyaradosmega
p2130
VGyarados-Mega
p2131
sVgallade
p2132
VGallade
p2133
sVledian
p2134
VLedian
p2135
sVluvdisc
p2136
VLuvdisc
p2137
sVhelixfossil
p2138
VHelix Fossil
p2139
sVsplash
p2140
VSplash
p2141
sVillumise
p2142
VIllumise
p2143
sVhonedge
p2144
VHonedge
p2145
sVanorith
p2146
VAnorith
p2147
sVdizzypunch
p2148
VDizzy Punch
p2149
sVflyingpress
p2150
VFlying Press
p2151
sVpumpkaboosuper
p2152
VPumpkaboo-Super
p2153
sVhorsea
p2154
VHorsea
p2155
sVstick
p2156
VStick
p2157
sVrazorfang
p2158
VRazor Fang
p2159
sVchilanberry
p2160
VChilan Berry
p2161
sVturboblaze
p2162
VTurboblaze
p2163
sVaegislashblade
p2164
VAegislash-Blade
p2165
sVnaturalgift
p2166
VNatural Gift
p2167
sVenergypowder
p2168
VEnergyPowder
p2169
sVchartiberry
p2170
VCharti Berry
p2171
sVlumberry
p2172
VLum Berry
p2173
sVvoltorb
p2174
VVoltorb
p2175
sVregice
p2176
VRegice
p2177
sVskyplate
p2178
VSky Plate
p2179
sVsableye
p2180
VSableye
p2181
sVseviper
p2182
VSeviper
p2183
sVmarvelscale
p2184
VMarvel Scale
p2185
sVaurumoth
p2186
VAurumoth
p2187
sVslakoth
p2188
VSlakoth
p2189
sVstaryu
p2190
VStaryu
p2191
sVwikiberry
p2192
VWiki Berry
p2193
sVwobbuffet
p2194
VWobbuffet
p2195
sVfilter
p2196
VFilter
p2197
sVshelmet
p2198
VShelmet
p2199
sVglalitite
p2200
VGlalitite
p2201
sVflyinggem
p2202
VFlying Gem
p2203
sVbulkup
p2204
VBulk Up
p2205
sVglaceon
p2206
VGlaceon
p2207
sVwonderguard
p2208
VWonder Guard
p2209
sVelectricgem
p2210
VElectric Gem
p2211
sVrotomfan
p2212
VRotom-Fan
p2213
sVsignalbeam
p2214
VSignal Beam
p2215
sVshuckle
p2216
VShuckle
p2217
sVreflect
p2218
VReflect
p2219
sVdisable
p2220
VDisable
p2221
sVliquidooze
p2222
VLiquid Ooze
p2223
sVfairygem
p2224
VFairy Gem
p2225
sVmedichammega
p2226
VMedicham-Mega
p2227
sVtoxicplate
p2228
VToxic Plate
p2229
sVlanturn
p2230
VLanturn
p2231
sVparaboliccharge
p2232
VParabolic Charge
p2233
sVretaliate
p2234
VRetaliate
p2235
sVphantump
p2236
VPhantump
p2237
sVcorphish
p2238
VCorphish
p2239
sVbastiodon
p2240
VBastiodon
p2241
sVwatmelberry
p2242
VWatmel Berry
p2243
sVarticuno
p2244
VArticuno
p2245
sVfissure
p2246
VFissure
p2247
sVvolcarona
p2248
VVolcarona
p2249
sVblackglasses
p2250
VBlack Glasses
p2251
sVplayrough
p2252
VPlay Rough
p2253
sVhealorder
p2254
VHeal Order
p2255
sVjigglypuff
p2256
VJigglypuff
p2257
sVsandslash
p2258
VSandslash
p2259
sVastonish
p2260
VAstonish
p2261
sVenergyball
p2262
VEnergy Ball
p2263
sVrockpolish
p2264
VRock Polish
p2265
sVlampent
p2266
VLampent
p2267
sVfistplate
p2268
VFist Plate
p2269
sVreturn
p2270
VReturn
p2271
sVmanectricmega
p2272
VManectric-Mega
p2273
sVsnowball
p2274
VSnowball
p2275
sVmrmime
p2276
VMr. Mime
p2277
sVcharizardmegax
p2278
VCharizard-Mega-X
p2279
sVcharizardmegay
p2280
VCharizard-Mega-Y
p2281
sVclefable
p2282
VClefable
p2283
sVskuntank
p2284
VSkuntank
p2285
sVprimeape
p2286
VPrimeape
p2287
sVgabite
p2288
VGabite
p2289
sVmissingno
p2290
VMissingno.
p2291
sVbellsprout
p2292
VBellsprout
p2293
sVlovelykiss
p2294
VLovely Kiss
p2295
sVmeanlook
p2296
VMean Look
p2297
sVclamp
p2298
VClamp
p2299
sVtopsyturvy
p2300
VTopsy-Turvy
p2301
sVquickfeet
p2302
VQuick Feet
p2303
sVwatershuriken
p2304
VWater Shuriken
p2305
sVraichu
p2306
VRaichu
p2307
sVmagnezone
p2308
VMagnezone
p2309
sVtrickroom
p2310
VTrick Room
p2311
sVmist
p2312
VMist
p2313
sS'hiddenpowerpsychic'
p2314
S'Hidden Power Psychic'
p2315
sVelectroweb
p2316
VElectroweb
p2317
sS'jolly'
p2318
S'Jolly'
p2319
sVsalamence
p2320
VSalamence
p2321
sVarceuswater
p2322
VArceus-Water
p2323
sVarceusice
p2324
VArceus-Ice
p2325
sVsuperfang
p2326
VSuper Fang
p2327
sVcombee
p2328
VCombee
p2329
sVroggenrola
p2330
VRoggenrola
p2331
sVironhead
p2332
VIron Head
p2333
sVsentret
p2334
VSentret
p2335
sVpichuspikyeared
p2336
VPichu-Spiky-eared
p2337
sVtyrogue
p2338
VTyrogue
p2339
sVcleffa
p2340
VCleffa
p2341
sVguardsplit
p2342
VGuard Split
p2343
sVwaterabsorb
p2344
VWater Absorb
p2345
sVtoxicboost
p2346
VToxic Boost
p2347
sVninetales
p2348
VNinetales
p2349
sVnidoranf
p2350
VNidoran-F
p2351
sVcottonspore
p2352
VCotton Spore
p2353
sVnidoranm
p2354
VNidoran-M
p2355
sVpineco
p2356
VPineco
p2357
sVscopelens
p2358
VScope Lens
p2359
sVhydreigon
p2360
VHydreigon
p2361
sVaggron
p2362
VAggron
p2363
sVmightyena
p2364
VMightyena
p2365
sVabomasnowmega
p2366
VAbomasnow-Mega
p2367
sVmanaphy
p2368
VManaphy
p2369
sS'brave'
p2370
S'Brave'
p2371
sVstoredpower
p2372
VStored Power
p2373
sVkangaskhanmega
p2374
VKangaskhan-Mega
p2375
sVpetaldance
p2376
VPetal Dance
p2377
sVmeowstic
p2378
VMeowstic
p2379
sVboltstrike
p2380
VBolt Strike
p2381
sVraikou
p2382
VRaikou
p2383
sVswarm
p2384
VSwarm
p2385
sVbibarel
p2386
VBibarel
p2387
sVklinklang
p2388
VKlinklang
p2389
sVlandorustherian
p2390
VLandorus-Therian
p2391
sVshedinja
p2392
VShedinja
p2393
sVbabiriberry
p2394
VBabiri Berry
p2395
sVsuckerpunch
p2396
VSucker Punch
p2397
sVdragonascent
p2398
VDragon Ascent
p2399
sVfreezeshock
p2400
VFreeze Shock
p2401
sVpsywave
p2402
VPsywave
p2403
sVdrillrun
p2404
VDrill Run
p2405
sVwhiteherb
p2406
VWhite Herb
p2407
sVringtarget
p2408
VRing Target
p2409
sVvenipede
p2410
VVenipede
p2411
sVdarkpulse
p2412
VDark Pulse
p2413
sVyamask
p2414
VYamask
p2415
sVstall
p2416
VStall
p2417
sVsharpedonite
p2418
VSharpedonite
p2419
sVdazzlinggleam
p2420
VDazzling Gleam
p2421
sVdoubleedge
p2422
VDouble-Edge
p2423
sVremoraid
p2424
VRemoraid
p2425
sVclefairy
p2426
VClefairy
p2427
sVklink
p2428
VKlink
p2429
sVclearbody
p2430
VClear Body
p2431
sVfirespin
p2432
VFire Spin
p2433
sVgenesectchill
p2434
VGenesect-Chill
p2435
sVsuicune
p2436
VSuicune
p2437
sVpamtreberry
p2438
VPamtre Berry
p2439
sVmegahorn
p2440
VMegahorn
p2441
sVslowbromega
p2442
VSlowbro-Mega
p2443
sVsunflora
p2444
VSunflora
p2445
sVgourgeist
p2446
VGourgeist
p2447
sVbarbaracle
p2448
VBarbaracle
p2449
sVairballoon
p2450
VAir Balloon
p2451
sVswirlix
p2452
VSwirlix
p2453
sVlitleo
p2454
VLitleo
p2455
sVcamouflage
p2456
VCamouflage
p2457
sVfrillish
p2458
VFrillish
p2459
sVroselia
p2460
VRoselia
p2461
sVkangaskhan
p2462
VKangaskhan
p2463
sVregirock
p2464
VRegirock
p2465
sVpansage
p2466
VPansage
p2467
sVswitcheroo
p2468
VSwitcheroo
p2469
sValakazammega
p2470
VAlakazam-Mega
p2471
sVsoundproof
p2472
VSoundproof
p2473
sVeruption
p2474
VEruption
p2475
sVyawn
p2476
VYawn
p2477
sVcharm
p2478
VCharm
p2479
sVdiglett
p2480
VDiglett
p2481
sVbeldum
p2482
VBeldum
p2483
sVhabanberry
p2484
VHaban Berry
p2485
sVcrosspoison
p2486
VCross Poison
p2487
sVcarvanha
p2488
VCarvanha
p2489
sVrefrigerate
p2490
VRefrigerate
p2491
sVlowsweep
p2492
VLow Sweep
p2493
sVsturdy
p2494
VSturdy
p2495
sVcovet
p2496
VCovet
p2497
sVgenesectdouse
p2498
VGenesect-Douse
p2499
sVkaratechop
p2500
VKarate Chop
p2501
sVworryseed
p2502
VWorry Seed
p2503
sVazumarill
p2504
VAzumarill
p2505
sVmetalburst
p2506
VMetal Burst
p2507
sVherdier
p2508
VHerdier
p2509
sVmeloetta
p2510
VMeloetta
p2511
sVnanabberry
p2512
VNanab Berry
p2513
sVzoomlens
p2514
VZoom Lens
p2515
sVblackbelt
p2516
VBlack Belt
p2517
sVhammerarm
p2518
VHammer Arm
p2519
sVmagmaarmor
p2520
VMagma Armor
p2521
sVpayday
p2522
VPay Day
p2523
sVgooey
p2524
VGooey
p2525
sVoblivionwing
p2526
VOblivion Wing
p2527
sVtyrantrum
p2528
VTyrantrum
p2529
sVhealpulse
p2530
VHeal Pulse
p2531
sVmagikarp
p2532
VMagikarp
p2533
sVpawniard
p2534
VPawniard
p2535
sVpoisontail
p2536
VPoison Tail
p2537
sVhitmonchan
p2538
VHitmonchan
p2539
sS'docile'
p2540
S'Docile'
p2541
sVfireblast
p2542
VFire Blast
p2543
sVshroomish
p2544
VShroomish
p2545
sVwhismur
p2546
VWhismur
p2547
sVspikes
p2548
VSpikes
p2549
sVshadowstrike
p2550
VShadow Strike
p2551
sVheatcrash
p2552
VHeat Crash
p2553
sVskorupi
p2554
VSkorupi
p2555
sVgengarite
p2556
VGengarite
p2557
sVblitzle
p2558
VBlitzle
p2559
sVtamatoberry
p2560
VTamato Berry
p2561
sVblazikenite
p2562
VBlazikenite
p2563
sVfarfetchd
p2564
VFarfetch'd
p2565
sVinkay
p2566
VInkay
p2567
sVpickup
p2568
VPickup
p2569
sVcontrary
p2570
VContrary
p2571
sVarceusdark
p2572
VArceus-Dark
p2573
sVmarowak
p2574
VMarowak
p2575
sVmachobrace
p2576
VMacho Brace
p2577
sVelekid
p2578
VElekid
p2579
sVmagmortar
p2580
VMagmortar
p2581
sVchansey
p2582
VChansey
p2583
sVroaroftime
p2584
VRoar of Time
p2585
sVwildcharge
p2586
VWild Charge
p2587
sVrattata
p2588
VRattata
p2589
sVhoundoommega
p2590
VHoundoom-Mega
p2591
sVclaydol
p2592
VClaydol
p2593
sVrelicanth
p2594
VRelicanth
p2595
sVtorchic
p2596
VTorchic
p2597
sVlapras
p2598
VLapras
p2599
sVmankey
p2600
VMankey
p2601
sVfuryattack
p2602
VFury Attack
p2603
sVprankster
p2604
VPrankster
p2605
sVshayminsky
p2606
VShaymin-Sky
p2607
sVwacanberry
p2608
VWacan Berry
p2609
sVsandile
p2610
VSandile
p2611
sVtyphlosion
p2612
VTyphlosion
p2613
sVsimple
p2614
VSimple
p2615
sVdrillpeck
p2616
VDrill Peck
p2617
sVicebody
p2618
VIce Body
p2619
sVfearow
p2620
VFearow
p2621
sVxscissor
p2622
VX-Scissor
p2623
sVbellossom
p2624
VBellossom
p2625
sVquiverdance
p2626
VQuiver Dance
p2627
sVblastoisinite
p2628
VBlastoisinite
p2629
sVmegapunch
p2630
VMega Punch
p2631
sVdamp
p2632
VDamp
p2633
sVskitty
p2634
VSkitty
p2635
sVmienfoo
p2636
VMienfoo
p2637
sVliepard
p2638
VLiepard
p2639
sVamnesia
p2640
VAmnesia
p2641
sVdestinybond
p2642
VDestiny Bond
p2643
sVcastform
p2644
VCastform
p2645
sVdruddigon
p2646
VDruddigon
p2647
sVtaillow
p2648
VTaillow
p2649
sVdragontail
p2650
VDragon Tail
p2651
sVswellow
p2652
VSwellow
p2653
sVstringshot
p2654
VString Shot
p2655
sValomomola
p2656
VAlomomola
p2657
sVwatergun
p2658
VWater Gun
p2659
sVvcreate
p2660
VV-create
p2661
sVnomelberry
p2662
VNomel Berry
p2663
sVdrainingkiss
p2664
VDraining Kiss
p2665
sVbasculin
p2666
VBasculin
p2667
sVescavalier
p2668
VEscavalier
p2669
sVpsychoshift
p2670
VPsycho Shift
p2671
sVbisharp
p2672
VBisharp
p2673
sVhoundoom
p2674
VHoundoom
p2675
sVgulpin
p2676
VGulpin
p2677
sVpancham
p2678
VPancham
p2679
sVmantyke
p2680
VMantyke
p2681
sVpound
p2682
VPound
p2683
sVmedichamite
p2684
VMedichamite
p2685
sVrotommow
p2686
VRotom-Mow
p2687
sVdefendorder
p2688
VDefend Order
p2689
sVsurskit
p2690
VSurskit
p2691
sVmegalauncher
p2692
VMega Launcher
p2693
sVicebeam
p2694
VIce Beam
p2695
sVfacade
p2696
VFacade
p2697
sVzubat
p2698
VZubat
p2699
sVmagikarpsrevenge
p2700
VMagikarp's Revenge
p2701
sVingrain
p2702
VIngrain
p2703
sVcottonee
p2704
VCottonee
p2705
sVpikachuphd
p2706
VPikachu-PhD
p2707
sVpoisonjab
p2708
VPoison Jab
p2709
sVcameruptmega
p2710
VCamerupt-Mega
p2711
sS'crucibellemega'
p2712
S'Crucibelle-Mega'
p2713
sVtaunt
p2714
VTaunt
p2715
sVgorebyss
p2716
VGorebyss
p2717
sVgrotle
p2718
VGrotle
p2719
sVpikachu
p2720
VPikachu
p2721
sVrayquaza
p2722
VRayquaza
p2723
sVfroakie
p2724
VFroakie
p2725
sVloveball
p2726
VLove Ball
p2727
sVjumpluff
p2728
VJumpluff
p2729
sS'timid'
p2730
S'Timid'
p2731
sVmismagius
p2732
VMismagius
p2733
sS'hiddenpowerbug'
p2734
S'Hidden Power Bug'
p2735
sVinfiltrator
p2736
VInfiltrator
p2737
sVpsychup
p2738
VPsych Up
p2739
sVsliggoo
p2740
VSliggoo
p2741
sVfiregem
p2742
VFire Gem
p2743
sVshellder
p2744
VShellder
p2745
sVwithdraw
p2746
VWithdraw
p2747
sVmoonball
p2748
VMoon Ball
p2749
sVpainsplit
p2750
VPain Split
p2751
sVstoneedge
p2752
VStone Edge
p2753
sVhowl
p2754
VHowl
p2755
sVwaterpledge
p2756
VWater Pledge
p2757
sVspearow
p2758
VSpearow
p2759
sVwhirlipede
p2760
VWhirlipede
p2761
sVrockwrecker
p2762
VRock Wrecker
p2763
sVoriginpulse
p2764
VOrigin Pulse
p2765
sVcompetitive
p2766
VCompetitive
p2767
sVsteelgem
p2768
VSteel Gem
p2769
sVzygarde
p2770
VZygarde
p2771
sVsolrock
p2772
VSolrock
p2773
sVthousandarrows
p2774
VThousand Arrows
p2775
sVcut
p2776
VCut
p2777
sVcloyster
p2778
VCloyster
p2779
sVmetapod
p2780
VMetapod
p2781
sVairslash
p2782
VAir Slash
p2783
sVmagiccoat
p2784
VMagic Coat
p2785
sVacrobatics
p2786
VAcrobatics
p2787
sVspheal
p2788
VSpheal
p2789
sVchoicespecs
p2790
VChoice Specs
p2791
sVrebound
p2792
VRebound
p2793
sVsolarbeam
p2794
VSolar Beam
p2795
sVlusterpurge
p2796
VLuster Purge
p2797
sVkeldeoresolute
p2798
VKeldeo-Resolute
p2799
sVmoody
p2800
VMoody
p2801
sVglaliemega
p2802
VGlalie-Mega
p2803
sVgothitelle
p2804
VGothitelle
p2805
sVskilllink
p2806
VSkill Link
p2807
sVponyta
p2808
VPonyta
p2809
sVpaleowave
p2810
VPaleo Wave
p2811
sVsubmission
p2812
VSubmission
p2813
sVstaravia
p2814
VStaravia
p2815
sVtailglow
p2816
VTail Glow
p2817
sVnoibat
p2818
VNoibat
p2819
sVstealthrock
p2820
VStealth Rock
p2821
sVtechnoblast
p2822
VTechno Blast
p2823
sVbaltoy
p2824
VBaltoy
p2825
sVflamewheel
p2826
VFlame Wheel
p2827
sVsketch
p2828
VSketch
p2829
sVbronzor
p2830
VBronzor
p2831
sVbounce
p2832
VBounce
p2833
sVsunnyday
p2834
VSunny Day
p2835
sVsouldew
p2836
VSoul Dew
p2837
sVgigaimpact
p2838
VGiga Impact
p2839
sVsewaddle
p2840
VSewaddle
p2841
sVscald
p2842
VScald
p2843
sVominouswind
p2844
VOminous Wind
p2845
sVdeepseascale
p2846
VDeepSeaScale
p2847
sVmummy
p2848
VMummy
p2849
sVhuntail
p2850
VHuntail
p2851
sVswordsdance
p2852
VSwords Dance
p2853
sVearlybird
p2854
VEarly Bird
p2855
sVslash
p2856
VSlash
p2857
sS'hiddenpowergrass'
p2858
S'Hidden Power Grass'
p2859
sVpidgeotite
p2860
VPidgeotite
p2861
sVgarchompmega
p2862
VGarchomp-Mega
p2863
sVmimejr
p2864
VMime Jr.
p2865
sVseismitoad
p2866
VSeismitoad
p2867
sVodorsleuth
p2868
VOdor Sleuth
p2869
sVmewtwomegax
p2870
VMewtwo-Mega-X
p2871
sVmewtwomegay
p2872
VMewtwo-Mega-Y
p2873
sVfocussash
p2874
VFocus Sash
p2875
sVjellicent
p2876
VJellicent
p2877
sVspelonberry
p2878
VSpelon Berry
p2879
sVnobleroar
p2880
VNoble Roar
p2881
sVkangaskhanite
p2882
VKangaskhanite
p2883
sVblazekick
p2884
VBlaze Kick
p2885
sViapapaberry
p2886
VIapapa Berry
p2887
sVmudkip
p2888
VMudkip
p2889
sVbouffalant
p2890
VBouffalant
p2891
sVarceusghost
p2892
VArceus-Ghost
p2893
sVblock
p2894
VBlock
p2895
sVsharpedo
p2896
VSharpedo
p2897
sVarmthrust
p2898
VArm Thrust
p2899
sVchargebeam
p2900
VCharge Beam
p2901
sVshellos
p2902
VShellos
p2903
sVnidoking
p2904
VNidoking
p2905
sVsablenite
p2906
VSablenite
p2907
sVbarboach
p2908
VBarboach
p2909
sVstench
p2910
VStench
p2911
sViciclecrash
p2912
VIcicle Crash
p2913
sVunown
p2914
VUnown
p2915
sVferrothorn
p2916
VFerrothorn
p2917
sVswampertmega
p2918
VSwampert-Mega
p2919
sVsnorunt
p2920
VSnorunt
p2921
sS'relaxed'
p2922
S'Relaxed'
p2923
sVeevee
p2924
VEevee
p2925
sVpsychocut
p2926
VPsycho Cut
p2927
sVtranquill
p2928
VTranquill
p2929
sVragepowder
p2930
VRage Powder
p2931
sVbuizel
p2932
VBuizel
p2933
sVsharpen
p2934
VSharpen
p2935
sVgrasspledge
p2936
VGrass Pledge
p2937
sVabsolmega
p2938
VAbsol-Mega
p2939
sVwatchog
p2940
VWatchog
p2941
sVspacialrend
p2942
VSpacial Rend
p2943
sVforesight
p2944
VForesight
p2945
sVgrowth
p2946
VGrowth
p2947
sVpoliwrath
p2948
VPoliwrath
p2949
sVhappyhour
p2950
VHappy Hour
p2951
sVmurkrow
p2952
VMurkrow
p2953
sVpechaberry
p2954
VPecha Berry
p2955
sVarceusfairy
p2956
VArceus-Fairy
p2957
sVmiracleseed
p2958
VMiracle Seed
p2959
sVtakedown
p2960
VTake Down
p2961
sVrockhead
p2962
VRock Head
p2963
sVstickybarb
p2964
VSticky Barb
p2965
sVganlonberry
p2966
VGanlon Berry
p2967
sVbulbasaur
p2968
VBulbasaur
p2969
sVpichu
p2970
VPichu
p2971
sVheatwave
p2972
VHeat Wave
p2973
sVaudino
p2974
VAudino
p2975
sVdrifloon
p2976
VDrifloon
p2977
sVsnowcloak
p2978
VSnow Cloak
p2979
sVrazorshell
p2980
VRazor Shell
p2981
sVmetagross
p2982
VMetagross
p2983
sVforcepalm
p2984
VForce Palm
p2985
sVlickilicky
p2986
VLickilicky
p2987
sVzigzagoon
p2988
VZigzagoon
p2989
sVprecipiceblades
p2990
VPrecipice Blades
p2991
sVcinccino
p2992
VCinccino
p2993
sVavalugg
p2994
VAvalugg
p2995
sVscratch
p2996
VScratch
p2997
sVcharmeleon
p2998
VCharmeleon
p2999
sVsandtomb
p3000
VSand Tomb
p3001
sVcharmander
p3002
VCharmander
p3003
sVspeedboost
p3004
VSpeed Boost
p3005
sVwakeupslap
p3006
VWake-Up Slap
p3007
sVcursedbody
p3008
VCursed Body
p3009
sVrivalry
p3010
VRivalry
p3011
sVperishsong
p3012
VPerish Song
p3013
sVpoweruppunch
p3014
VPower-Up Punch
p3015
sVcutecharm
p3016
VCute Charm
p3017
sVblaze
p3018
VBlaze
p3019
sVsniper
p3020
VSniper
p3021
sVtriplekick
p3022
VTriple Kick
p3023
sVfly
p3024
VFly
p3025
sVnightslash
p3026
VNight Slash
p3027
sVextrasensory
p3028
VExtrasensory
p3029
sVteddiursa
p3030
VTeddiursa
p3031
sVthundershock
p3032
VThunder Shock
p3033
sVazurill
p3034
VAzurill
p3035
sVbigpecks
p3036
VBig Pecks
p3037
sVlureball
p3038
VLure Ball
p3039
sVqwilfish
p3040
VQwilfish
p3041
sVhyperbeam
p3042
VHyper Beam
p3043
sVdynamicpunch
p3044
VDynamic Punch
p3045
sVmagnemite
p3046
VMagnemite
p3047
sVtyrunt
p3048
VTyrunt
p3049
sVirondefense
p3050
VIron Defense
p3051
sVmisdreavus
p3052
VMisdreavus
p3053
sVfidgit
p3054
VFidgit
p3055
sVdousedrive
p3056
VDouse Drive
p3057
sVcrushclaw
p3058
VCrush Claw
p3059
sVsoftboiled
p3060
VSoft-Boiled
p3061
sVpoisongem
p3062
VPoison Gem
p3063
sVdownload
p3064
VDownload
p3065
sVacid
p3066
VAcid
p3067
sVvigoroth
p3068
VVigoroth
p3069
sVlombre
p3070
VLombre
p3071
sVdelcatty
p3072
VDelcatty
p3073
sVhoundoominite
p3074
VHoundoominite
p3075
sVtriattack
p3076
VTri Attack
p3077
sVtyranitar
p3078
VTyranitar
p3079
sVturtwig
p3080
VTurtwig
p3081
sVmagmastorm
p3082
VMagma Storm
p3083
sVpansear
p3084
VPansear
p3085
sVdeerling
p3086
VDeerling
p3087
sVswinub
p3088
VSwinub
p3089
sVabomasnow
p3090
VAbomasnow
p3091
sVsing
p3092
VSing
p3093
sVpikachucosplay
p3094
VPikachu-Cosplay
p3095
sVpowersplit
p3096
VPower Split
p3097
sVincinerate
p3098
VIncinerate
p3099
sVmarangaberry
p3100
VMaranga Berry
p3101
sVrampardos
p3102
VRampardos
p3103
sVscreech
p3104
VScreech
p3105
sVtentacruel
p3106
VTentacruel
p3107
sVnaturalcure
p3108
VNatural Cure
p3109
sVforestscurse
p3110
VForest's Curse
p3111
sVblizzard
p3112
VBlizzard
p3113
sVteeterdance
p3114
VTeeter Dance
p3115
sVfoongus
p3116
VFoongus
p3117
sVaquaring
p3118
VAqua Ring
p3119
sS'hardy'
p3120
S'Hardy'
p3121
sVarceusground
p3122
VArceus-Ground
p3123
sVhornattack
p3124
VHorn Attack
p3125
sVkingdra
p3126
VKingdra
p3127
sVaerodactylite
p3128
VAerodactylite
p3129
sVbanettite
p3130
VBanettite
p3131
sVdragongem
p3132
VDragon Gem
p3133
sVheatran
p3134
VHeatran
p3135
sVsteelixite
p3136
VSteelixite
p3137
sVheavyball
p3138
VHeavy Ball
p3139
sVinsomnia
p3140
VInsomnia
p3141
sVcharcoal
p3142
VCharcoal
p3143
sVcranidos
p3144
VCranidos
p3145
sVabsol
p3146
VAbsol
p3147
sVplusle
p3148
VPlusle
p3149
sVaerodactylmega
p3150
VAerodactyl-Mega
p3151
sVharvest
p3152
VHarvest
p3153
sVwatersport
p3154
VWater Sport
p3155
sVicicleplate
p3156
VIcicle Plate
p3157
sVfuturesight
p3158
VFuture Sight
p3159
sVlustrousorb
p3160
VLustrous Orb
p3161
sVarchen
p3162
VArchen
p3163
sVexeggcute
p3164
VExeggcute
p3165
sVlucario
p3166
VLucario
p3167
sVthundurus
p3168
VThundurus
p3169
sVtangrowth
p3170
VTangrowth
p3171
sVvespiquen
p3172
VVespiquen
p3173
sVterrakion
p3174
VTerrakion
p3175
sVblacksludge
p3176
VBlack Sludge
p3177
sS'kerfluffle'
p3178
S'Kerfluffle'
p3179
sVrelicsong
p3180
VRelic Song
p3181
sVheliolisk
p3182
VHeliolisk
p3183
sVblazikenmega
p3184
VBlaziken-Mega
p3185
sVgastrodon
p3186
VGastrodon
p3187
sVbronzong
p3188
VBronzong
p3189
sVweavile
p3190
VWeavile
p3191
sVdewott
p3192
VDewott
p3193
sVchandelure
p3194
VChandelure
p3195
sVhaxorus
p3196
VHaxorus
p3197
sVsecretsword
p3198
VSecret Sword
p3199
sVowntempo
p3200
VOwn Tempo
p3201
sVhiddenpower
p3202
S'Hidden Power'
p3203
sVrazorleaf
p3204
VRazor Leaf
p3205
sVpowerswap
p3206
VPower Swap
p3207
sVdragalge
p3208
VDragalge
p3209
sVheadcharge
p3210
VHead Charge
p3211
sVswampert
p3212
VSwampert
p3213
sVpidgey
p3214
VPidgey
p3215
sVaggronite
p3216
VAggronite
p3217
sVgenesect
p3218
VGenesect
p3219
sVlotad
p3220
VLotad
p3221
sVbind
p3222
VBind
p3223
sVcounter
p3224
VCounter
p3225
sVfullincense
p3226
VFull Incense
p3227
sVweepinbell
p3228
VWeepinbell
p3229
sVwoobat
p3230
VWoobat
p3231
sVaquajet
p3232
VAqua Jet
p3233
sVkrabby
p3234
VKrabby
p3235
sVumbreon
p3236
VUmbreon
p3237
sVhitmontop
p3238
VHitmontop
p3239
sVheatproof
p3240
VHeatproof
p3241
sVguardswap
p3242
VGuard Swap
p3243
sVassaultvest
p3244
VAssault Vest
p3245
sVpetalblizzard
p3246
VPetal Blizzard
p3247
sVkadabra
p3248
VKadabra
p3249
sVpurepower
p3250
VPure Power
p3251
sVironball
p3252
VIron Ball
p3253
sVdreameater
p3254
VDream Eater
p3255
sVhelpinghand
p3256
VHelping Hand
p3257
sVmunchlax
p3258
VMunchlax
p3259
sVzenheadbutt
p3260
VZen Headbutt
p3261
sVbelch
p3262
VBelch
p3263
sVsuperluck
p3264
VSuper Luck
p3265
sVberryjuice
p3266
VBerry Juice
p3267
sS'hiddenpowerflying'
p3268
S'Hidden Power Flying'
p3269
sVflowerveil
p3270
VFlower Veil
p3271
sVmilotic
p3272
VMilotic
p3273
sVarbok
p3274
VArbok
p3275
sVflail
p3276
VFlail
p3277
sVkabutops
p3278
VKabutops
p3279
sVhoothoot
p3280
VHoothoot
p3281
sVchinchou
p3282
VChinchou
p3283
sVforewarn
p3284
VForewarn
p3285
sVmagnitude
p3286
VMagnitude
p3287
sVarceusfighting
p3288
VArceus-Fighting
p3289
sVrapidspin
p3290
VRapid Spin
p3291
sVskullbash
p3292
VSkull Bash
p3293
sVdratini
p3294
VDratini
p3295
sVafteryou
p3296
VAfter You
p3297
sVmaractus
p3298
VMaractus
p3299
sS'crucibellite'
p3300
S'Crucibellite'
p3301
sVilluminate
p3302
VIlluminate
p3303
sVgallademega
p3304
VGallade-Mega
p3305
sVmagnetpull
p3306
VMagnet Pull
p3307
sVtepig
p3308
VTepig
p3309
sVkelpsyberry
p3310
VKelpsy Berry
p3311
sVstatic
p3312
VStatic
p3313
sVflameplate
p3314
VFlame Plate
p3315
sVicefang
p3316
VIce Fang
p3317
sVvenonat
p3318
VVenonat
p3319
sVjoltik
p3320
VJoltik
p3321
sVrollingkick
p3322
VRolling Kick
p3323
sVweatherball
p3324
VWeather Ball
p3325
sVmanectric
p3326
VManectric
p3327
sVnaturepower
p3328
VNature Power
p3329
sVregisteel
p3330
VRegisteel
p3331
sVsmog
p3332
VSmog
p3333
sVbabydolleyes
p3334
VBaby-Doll Eyes
p3335
sVleafguard
p3336
VLeaf Guard
p3337
sVicywind
p3338
VIcy Wind
p3339
sVemolga
p3340
VEmolga
p3341
sVconkeldurr
p3342
VConkeldurr
p3343
sVworkup
p3344
VWork Up
p3345
sVmetagrossite
p3346
VMetagrossite
p3347
sVhippowdon
p3348
VHippowdon
p3349
sVenigmaberry
p3350
VEnigma Berry
p3351
sVvenomoth
p3352
VVenomoth
p3353
sVcobalion
p3354
VCobalion
p3355
sVbergmite
p3356
VBergmite
p3357
sVsudowoodo
p3358
VSudowoodo
p3359
sVlarvitar
p3360
VLarvitar
p3361
sVheadbutt
p3362
VHeadbutt
p3363
sVbodyslam
p3364
VBody Slam
p3365
sVexpertbelt
p3366
VExpert Belt
p3367
sVbugbuzz
p3368
VBug Buzz
p3369
sVfirefang
p3370
VFire Fang
p3371
sVmindplate
p3372
VMind Plate
p3373
sVampharosmega
p3374
VAmpharos-Mega
p3375
sVmistball
p3376
VMist Ball
p3377
sVskrelp
p3378
VSkrelp
p3379
sVjumpkick
p3380
VJump Kick
p3381
sVwaterspout
p3382
VWater Spout
p3383
sVloudred
p3384
VLoudred
p3385
sVearthpower
p3386
VEarth Power
p3387
sVpremierball
p3388
VPremier Ball
p3389
sVrotomfrost
p3390
VRotom-Frost
p3391
sVsolidrock
p3392
VSolid Rock
p3393
sVrabutaberry
p3394
VRabuta Berry
p3395
sVagility
p3396
VAgility
p3397
sVelectabuzz
p3398
VElectabuzz
p3399
sVcrobat
p3400
VCrobat
p3401
sVrockblast
p3402
VRock Blast
p3403
sVfeint
p3404
VFeint
p3405
sVsoftsand
p3406
VSoft Sand
p3407
sVsigilyph
p3408
VSigilyph
p3409
sVdeepseatooth
p3410
VDeepSeaTooth
p3411
sVtorkoal
p3412
VTorkoal
p3413
sVwurmple
p3414
VWurmple
p3415
sVmasterball
p3416
VMaster Ball
p3417
sVtimburr
p3418
VTimburr
p3419
sVsealeo
p3420
VSealeo
p3421
sVpoisonfang
p3422
VPoison Fang
p3423
sVinsectplate
p3424
VInsect Plate
p3425
sVtorrent
p3426
VTorrent
p3427
sVencore
p3428
VEncore
p3429
sVquickball
p3430
VQuick Ball
p3431
sVtrapinch
p3432
VTrapinch
p3433
sVbonerush
p3434
VBone Rush
p3435
sS'gentle'
p3436
S'Gentle'
p3437
sVtorment
p3438
VTorment
p3439
sVarceusflying
p3440
VArceus-Flying
p3441
sVzebstrika
p3442
VZebstrika
p3443
sVwhitesmoke
p3444
VWhite Smoke
p3445
sVlevelball
p3446
VLevel Ball
p3447
sVsoak
p3448
VSoak
p3449
sVpikachubelle
p3450
VPikachu-Belle
p3451
sVflareon
p3452
VFlareon
p3453
sVcalmmind
p3454
VCalm Mind
p3455
sVdiamondstorm
p3456
VDiamond Storm
p3457
sVgravity
p3458
VGravity
p3459
sVcarnivine
p3460
VCarnivine
p3461
sVmistyterrain
p3462
VMisty Terrain
p3463
sVpsychoboost
p3464
VPsycho Boost
p3465
sVnuzleaf
p3466
VNuzleaf
p3467
sVwidelens
p3468
VWide Lens
p3469
sVshadowball
p3470
VShadow Ball
p3471
sVdrifblim
p3472
VDrifblim
p3473
sVmewtwo
p3474
VMewtwo
p3475
sVrollout
p3476
VRollout
p3477
sVslurpuff
p3478
VSlurpuff
p3479
sVgrassgem
p3480
VGrass Gem
p3481
sVdracometeor
p3482
VDraco Meteor
p3483
sVsludgewave
p3484
VSludge Wave
p3485
sVsceptile
p3486
VSceptile
p3487
sVgardevoirite
p3488
VGardevoirite
p3489
sVexeggutor
p3490
VExeggutor
p3491
sVshedskin
p3492
VShed Skin
p3493
sVcherrimsunshine
p3494
VCherrim-Sunshine
p3495
sVarceus
p3496
VArceus
p3497
sS'impish'
p3498
S'Impish'
p3499
sVservine
p3500
VServine
p3501
sVwailmer
p3502
VWailmer
p3503
sVbrine
p3504
VBrine
p3505
sVzweilous
p3506
VZweilous
p3507
sVsleeppowder
p3508
VSleep Powder
p3509
sVoldamber
p3510
VOld Amber
p3511
sVdurant
p3512
VDurant
p3513
sVsimplebeam
p3514
VSimple Beam
p3515
sVyveltal
p3516
VYveltal
p3517
sVbrickbreak
p3518
VBrick Break
p3519
sS'rash'
p3520
S'Rash'
p3521
sVpiplup
p3522
VPiplup
p3523
sVflashfire
p3524
VFlash Fire
p3525
sVdeino
p3526
VDeino
p3527
sVcamerupt
p3528
VCamerupt
p3529
sVluckypunch
p3530
VLucky Punch
p3531
sVpsychicgem
p3532
VPsychic Gem
p3533
sVrarebone
p3534
VRare Bone
p3535
sVsnover
p3536
VSnover
p3537
sVtangaberry
p3538
VTanga Berry
p3539
sVbellydrum
p3540
VBelly Drum
p3541
sS'sassy'
p3542
S'Sassy'
p3543
sVdeoxysattack
p3544
VDeoxys-Attack
p3545
sVcroagunk
p3546
VCroagunk
p3547
sVbravebird
p3548
VBrave Bird
p3549
sVgust
p3550
VGust
p3551
sVmagicguard
p3552
VMagic Guard
p3553
sVsandattack
p3554
VSand Attack
p3555
sVkingler
p3556
VKingler
p3557
sVhugepower
p3558
VHuge Power
p3559
sVmudbomb
p3560
VMud Bomb
p3561
sVsheercold
p3562
VSheer Cold
p3563
sVgeomancy
p3564
VGeomancy
p3565
sVcacturne
p3566
VCacturne
p3567
sVpowder
p3568
VPowder
p3569
sVvictini
p3570
VVictini
p3571
sVfinneon
p3572
VFinneon
p3573
sVtwineedle
p3574
VTwineedle
p3575
sVchestoberry
p3576
VChesto Berry
p3577
sVgrumpig
p3578
VGrumpig
p3579
sVnightmare
p3580
VNightmare
p3581
sVgyarados
p3582
VGyarados
p3583
sVvaporeon
p3584
VVaporeon
p3585
sVthunderwave
p3586
VThunder Wave
p3587
sVrockincense
p3588
VRock Incense
p3589
sVfroslass
p3590
VFroslass
p3591
sVconfusion
p3592
VConfusion
p3593
sVaron
p3594
VAron
p3595
sVconversion2
p3596
VConversion 2
p3597
sVmysticalfire
p3598
VMystical Fire
p3599
sVcacnea
p3600
VCacnea
p3601
sVzoroark
p3602
VZoroark
p3603
sVshellsmash
p3604
VShell Smash
p3605
sVhydropump
p3606
VHydro Pump
p3607
sVswift
p3608
VSwift
p3609
sVmemento
p3610
VMemento
p3611
sVmetang
p3612
VMetang
p3613
sVbaddreams
p3614
VBad Dreams
p3615
sVaerodactyl
p3616
VAerodactyl
p3617
sVtailwhip
p3618
VTail Whip
p3619
sVsceptilite
p3620
VSceptilite
p3621
sVsafetygoggles
p3622
VSafety Goggles
p3623
sVklang
p3624
VKlang
p3625
sVswallow
p3626
VSwallow
p3627
sVspritzee
p3628
VSpritzee
p3629
sVflabebe
p3630
VFlabebe
p3631
sVapicotberry
p3632
VApicot Berry
p3633
sVnumel
p3634
VNumel
p3635
sVwoodhammer
p3636
VWood Hammer
p3637
sS'hiddenpowerwater'
p3638
S'Hidden Power Water'
p3639
sVmalaconda
p3640
VMalaconda
p3641
sVgible
p3642
VGible
p3643
sVovercoat
p3644
VOvercoat
p3645
sVekans
p3646
VEkans
p3647
sVsharpedomega
p3648
VSharpedo-Mega
p3649
sVpixieplate
p3650
VPixie Plate
p3651
sVdugtrio
p3652
VDugtrio
p3653
sVdisarmingvoice
p3654
VDisarming Voice
p3655
sVwailord
p3656
VWailord
p3657
sVswoobat
p3658
VSwoobat
p3659
sVelectrify
p3660
VElectrify
p3661
sVbindingband
p3662
VBinding Band
p3663
sVkeldeo
p3664
VKeldeo
p3665
sVtomohawk
p3666
VTomohawk
p3667
sVivysaur
p3668
VIvysaur
p3669
sVgripclaw
p3670
VGrip Claw
p3671
sVadamantorb
p3672
VAdamant Orb
p3673
sVcoverfossil
p3674
VCover Fossil
p3675
sVgraveler
p3676
VGraveler
p3677
sVsmeargle
p3678
VSmeargle
p3679
sVmetagrossmega
p3680
VMetagross-Mega
p3681
sVraindance
p3682
VRain Dance
p3683
sVinfestation
p3684
VInfestation
p3685
sVpresent
p3686
VPresent
p3687
sVgrovyle
p3688
VGrovyle
p3689
sVintimidate
p3690
VIntimidate
p3691
sVharden
p3692
VHarden
p3693
sVbeheeyem
p3694
VBeheeyem
p3695
sVwhirlpool
p3696
VWhirlpool
p3697
sVpelipper
p3698
VPelipper
p3699
sVthickfat
p3700
VThick Fat
p3701
sVcarracosta
p3702
VCarracosta
p3703
sVluxio
p3704
VLuxio
p3705
sVvullaby
p3706
VVullaby
p3707
sS'hiddenpowerghost'
p3708
S'Hidden Power Ghost'
p3709
sVlightball
p3710
VLight Ball
p3711
sVwaterveil
p3712
VWater Veil
p3713
sVspelltag
p3714
VSpell Tag
p3715
sVdeoxysdefense
p3716
VDeoxys-Defense
p3717
sVzekrom
p3718
VZekrom
p3719
sVaipom
p3720
VAipom
p3721
sVdefiant
p3722
VDefiant
p3723
sVhardstone
p3724
VHard Stone
p3725
sVkebiaberry
p3726
VKebia Berry
p3727
sVcascoon
p3728
VCascoon
p3729
sVmagcargo
p3730
VMagcargo
p3731
sVabsorb
p3732
VAbsorb
p3733
sVraindish
p3734
VRain Dish
p3735
sVseaking
p3736
VSeaking
p3737
sVmagician
p3738
VMagician
p3739
sVjudgment
p3740
VJudgment
p3741
sVairlock
p3742
VAir Lock
p3743
sVpsybeam
p3744
VPsybeam
p3745
sVaspearberry
p3746
VAspear Berry
p3747
sVeelektross
p3748
VEelektross
p3749
sVpickpocket
p3750
VPickpocket
p3751
sVsitrusberry
p3752
VSitrus Berry
p3753
sVarceuspsychic
p3754
VArceus-Psychic
p3755
sVbeautifly
p3756
VBeautifly
p3757
sVvenoshock
p3758
VVenoshock
p3759
sVmudsport
p3760
VMud Sport
p3761
sVazelf
p3762
VAzelf
p3763
sVyanmega
p3764
VYanmega
p3765
sS'naviathan'
p3766
S'Naviathan'
p3767
sVfairyaura
p3768
VFairy Aura
p3769
sVkarrablast
p3770
VKarrablast
p3771
sVpinsir
p3772
VPinsir
p3773
sVkoffing
p3774
VKoffing
p3775
sVguts
p3776
VGuts
p3777
sVtauros
p3778
VTauros
p3779
sVnatu
p3780
VNatu
p3781
sVfaketears
p3782
VFake Tears
p3783
sVariados
p3784
VAriados
p3785
sVaromaticmist
p3786
VAromatic Mist
p3787
sVbeedrillite
p3788
VBeedrillite
p3789
sVconfide
p3790
VConfide
p3791
sVleechlife
p3792
VLeech Life
p3793
sVkingsshield
p3794
VKing's Shield
p3795
sVkingsrock
p3796
VKing's Rock
p3797
sVblukberry
p3798
VBluk Berry
p3799
sVflowershield
p3800
VFlower Shield
p3801
sVarenatrap
p3802
VArena Trap
p3803
sVleechseed
p3804
VLeech Seed
p3805
sVgoldeen
p3806
VGoldeen
p3807
sVducklett
p3808
VDucklett
p3809
sVgreninja
p3810
VGreninja
p3811
sVlatios
p3812
VLatios
p3813
sVbudew
p3814
VBudew
p3815
sVgogoat
p3816
VGogoat
p3817
sVlilligant
p3818
VLilligant
p3819
sVhealball
p3820
VHeal Ball
p3821
sVphanpy
p3822
VPhanpy
p3823
sVaudinite
p3824
VAudinite
p3825
sVimprison
p3826
VImprison
p3827
sVrepeatball
p3828
VRepeat Ball
p3829
sVglare
p3830
VGlare
p3831
sVthief
p3832
VThief
p3833
sVhail
p3834
VHail
p3835
sVcofagrigus
p3836
VCofagrigus
p3837
sVwepearberry
p3838
VWepear Berry
p3839
sVskarmory
p3840
VSkarmory
p3841
sVpersimberry
p3842
VPersim Berry
p3843
sVdragonclaw
p3844
VDragon Claw
p3845
sVdrizzle
p3846
VDrizzle
p3847
sVstaraptor
p3848
VStaraptor
p3849
sVmagicalleaf
p3850
VMagical Leaf
p3851
sVmeowsticf
p3852
VMeowstic-F
p3853
sVhurricane
p3854
VHurricane
p3855
sVlileep
p3856
VLileep
p3857
sVpiloswine
p3858
VPiloswine
p3859
sVvenusaurite
p3860
VVenusaurite
p3861
sVcyclohm
p3862
VCyclohm
p3863
sVhappiny
p3864
VHappiny
p3865
sVpressure
p3866
VPressure
p3867
sVsilkscarf
p3868
VSilk Scarf
p3869
sVpidgeotto
p3870
VPidgeotto
p3871
sVdreadplate
p3872
VDread Plate
p3873
sVsableyemega
p3874
VSableye-Mega
p3875
sVfurret
p3876
VFurret
p3877
sVpsystrike
p3878
VPsystrike
p3879
sVmeteormash
p3880
VMeteor Mash
p3881
sVshucaberry
p3882
VShuca Berry
p3883
sVsweetkiss
p3884
VSweet Kiss
p3885
sVacidarmor
p3886
VAcid Armor
p3887
sVlightclay
p3888
VLight Clay
p3889
sVvoodoom
p3890
VVoodoom
p3891
sVblueorb
p3892
VBlue Orb
p3893
sVfeintattack
p3894
VFeint Attack
p3895
sVburmy
p3896
VBurmy
p3897
sVmagostberry
p3898
VMagost Berry
p3899
sVgrasspelt
p3900
VGrass Pelt
p3901
sVspitup
p3902
VSpit Up
p3903
sVrockthrow
p3904
VRock Throw
p3905
sVroseliberry
p3906
VRoseli Berry
p3907
sVfrustration
p3908
VFrustration
p3909
sVambipom
p3910
VAmbipom
p3911
sVfollowme
p3912
VFollow Me
p3913
sVclauncher
p3914
VClauncher
p3915
sVquickpowder
p3916
VQuick Powder
p3917
sVfrenzyplant
p3918
VFrenzy Plant
p3919
sVfrisk
p3920
VFrisk
p3921
sVmagoberry
p3922
VMago Berry
p3923
sVcroconaw
p3924
VCroconaw
p3925
sVdrowzee
p3926
VDrowzee
p3927
sVserenegrace
p3928
VSerene Grace
p3929
sVheracronite
p3930
VHeracronite
p3931
sVtechnician
p3932
VTechnician
p3933
sVarceusgrass
p3934
VArceus-Grass
p3935
sVembargo
p3936
VEmbargo
p3937
sVmetronome
p3938
VMetronome
p3939
sVattackorder
p3940
VAttack Order
p3941
sVallyswitch
p3942
VAlly Switch
p3943
sVwish
p3944
VWish
p3945
sVmegakick
p3946
VMega Kick
p3947
sVentrainment
p3948
VEntrainment
p3949
sVpoisonheal
p3950
VPoison Heal
p3951
sVscizormega
p3952
VScizor-Mega
p3953
sVhoneclaws
p3954
VHone Claws
p3955
sVfloetteeternalflower
p3956
VFloette-Eternal-Flower
p3957
sVpikachurockstar
p3958
VPikachu-Rock-Star
p3959
sVoranberry
p3960
VOran Berry
p3961
sVninjask
p3962
VNinjask
p3963
sVslowstart
p3964
VSlow Start
p3965
sVweakarmor
p3966
VWeak Armor
p3967
sVaurasphere
p3968
VAura Sphere
p3969
sVshelgon
p3970
VShelgon
p3971
sVrawstberry
p3972
VRawst Berry
p3973
sVvacuumwave
p3974
VVacuum Wave
p3975
sVillusion
p3976
VIllusion
p3977
sVroleplay
p3978
VRole Play
p3979
sVyacheberry
p3980
VYache Berry
p3981
sVtreecko
p3982
VTreecko
p3983
sVdragonair
p3984
VDragonair
p3985
sVbraviary
p3986
VBraviary
p3987
sVvivillon
p3988
VVivillon
p3989
sVnoguard
p3990
VNo Guard
p3991
sVsalamencemega
p3992
VSalamence-Mega
p3993
sVabomasite
p3994
VAbomasite
p3995
sVstarmie
p3996
VStarmie
p3997
sVpersistent
p3998
VPersistent
p3999
sVmagmar
p4000
VMagmar
p4001
sVzangoose
p4002
VZangoose
p4003
sVvanilluxe
p4004
VVanilluxe
p4005
s.