(dp1
Velectivire
p2
VElectivire
p3
sVanchorshot
p4
VAnchor Shot
p5
sVheracross
p6
VHeracross
p7
sVcolorchange
p8
VColor Change
p9
sVlucarionite
p10
VLucarionite
p11
sVpalkia
p12
VPalkia
p13
sVchatter
p14
VChatter
p15
sValakazite
p16
VAlakazite
p17
sVtickle
p18
VTickle
p19
sVarceuselectric
p20
VArceus-Electric
p21
sVabra
p22
VAbra
p23
sVexeggutoralola
p24
VExeggutor-Alola
p25
sVrecycle
p26
VRecycle
p27
sVtimerball
p28
VTimer Ball
p29
sVsteeliumz
p30
VSteelium Z
p31
sVsharpbeak
p32
VSharp Beak
p33
sVmewtwonitex
p34
VMewtwonite X
p35
sVmewtwonitey
p36
VMewtwonite Y
p37
sVquickclaw
p38
VQuick Claw
p39
sVoricoriopompom
p40
VOricorio-Pom-Pom
p41
sVneuroforce
p42
VNeuroforce
p43
sVdoubleslap
p44
VDouble Slap
p45
sVlurantis
p46
VLurantis
p47
sVeviolite
p48
VEviolite
p49
sVprotean
p50
VProtean
p51
sVsquirtle
p52
VSquirtle
p53
sVdiglettalola
p54
VDiglett-Alola
p55
sVdarmanitanzen
p56
VDarmanitan-Zen
p57
sVnastyplot
p58
VNasty Plot
p59
sVwormadam
p60
VWormadam
p61
sVmiracleberry
p62
VMiracle Berry
p63
sVaggronmega
p64
VAggron-Mega
p65
sVwhirlwind
p66
VWhirlwind
p67
sVplumefossil
p68
VPlume Fossil
p69
sVcherrim
p70
VCherrim
p71
sVhiddenpowerelectric
p72
VHidden Power Electric
p73
sVhiddenpowerfire
p74
VHidden Power Fire
p75
sVguillotine
p76
VGuillotine
p77
sVlevitate
p78
VLevitate
p79
sVgyaradosite
p80
VGyaradosite
p81
sVpomegberry
p82
VPomeg Berry
p83
sVpokestargiant
p84
VPokestar Giant
p85
sVmasquerain
p86
VMasquerain
p87
sVaccelerock
p88
VAccelerock
p89
sVthunder
p90
VThunder
p91
sVhaze
p92
VHaze
p93
sVdarkgem
p94
VDark Gem
p95
sVpokestarmt2
p96
VPokestar MT2
p97
sVfraxure
p98
VFraxure
p99
sVmoldbreaker
p100
VMold Breaker
p101
sVcrunch
p102
VCrunch
p103
sVrindoberry
p104
VRindo Berry
p105
sVlatiosite
p106
VLatiosite
p107
sVreflecttype
p108
VReflect Type
p109
sVsnivy
p110
VSnivy
p111
sVmefirst
p112
VMe First
p113
sVstarfberry
p114
VStarf Berry
p115
sVscizorite
p116
VScizorite
p117
sVmew
p118
VMew
p119
sVpursuit
p120
VPursuit
p121
sVheadsmash
p122
VHead Smash
p123
sVaftermath
p124
VAftermath
p125
sVmintberry
p126
VMint Berry
p127
sVclawitzer
p128
VClawitzer
p129
sVpixilate
p130
VPixilate
p131
sVtornadustherian
p132
VTornadus-Therian
p133
sVmoonstone
p134
VMoon Stone
p135
sVlunatone
p136
VLunatone
p137
sVpunishment
p138
VPunishment
p139
sVpoisontouch
p140
VPoison Touch
p141
sVfeebas
p142
VFeebas
p143
sVneedlearm
p144
VNeedle Arm
p145
sValtarianite
p146
VAltarianite
p147
sVblastburn
p148
VBlast Burn
p149
sVhonchkrow
p150
VHonchkrow
p151
sVtactite
p152
VTactite
p153
sVschooling
p154
VSchooling
p155
sVtirtouga
p156
VTirtouga
p157
sVampharos
p158
VAmpharos
p159
sVdusclops
p160
VDusclops
p161
sVpoisonbarb
p162
VPoison Barb
p163
sVmorningsun
p164
VMorning Sun
p165
sVfreezedry
p166
VFreeze-Dry
p167
sVmandibuzz
p168
VMandibuzz
p169
sVoverheat
p170
VOverheat
p171
sVwishiwashischool
p172
VWishiwashi-School
p173
sVspiritomb
p174
VSpiritomb
p175
sVvoltabsorb
p176
VVolt Absorb
p177
sVpurugly
p178
VPurugly
p179
sVshiftgear
p180
VShift Gear
p181
sVvenomoth
p182
VVenomoth
p183
sVfirstimpression
p184
VFirst Impression
p185
sVcastformrainy
p186
VCastform-Rainy
p187
sVbigroot
p188
VBig Root
p189
sVcobalion
p190
VCobalion
p191
sVgardevoir
p192
VGardevoir
p193
sVsheerforce
p194
VSheer Force
p195
sVmagnetrise
p196
VMagnet Rise
p197
sVnaive
p198
VNaive
p199
sVreuniclus
p200
VReuniclus
p201
sVbeastboost
p202
VBeast Boost
p203
sVsceptilemega
p204
VSceptile-Mega
p205
sVlunge
p206
VLunge
p207
sVcharjabug
p208
VCharjabug
p209
sVsteelmemory
p210
VSteel Memory
p211
sVbeastball
p212
VBeast Ball
p213
sVkitsunoh
p214
VKitsunoh
p215
sVarceusbug
p216
VArceus-Bug
p217
sVgranbull
p218
VGranbull
p219
sVmeditite
p220
VMeditite
p221
sVgengarmega
p222
VGengar-Mega
p223
sVpidgeot
p224
VPidgeot
p225
sVstakataka
p226
VStakataka
p227
sVsilvallypoison
p228
VSilvally-Poison
p229
sVtangledfeet
p230
VTangled Feet
p231
sVigglybuff
p232
VIgglybuff
p233
sVonix
p234
VOnix
p235
sVgrimer
p236
VGrimer
p237
sVrototiller
p238
VRototiller
p239
sVlucariomega
p240
VLucario-Mega
p241
sVbugbite
p242
VBug Bite
p243
sVpoisongas
p244
VPoison Gas
p245
sVmakuhita
p246
VMakuhita
p247
sVfriendball
p248
VFriend Ball
p249
sVwigglytuff
p250
VWigglytuff
p251
sVattract
p252
VAttract
p253
sVcharizarditey
p254
VCharizardite Y
p255
sVcharizarditex
p256
VCharizardite X
p257
sVhyperspacehole
p258
VHyperspace Hole
p259
sVskydrop
p260
VSky Drop
p261
sVcrabhammer
p262
VCrabhammer
p263
sVtoxic
p264
VToxic
p265
sVcastformsunny
p266
VCastform-Sunny
p267
sVrotomheat
p268
VRotom-Heat
p269
sVsportball
p270
VSport Ball
p271
sVpoisonpowder
p272
VPoison Powder
p273
sVredcard
p274
VRed Card
p275
sVmodest
p276
VModest
p277
sVtynamo
p278
VTynamo
p279
sVliquidvoice
p280
VLiquid Voice
p281
sVcherubi
p282
VCherubi
p283
sVleafstorm
p284
VLeaf Storm
p285
sVpokestarufo2
p286
VPokestar UFO-2
p287
sVpoweranklet
p288
VPower Anklet
p289
sVgumshoostotem
p290
VGumshoos-Totem
p291
sVspookyplate
p292
VSpooky Plate
p293
sVhasty
p294
VHasty
p295
sVraichualola
p296
VRaichu-Alola
p297
sVentei
p298
VEntei
p299
sVdecidueye
p300
VDecidueye
p301
sVarceussteel
p302
VArceus-Steel
p303
sVtogedemarutotem
p304
VTogedemaru-Totem
p305
sVcobaberry
p306
VCoba Berry
p307
sVlaggingtail
p308
VLagging Tail
p309
sVfinalgambit
p310
VFinal Gambit
p311
sVrapidash
p312
VRapidash
p313
sVblacephalon
p314
VBlacephalon
p315
sVdoubleteam
p316
VDouble Team
p317
sVlumineon
p318
VLumineon
p319
sVgligar
p320
VGligar
p321
sVshielddust
p322
VShield Dust
p323
sVmagicbounce
p324
VMagic Bounce
p325
sVfakeout
p326
VFake Out
p327
sVsludge
p328
VSludge
p329
sVvenusaur
p330
VVenusaur
p331
sVphione
p332
VPhione
p333
sVmindplate
p334
VMind Plate
p335
sVgrassyseed
p336
VGrassy Seed
p337
sVflameburst
p338
VFlame Burst
p339
sVzapplate
p340
VZap Plate
p341
sVmunna
p342
VMunna
p343
sVdragonscale
p344
VDragon Scale
p345
sVjawfossil
p346
VJaw Fossil
p347
sVnihilego
p348
VNihilego
p349
sVmimikyu
p350
VMimikyu
p351
sVkricketot
p352
VKricketot
p353
sVgroundiumz
p354
VGroundium Z
p355
sVroost
p356
VRoost
p357
sVfurycutter
p358
VFury Cutter
p359
sVirontail
p360
VIron Tail
p361
sVclangingscales
p362
VClanging Scales
p363
sVheatmor
p364
VHeatmor
p365
sVeggbomb
p366
VEgg Bomb
p367
sVluxray
p368
VLuxray
p369
sVpayback
p370
VPayback
p371
sVexcadrill
p372
VExcadrill
p373
sVgloom
p374
VGloom
p375
sVgluttony
p376
VGluttony
p377
sVtapukoko
p378
VTapu Koko
p379
sVvulpix
p380
VVulpix
p381
sVcradily
p382
VCradily
p383
sVwimpod
p384
VWimpod
p385
sVthunderfang
p386
VThunder Fang
p387
sVblastoisemega
p388
VBlastoise-Mega
p389
sVespeon
p390
VEspeon
p391
sVtogedemaru
p392
VTogedemaru
p393
sVmultitype
p394
VMultitype
p395
sVflameorb
p396
VFlame Orb
p397
sVpanpour
p398
VPanpour
p399
sVhiddenpowerdragon
p400
VHidden Power Dragon
p401
sVfairywind
p402
VFairy Wind
p403
sVgothorita
p404
VGothorita
p405
sVomastar
p406
VOmastar
p407
sVwalrein
p408
VWalrein
p409
sVsawsbuck
p410
VSawsbuck
p411
sVtruant
p412
VTruant
p413
sVqualotberry
p414
VQualot Berry
p415
sVflowergift
p416
VFlower Gift
p417
sVsuperluck
p418
VSuper Luck
p419
sVpsychic
p420
VPsychic
p421
sVlifeorb
p422
VLife Orb
p423
sVvulpixalola
p424
VVulpix-Alola
p425
sVwaterstone
p426
VWater Stone
p427
sVkasibberry
p428
VKasib Berry
p429
sVribombee
p430
VRibombee
p431
sVargalis
p432
VArgalis
p433
sVcottonguard
p434
VCotton Guard
p435
sVtornadus
p436
VTornadus
p437
sVshedshell
p438
VShed Shell
p439
sVbarrier
p440
VBarrier
p441
sVleftovers
p442
VLeftovers
p443
sVcoreenforcer
p444
VCore Enforcer
p445
sVsynchronoise
p446
VSynchronoise
p447
sVbestow
p448
VBestow
p449
sVtrumpcard
p450
VTrump Card
p451
sVsweetveil
p452
VSweet Veil
p453
sViceball
p454
VIce Ball
p455
sVgalladite
p456
VGalladite
p457
sVshiftry
p458
VShiftry
p459
sVfletchinder
p460
VFletchinder
p461
sVbeartic
p462
VBeartic
p463
sVkyuremblack
p464
VKyurem-Black
p465
sVsonicboom
p466
VSonic Boom
p467
sVpikachupartner
p468
VPikachu-Partner
p469
sVfightinggem
p470
VFighting Gem
p471
sVgroudonprimal
p472
VGroudon-Primal
p473
sVlatias
p474
VLatias
p475
sVfilter
p476
VFilter
p477
sVsteelixmega
p478
VSteelix-Mega
p479
sVtapuniumz
p480
VTapunium Z
p481
sVcherishball
p482
VCherish Ball
p483
sVcheriberry
p484
VCheri Berry
p485
sVfightingmemory
p486
VFighting Memory
p487
sVnaughty
p488
VNaughty
p489
sVseedflare
p490
VSeed Flare
p491
sVhydrocannon
p492
VHydro Cannon
p493
sVmagneticflux
p494
VMagnetic Flux
p495
sVdeoxys
p496
VDeoxys
p497
sVursaring
p498
VUrsaring
p499
sVlatiasmega
p500
VLatias-Mega
p501
sVrattataalola
p502
VRattata-Alola
p503
sVinstruct
p504
VInstruct
p505
sVembirch
p506
VEmbirch
p507
sVshieldon
p508
VShieldon
p509
sVslugma
p510
VSlugma
p511
sVheracrossmega
p512
VHeracross-Mega
p513
sVwaveincense
p514
VWave Incense
p515
sVmanectite
p516
VManectite
p517
sVinnardsout
p518
VInnards Out
p519
sVpikachupopstar
p520
VPikachu-Pop-Star
p521
sVmudsdale
p522
VMudsdale
p523
sVaircutter
p524
VAir Cutter
p525
sVgiratinaorigin
p526
VGiratina-Origin
p527
sVgrowlithe
p528
VGrowlithe
p529
sVinferno
p530
VInferno
p531
sVtwister
p532
VTwister
p533
sVarceusdragon
p534
VArceus-Dragon
p535
sVflamethrower
p536
VFlamethrower
p537
sVtoxicorb
p538
VToxic Orb
p539
sVfairylock
p540
VFairy Lock
p541
sVrockclimb
p542
VRock Climb
p543
sVwonderroom
p544
VWonder Room
p545
sVmegakick
p546
VMega Kick
p547
sVdoomdesire
p548
VDoom Desire
p549
sVmirrormove
p550
VMirror Move
p551
sVsandshrew
p552
VSandshrew
p553
sVpolitoed
p554
VPolitoed
p555
sVminun
p556
VMinun
p557
sVbelueberry
p558
VBelue Berry
p559
sVgeodudealola
p560
VGeodude-Alola
p561
sVfloralhealing
p562
VFloral Healing
p563
sVfiriumz
p564
VFirium Z
p565
sVendure
p566
VEndure
p567
sVswiftswim
p568
VSwift Swim
p569
sVshellbell
p570
VShell Bell
p571
sVminus
p572
VMinus
p573
sVmeowth
p574
VMeowth
p575
sVprankster
p576
VPrankster
p577
sVwacanberry
p578
VWacan Berry
p579
sVsylveon
p580
VSylveon
p581
sVpayapaberry
p582
VPayapa Berry
p583
sVclosecombat
p584
VClose Combat
p585
sVsilvallydark
p586
VSilvally-Dark
p587
sVmetalclaw
p588
VMetal Claw
p589
sVseel
p590
VSeel
p591
sVblastoise
p592
VBlastoise
p593
sVstrength
p594
VStrength
p595
sVchingling
p596
VChingling
p597
sVgothita
p598
VGothita
p599
sVyungoos
p600
VYungoos
p601
sVcraftyshield
p602
VCrafty Shield
p603
sVgyroball
p604
VGyro Ball
p605
sVrhyperior
p606
VRhyperior
p607
sVgolbat
p608
VGolbat
p609
sVgrassyterrain
p610
VGrassy Terrain
p611
sVdeoxysspeed
p612
VDeoxys-Speed
p613
sVpikachucosplay
p614
VPikachu-Cosplay
p615
sVshadowforce
p616
VShadow Force
p617
sVcoil
p618
VCoil
p619
sVdrought
p620
VDrought
p621
sVfeint
p622
VFeint
p623
sVcosmicpower
p624
VCosmic Power
p625
sVempoleon
p626
VEmpoleon
p627
sVthousandwaves
p628
VThousand Waves
p629
sVdunsparce
p630
VDunsparce
p631
sVnincada
p632
VNincada
p633
sVconstrict
p634
VConstrict
p635
sVvileplume
p636
VVileplume
p637
sVraticate
p638
VRaticate
p639
sVcinccino
p640
VCinccino
p641
sVjirachi
p642
VJirachi
p643
sVgolduck
p644
VGolduck
p645
sVshiinotic
p646
VShiinotic
p647
sVarmorfossil
p648
VArmor Fossil
p649
sVstickyweb
p650
VSticky Web
p651
sVlycanrocdusk
p652
VLycanroc-Dusk
p653
sVtogekiss
p654
VTogekiss
p655
sVhippopotas
p656
VHippopotas
p657
sVdialga
p658
VDialga
p659
sVlastresort
p660
VLast Resort
p661
sVpsychicterrain
p662
VPsychic Terrain
p663
sVbulletpunch
p664
VBullet Punch
p665
sVicegem
p666
VIce Gem
p667
sVspite
p668
VSpite
p669
sVcarbink
p670
VCarbink
p671
sVwaterpulse
p672
VWater Pulse
p673
sVstoutland
p674
VStoutland
p675
sVgenesissupernova
p676
VGenesis Supernova
p677
sVbidoof
p678
VBidoof
p679
sVsyclant
p680
VSyclant
p681
sVhaunter
p682
VHaunter
p683
sVweedle
p684
VWeedle
p685
sVaerilate
p686
VAerilate
p687
sVhoneygather
p688
VHoney Gather
p689
sVmachop
p690
VMachop
p691
sVmetalpowder
p692
VMetal Powder
p693
sVguardianofalola
p694
VGuardian of Alola
p695
sVdusknoir
p696
VDusknoir
p697
sVmeditate
p698
VMeditate
p699
sVreversal
p700
VReversal
p701
sVlunardance
p702
VLunar Dance
p703
sVpumpkaboosmall
p704
VPumpkaboo-Small
p705
sVtentacool
p706
VTentacool
p707
sVpokeball
p708
VPoke Ball
p709
sVsilvally
p710
VSilvally
p711
sVdiancie
p712
VDiancie
p713
sVplasmanta
p714
VPlasmanta
p715
sVnosepass
p716
VNosepass
p717
sVmawilite
p718
VMawilite
p719
sVlaxincense
p720
VLax Incense
p721
sVmagneton
p722
VMagneton
p723
sVstickyhold
p724
VSticky Hold
p725
sVbeatup
p726
VBeat Up
p727
sVleafblade
p728
VLeaf Blade
p729
sVfluffy
p730
VFluffy
p731
sVserperior
p732
VSerperior
p733
sVlopunnite
p734
VLopunnite
p735
sVwooper
p736
VWooper
p737
sVforretress
p738
VForretress
p739
sVmindreader
p740
VMind Reader
p741
sVseaincense
p742
VSea Incense
p743
sVsimisage
p744
VSimisage
p745
sVsolarblade
p746
VSolar Blade
p747
sVarcheops
p748
VArcheops
p749
sVheavymetal
p750
VHeavy Metal
p751
sVwormadamsandy
p752
VWormadam-Sandy
p753
sVpsychiumz
p754
VPsychium Z
p755
sVspiritshackle
p756
VSpirit Shackle
p757
sVcontinentalcrush
p758
VContinental Crush
p759
sVmuscleband
p760
VMuscle Band
p761
sVtwinkletackle
p762
VTwinkle Tackle
p763
sVmatblock
p764
VMat Block
p765
sVmoongeistbeam
p766
VMoongeist Beam
p767
sVdoduo
p768
VDoduo
p769
sVmuk
p770
VMuk
p771
sVnecrozmadawnwings
p772
VNecrozma-Dawn-Wings
p773
sVmotordrive
p774
VMotor Drive
p775
sVconfusion
p776
VConfusion
p777
sVslowpoke
p778
VSlowpoke
p779
sVfrostbreath
p780
VFrost Breath
p781
sVvirizion
p782
VVirizion
p783
sVspinda
p784
VSpinda
p785
sVcosmoem
p786
VCosmoem
p787
sVmeadowplate
p788
VMeadow Plate
p789
sVparasect
p790
VParasect
p791
sVgourgeistsmall
p792
VGourgeist-Small
p793
sVadamantorb
p794
VAdamant Orb
p795
sVprotect
p796
VProtect
p797
sVplaynice
p798
VPlay Nice
p799
sVsamurott
p800
VSamurott
p801
sVmenacingmoonrazemaelstrom
p802
VMenacing Moonraze Maelstrom
p803
sVreceiver
p804
VReceiver
p805
sVmawile
p806
VMawile
p807
sVchimecho
p808
VChimecho
p809
sVpetayaberry
p810
VPetaya Berry
p811
sVdoublade
p812
VDoublade
p813
sVsailfossil
p814
VSail Fossil
p815
sVdeltastream
p816
VDelta Stream
p817
sVluckychant
p818
VLucky Chant
p819
sVleppaberry
p820
VLeppa Berry
p821
sVlick
p822
VLick
p823
sVoblivious
p824
VOblivious
p825
sVfierydance
p826
VFiery Dance
p827
sVfloatzel
p828
VFloatzel
p829
sVsmackdown
p830
VSmack Down
p831
sVcopycat
p832
VCopycat
p833
sVsalamencite
p834
VSalamencite
p835
sVbuneary
p836
VBuneary
p837
sVrevelationdance
p838
VRevelation Dance
p839
sVshockdrive
p840
VShock Drive
p841
sVnightdaze
p842
VNight Daze
p843
sVfriendguard
p844
VFriend Guard
p845
sVscaryface
p846
VScary Face
p847
sVmarowakalolatotem
p848
VMarowak-Alola-Totem
p849
sVsteamroller
p850
VSteamroller
p851
sVsalazzle
p852
VSalazzle
p853
sVwimpout
p854
VWimp Out
p855
sVkakuna
p856
VKakuna
p857
sVpowertrick
p858
VPower Trick
p859
sVyanma
p860
VYanma
p861
sVsilvallyfire
p862
VSilvally-Fire
p863
sVchatot
p864
VChatot
p865
sVaciddownpour
p866
VAcid Downpour
p867
sVmarshtomp
p868
VMarshtomp
p869
sVgurdurr
p870
VGurdurr
p871
sVsoundproof
p872
VSoundproof
p873
sVslam
p874
VSlam
p875
sVthrash
p876
VThrash
p877
sVsandrush
p878
VSand Rush
p879
sVsliggoo
p880
VSliggoo
p881
sVtotodile
p882
VTotodile
p883
sVgarchompite
p884
VGarchompite
p885
sVslowbro
p886
VSlowbro
p887
sVprismaticlaser
p888
VPrismatic Laser
p889
sVnaganadel
p890
VNaganadel
p891
sValakazam
p892
VAlakazam
p893
sVbinacle
p894
VBinacle
p895
sVhitmonlee
p896
VHitmonlee
p897
sVmarowakalola
p898
VMarowak-Alola
p899
sVnevermeltice
p900
VNever-Melt Ice
p901
sVgrowl
p902
VGrowl
p903
sViciumz
p904
VIcium Z
p905
sVaguavberry
p906
VAguav Berry
p907
sVdrilbur
p908
VDrilbur
p909
sVcameruptite
p910
VCameruptite
p911
sVwhippeddream
p912
VWhipped Dream
p913
sVralts
p914
VRalts
p915
sVpupitar
p916
VPupitar
p917
sVkyurem
p918
VKyurem
p919
sVslowking
p920
VSlowking
p921
sVpowerherb
p922
VPower Herb
p923
sVnoivern
p924
VNoivern
p925
sVwaterfall
p926
VWaterfall
p927
sVdewgong
p928
VDewgong
p929
sVflyiniumz
p930
VFlyinium Z
p931
sVkirlia
p932
VKirlia
p933
sVknockoff
p934
VKnock Off
p935
sVoctazooka
p936
VOctazooka
p937
sVcawmodore
p938
VCawmodore
p939
sVpikachubelle
p940
VPikachu-Belle
p941
sVluxuryball
p942
VLuxury Ball
p943
sVhydration
p944
VHydration
p945
sVkrokorok
p946
VKrokorok
p947
sVamoonguss
p948
VAmoonguss
p949
sVsilvallygrass
p950
VSilvally-Grass
p951
sVquilladin
p952
VQuilladin
p953
sVshellarmor
p954
VShell Armor
p955
sVpoliwag
p956
VPoliwag
p957
sVslushrush
p958
VSlush Rush
p959
sVmetalcoat
p960
VMetal Coat
p961
sVthickclub
p962
VThick Club
p963
sVdugtrioalola
p964
VDugtrio-Alola
p965
sVdisguise
p966
VDisguise
p967
sVscizor
p968
VScizor
p969
sVfloetteeternal
p970
VFloette-Eternal
p971
sVkerfluffle
p972
VKerfluffle
p973
sVsilcoon
p974
VSilcoon
p975
sVbuggem
p976
VBug Gem
p977
sVdragonmemory
p978
VDragon Memory
p979
sVoshawott
p980
VOshawott
p981
sVtorterra
p982
VTorterra
p983
sVtogepi
p984
VTogepi
p985
sVdomefossil
p986
VDome Fossil
p987
sVadamant
p988
VAdamant
p989
sVlowkick
p990
VLow Kick
p991
sVhealbell
p992
VHeal Bell
p993
sVmirrorshot
p994
VMirror Shot
p995
sVtapufini
p996
VTapu Fini
p997
sVlickitung
p998
VLickitung
p999
sVpassimian
p1000
VPassimian
p1001
sVlatiosmega
p1002
VLatios-Mega
p1003
sVdragonrush
p1004
VDragon Rush
p1005
sVredorb
p1006
VRed Orb
p1007
sVspinarak
p1008
VSpinarak
p1009
sVdiggersby
p1010
VDiggersby
p1011
sVsilverwind
p1012
VSilver Wind
p1013
sVpaleowave
p1014
VPaleo Wave
p1015
sVludicolo
p1016
VLudicolo
p1017
sVditto
p1018
VDitto
p1019
sVcirclethrow
p1020
VCircle Throw
p1021
sVfullmetalbody
p1022
VFull Metal Body
p1023
sValloutpummeling
p1024
VAll-Out Pummeling
p1025
sVinfernooverdrive
p1026
VInferno Overdrive
p1027
sVthunderstone
p1028
VThunder Stone
p1029
sVhiddenpowerpoison
p1030
VHidden Power Poison
p1031
sVflatter
p1032
VFlatter
p1033
sVtoxicspikes
p1034
VToxic Spikes
p1035
sVfirepledge
p1036
VFire Pledge
p1037
sVnoctowl
p1038
VNoctowl
p1039
sVcornnberry
p1040
VCornn Berry
p1041
sVskullfossil
p1042
VSkull Fossil
p1043
sVcheekpouch
p1044
VCheek Pouch
p1045
sVuproar
p1046
VUproar
p1047
sVgoldberry
p1048
VGold Berry
p1049
sVferrothorn
p1050
VFerrothorn
p1051
sVexpertbelt
p1052
VExpert Belt
p1053
sVholdhands
p1054
VHold Hands
p1055
sVcrosschop
p1056
VCross Chop
p1057
sVpsyshock
p1058
VPsyshock
p1059
sVicyrock
p1060
VIcy Rock
p1061
sVsoulheart
p1062
VSoul-Heart
p1063
sVtrevenant
p1064
VTrevenant
p1065
sVabsorbbulb
p1066
VAbsorb Bulb
p1067
sVbold
p1068
VBold
p1069
sVgunkshot
p1070
VGunk Shot
p1071
sVmagearna
p1072
VMagearna
p1073
sVarceusfire
p1074
VArceus-Fire
p1075
sVgarchomp
p1076
VGarchomp
p1077
sVgeodude
p1078
VGeodude
p1079
sVlightscreen
p1080
VLight Screen
p1081
sVwhimsicott
p1082
VWhimsicott
p1083
sVlavaplume
p1084
VLava Plume
p1085
sVkeeneye
p1086
VKeen Eye
p1087
sVsimipour
p1088
VSimipour
p1089
sVtrumbeak
p1090
VTrumbeak
p1091
sVautotomize
p1092
VAutotomize
p1093
sVspikecannon
p1094
VSpike Cannon
p1095
sVnecturna
p1096
VNecturna
p1097
sVplus
p1098
VPlus
p1099
sVnidoqueen
p1100
VNidoqueen
p1101
sVsapsipper
p1102
VSap Sipper
p1103
sVpikachulibre
p1104
VPikachu-Libre
p1105
sVthunderpunch
p1106
VThunder Punch
p1107
sVhornleech
p1108
VHorn Leech
p1109
sVbraixen
p1110
VBraixen
p1111
sVdarkvoid
p1112
VDark Void
p1113
sVsupersonicskystrike
p1114
VSupersonic Skystrike
p1115
sVhoundour
p1116
VHoundour
p1117
sVdualchop
p1118
VDual Chop
p1119
sVpinsirmega
p1120
VPinsir-Mega
p1121
sVfoulplay
p1122
VFoul Play
p1123
sVscyther
p1124
VScyther
p1125
sVgalewings
p1126
VGale Wings
p1127
sVstormdrain
p1128
VStorm Drain
p1129
sVseadra
p1130
VSeadra
p1131
sVovergrow
p1132
VOvergrow
p1133
sVprismscale
p1134
VPrism Scale
p1135
sVbronzor
p1136
VBronzor
p1137
sVwrap
p1138
VWrap
p1139
sVrebble
p1140
VRebble
p1141
sVterrainextender
p1142
VTerrain Extender
p1143
sVcorsola
p1144
VCorsola
p1145
sVtransform
p1146
VTransform
p1147
sVklefki
p1148
VKlefki
p1149
sVrowapberry
p1150
VRowap Berry
p1151
sVquirky
p1152
VQuirky
p1153
sVquickattack
p1154
VQuick Attack
p1155
sVsynthesis
p1156
VSynthesis
p1157
sVmultiscale
p1158
VMultiscale
p1159
sVgroundgem
p1160
VGround Gem
p1161
sVreshiram
p1162
VReshiram
p1163
sVrocksmash
p1164
VRock Smash
p1165
sVvolttackle
p1166
VVolt Tackle
p1167
sVghostgem
p1168
VGhost Gem
p1169
sVleafage
p1170
VLeafage
p1171
sVroughskin
p1172
VRough Skin
p1173
sVsafeguard
p1174
VSafeguard
p1175
sVsmoothrock
p1176
VSmooth Rock
p1177
sVcosmog
p1178
VCosmog
p1179
sVgearup
p1180
VGear Up
p1181
sVbide
p1182
VBide
p1183
sVaurabreak
p1184
VAura Break
p1185
sVaurorus
p1186
VAurorus
p1187
sVlightofruin
p1188
VLight of Ruin
p1189
sVstokedsparksurfer
p1190
VStoked Sparksurfer
p1191
sVholdback
p1192
VHold Back
p1193
sVpoweruppunch
p1194
VPower-Up Punch
p1195
sVunnerve
p1196
VUnnerve
p1197
sVparentalbond
p1198
VParental Bond
p1199
sVlunaliumz
p1200
VLunalium Z
p1201
sVferaligatr
p1202
VFeraligatr
p1203
sVpokestarbrycenman
p1204
VPokestar Brycen-Man
p1205
sVoddish
p1206
VOddish
p1207
sVleer
p1208
VLeer
p1209
sVmagby
p1210
VMagby
p1211
sVtypenull
p1212
VType: Null
p1213
sVswadloon
p1214
VSwadloon
p1215
sVvibrava
p1216
VVibrava
p1217
sVuxie
p1218
VUxie
p1219
sVsmoochum
p1220
VSmoochum
p1221
sVlansatberry
p1222
VLansat Berry
p1223
sVbutterfree
p1224
VButterfree
p1225
sVferroseed
p1226
VFerroseed
p1227
sVgoomy
p1228
VGoomy
p1229
sVamaura
p1230
VAmaura
p1231
sVminiormeteor
p1232
VMinior-Meteor
p1233
sVclawfossil
p1234
VClaw Fossil
p1235
sVdischarge
p1236
VDischarge
p1237
sVkyogre
p1238
VKyogre
p1239
sVstrengthsap
p1240
VStrength Sap
p1241
sVpoisonpoint
p1242
VPoison Point
p1243
sVhiddenpowerground
p1244
VHidden Power Ground
p1245
sVarceuspoison
p1246
VArceus-Poison
p1247
sVliechiberry
p1248
VLiechi Berry
p1249
sVlillipup
p1250
VLillipup
p1251
sVsilvallyflying
p1252
VSilvally-Flying
p1253
sVspectralthief
p1254
VSpectral Thief
p1255
sVflareboost
p1256
VFlare Boost
p1257
sVmareep
p1258
VMareep
p1259
sVoccaberry
p1260
VOcca Berry
p1261
sVironfist
p1262
VIron Fist
p1263
sVserious
p1264
VSerious
p1265
sVmegadrain
p1266
VMega Drain
p1267
sVsalacberry
p1268
VSalac Berry
p1269
sVpolkadotbow
p1270
VPolkadot Bow
p1271
sVsnubbull
p1272
VSnubbull
p1273
sVsandveil
p1274
VSand Veil
p1275
sVabsolite
p1276
VAbsolite
p1277
sVbonsly
p1278
VBonsly
p1279
sVnecrozma
p1280
VNecrozma
p1281
sVcelebi
p1282
VCelebi
p1283
sVavalanche
p1284
VAvalanche
p1285
sVshadowsneak
p1286
VShadow Sneak
p1287
sVsuctioncups
p1288
VSuction Cups
p1289
sVwaterbubble
p1290
VWater Bubble
p1291
sVsuperpower
p1292
VSuperpower
p1293
sVchinchou
p1294
VChinchou
p1295
sVanticipation
p1296
VAnticipation
p1297
sVweezing
p1298
VWeezing
p1299
sVdragonpulse
p1300
VDragon Pulse
p1301
sVelectroball
p1302
VElectro Ball
p1303
sVflash
p1304
VFlash
p1305
sVnetball
p1306
VNet Ball
p1307
sVcharge
p1308
VCharge
p1309
sVquash
p1310
VQuash
p1311
sVsnorlax
p1312
VSnorlax
p1313
sVblackholeeclipse
p1314
VBlack Hole Eclipse
p1315
sVunburden
p1316
VUnburden
p1317
sVrufflet
p1318
VRufflet
p1319
sVmachamp
p1320
VMachamp
p1321
sVkricketune
p1322
VKricketune
p1323
sVtailslap
p1324
VTail Slap
p1325
sVchilanberry
p1326
VChilan Berry
p1327
sVlopunny
p1328
VLopunny
p1329
sVtoxicplate
p1330
VToxic Plate
p1331
sVtoucannon
p1332
VToucannon
p1333
sVpikachualola
p1334
VPikachu-Alola
p1335
sVsplinteredstormshards
p1336
VSplintered Stormshards
p1337
sVskyuppercut
p1338
VSky Uppercut
p1339
sVmimejr
p1340
VMime Jr.
p1341
sVguzzlord
p1342
VGuzzlord
p1343
sVpoisonsting
p1344
VPoison Sting
p1345
sVdig
p1346
VDig
p1347
sVfocusblast
p1348
VFocus Blast
p1349
sVmesprit
p1350
VMesprit
p1351
sVmagnet
p1352
VMagnet
p1353
sVbanettemega
p1354
VBanette-Mega
p1355
sVround
p1356
VRound
p1357
sVunaware
p1358
VUnaware
p1359
sVduskball
p1360
VDusk Ball
p1361
sVfalseswipe
p1362
VFalse Swipe
p1363
sVtalonflame
p1364
VTalonflame
p1365
sVleafeon
p1366
VLeafeon
p1367
sVpokestarufopropu2
p1368
VPokestar UFO-PropU2
p1369
sVminior
p1370
VMinior
p1371
sVzorua
p1372
VZorua
p1373
sVfairymemory
p1374
VFairy Memory
p1375
sVvitalthrow
p1376
VVital Throw
p1377
sVsubstitute
p1378
VSubstitute
p1379
sVcurse
p1380
VCurse
p1381
sVfocusband
p1382
VFocus Band
p1383
sVmoltres
p1384
VMoltres
p1385
sVpasshoberry
p1386
VPassho Berry
p1387
sVtanglinghair
p1388
VTangling Hair
p1389
sVdragondance
p1390
VDragon Dance
p1391
sVaxew
p1392
VAxew
p1393
sVgolemalola
p1394
VGolem-Alola
p1395
sVkecleon
p1396
VKecleon
p1397
sVglameow
p1398
VGlameow
p1399
sVaeroblast
p1400
VAeroblast
p1401
sVwartortle
p1402
VWartortle
p1403
sVexplosion
p1404
VExplosion
p1405
sVmiracleeye
p1406
VMiracle Eye
p1407
sVpumpkaboo
p1408
VPumpkaboo
p1409
sVsimisear
p1410
VSimisear
p1411
sVhoopa
p1412
VHoopa
p1413
sVtropius
p1414
VTropius
p1415
sVgroundmemory
p1416
VGround Memory
p1417
sVmysticwater
p1418
VMystic Water
p1419
sVearthquake
p1420
VEarthquake
p1421
sVgastroacid
p1422
VGastro Acid
p1423
sVejectbutton
p1424
VEject Button
p1425
sVbeedrillmega
p1426
VBeedrill-Mega
p1427
sVexploud
p1428
VExploud
p1429
sVaraquanidtotem
p1430
VAraquanid-Totem
p1431
sVdiveball
p1432
VDive Ball
p1433
sVsawk
p1434
VSawk
p1435
sVsandygast
p1436
VSandygast
p1437
sVdedenne
p1438
VDedenne
p1439
sVdragonite
p1440
VDragonite
p1441
sVbagon
p1442
VBagon
p1443
sVregenerator
p1444
VRegenerator
p1445
sViondeluge
p1446
VIon Deluge
p1447
sVlarvesta
p1448
VLarvesta
p1449
sVmudslap
p1450
VMud-Slap
p1451
sVhawlucha
p1452
VHawlucha
p1453
sVmagicroom
p1454
VMagic Room
p1455
sVampharosite
p1456
VAmpharosite
p1457
sVdesolateland
p1458
VDesolate Land
p1459
sVpinsirite
p1460
VPinsirite
p1461
sVheavyslam
p1462
VHeavy Slam
p1463
sVpinmissile
p1464
VPin Missile
p1465
sVkyogreprimal
p1466
VKyogre-Primal
p1467
sVbanefulbunker
p1468
VBaneful Bunker
p1469
sVtakedown
p1470
VTake Down
p1471
sVcaptivate
p1472
VCaptivate
p1473
sVflamecharge
p1474
VFlame Charge
p1475
sVswagger
p1476
VSwagger
p1477
sVxatu
p1478
VXatu
p1479
sVrockslide
p1480
VRock Slide
p1481
sVcaterpie
p1482
VCaterpie
p1483
sVhypno
p1484
VHypno
p1485
sVscratchet
p1486
VScratchet
p1487
sVelectrike
p1488
VElectrike
p1489
sVfletchling
p1490
VFletchling
p1491
sVseismictoss
p1492
VSeismic Toss
p1493
sVfly
p1494
VFly
p1495
sVuturn
p1496
VU-turn
p1497
sVflygon
p1498
VFlygon
p1499
sVsandstorm
p1500
VSandstorm
p1501
sVswampertite
p1502
VSwampertite
p1503
sVswablu
p1504
VSwablu
p1505
sVcatastropika
p1506
VCatastropika
p1507
sVspikyshield
p1508
VSpiky Shield
p1509
sVscolipede
p1510
VScolipede
p1511
sVdwebble
p1512
VDwebble
p1513
sVpignite
p1514
VPignite
p1515
sVsolarpower
p1516
VSolar Power
p1517
sVvespiquen
p1518
VVespiquen
p1519
sVpalpitoad
p1520
VPalpitoad
p1521
sVchilldrive
p1522
VChill Drive
p1523
sVnormalize
p1524
VNormalize
p1525
sVbanette
p1526
VBanette
p1527
sVtearfullook
p1528
VTearful Look
p1529
sVtailwind
p1530
VTailwind
p1531
sVdianciemega
p1532
VDiancie-Mega
p1533
sVwideguard
p1534
VWide Guard
p1535
sVeelektrik
p1536
VEelektrik
p1537
sVlightthatburnsthesky
p1538
VLight That Burns the Sky
p1539
sVsandforce
p1540
VSand Force
p1541
sVdarkestlariat
p1542
VDarkest Lariat
p1543
sVpowerbelt
p1544
VPower Belt
p1545
sVelectricterrain
p1546
VElectric Terrain
p1547
sVoctillery
p1548
VOctillery
p1549
sVselfdestruct
p1550
VSelf-Destruct
p1551
sVstantler
p1552
VStantler
p1553
sVdive
p1554
VDive
p1555
sVarmaldo
p1556
VArmaldo
p1557
sVdarkmemory
p1558
VDark Memory
p1559
sVwiseglasses
p1560
VWise Glasses
p1561
sVmilkdrink
p1562
VMilk Drink
p1563
sVpowerwhip
p1564
VPower Whip
p1565
sVancientpower
p1566
VAncient Power
p1567
sVletssnuggleforever
p1568
VLet's Snuggle Forever
p1569
sVcryogonal
p1570
VCryogonal
p1571
sVsupersonic
p1572
VSupersonic
p1573
sVpsychicfangs
p1574
VPsychic Fangs
p1575
sVdelibird
p1576
VDelibird
p1577
sVelectricsurge
p1578
VElectric Surge
p1579
sVmalamar
p1580
VMalamar
p1581
sVpurify
p1582
VPurify
p1583
sVshinx
p1584
VShinx
p1585
sVclamperl
p1586
VClamperl
p1587
sVlitwick
p1588
VLitwick
p1589
sVslowbronite
p1590
VSlowbronite
p1591
sVriolu
p1592
VRiolu
p1593
sVlugia
p1594
VLugia
p1595
sVbulletseed
p1596
VBullet Seed
p1597
sVbubblebeam
p1598
VBubble Beam
p1599
sVpachirisu
p1600
VPachirisu
p1601
sVpoipole
p1602
VPoipole
p1603
sVtoxicthread
p1604
VToxic Thread
p1605
sVarcanine
p1606
VArcanine
p1607
sVsneasel
p1608
VSneasel
p1609
sVgrassknot
p1610
VGrass Knot
p1611
sVauroraveil
p1612
VAurora Veil
p1613
sVklutz
p1614
VKlutz
p1615
sVpokestarspirit
p1616
VPokestar Spirit
p1617
sVbulldoze
p1618
VBulldoze
p1619
sVfocusenergy
p1620
VFocus Energy
p1621
sVmimikyutotem
p1622
VMimikyu-Totem
p1623
sVprimordialsea
p1624
VPrimordial Sea
p1625
sVsnugglow
p1626
VSnugglow
p1627
sVkabuto
p1628
VKabuto
p1629
sVmail
p1630
VMail
p1631
sVfuryswipes
p1632
VFury Swipes
p1633
sVlonely
p1634
VLonely
p1635
sVfling
p1636
VFling
p1637
sVrattled
p1638
VRattled
p1639
sVinsomnia
p1640
VInsomnia
p1641
sVwatermemory
p1642
VWater Memory
p1643
sVfusionflare
p1644
VFusion Flare
p1645
sVsafariball
p1646
VSafari Ball
p1647
sVeffectspore
p1648
VEffect Spore
p1649
sVboomburst
p1650
VBoomburst
p1651
sVregice
p1652
VRegice
p1653
sVlinoone
p1654
VLinoone
p1655
sValtariamega
p1656
VAltaria-Mega
p1657
sVpowerconstruct
p1658
VPower Construct
p1659
sVsynchronize
p1660
VSynchronize
p1661
sVsilvallyghost
p1662
VSilvally-Ghost
p1663
sVmantine
p1664
VMantine
p1665
sVglalie
p1666
VGlalie
p1667
sVpsyduck
p1668
VPsyduck
p1669
sVmentalherb
p1670
VMental Herb
p1671
sVswalot
p1672
VSwalot
p1673
sVgenesectburn
p1674
VGenesect-Burn
p1675
sVporygonz
p1676
VPorygon-Z
p1677
sVstrugglebug
p1678
VStruggle Bug
p1679
sVpersian
p1680
VPersian
p1681
sVcorkscrewcrash
p1682
VCorkscrew Crash
p1683
sVsilvallybug
p1684
VSilvally-Bug
p1685
sVsinisterarrowraid
p1686
VSinister Arrow Raid
p1687
sVsandslashalola
p1688
VSandslash-Alola
p1689
sVlycanroc
p1690
VLycanroc
p1691
sVshaymin
p1692
VShaymin
p1693
sVpidove
p1694
VPidove
p1695
sVrockiumz
p1696
VRockium Z
p1697
sVskillswap
p1698
VSkill Swap
p1699
sVtorracat
p1700
VTorracat
p1701
sVassurance
p1702
VAssurance
p1703
sVpoochyena
p1704
VPoochyena
p1705
sVpokestarblackdoor
p1706
VPokestar Black Door
p1707
sVporygon2
p1708
VPorygon2
p1709
sVtoxicroak
p1710
VToxicroak
p1711
sVsteelwing
p1712
VSteel Wing
p1713
sVunown
p1714
VUnown
p1715
sVbitterberry
p1716
VBitter Berry
p1717
sVpoliwhirl
p1718
VPoliwhirl
p1719
sVpetilil
p1720
VPetilil
p1721
sVtelepathy
p1722
VTelepathy
p1723
sVstufful
p1724
VStufful
p1725
sVnidorino
p1726
VNidorino
p1727
sVmeloettapirouette
p1728
VMeloetta-Pirouette
p1729
sVnidorina
p1730
VNidorina
p1731
sVhypnosis
p1732
VHypnosis
p1733
sVdurinberry
p1734
VDurin Berry
p1735
sVdragonrage
p1736
VDragon Rage
p1737
sVjolteon
p1738
VJolteon
p1739
sVdefensecurl
p1740
VDefense Curl
p1741
sVnecturine
p1742
VNecturine
p1743
sVrocktomb
p1744
VRock Tomb
p1745
sVchikorita
p1746
VChikorita
p1747
sVrockyhelmet
p1748
VRocky Helmet
p1749
sVspewpa
p1750
VSpewpa
p1751
sVjabocaberry
p1752
VJaboca Berry
p1753
sVhoppip
p1754
VHoppip
p1755
sVpalossand
p1756
VPalossand
p1757
sViceshard
p1758
VIce Shard
p1759
sVgiratina
p1760
VGiratina
p1761
sVteravolt
p1762
VTeravolt
p1763
sVbite
p1764
VBite
p1765
sVduosion
p1766
VDuosion
p1767
sVaromatherapy
p1768
VAromatherapy
p1769
sVsleeptalk
p1770
VSleep Talk
p1771
sVconfuseray
p1772
VConfuse Ray
p1773
sVdrainpunch
p1774
VDrain Punch
p1775
sVgliscor
p1776
VGliscor
p1777
sVseedot
p1778
VSeedot
p1779
sVsnatch
p1780
VSnatch
p1781
sVslakoth
p1782
VSlakoth
p1783
sVbunnelby
p1784
VBunnelby
p1785
sVdrapion
p1786
VDrapion
p1787
sVpeck
p1788
VPeck
p1789
sVchespin
p1790
VChespin
p1791
sVghostmemory
p1792
VGhost Memory
p1793
sVkartana
p1794
VKartana
p1795
sVearthplate
p1796
VEarth Plate
p1797
sVsalazzletotem
p1798
VSalazzle-Totem
p1799
sVgarbodor
p1800
VGarbodor
p1801
sVtrickortreat
p1802
VTrick-or-Treat
p1803
sVcubone
p1804
VCubone
p1805
sVhiddenpowerrock
p1806
VHidden Power Rock
p1807
sVrazzberry
p1808
VRazz Berry
p1809
sVchlorophyll
p1810
VChlorophyll
p1811
sVpluffle
p1812
VPluffle
p1813
sVsilvallyrock
p1814
VSilvally-Rock
p1815
sViceberry
p1816
VIce Berry
p1817
sVsandstream
p1818
VSand Stream
p1819
sVledyba
p1820
VLedyba
p1821
sVaquatail
p1822
VAqua Tail
p1823
sVarceusdark
p1824
VArceus-Dark
p1825
sVkrilowatt
p1826
VKrilowatt
p1827
sVrecover
p1828
VRecover
p1829
sVflyingmemory
p1830
VFlying Memory
p1831
sVconversion
p1832
VConversion
p1833
sVelectrode
p1834
VElectrode
p1835
sVreckless
p1836
VReckless
p1837
sVhiddenpowerdark
p1838
VHidden Power Dark
p1839
sVmetalsound
p1840
VMetal Sound
p1841
sVarghonaut
p1842
VArghonaut
p1843
sVbeedrill
p1844
VBeedrill
p1845
sVsurf
p1846
VSurf
p1847
sVgriseousorb
p1848
VGriseous Orb
p1849
sVneverendingnightmare
p1850
VNever-Ending Nightmare
p1851
sVmountaineer
p1852
VMountaineer
p1853
sVstunky
p1854
VStunky
p1855
sVtrace
p1856
VTrace
p1857
sVquagsire
p1858
VQuagsire
p1859
sVgeargrind
p1860
VGear Grind
p1861
sVdarkrai
p1862
VDarkrai
p1863
sVbarrage
p1864
VBarrage
p1865
sVbonemerang
p1866
VBonemerang
p1867
sVultranecroziumz
p1868
VUltranecrozium Z
p1869
sVstunfisk
p1870
VStunfisk
p1871
sVadaptability
p1872
VAdaptability
p1873
sVespurr
p1874
VEspurr
p1875
sVleaftornado
p1876
VLeaf Tornado
p1877
sVhyperfang
p1878
VHyper Fang
p1879
sVdracoplate
p1880
VDraco Plate
p1881
sVhyperspacefury
p1882
VHyperspace Fury
p1883
sVelectirizer
p1884
VElectirizer
p1885
sVmollux
p1886
VMollux
p1887
sVmuddywater
p1888
VMuddy Water
p1889
sVmothim
p1890
VMothim
p1891
sVcompoundeyes
p1892
VCompound Eyes
p1893
sVdelphox
p1894
VDelphox
p1895
sVbrattler
p1896
VBrattler
p1897
sVhakamoo
p1898
VHakamo-o
p1899
sVtintedlens
p1900
VTinted Lens
p1901
sVgolurk
p1902
VGolurk
p1903
sVfigyberry
p1904
VFigy Berry
p1905
sVgoodra
p1906
VGoodra
p1907
sVrevenankh
p1908
VRevenankh
p1909
sVvolbeat
p1910
VVolbeat
p1911
sVpulverizingpancake
p1912
VPulverizing Pancake
p1913
sVemergencyexit
p1914
VEmergency Exit
p1915
sVupgrade
p1916
VUp-Grade
p1917
sVburndrive
p1918
VBurn Drive
p1919
sVpartingshot
p1920
VParting Shot
p1921
sVpatrat
p1922
VPatrat
p1923
sVacupressure
p1924
VAcupressure
p1925
sVanalytic
p1926
VAnalytic
p1927
sVsilvallysteel
p1928
VSilvally-Steel
p1929
sVprobopass
p1930
VProbopass
p1931
sVoutrage
p1932
VOutrage
p1933
sVleavanny
p1934
VLeavanny
p1935
sVlycanrocmidnight
p1936
VLycanroc-Midnight
p1937
sVkinesis
p1938
VKinesis
p1939
sVweaknesspolicy
p1940
VWeakness Policy
p1941
sVstomp
p1942
VStomp
p1943
sVpersianalola
p1944
VPersian-Alola
p1945
sVmimikiumz
p1946
VMimikium Z
p1947
sVboneclub
p1948
VBone Club
p1949
sVtelekinesis
p1950
VTelekinesis
p1951
sVmoxie
p1952
VMoxie
p1953
sVcelebrate
p1954
VCelebrate
p1955
sVshuppet
p1956
VShuppet
p1957
sVparkball
p1958
VPark Ball
p1959
sVzeraora
p1960
VZeraora
p1961
sVcupra
p1962
VCupra
p1963
sVlatiasite
p1964
VLatiasite
p1965
sVcrucibelle
p1966
VCrucibelle
p1967
sVwonderskin
p1968
VWonder Skin
p1969
sVhiddenpowerfighting
p1970
VHidden Power Fighting
p1971
sVimposter
p1972
VImposter
p1973
sVspore
p1974
VSpore
p1975
sVnecrozmaultra
p1976
VNecrozma-Ultra
p1977
sVkommoniumz
p1978
VKommonium Z
p1979
sVforesight
p1980
VForesight
p1981
sVfirestone
p1982
VFire Stone
p1983
sVdetect
p1984
VDetect
p1985
sVsteadfast
p1986
VSteadfast
p1987
sVlimber
p1988
VLimber
p1989
sVbatonpass
p1990
VBaton Pass
p1991
sVbeakblast
p1992
VBeak Blast
p1993
sVforecast
p1994
VForecast
p1995
sVwhiscash
p1996
VWhiscash
p1997
sVsnowwarning
p1998
VSnow Warning
p1999
sVjustified
p2000
VJustified
p2001
sVghostiumz
p2002
VGhostium Z
p2003
sVdamprock
p2004
VDamp Rock
p2005
sVhariyama
p2006
VHariyama
p2007
sVcrawdaunt
p2008
VCrawdaunt
p2009
sVpluck
p2010
VPluck
p2011
sVfuryattack
p2012
VFury Attack
p2013
sVroseincense
p2014
VRose Incense
p2015
sVspiderweb
p2016
VSpider Web
p2017
sVbrutalswing
p2018
VBrutal Swing
p2019
sVdestinyknot
p2020
VDestiny Knot
p2021
sVluminousmoss
p2022
VLuminous Moss
p2023
sVvivillonpokeball
p2024
VVivillon-Pokeball
p2025
sVpoisonmemory
p2026
VPoison Memory
p2027
sVsteelix
p2028
VSteelix
p2029
sVnestball
p2030
VNest Ball
p2031
sVberry
p2032
VBerry
p2033
sVcellbattery
p2034
VCell Battery
p2035
sVpheromosa
p2036
VPheromosa
p2037
sVwingattack
p2038
VWing Attack
p2039
sVnormalgem
p2040
VNormal Gem
p2041
sVsmartstrike
p2042
VSmart Strike
p2043
sVhiddenpowersteel
p2044
VHidden Power Steel
p2045
sVtyranitarite
p2046
VTyranitarite
p2047
sVdodrio
p2048
VDodrio
p2049
sVtapubulu
p2050
VTapu Bulu
p2051
sVstancechange
p2052
VStance Change
p2053
sVzapdos
p2054
VZapdos
p2055
sVendeavor
p2056
VEndeavor
p2057
sVechoedvoice
p2058
VEchoed Voice
p2059
sVrunaway
p2060
VRun Away
p2061
sVlandswrath
p2062
VLand's Wrath
p2063
sVmawilemega
p2064
VMawile-Mega
p2065
sVdewpider
p2066
VDewpider
p2067
sVlightmetal
p2068
VLight Metal
p2069
sVburntberry
p2070
VBurnt Berry
p2071
sVstunspore
p2072
VStun Spore
p2073
sVxerneas
p2074
VXerneas
p2075
sVchopleberry
p2076
VChople Berry
p2077
sVhighjumpkick
p2078
VHigh Jump Kick
p2079
sVpokestarsmeargle
p2080
VPokestar Smeargle
p2081
sVheatrock
p2082
VHeat Rock
p2083
sVlopunnymega
p2084
VLopunny-Mega
p2085
sVwhirlipede
p2086
VWhirlipede
p2087
sVflamebody
p2088
VFlame Body
p2089
sVhelioptile
p2090
VHelioptile
p2091
sVcresselia
p2092
VCresselia
p2093
sVvictreebel
p2094
VVictreebel
p2095
sVomanyte
p2096
VOmanyte
p2097
sVbreloom
p2098
VBreloom
p2099
sVstormthrow
p2100
VStorm Throw
p2101
sVhealblock
p2102
VHeal Block
p2103
sVswanna
p2104
VSwanna
p2105
sVskiddo
p2106
VSkiddo
p2107
sVcareful
p2108
VCareful
p2109
sVmudshot
p2110
VMud Shot
p2111
sVclangoroussoulblaze
p2112
VClangorous Soulblaze
p2113
sVdryskin
p2114
VDry Skin
p2115
sVsteelworker
p2116
VSteelworker
p2117
sVdefeatist
p2118
VDefeatist
p2119
sVbugmemory
p2120
VBug Memory
p2121
sVtrick
p2122
VTrick
p2123
sVlandorus
p2124
VLandorus
p2125
sVgroudon
p2126
VGroudon
p2127
sVspotlight
p2128
VSpotlight
p2129
sVrhyhorn
p2130
VRhyhorn
p2131
sVquiet
p2132
VQuiet
p2133
sVshadowclaw
p2134
VShadow Claw
p2135
sVsacredfire
p2136
VSacred Fire
p2137
sVmonferno
p2138
VMonferno
p2139
sVvicegrip
p2140
VVice Grip
p2141
sVgourgeistlarge
p2142
VGourgeist-Large
p2143
sVcubchoo
p2144
VCubchoo
p2145
sVprimariumz
p2146
VPrimarium Z
p2147
sVhiddenpowerice
p2148
VHidden Power Ice
p2149
sVextremespeed
p2150
VExtreme Speed
p2151
sVangerpoint
p2152
VAnger Point
p2153
sVphantomforce
p2154
VPhantom Force
p2155
sVstrongjaw
p2156
VStrong Jaw
p2157
sVbrionne
p2158
VBrionne
p2159
sVkrookodile
p2160
VKrookodile
p2161
sVnuzzle
p2162
VNuzzle
p2163
sVmistysurge
p2164
VMisty Surge
p2165
sVgenesectshock
p2166
VGenesect-Shock
p2167
sVmagnetbomb
p2168
VMagnet Bomb
p2169
sVassist
p2170
VAssist
p2171
sVblaziken
p2172
VBlaziken
p2173
sVbulletproof
p2174
VBulletproof
p2175
sVsteelgem
p2176
VSteel Gem
p2177
sVpangoro
p2178
VPangoro
p2179
sVhypervoice
p2180
VHyper Voice
p2181
sVminimize
p2182
VMinimize
p2183
sVdoublehit
p2184
VDouble Hit
p2185
sVmedicham
p2186
VMedicham
p2187
sVmrmime
p2188
VMr. Mime
p2189
sVmasterball
p2190
VMaster Ball
p2191
sVspark
p2192
VSpark
p2193
sVdrampa
p2194
VDrampa
p2195
sVrazorwind
p2196
VRazor Wind
p2197
sVfurcoat
p2198
VFur Coat
p2199
sVhealingwish
p2200
VHealing Wish
p2201
sVquickguard
p2202
VQuick Guard
p2203
sVpowerband
p2204
VPower Band
p2205
sVwingull
p2206
VWingull
p2207
sVsnorliumz
p2208
VSnorlium Z
p2209
sVfurfrou
p2210
VFurfrou
p2211
sVchimchar
p2212
VChimchar
p2213
sVdarkaura
p2214
VDark Aura
p2215
sVrazorclaw
p2216
VRazor Claw
p2217
sVdragonbreath
p2218
VDragon Breath
p2219
sVsearingsunrazesmash
p2220
VSearing Sunraze Smash
p2221
sVelgyem
p2222
VElgyem
p2223
sVduskull
p2224
VDuskull
p2225
sVcometpunch
p2226
VComet Punch
p2227
sVaerialace
p2228
VAerial Ace
p2229
sVparas
p2230
VParas
p2231
sVrayquazamega
p2232
VRayquaza-Mega
p2233
sVflareblitz
p2234
VFlare Blitz
p2235
sVxurkitree
p2236
VXurkitree
p2237
sVtrubbish
p2238
VTrubbish
p2239
sVsnarl
p2240
VSnarl
p2241
sVmachpunch
p2242
VMach Punch
p2243
sVvolkraken
p2244
VVolkraken
p2245
sVsunkern
p2246
VSunkern
p2247
sVbreakneckblitz
p2248
VBreakneck Blitz
p2249
sVcolossoil
p2250
VColossoil
p2251
sVdreamball
p2252
VDream Ball
p2253
sVsnore
p2254
VSnore
p2255
sVfloatstone
p2256
VFloat Stone
p2257
sVskiploom
p2258
VSkiploom
p2259
sVregigigas
p2260
VRegigigas
p2261
sVzingzap
p2262
VZing Zap
p2263
sVvoltswitch
p2264
VVolt Switch
p2265
sVarceusrock
p2266
VArceus-Rock
p2267
sVbrightpowder
p2268
VBrightPowder
p2269
sVhypercutter
p2270
VHyper Cutter
p2271
sVvanillite
p2272
VVanillite
p2273
sVchoiceband
p2274
VChoice Band
p2275
sVheartswap
p2276
VHeart Swap
p2277
sVsubzeroslammer
p2278
VSubzero Slammer
p2279
sVheatcrash
p2280
VHeat Crash
p2281
sVpinapberry
p2282
VPinap Berry
p2283
sVminccino
p2284
VMinccino
p2285
sVbellsprout
p2286
VBellsprout
p2287
sVprinplup
p2288
VPrinplup
p2289
sVaudinomega
p2290
VAudino-Mega
p2291
sVmachoke
p2292
VMachoke
p2293
sVultraball
p2294
VUltra Ball
p2295
sVcrustle
p2296
VCrustle
p2297
sVpowergem
p2298
VPower Gem
p2299
sViceburn
p2300
VIce Burn
p2301
sVbattlearmor
p2302
VBattle Armor
p2303
sVvolcanion
p2304
VVolcanion
p2305
sVcastformsnowy
p2306
VCastform-Snowy
p2307
sVraticatealolatotem
p2308
VRaticate-Alola-Totem
p2309
sVhustle
p2310
VHustle
p2311
sVthroh
p2312
VThroh
p2313
sVmusharna
p2314
VMusharna
p2315
sVinnerfocus
p2316
VInner Focus
p2317
sVbasculinbluestriped
p2318
VBasculin-Blue-Striped
p2319
sVdragonhammer
p2320
VDragon Hammer
p2321
sVhornattack
p2322
VHorn Attack
p2323
sVcomfey
p2324
VComfey
p2325
sVzapcannon
p2326
VZap Cannon
p2327
sVroar
p2328
VRoar
p2329
sVlockon
p2330
VLock-On
p2331
sVfloette
p2332
VFloette
p2333
sVgengar
p2334
VGengar
p2335
sVroserade
p2336
VRoserade
p2337
sVaudino
p2338
VAudino
p2339
sVquilava
p2340
VQuilava
p2341
sVcustapberry
p2342
VCustap Berry
p2343
sVsearingshot
p2344
VSearing Shot
p2345
sVstratagem
p2346
VStratagem
p2347
sVpyroar
p2348
VPyroar
p2349
sVfennekin
p2350
VFennekin
p2351
sVshadowpunch
p2352
VShadow Punch
p2353
sVfocuspunch
p2354
VFocus Punch
p2355
sVbindingband
p2356
VBinding Band
p2357
sVtoughclaws
p2358
VTough Claws
p2359
sVforewarn
p2360
VForewarn
p2361
sViciclespear
p2362
VIcicle Spear
p2363
sVpyroak
p2364
VPyroak
p2365
sVgigalith
p2366
VGigalith
p2367
sVsurgesurfer
p2368
VSurge Surfer
p2369
sVhex
p2370
VHex
p2371
sVmarill
p2372
VMarill
p2373
sVprimarina
p2374
VPrimarina
p2375
sVsymbiosis
p2376
VSymbiosis
p2377
sVgalvanize
p2378
VGalvanize
p2379
sVwillowisp
p2380
VWill-O-Wisp
p2381
sVbubble
p2382
VBubble
p2383
sVfastball
p2384
VFast Ball
p2385
sVglaciate
p2386
VGlaciate
p2387
sVnightshade
p2388
VNight Shade
p2389
sVfrogadier
p2390
VFrogadier
p2391
sVporygon
p2392
VPorygon
p2393
sVgripclaw
p2394
VGrip Claw
p2395
sVvitalspirit
p2396
VVital Spirit
p2397
sVcrabominable
p2398
VCrabominable
p2399
sVrage
p2400
VRage
p2401
sVsandshrewalola
p2402
VSandshrew-Alola
p2403
sVvictorystar
p2404
VVictory Star
p2405
sVvinewhip
p2406
VVine Whip
p2407
sVstoneplate
p2408
VStone Plate
p2409
sVember
p2410
VEmber
p2411
sVsplashplate
p2412
VSplash Plate
p2413
sVpowdersnow
p2414
VPowder Snow
p2415
sVrockruff
p2416
VRockruff
p2417
sVchesnaught
p2418
VChesnaught
p2419
sVgrepaberry
p2420
VGrepa Berry
p2421
sVrhydon
p2422
VRhydon
p2423
sVsmokescreen
p2424
VSmokescreen
p2425
sVmoonblast
p2426
VMoonblast
p2427
sVcolburberry
p2428
VColbur Berry
p2429
sVsilvallydragon
p2430
VSilvally-Dragon
p2431
sVhydrovortex
p2432
VHydro Vortex
p2433
sVsoulstealing7starstrike
p2434
VSoul-Stealing 7-Star Strike
p2435
sVimmunity
p2436
VImmunity
p2437
sVtangela
p2438
VTangela
p2439
sVcharizard
p2440
VCharizard
p2441
sVgolem
p2442
VGolem
p2443
sVstompingtantrum
p2444
VStomping Tantrum
p2445
sVmirrorcoat
p2446
VMirror Coat
p2447
sVemboar
p2448
VEmboar
p2449
sVdustox
p2450
VDustox
p2451
sVrootfossil
p2452
VRoot Fossil
p2453
sVzigzagoon
p2454
VZigzagoon
p2455
sVtackle
p2456
VTackle
p2457
sVpopplio
p2458
VPopplio
p2459
sVrotomwash
p2460
VRotom-Wash
p2461
sVgrudge
p2462
VGrudge
p2463
sVcyndaquil
p2464
VCyndaquil
p2465
sVblueflare
p2466
VBlue Flare
p2467
sVdefog
p2468
VDefog
p2469
sVberserkgene
p2470
VBerserk Gene
p2471
sVskyattack
p2472
VSky Attack
p2473
sVmoonlight
p2474
VMoonlight
p2475
sVmimic
p2476
VMimic
p2477
sVstockpile
p2478
VStockpile
p2479
sVoddincense
p2480
VOdd Incense
p2481
sVmeloetta
p2482
VMeloetta
p2483
sVgardevoirmega
p2484
VGardevoir-Mega
p2485
sVlairon
p2486
VLairon
p2487
sVeerieimpulse
p2488
VEerie Impulse
p2489
sVscrappy
p2490
VScrappy
p2491
sVtogetic
p2492
VTogetic
p2493
sVfirepunch
p2494
VFire Punch
p2495
sVunfezant
p2496
VUnfezant
p2497
sVmicleberry
p2498
VMicle Berry
p2499
sVjolly
p2500
VJolly
p2501
sVsalandit
p2502
VSalandit
p2503
sVbewear
p2504
VBewear
p2505
sVlightningrod
p2506
VLightning Rod
p2507
sVgigadrain
p2508
VGiga Drain
p2509
sVsilverpowder
p2510
VSilverPowder
p2511
sVvanillish
p2512
VVanillish
p2513
sVvenomdrench
p2514
VVenom Drench
p2515
sVbayleef
p2516
VBayleef
p2517
sVhondewberry
p2518
VHondew Berry
p2519
sVbloomdoom
p2520
VBloom Doom
p2521
sVtympole
p2522
VTympole
p2523
sVplasmafists
p2524
VPlasma Fists
p2525
sVtyranitarmega
p2526
VTyranitar-Mega
p2527
sVicepunch
p2528
VIce Punch
p2529
sVgalvantula
p2530
VGalvantula
p2531
sVshinystone
p2532
VShiny Stone
p2533
sVcombusken
p2534
VCombusken
p2535
sVcloudnine
p2536
VCloud Nine
p2537
sVmienshao
p2538
VMienshao
p2539
sVkeeberry
p2540
VKee Berry
p2541
sVsteameruption
p2542
VSteam Eruption
p2543
sVmild
p2544
VMild
p2545
sVscrafty
p2546
VScrafty
p2547
sVsecretpower
p2548
VSecret Power
p2549
sVshadowtag
p2550
VShadow Tag
p2551
sVpidgeotmega
p2552
VPidgeot-Mega
p2553
sVmagearnaoriginal
p2554
VMagearna-Original
p2555
sVdoublekick
p2556
VDouble Kick
p2557
sVsandtomb
p2558
VSand Tomb
p2559
sVflorges
p2560
VFlorges
p2561
sVgourgeistsuper
p2562
VGourgeist-Super
p2563
sVironbarbs
p2564
VIron Barbs
p2565
sValtaria
p2566
VAltaria
p2567
sVcrushgrip
p2568
VCrush Grip
p2569
sVmagikarp
p2570
VMagikarp
p2571
sVseedbomb
p2572
VSeed Bomb
p2573
sVmeganium
p2574
VMeganium
p2575
sVchipaway
p2576
VChip Away
p2577
sVhealer
p2578
VHealer
p2579
sVfeatherdance
p2580
VFeather Dance
p2581
sVshockwave
p2582
VShock Wave
p2583
sVironplate
p2584
VIron Plate
p2585
sVgreatball
p2586
VGreat Ball
p2587
sVcawdet
p2588
VCawdet
p2589
sVwateriumz
p2590
VWaterium Z
p2591
sVfightiniumz
p2592
VFightinium Z
p2593
sVheartstamp
p2594
VHeart Stamp
p2595
sVboldore
p2596
VBoldore
p2597
sVcombee
p2598
VCombee
p2599
sVdragonfang
p2600
VDragon Fang
p2601
sVgastly
p2602
VGastly
p2603
sVrevenge
p2604
VRevenge
p2605
sVclearsmog
p2606
VClear Smog
p2607
sVsteenee
p2608
VSteenee
p2609
sVvenusaurmega
p2610
VVenusaur-Mega
p2611
sVinfernape
p2612
VInfernape
p2613
sVdecidiumz
p2614
VDecidium Z
p2615
sVaromatisse
p2616
VAromatisse
p2617
sVbattlebond
p2618
VBattle Bond
p2619
sVkyuremwhite
p2620
VKyurem-White
p2621
sVpokestarhumanoid
p2622
VPokestar Humanoid
p2623
sVacidspray
p2624
VAcid Spray
p2625
sVcursedbody
p2626
VCursed Body
p2627
sVpowerbracer
p2628
VPower Bracer
p2629
sVwringout
p2630
VWring Out
p2631
sVstarly
p2632
VStarly
p2633
sVstruggle
p2634
VStruggle
p2635
sVgolett
p2636
VGolett
p2637
sVinciniumz
p2638
VIncinium Z
p2639
sVgyaradosmega
p2640
VGyarados-Mega
p2641
sVgallade
p2642
VGallade
p2643
sVoranguru
p2644
VOranguru
p2645
sVledian
p2646
VLedian
p2647
sVcutiefly
p2648
VCutiefly
p2649
sVscraggy
p2650
VScraggy
p2651
sVelectricseed
p2652
VElectric Seed
p2653
sVluvdisc
p2654
VLuvdisc
p2655
sVhelixfossil
p2656
VHelix Fossil
p2657
sVsavagespinout
p2658
VSavage Spin-Out
p2659
sVsplash
p2660
VSplash
p2661
sVillumise
p2662
VIllumise
p2663
sVgirafarig
p2664
VGirafarig
p2665
sVanorith
p2666
VAnorith
p2667
sVfairiumz
p2668
VFairium Z
p2669
sVdizzypunch
p2670
VDizzy Punch
p2671
sVflyingpress
p2672
VFlying Press
p2673
sVbounsweet
p2674
VBounsweet
p2675
sVpumpkaboosuper
p2676
VPumpkaboo-Super
p2677
sVhorsea
p2678
VHorsea
p2679
sVstick
p2680
VStick
p2681
sVrazorfang
p2682
VRazor Fang
p2683
sVwatergem
p2684
VWater Gem
p2685
sVturboblaze
p2686
VTurboblaze
p2687
sVaegislashblade
p2688
VAegislash-Blade
p2689
sVnaturalgift
p2690
VNatural Gift
p2691
sVenergypowder
p2692
VEnergy Powder
p2693
sVchartiberry
p2694
VCharti Berry
p2695
sVlumberry
p2696
VLum Berry
p2697
sVvoltorb
p2698
VVoltorb
p2699
sVshadowshield
p2700
VShadow Shield
p2701
sVskyplate
p2702
VSky Plate
p2703
sVsableye
p2704
VSableye
p2705
sVseviper
p2706
VSeviper
p2707
sVmarvelscale
p2708
VMarvel Scale
p2709
sVaurumoth
p2710
VAurumoth
p2711
sVflowerveil
p2712
VFlower Veil
p2713
sVstaryu
p2714
VStaryu
p2715
sVwishiwashi
p2716
VWishiwashi
p2717
sVshelltrap
p2718
VShell Trap
p2719
sVwikiberry
p2720
VWiki Berry
p2721
sVwobbuffet
p2722
VWobbuffet
p2723
sVteleport
p2724
VTeleport
p2725
sVshelmet
p2726
VShelmet
p2727
sVkommoototem
p2728
VKommo-o-Totem
p2729
sVglalitite
p2730
VGlalitite
p2731
sVflyinggem
p2732
VFlying Gem
p2733
sVbulkup
p2734
VBulk Up
p2735
sVglaceon
p2736
VGlaceon
p2737
sVwonderguard
p2738
VWonder Guard
p2739
sVprismarmor
p2740
VPrism Armor
p2741
sVelectricgem
p2742
VElectric Gem
p2743
sVrotomfan
p2744
VRotom-Fan
p2745
sVsignalbeam
p2746
VSignal Beam
p2747
sVshuckle
p2748
VShuckle
p2749
sVjynx
p2750
VJynx
p2751
sVreflect
p2752
VReflect
p2753
sVdisable
p2754
VDisable
p2755
sVliquidooze
p2756
VLiquid Ooze
p2757
sVmistyterrain
p2758
VMisty Terrain
p2759
sVfairygem
p2760
VFairy Gem
p2761
sVmedichammega
p2762
VMedicham-Mega
p2763
sVtwistedspoon
p2764
VTwisted Spoon
p2765
sVlanturn
p2766
VLanturn
p2767
sVpineco
p2768
VPineco
p2769
sVcomatose
p2770
VComatose
p2771
sVretaliate
p2772
VRetaliate
p2773
sVphantump
p2774
VPhantump
p2775
sVgolisopod
p2776
VGolisopod
p2777
sVqueenlymajesty
p2778
VQueenly Majesty
p2779
sVcorphish
p2780
VCorphish
p2781
sVbastiodon
p2782
VBastiodon
p2783
sVwatmelberry
p2784
VWatmel Berry
p2785
sVarticuno
p2786
VArticuno
p2787
sVfissure
p2788
VFissure
p2789
sVvolcarona
p2790
VVolcarona
p2791
sVblackglasses
p2792
VBlack Glasses
p2793
sVplayrough
p2794
VPlay Rough
p2795
sVhealorder
p2796
VHeal Order
p2797
sVjigglypuff
p2798
VJigglypuff
p2799
sVsandslash
p2800
VSandslash
p2801
sVastonish
p2802
VAstonish
p2803
sVenergyball
p2804
VEnergy Ball
p2805
sVaggron
p2806
VAggron
p2807
sVlampent
p2808
VLampent
p2809
sVfistplate
p2810
VFist Plate
p2811
sVreturn
p2812
VReturn
p2813
sVmanectricmega
p2814
VManectric-Mega
p2815
sVsnowball
p2816
VSnowball
p2817
sVsolarbeam
p2818
VSolar Beam
p2819
sVcharizardmegax
p2820
VCharizard-Mega-X
p2821
sVcharizardmegay
p2822
VCharizard-Mega-Y
p2823
sVclefable
p2824
VClefable
p2825
sVpokestarmt
p2826
VPokestar MT
p2827
sVskuntank
p2828
VSkuntank
p2829
sVprimeape
p2830
VPrimeape
p2831
sVgabite
p2832
VGabite
p2833
sVgrubbin
p2834
VGrubbin
p2835
sVmanaphy
p2836
VManaphy
p2837
sVmissingno
p2838
VMissingno.
p2839
sVhooh
p2840
VHo-Oh
p2841
sVrefresh
p2842
VRefresh
p2843
sVspoink
p2844
VSpoink
p2845
sVlovelykiss
p2846
VLovely Kiss
p2847
sVmeanlook
p2848
VMean Look
p2849
sVgumshoos
p2850
VGumshoos
p2851
sVclamp
p2852
VClamp
p2853
sVtopsyturvy
p2854
VTopsy-Turvy
p2855
sVquickfeet
p2856
VQuick Feet
p2857
sVsilvallyelectric
p2858
VSilvally-Electric
p2859
sVwatershuriken
p2860
VWater Shuriken
p2861
sVtsareena
p2862
VTsareena
p2863
sVthunderbolt
p2864
VThunderbolt
p2865
sVmagnezone
p2866
VMagnezone
p2867
sVtrickroom
p2868
VTrick Room
p2869
sVmist
p2870
VMist
p2871
sVwatercompaction
p2872
VWater Compaction
p2873
sVhiddenpowerpsychic
p2874
VHidden Power Psychic
p2875
sVelectroweb
p2876
VElectroweb
p2877
sVkangaskhanmega
p2878
VKangaskhan-Mega
p2879
sVsalamence
p2880
VSalamence
p2881
sVarceuswater
p2882
VArceus-Water
p2883
sVarceusice
p2884
VArceus-Ice
p2885
sVsuperfang
p2886
VSuper Fang
p2887
sVsilvallyground
p2888
VSilvally-Ground
p2889
sVchoicescarf
p2890
VChoice Scarf
p2891
sVroggenrola
p2892
VRoggenrola
p2893
sVflashcannon
p2894
VFlash Cannon
p2895
sVironhead
p2896
VIron Head
p2897
sVsentret
p2898
VSentret
p2899
sVpichuspikyeared
p2900
VPichu-Spiky-eared
p2901
sVtyrogue
p2902
VTyrogue
p2903
sVcleffa
p2904
VCleffa
p2905
sVwaterabsorb
p2906
VWater Absorb
p2907
sVtoxicboost
p2908
VToxic Boost
p2909
sVninetales
p2910
VNinetales
p2911
sVnidoranf
p2912
VNidoran-F
p2913
sVcottonspore
p2914
VCotton Spore
p2915
sVnidoranm
p2916
VNidoran-M
p2917
sVparaboliccharge
p2918
VParabolic Charge
p2919
sVscopelens
p2920
VScope Lens
p2921
sVhydreigon
p2922
VHydreigon
p2923
sVrockpolish
p2924
VRock Polish
p2925
sVmightyena
p2926
VMightyena
p2927
sVabomasnowmega
p2928
VAbomasnow-Mega
p2929
sVsolganiumz
p2930
VSolganium Z
p2931
sVbrave
p2932
VBrave
p2933
sVstoredpower
p2934
VStored Power
p2935
sVapicotberry
p2936
VApicot Berry
p2937
sVpetaldance
p2938
VPetal Dance
p2939
sVmeowstic
p2940
VMeowstic
p2941
sVboltstrike
p2942
VBolt Strike
p2943
sVraikou
p2944
VRaikou
p2945
sVswarm
p2946
VSwarm
p2947
sVbibarel
p2948
VBibarel
p2949
sVpsncureberry
p2950
VPSN Cure Berry
p2951
sVdazzlinggleam
p2952
VDazzling Gleam
p2953
sVlandorustherian
p2954
VLandorus-Therian
p2955
sVshedinja
p2956
VShedinja
p2957
sVpikashuniumz
p2958
VPikashunium Z
p2959
sVpsybeam
p2960
VPsybeam
p2961
sVsuckerpunch
p2962
VSucker Punch
p2963
sVaspearberry
p2964
VAspear Berry
p2965
sVdragonascent
p2966
VDragon Ascent
p2967
sVfreezeshock
p2968
VFreeze Shock
p2969
sVpsywave
p2970
VPsywave
p2971
sVdrillrun
p2972
VDrill Run
p2973
sVwhiteherb
p2974
VWhite Herb
p2975
sVringtarget
p2976
VRing Target
p2977
sVvenipede
p2978
VVenipede
p2979
sVdarkpulse
p2980
VDark Pulse
p2981
sVyamask
p2982
VYamask
p2983
sVstall
p2984
VStall
p2985
sVsharpedonite
p2986
VSharpedonite
p2987
sVmerciless
p2988
VMerciless
p2989
sVdoubleedge
p2990
VDouble-Edge
p2991
sVremoraid
p2992
VRemoraid
p2993
sVclefairy
p2994
VClefairy
p2995
sVklink
p2996
VKlink
p2997
sVfirespin
p2998
VFire Spin
p2999
sVgenesectchill
p3000
VGenesect-Chill
p3001
sVsuicune
p3002
VSuicune
p3003
sVthundurustherian
p3004
VThundurus-Therian
p3005
sVpamtreberry
p3006
VPamtre Berry
p3007
sVmegahorn
p3008
VMegahorn
p3009
sVslowbromega
p3010
VSlowbro-Mega
p3011
sVzenmode
p3012
VZen Mode
p3013
sVsunflora
p3014
VSunflora
p3015
sVariados
p3016
VAriados
p3017
sVgourgeist
p3018
VGourgeist
p3019
sVbarbaracle
p3020
VBarbaracle
p3021
sVairballoon
p3022
VAir Balloon
p3023
sVswirlix
p3024
VSwirlix
p3025
sVlitleo
p3026
VLitleo
p3027
sVcamouflage
p3028
VCamouflage
p3029
sVfrillish
p3030
VFrillish
p3031
sVroselia
p3032
VRoselia
p3033
sVkangaskhan
p3034
VKangaskhan
p3035
sVregirock
p3036
VRegirock
p3037
sVpansage
p3038
VPansage
p3039
sVswitcheroo
p3040
VSwitcheroo
p3041
sValakazammega
p3042
VAlakazam-Mega
p3043
sVrockgem
p3044
VRock Gem
p3045
sVeruption
p3046
VEruption
p3047
sVyawn
p3048
VYawn
p3049
sVcharm
p3050
VCharm
p3051
sVdiglett
p3052
VDiglett
p3053
sVbeldum
p3054
VBeldum
p3055
sVhabanberry
p3056
VHaban Berry
p3057
sVcrosspoison
p3058
VCross Poison
p3059
sVcarvanha
p3060
VCarvanha
p3061
sVrefrigerate
p3062
VRefrigerate
p3063
sVlowsweep
p3064
VLow Sweep
p3065
sVsturdy
p3066
VSturdy
p3067
sVcovet
p3068
VCovet
p3069
sVlax
p3070
VLax
p3071
sVlunala
p3072
VLunala
p3073
sVmarshadiumz
p3074
VMarshadium Z
p3075
sVgenesectdouse
p3076
VGenesect-Douse
p3077
sVkaratechop
p3078
VKarate Chop
p3079
sVworryseed
p3080
VWorry Seed
p3081
sVazumarill
p3082
VAzumarill
p3083
sVmetalburst
p3084
VMetal Burst
p3085
sVherdier
p3086
VHerdier
p3087
sVguardsplit
p3088
VGuard Split
p3089
sVnanabberry
p3090
VNanab Berry
p3091
sVzoomlens
p3092
VZoom Lens
p3093
sVblackbelt
p3094
VBlack Belt
p3095
sVhammerarm
p3096
VHammer Arm
p3097
sVmagmaarmor
p3098
VMagma Armor
p3099
sVcrabrawler
p3100
VCrabrawler
p3101
sVpayday
p3102
VPay Day
p3103
sVgooey
p3104
VGooey
p3105
sVoblivionwing
p3106
VOblivion Wing
p3107
sVtyrantrum
p3108
VTyrantrum
p3109
sVhealpulse
p3110
VHeal Pulse
p3111
sVheadcharge
p3112
VHead Charge
p3113
sVpawniard
p3114
VPawniard
p3115
sVpoisontail
p3116
VPoison Tail
p3117
sVrest
p3118
VRest
p3119
sVdocile
p3120
VDocile
p3121
sVfireblast
p3122
VFire Blast
p3123
sVmaliciousmoonsault
p3124
VMalicious Moonsault
p3125
sVshroomish
p3126
VShroomish
p3127
sVlitten
p3128
VLitten
p3129
sVwhismur
p3130
VWhismur
p3131
sVspikes
p3132
VSpikes
p3133
sVshadowstrike
p3134
VShadow Strike
p3135
sVlongreach
p3136
VLong Reach
p3137
sVskorupi
p3138
VSkorupi
p3139
sVgengarite
p3140
VGengarite
p3141
sVpokestartransport
p3142
VPokestar Transport
p3143
sVpinkbow
p3144
VPink Bow
p3145
sVblitzle
p3146
VBlitzle
p3147
sVspeedswap
p3148
VSpeed Swap
p3149
sVlustrousorb
p3150
VLustrous Orb
p3151
sVflarelm
p3152
VFlarelm
p3153
sVtamatoberry
p3154
VTamato Berry
p3155
sVblazikenite
p3156
VBlazikenite
p3157
sVfarfetchd
p3158
VFarfetch'd
p3159
sVinkay
p3160
VInkay
p3161
sVnecrozmaduskmane
p3162
VNecrozma-Dusk-Mane
p3163
sVpickup
p3164
VPickup
p3165
sVcontrary
p3166
VContrary
p3167
sVkarrablast
p3168
VKarrablast
p3169
sVberserk
p3170
VBerserk
p3171
sVmarowak
p3172
VMarowak
p3173
sVmachobrace
p3174
VMacho Brace
p3175
sVsilvallywater
p3176
VSilvally-Water
p3177
sVelekid
p3178
VElekid
p3179
sVmagmortar
p3180
VMagmortar
p3181
sVchansey
p3182
VChansey
p3183
sVroaroftime
p3184
VRoar of Time
p3185
sVwildcharge
p3186
VWild Charge
p3187
sVgraveleralola
p3188
VGraveler-Alola
p3189
sVhoundoommega
p3190
VHoundoom-Mega
p3191
sVclaydol
p3192
VClaydol
p3193
sVrelicanth
p3194
VRelicanth
p3195
sVtorchic
p3196
VTorchic
p3197
sVlapras
p3198
VLapras
p3199
sVmankey
p3200
VMankey
p3201
sVsweetscent
p3202
VSweet Scent
p3203
sVraticatealola
p3204
VRaticate-Alola
p3205
sVshayminsky
p3206
VShaymin-Sky
p3207
sVsludgebomb
p3208
VSludge Bomb
p3209
sVsandile
p3210
VSandile
p3211
sVtyphlosion
p3212
VTyphlosion
p3213
sVsimple
p3214
VSimple
p3215
sVdrillpeck
p3216
VDrill Peck
p3217
sVicebody
p3218
VIce Body
p3219
sVdancer
p3220
VDancer
p3221
sVfearow
p3222
VFearow
p3223
sVxscissor
p3224
VX-Scissor
p3225
sVbellossom
p3226
VBellossom
p3227
sVquiverdance
p3228
VQuiver Dance
p3229
sVblastoisinite
p3230
VBlastoisinite
p3231
sVmegapunch
p3232
VMega Punch
p3233
sVdamp
p3234
VDamp
p3235
sVskitty
p3236
VSkitty
p3237
sVmienfoo
p3238
VMienfoo
p3239
sVpollenpuff
p3240
VPollen Puff
p3241
sVliepard
p3242
VLiepard
p3243
sVamnesia
p3244
VAmnesia
p3245
sVdestinybond
p3246
VDestiny Bond
p3247
sVcastform
p3248
VCastform
p3249
sVmeowthalola
p3250
VMeowth-Alola
p3251
sVdruddigon
p3252
VDruddigon
p3253
sVtaillow
p3254
VTaillow
p3255
sVbashful
p3256
VBashful
p3257
sVdragontail
p3258
VDragon Tail
p3259
sVswellow
p3260
VSwellow
p3261
sVstringshot
p3262
VString Shot
p3263
sValomomola
p3264
VAlomomola
p3265
sVwatergun
p3266
VWater Gun
p3267
sVvcreate
p3268
VV-create
p3269
sVnomelberry
p3270
VNomel Berry
p3271
sVdrainingkiss
p3272
VDraining Kiss
p3273
sVbasculin
p3274
VBasculin
p3275
sVgrassiumz
p3276
VGrassium Z
p3277
sVescavalier
p3278
VEscavalier
p3279
sVpsychoshift
p3280
VPsycho Shift
p3281
sVbisharp
p3282
VBisharp
p3283
sVhoundoom
p3284
VHoundoom
p3285
sVgulpin
p3286
VGulpin
p3287
sVpancham
p3288
VPancham
p3289
sVmantyke
p3290
VMantyke
p3291
sVpound
p3292
VPound
p3293
sVmedichamite
p3294
VMedichamite
p3295
sVrotommow
p3296
VRotom-Mow
p3297
sVdefendorder
p3298
VDefend Order
p3299
sVsurskit
p3300
VSurskit
p3301
sVmegalauncher
p3302
VMega Launcher
p3303
sVicebeam
p3304
VIce Beam
p3305
sVfacade
p3306
VFacade
p3307
sVzubat
p3308
VZubat
p3309
sVmagikarpsrevenge
p3310
VMagikarp's Revenge
p3311
sVingrain
p3312
VIngrain
p3313
sVcottonee
p3314
VCottonee
p3315
sVpikachuphd
p3316
VPikachu-PhD
p3317
sVpowerlens
p3318
VPower Lens
p3319
sVzweilous
p3320
VZweilous
p3321
sVpoisonjab
p3322
VPoison Jab
p3323
sVcameruptmega
p3324
VCamerupt-Mega
p3325
sVprotectivepads
p3326
VProtective Pads
p3327
sVcrucibellemega
p3328
VCrucibelle-Mega
p3329
sVadrenalineorb
p3330
VAdrenaline Orb
p3331
sVtaunt
p3332
VTaunt
p3333
sVgorebyss
p3334
VGorebyss
p3335
sVgrotle
p3336
VGrotle
p3337
sVpikachu
p3338
VPikachu
p3339
sVrayquaza
p3340
VRayquaza
p3341
sVfroakie
p3342
VFroakie
p3343
sVloveball
p3344
VLove Ball
p3345
sVjumpluff
p3346
VJumpluff
p3347
sVkomala
p3348
VKomala
p3349
sVtimid
p3350
VTimid
p3351
sVmismagius
p3352
VMismagius
p3353
sVhiddenpowerbug
p3354
VHidden Power Bug
p3355
sVinfiltrator
p3356
VInfiltrator
p3357
sVpsychup
p3358
VPsych Up
p3359
sVsunstone
p3360
VSun Stone
p3361
sVtangrowth
p3362
VTangrowth
p3363
sVfiregem
p3364
VFire Gem
p3365
sVshellder
p3366
VShellder
p3367
sVwithdraw
p3368
VWithdraw
p3369
sVmoonball
p3370
VMoon Ball
p3371
sVpainsplit
p3372
VPain Split
p3373
sVstoneedge
p3374
VStone Edge
p3375
sVhowl
p3376
VHowl
p3377
sVeeviumz
p3378
VEevium Z
p3379
sVwaterpledge
p3380
VWater Pledge
p3381
sVspearow
p3382
VSpearow
p3383
sVdarmanitan
p3384
VDarmanitan
p3385
sVrockwrecker
p3386
VRock Wrecker
p3387
sVoriginpulse
p3388
VOrigin Pulse
p3389
sVcompetitive
p3390
VCompetitive
p3391
sVzygarde
p3392
VZygarde
p3393
sVsolrock
p3394
VSolrock
p3395
sVthousandarrows
p3396
VThousand Arrows
p3397
sVcut
p3398
VCut
p3399
sVincineroar
p3400
VIncineroar
p3401
sVcloyster
p3402
VCloyster
p3403
sVshoreup
p3404
VShore Up
p3405
sVmetapod
p3406
VMetapod
p3407
sVairslash
p3408
VAir Slash
p3409
sVmagiccoat
p3410
VMagic Coat
p3411
sVacrobatics
p3412
VAcrobatics
p3413
sVspheal
p3414
VSpheal
p3415
sVlatios
p3416
VLatios
p3417
sVchoicespecs
p3418
VChoice Specs
p3419
sVrebound
p3420
VRebound
p3421
sVlusterpurge
p3422
VLuster Purge
p3423
sVkeldeoresolute
p3424
VKeldeo-Resolute
p3425
sVzygardecomplete
p3426
VZygarde-Complete
p3427
sVmoody
p3428
VMoody
p3429
sVglaliemega
p3430
VGlalie-Mega
p3431
sVgothitelle
p3432
VGothitelle
p3433
sVskilllink
p3434
VSkill Link
p3435
sVponyta
p3436
VPonyta
p3437
sVsunnyday
p3438
VSunny Day
p3439
sVsubmission
p3440
VSubmission
p3441
sVstaravia
p3442
VStaravia
p3443
sVtailglow
p3444
VTail Glow
p3445
sVnoibat
p3446
VNoibat
p3447
sVstealthrock
p3448
VStealth Rock
p3449
sVtechnoblast
p3450
VTechno Blast
p3451
sVbaltoy
p3452
VBaltoy
p3453
sVflamewheel
p3454
VFlame Wheel
p3455
sVsketch
p3456
VSketch
p3457
sVfrisk
p3458
VFrisk
p3459
sVmagmarizer
p3460
VMagmarizer
p3461
sVbounce
p3462
VBounce
p3463
sVphotongeyser
p3464
VPhoton Geyser
p3465
sVsouldew
p3466
VSoul Dew
p3467
sVgigaimpact
p3468
VGiga Impact
p3469
sVaurorabeam
p3470
VAurora Beam
p3471
sVsewaddle
p3472
VSewaddle
p3473
sVkommoo
p3474
VKommo-o
p3475
sVscald
p3476
VScald
p3477
sVominouswind
p3478
VOminous Wind
p3479
sVdeepseascale
p3480
VDeep Sea Scale
p3481
sVmummy
p3482
VMummy
p3483
sVhuntail
p3484
VHuntail
p3485
sVswordsdance
p3486
VSwords Dance
p3487
sVearlybird
p3488
VEarly Bird
p3489
sVslash
p3490
VSlash
p3491
sVhiddenpowergrass
p3492
VHidden Power Grass
p3493
sVpidgeotite
p3494
VPidgeotite
p3495
sVgarchompmega
p3496
VGarchomp-Mega
p3497
sV10000000voltthunderbolt
p3498
V10,000,000 Volt Thunderbolt
p3499
sVoricoriopau
p3500
VOricorio-Pa'u
p3501
sVseismitoad
p3502
VSeismitoad
p3503
sVodorsleuth
p3504
VOdor Sleuth
p3505
sVmewtwomegax
p3506
VMewtwo-Mega-X
p3507
sVmewtwomegay
p3508
VMewtwo-Mega-Y
p3509
sVfocussash
p3510
VFocus Sash
p3511
sVjellicent
p3512
VJellicent
p3513
sVspelonberry
p3514
VSpelon Berry
p3515
sVnobleroar
p3516
VNoble Roar
p3517
sVkangaskhanite
p3518
VKangaskhanite
p3519
sVblazekick
p3520
VBlaze Kick
p3521
sViapapaberry
p3522
VIapapa Berry
p3523
sVmudkip
p3524
VMudkip
p3525
sVbouffalant
p3526
VBouffalant
p3527
sVarceusghost
p3528
VArceus-Ghost
p3529
sVblock
p3530
VBlock
p3531
sVsharpedo
p3532
VSharpedo
p3533
sVarmthrust
p3534
VArm Thrust
p3535
sVchargebeam
p3536
VCharge Beam
p3537
sVshellos
p3538
VShellos
p3539
sVnidoking
p3540
VNidoking
p3541
sVliquidation
p3542
VLiquidation
p3543
sVextremeevoboost
p3544
VExtreme Evoboost
p3545
sVsablenite
p3546
VSablenite
p3547
sVbarboach
p3548
VBarboach
p3549
sVstench
p3550
VStench
p3551
sViciclecrash
p3552
VIcicle Crash
p3553
sVcacnea
p3554
VCacnea
p3555
sVdevastatingdrake
p3556
VDevastating Drake
p3557
sVswampertmega
p3558
VSwampert-Mega
p3559
sVpajantom
p3560
VPajantom
p3561
sVpokestarmonster
p3562
VPokestar Monster
p3563
sVsyclar
p3564
VSyclar
p3565
sVmimikyubusted
p3566
VMimikyu-Busted
p3567
sVsnorunt
p3568
VSnorunt
p3569
sVrelaxed
p3570
VRelaxed
p3571
sVeevee
p3572
VEevee
p3573
sVpsychocut
p3574
VPsycho Cut
p3575
sVtranquill
p3576
VTranquill
p3577
sVragepowder
p3578
VRage Powder
p3579
sVbuizel
p3580
VBuizel
p3581
sVsharpen
p3582
VSharpen
p3583
sVgrasspledge
p3584
VGrass Pledge
p3585
sVbuzzwole
p3586
VBuzzwole
p3587
sVabsolmega
p3588
VAbsol-Mega
p3589
sVwatchog
p3590
VWatchog
p3591
sVpokestarwhitedoor
p3592
VPokestar White Door
p3593
sVspacialrend
p3594
VSpacial Rend
p3595
sVbaddreams
p3596
VBad Dreams
p3597
sVgrowth
p3598
VGrowth
p3599
sVpoliwrath
p3600
VPoliwrath
p3601
sVhappyhour
p3602
VHappy Hour
p3603
sVmurkrow
p3604
VMurkrow
p3605
sVpechaberry
p3606
VPecha Berry
p3607
sVpikachusinnoh
p3608
VPikachu-Sinnoh
p3609
sVarceusfairy
p3610
VArceus-Fairy
p3611
sVovalstone
p3612
VOval Stone
p3613
sVmiracleseed
p3614
VMiracle Seed
p3615
sVnaturesmadness
p3616
VNature's Madness
p3617
sVrockhead
p3618
VRock Head
p3619
sVcalm
p3620
VCalm
p3621
sVstickybarb
p3622
VSticky Barb
p3623
sVganlonberry
p3624
VGanlon Berry
p3625
sVbulbasaur
p3626
VBulbasaur
p3627
sVpichu
p3628
VPichu
p3629
sVheatwave
p3630
VHeat Wave
p3631
sVpokestarf00
p3632
VPokestar F-00
p3633
sVdrifloon
p3634
VDrifloon
p3635
sVsnowcloak
p3636
VSnow Cloak
p3637
sVrazorshell
p3638
VRazor Shell
p3639
sVmetagross
p3640
VMetagross
p3641
sVsparklingaria
p3642
VSparkling Aria
p3643
sVpokestarufo
p3644
VPokestar UFO
p3645
sVmeowsticf
p3646
VMeowstic-F
p3647
sVlickilicky
p3648
VLickilicky
p3649
sVaccelgor
p3650
VAccelgor
p3651
sVmysteryberry
p3652
VMystery Berry
p3653
sVmudbray
p3654
VMudbray
p3655
sVprecipiceblades
p3656
VPrecipice Blades
p3657
sVslaking
p3658
VSlaking
p3659
sVavalugg
p3660
VAvalugg
p3661
sVscratch
p3662
VScratch
p3663
sVcharmeleon
p3664
VCharmeleon
p3665
sVhighhorsepower
p3666
VHigh Horsepower
p3667
sVnormaliumz
p3668
VNormalium Z
p3669
sVcharmander
p3670
VCharmander
p3671
sVspeedboost
p3672
VSpeed Boost
p3673
sVwakeupslap
p3674
VWake-Up Slap
p3675
sVpsychicgem
p3676
VPsychic Gem
p3677
sVharvest
p3678
VHarvest
p3679
sVperishsong
p3680
VPerish Song
p3681
sVcutecharm
p3682
VCute Charm
p3683
sVblaze
p3684
VBlaze
p3685
sVsniper
p3686
VSniper
p3687
sVtriplekick
p3688
VTriple Kick
p3689
sVdarumaka
p3690
VDarumaka
p3691
sVnightslash
p3692
VNight Slash
p3693
sVextrasensory
p3694
VExtrasensory
p3695
sVteddiursa
p3696
VTeddiursa
p3697
sVthundershock
p3698
VThunder Shock
p3699
sVazurill
p3700
VAzurill
p3701
sVbigpecks
p3702
VBig Pecks
p3703
sVlureball
p3704
VLure Ball
p3705
sVqwilfish
p3706
VQwilfish
p3707
sVhyperbeam
p3708
VHyper Beam
p3709
sVdynamicpunch
p3710
VDynamic Punch
p3711
sVlurantistotem
p3712
VLurantis-Totem
p3713
sVmagnemite
p3714
VMagnemite
p3715
sVtyrunt
p3716
VTyrunt
p3717
sVmultiattack
p3718
VMulti-Attack
p3719
sVirondefense
p3720
VIron Defense
p3721
sVmisdreavus
p3722
VMisdreavus
p3723
sVfidgit
p3724
VFidgit
p3725
sVdousedrive
p3726
VDouse Drive
p3727
sVribombeetotem
p3728
VRibombee-Totem
p3729
sVcrushclaw
p3730
VCrush Claw
p3731
sVsoftboiled
p3732
VSoft-Boiled
p3733
sVpoisongem
p3734
VPoison Gem
p3735
sVtectonicrage
p3736
VTectonic Rage
p3737
sVdownload
p3738
VDownload
p3739
sVacid
p3740
VAcid
p3741
sVvigoroth
p3742
VVigoroth
p3743
sVlombre
p3744
VLombre
p3745
sVdelcatty
p3746
VDelcatty
p3747
sVhoundoominite
p3748
VHoundoominite
p3749
sVturtonator
p3750
VTurtonator
p3751
sVtriattack
p3752
VTri Attack
p3753
sVtyranitar
p3754
VTyranitar
p3755
sVturtwig
p3756
VTurtwig
p3757
sVbruxish
p3758
VBruxish
p3759
sVmagmastorm
p3760
VMagma Storm
p3761
sVpansear
p3762
VPansear
p3763
sVdeerling
p3764
VDeerling
p3765
sVswinub
p3766
VSwinub
p3767
sVgigavolthavoc
p3768
VGigavolt Havoc
p3769
sVabomasnow
p3770
VAbomasnow
p3771
sVrowlet
p3772
VRowlet
p3773
sVsing
p3774
VSing
p3775
sVtriage
p3776
VTriage
p3777
sVpowersplit
p3778
VPower Split
p3779
sVincinerate
p3780
VIncinerate
p3781
sVmarangaberry
p3782
VMaranga Berry
p3783
sVrampardos
p3784
VRampardos
p3785
sVscreech
p3786
VScreech
p3787
sVtentacruel
p3788
VTentacruel
p3789
sVnaturalcure
p3790
VNatural Cure
p3791
sVforestscurse
p3792
VForest's Curse
p3793
sVblizzard
p3794
VBlizzard
p3795
sVteeterdance
p3796
VTeeter Dance
p3797
sVshieldsdown
p3798
VShields Down
p3799
sVfoongus
p3800
VFoongus
p3801
sVfirememory
p3802
VFire Memory
p3803
sVaquaring
p3804
VAqua Ring
p3805
sVprzcureberry
p3806
VPRZ Cure Berry
p3807
sVhardy
p3808
VHardy
p3809
sVarceusground
p3810
VArceus-Ground
p3811
sVpumpkaboolarge
p3812
VPumpkaboo-Large
p3813
sVkingdra
p3814
VKingdra
p3815
sVaerodactylite
p3816
VAerodactylite
p3817
sVstakeout
p3818
VStakeout
p3819
sVbanettite
p3820
VBanettite
p3821
sVdragongem
p3822
VDragon Gem
p3823
sVheatran
p3824
VHeatran
p3825
sVsteelixite
p3826
VSteelixite
p3827
sVheavyball
p3828
VHeavy Ball
p3829
sVcharcoal
p3830
VCharcoal
p3831
sVdubiousdisc
p3832
VDubious Disc
p3833
sVmistyseed
p3834
VMisty Seed
p3835
sVcranidos
p3836
VCranidos
p3837
sVabsol
p3838
VAbsol
p3839
sVcelesteela
p3840
VCelesteela
p3841
sVplusle
p3842
VPlusle
p3843
sVaerodactylmega
p3844
VAerodactyl-Mega
p3845
sVrivalry
p3846
VRivalry
p3847
sVwatersport
p3848
VWater Sport
p3849
sVpikaniumz
p3850
VPikanium Z
p3851
sVicicleplate
p3852
VIcicle Plate
p3853
sVmimikyubustedtotem
p3854
VMimikyu-Busted-Totem
p3855
sVfuturesight
p3856
VFuture Sight
p3857
sVfirelash
p3858
VFire Lash
p3859
sVsmellingsalts
p3860
VSmelling Salts
p3861
sVarchen
p3862
VArchen
p3863
sVexeggcute
p3864
VExeggcute
p3865
sVlucario
p3866
VLucario
p3867
sVthundurus
p3868
VThundurus
p3869
sVburnup
p3870
VBurn Up
p3871
sVdonphan
p3872
VDonphan
p3873
sVterrakion
p3874
VTerrakion
p3875
sVblacksludge
p3876
VBlack Sludge
p3877
sVsilvallypsychic
p3878
VSilvally-Psychic
p3879
sVrelicsong
p3880
VRelic Song
p3881
sVheliolisk
p3882
VHeliolisk
p3883
sVblazikenmega
p3884
VBlaziken-Mega
p3885
sVgastrodon
p3886
VGastrodon
p3887
sVbronzong
p3888
VBronzong
p3889
sVweavile
p3890
VWeavile
p3891
sVdewott
p3892
VDewott
p3893
sVchandelure
p3894
VChandelure
p3895
sVhaxorus
p3896
VHaxorus
p3897
sVsecretsword
p3898
VSecret Sword
p3899
sVowntempo
p3900
VOwn Tempo
p3901
sVhiddenpower
p3902
VHidden Power
p3903
sVrazorleaf
p3904
VRazor Leaf
p3905
sVpowerswap
p3906
VPower Swap
p3907
sVdragalge
p3908
VDragalge
p3909
sVgrasswhistle
p3910
VGrass Whistle
p3911
sVswampert
p3912
VSwampert
p3913
sVwynaut
p3914
VWynaut
p3915
sVpidgey
p3916
VPidgey
p3917
sVpoisoniumz
p3918
VPoisonium Z
p3919
sVaggronite
p3920
VAggronite
p3921
sVgenesect
p3922
VGenesect
p3923
sVlotad
p3924
VLotad
p3925
sVrkssystem
p3926
VRKS System
p3927
sVsilvallyice
p3928
VSilvally-Ice
p3929
sVvikavolttotem
p3930
VVikavolt-Totem
p3931
sVbind
p3932
VBind
p3933
sVcounter
p3934
VCounter
p3935
sVvikavolt
p3936
VVikavolt
p3937
sVfullincense
p3938
VFull Incense
p3939
sVfloatoy
p3940
VFloatoy
p3941
sVweepinbell
p3942
VWeepinbell
p3943
sVhitmonchan
p3944
VHitmonchan
p3945
sVwoobat
p3946
VWoobat
p3947
sVaquajet
p3948
VAqua Jet
p3949
sVkrabby
p3950
VKrabby
p3951
sVumbreon
p3952
VUmbreon
p3953
sVdragonair
p3954
VDragonair
p3955
sVhitmontop
p3956
VHitmontop
p3957
sVheatproof
p3958
VHeatproof
p3959
sVmukalola
p3960
VMuk-Alola
p3961
sVguardswap
p3962
VGuard Swap
p3963
sVassaultvest
p3964
VAssault Vest
p3965
sVpetalblizzard
p3966
VPetal Blizzard
p3967
sVkadabra
p3968
VKadabra
p3969
sVpurepower
p3970
VPure Power
p3971
sVironball
p3972
VIron Ball
p3973
sVdreameater
p3974
VDream Eater
p3975
sVhelpinghand
p3976
VHelping Hand
p3977
sVmunchlax
p3978
VMunchlax
p3979
sVzenheadbutt
p3980
VZen Headbutt
p3981
sVbelch
p3982
VBelch
p3983
sVpowertrip
p3984
VPower Trip
p3985
sVberryjuice
p3986
VBerry Juice
p3987
sVhiddenpowerflying
p3988
VHidden Power Flying
p3989
sVmilotic
p3990
VMilotic
p3991
sVpikachuoriginal
p3992
VPikachu-Original
p3993
sVpsychicsurge
p3994
VPsychic Surge
p3995
sVflail
p3996
VFlail
p3997
sVkabutops
p3998
VKabutops
p3999
sVhoothoot
p4000
VHoothoot
p4001
sVkoffing
p4002
VKoffing
p4003
sVtoxapex
p4004
VToxapex
p4005
sVarbok
p4006
VArbok
p4007
sVmagnitude
p4008
VMagnitude
p4009
sVarceusfighting
p4010
VArceus-Fighting
p4011
sVrapidspin
p4012
VRapid Spin
p4013
sVskullbash
p4014
VSkull Bash
p4015
sVdratini
p4016
VDratini
p4017
sVafteryou
p4018
VAfter You
p4019
sVmaractus
p4020
VMaractus
p4021
sVcrucibellite
p4022
VCrucibellite
p4023
sVmareanie
p4024
VMareanie
p4025
sVilluminate
p4026
VIlluminate
p4027
sVgallademega
p4028
VGallade-Mega
p4029
sVmagnetpull
p4030
VMagnet Pull
p4031
sVtepig
p4032
VTepig
p4033
sVkelpsyberry
p4034
VKelpsy Berry
p4035
sVstatic
p4036
VStatic
p4037
sVflameplate
p4038
VFlame Plate
p4039
sVicememory
p4040
VIce Memory
p4041
sVicefang
p4042
VIce Fang
p4043
sVvenonat
p4044
VVenonat
p4045
sVsilvallyfighting
p4046
VSilvally-Fighting
p4047
sVjoltik
p4048
VJoltik
p4049
sVrollingkick
p4050
VRolling Kick
p4051
sVoricorio
p4052
VOricorio
p4053
sVweatherball
p4054
VWeather Ball
p4055
sVshatteredpsyche
p4056
VShattered Psyche
p4057
sVmewniumz
p4058
VMewnium Z
p4059
sVmanectric
p4060
VManectric
p4061
sVnaturepower
p4062
VNature Power
p4063
sVregisteel
p4064
VRegisteel
p4065
sVsmog
p4066
VSmog
p4067
sVbabydolleyes
p4068
VBaby-Doll Eyes
p4069
sVleafguard
p4070
VLeaf Guard
p4071
sVicywind
p4072
VIcy Wind
p4073
sVemolga
p4074
VEmolga
p4075
sVmamoswine
p4076
VMamoswine
p4077
sVconkeldurr
p4078
VConkeldurr
p4079
sVduskstone
p4080
VDusk Stone
p4081
sVworkup
p4082
VWork Up
p4083
sVmetagrossite
p4084
VMetagrossite
p4085
sVhippowdon
p4086
VHippowdon
p4087
sVenigmaberry
p4088
VEnigma Berry
p4089
sVscatterbug
p4090
VScatterbug
p4091
sVaromaveil
p4092
VAroma Veil
p4093
sVcorrosion
p4094
VCorrosion
p4095
sVtropkick
p4096
VTrop Kick
p4097
sVsudowoodo
p4098
VSudowoodo
p4099
sVlarvitar
p4100
VLarvitar
p4101
sVheadbutt
p4102
VHeadbutt
p4103
sVsacredsword
p4104
VSacred Sword
p4105
sVbodyslam
p4106
VBody Slam
p4107
sVbugbuzz
p4108
VBug Buzz
p4109
sVfirefang
p4110
VFire Fang
p4111
sVdiancite
p4112
VDiancite
p4113
sVampharosmega
p4114
VAmpharos-Mega
p4115
sVmistball
p4116
VMist Ball
p4117
sVskrelp
p4118
VSkrelp
p4119
sVjumpkick
p4120
VJump Kick
p4121
sVninetalesalola
p4122
VNinetales-Alola
p4123
sVwaterspout
p4124
VWater Spout
p4125
sVpsychicmemory
p4126
VPsychic Memory
p4127
sVloudred
p4128
VLoudred
p4129
sVearthpower
p4130
VEarth Power
p4131
sVblissey
p4132
VBlissey
p4133
sVpikachukalos
p4134
VPikachu-Kalos
p4135
sVpremierball
p4136
VPremier Ball
p4137
sVrotomfrost
p4138
VRotom-Frost
p4139
sVsolidrock
p4140
VSolid Rock
p4141
sVhonedge
p4142
VHonedge
p4143
sVrabutaberry
p4144
VRabuta Berry
p4145
sVagility
p4146
VAgility
p4147
sVelectabuzz
p4148
VElectabuzz
p4149
sVhoopaunbound
p4150
VHoopa-Unbound
p4151
sVfomantis
p4152
VFomantis
p4153
sVsachet
p4154
VSachet
p4155
sVcrobat
p4156
VCrobat
p4157
sVrockblast
p4158
VRock Blast
p4159
sVslackoff
p4160
VSlack Off
p4161
sVprivatyke
p4162
VPrivatyke
p4163
sVsoftsand
p4164
VSoft Sand
p4165
sVsigilyph
p4166
VSigilyph
p4167
sVdeepseatooth
p4168
VDeep Sea Tooth
p4169
sVtorkoal
p4170
VTorkoal
p4171
sVwurmple
p4172
VWurmple
p4173
sVtapulele
p4174
VTapu Lele
p4175
sVsunsteelstrike
p4176
VSunsteel Strike
p4177
sVgrimeralola
p4178
VGrimer-Alola
p4179
sVtimburr
p4180
VTimburr
p4181
sVsealeo
p4182
VSealeo
p4183
sVpoisonfang
p4184
VPoison Fang
p4185
sVinsectplate
p4186
VInsect Plate
p4187
sVtorrent
p4188
VTorrent
p4189
sVencore
p4190
VEncore
p4191
sVquickball
p4192
VQuick Ball
p4193
sVtrapinch
p4194
VTrapinch
p4195
sVbonerush
p4196
VBone Rush
p4197
sVgentle
p4198
VGentle
p4199
sVtorment
p4200
VTorment
p4201
sVarceusflying
p4202
VArceus-Flying
p4203
sVzebstrika
p4204
VZebstrika
p4205
sVwhitesmoke
p4206
VWhite Smoke
p4207
sVlevelball
p4208
VLevel Ball
p4209
sVsoak
p4210
VSoak
p4211
sVfusionbolt
p4212
VFusion Bolt
p4213
sVflareon
p4214
VFlareon
p4215
sVcalmmind
p4216
VCalm Mind
p4217
sVdiamondstorm
p4218
VDiamond Storm
p4219
sVgravity
p4220
VGravity
p4221
sVcarnivine
p4222
VCarnivine
p4223
sVgrassgem
p4224
VGrass Gem
p4225
sVfleurcannon
p4226
VFleur Cannon
p4227
sVpsychoboost
p4228
VPsycho Boost
p4229
sVnuzleaf
p4230
VNuzleaf
p4231
sVwidelens
p4232
VWide Lens
p4233
sVshadowball
p4234
VShadow Ball
p4235
sVdrifblim
p4236
VDrifblim
p4237
sVgoldeen
p4238
VGoldeen
p4239
sVmewtwo
p4240
VMewtwo
p4241
sVrollout
p4242
VRollout
p4243
sVslurpuff
p4244
VSlurpuff
p4245
sVdracometeor
p4246
VDraco Meteor
p4247
sVsludgewave
p4248
VSludge Wave
p4249
sVsceptile
p4250
VSceptile
p4251
sVaraquanid
p4252
VAraquanid
p4253
sVgardevoirite
p4254
VGardevoirite
p4255
sVexeggutor
p4256
VExeggutor
p4257
sVshedskin
p4258
VShed Skin
p4259
sVcherrimsunshine
p4260
VCherrim-Sunshine
p4261
sVarceus
p4262
VArceus
p4263
sVimpish
p4264
VImpish
p4265
sVservine
p4266
VServine
p4267
sVwailmer
p4268
VWailmer
p4269
sVbrine
p4270
VBrine
p4271
sVdawnstone
p4272
VDawn Stone
p4273
sVsleeppowder
p4274
VSleep Powder
p4275
sVoldamber
p4276
VOld Amber
p4277
sVsnover
p4278
VSnover
p4279
sVdurant
p4280
VDurant
p4281
sVdarkiniumz
p4282
VDarkinium Z
p4283
sVsimplebeam
p4284
VSimple Beam
p4285
sVyveltal
p4286
VYveltal
p4287
sVbrickbreak
p4288
VBrick Break
p4289
sVrash
p4290
VRash
p4291
sVpiplup
p4292
VPiplup
p4293
sVflashfire
p4294
VFlash Fire
p4295
sVelectricmemory
p4296
VElectric Memory
p4297
sValoraichiumz
p4298
VAloraichium Z
p4299
sVpikipek
p4300
VPikipek
p4301
sVdeino
p4302
VDeino
p4303
sVcamerupt
p4304
VCamerupt
p4305
sVluckypunch
p4306
VLucky Punch
p4307
sVpurrloin
p4308
VPurrloin
p4309
sVrarebone
p4310
VRare Bone
p4311
sVsolosis
p4312
VSolosis
p4313
sVtangaberry
p4314
VTanga Berry
p4315
sVbellydrum
p4316
VBelly Drum
p4317
sVsassy
p4318
VSassy
p4319
sVdeoxysattack
p4320
VDeoxys-Attack
p4321
sVcroagunk
p4322
VCroagunk
p4323
sVbravebird
p4324
VBrave Bird
p4325
sVgust
p4326
VGust
p4327
sVmagicguard
p4328
VMagic Guard
p4329
sVsandattack
p4330
VSand Attack
p4331
sVkingler
p4332
VKingler
p4333
sVhugepower
p4334
VHuge Power
p4335
sVmudbomb
p4336
VMud Bomb
p4337
sVdartrix
p4338
VDartrix
p4339
sVsheercold
p4340
VSheer Cold
p4341
sVgeomancy
p4342
VGeomancy
p4343
sVleafstone
p4344
VLeaf Stone
p4345
sVcacturne
p4346
VCacturne
p4347
sVpowder
p4348
VPowder
p4349
sVvictini
p4350
VVictini
p4351
sVfinneon
p4352
VFinneon
p4353
sVtwineedle
p4354
VTwineedle
p4355
sVchestoberry
p4356
VChesto Berry
p4357
sVgrumpig
p4358
VGrumpig
p4359
sVbuginiumz
p4360
VBuginium Z
p4361
sVnightmare
p4362
VNightmare
p4363
sVgyarados
p4364
VGyarados
p4365
sVlycaniumz
p4366
VLycanium Z
p4367
sVvaporeon
p4368
VVaporeon
p4369
sVthunderwave
p4370
VThunder Wave
p4371
sVrockincense
p4372
VRock Incense
p4373
sVfroslass
p4374
VFroslass
p4375
sVaron
p4376
VAron
p4377
sVconversion2
p4378
VConversion 2
p4379
sVmysticalfire
p4380
VMystical Fire
p4381
sVzoroark
p4382
VZoroark
p4383
sVshellsmash
p4384
VShell Smash
p4385
sVhydropump
p4386
VHydro Pump
p4387
sVswift
p4388
VSwift
p4389
sVmemento
p4390
VMemento
p4391
sVmetang
p4392
VMetang
p4393
sVklinklang
p4394
VKlinklang
p4395
sVaerodactyl
p4396
VAerodactyl
p4397
sVtailwhip
p4398
VTail Whip
p4399
sVsceptilite
p4400
VSceptilite
p4401
sVsafetygoggles
p4402
VSafety Goggles
p4403
sVklang
p4404
VKlang
p4405
sVgreninjaash
p4406
VGreninja-Ash
p4407
sVswallow
p4408
VSwallow
p4409
sVspritzee
p4410
VSpritzee
p4411
sVflabebe
p4412
VFlabe\u0301be\u0301
p4413
sVnumel
p4414
VNumel
p4415
sVwoodhammer
p4416
VWood Hammer
p4417
sVhiddenpowerwater
p4418
VHidden Power Water
p4419
sVmalaconda
p4420
VMalaconda
p4421
sVgible
p4422
VGible
p4423
sVovercoat
p4424
VOvercoat
p4425
sVekans
p4426
VEkans
p4427
sVsharpedomega
p4428
VSharpedo-Mega
p4429
sVpixieplate
p4430
VPixie Plate
p4431
sVvolkritter
p4432
VVolkritter
p4433
sVdugtrio
p4434
VDugtrio
p4435
sVdisarmingvoice
p4436
VDisarming Voice
p4437
sVwailord
p4438
VWailord
p4439
sVswoobat
p4440
VSwoobat
p4441
sVelectrify
p4442
VElectrify
p4443
sVdazzling
p4444
VDazzling
p4445
sVoricoriosensu
p4446
VOricorio-Sensu
p4447
sVkeldeo
p4448
VKeldeo
p4449
sVrattata
p4450
VRattata
p4451
sVtomohawk
p4452
VTomohawk
p4453
sVivysaur
p4454
VIvysaur
p4455
sVhorndrill
p4456
VHorn Drill
p4457
sVcoverfossil
p4458
VCover Fossil
p4459
sVgraveler
p4460
VGraveler
p4461
sVsmeargle
p4462
VSmeargle
p4463
sVmetagrossmega
p4464
VMetagross-Mega
p4465
sVraindance
p4466
VRain Dance
p4467
sVbreezi
p4468
VBreezi
p4469
sVinfestation
p4470
VInfestation
p4471
sVvoodoll
p4472
VVoodoll
p4473
sVpresent
p4474
VPresent
p4475
sVgrovyle
p4476
VGrovyle
p4477
sVpokestarf002
p4478
VPokestar F-002
p4479
sVintimidate
p4480
VIntimidate
p4481
sVharden
p4482
VHarden
p4483
sVpowerweight
p4484
VPower Weight
p4485
sVflaaffy
p4486
VFlaaffy
p4487
sVbeheeyem
p4488
VBeheeyem
p4489
sVwhirlpool
p4490
VWhirlpool
p4491
sVpelipper
p4492
VPelipper
p4493
sVthickfat
p4494
VThick Fat
p4495
sVcarracosta
p4496
VCarracosta
p4497
sVluxio
p4498
VLuxio
p4499
sVvullaby
p4500
VVullaby
p4501
sVhiddenpowerghost
p4502
VHidden Power Ghost
p4503
sVlightball
p4504
VLight Ball
p4505
sVwaterveil
p4506
VWater Veil
p4507
sVspelltag
p4508
VSpell Tag
p4509
sVdeoxysdefense
p4510
VDeoxys-Defense
p4511
sVzekrom
p4512
VZekrom
p4513
sVaipom
p4514
VAipom
p4515
sVdefiant
p4516
VDefiant
p4517
sVhardstone
p4518
VHard Stone
p4519
sVkebiaberry
p4520
VKebia Berry
p4521
sVbergmite
p4522
VBergmite
p4523
sVcascoon
p4524
VCascoon
p4525
sVmindblown
p4526
VMind Blown
p4527
sVmagcargo
p4528
VMagcargo
p4529
sVabsorb
p4530
VAbsorb
p4531
sVpikachuhoenn
p4532
VPikachu-Hoenn
p4533
sVraindish
p4534
VRain Dish
p4535
sVseaking
p4536
VSeaking
p4537
sVmagician
p4538
VMagician
p4539
sVdragoniumz
p4540
VDragonium Z
p4541
sVairlock
p4542
VAir Lock
p4543
sVbabiriberry
p4544
VBabiri Berry
p4545
sVprotector
p4546
VProtector
p4547
sVeelektross
p4548
VEelektross
p4549
sVpickpocket
p4550
VPickpocket
p4551
sVsitrusberry
p4552
VSitrus Berry
p4553
sVarceuspsychic
p4554
VArceus-Psychic
p4555
sVbeautifly
p4556
VBeautifly
p4557
sVwormadamtrash
p4558
VWormadam-Trash
p4559
sVvenoshock
p4560
VVenoshock
p4561
sVsilvallyfairy
p4562
VSilvally-Fairy
p4563
sVmudsport
p4564
VMud Sport
p4565
sVazelf
p4566
VAzelf
p4567
sVyanmega
p4568
VYanmega
p4569
sVnaviathan
p4570
VNaviathan
p4571
sVfairyaura
p4572
VFairy Aura
p4573
sVpsychicseed
p4574
VPsychic Seed
p4575
sVpinsir
p4576
VPinsir
p4577
sVrotom
p4578
VRotom
p4579
sVguts
p4580
VGuts
p4581
sVtauros
p4582
VTauros
p4583
sVnatu
p4584
VNatu
p4585
sVfaketears
p4586
VFake Tears
p4587
sVbattery
p4588
VBattery
p4589
sVaromaticmist
p4590
VAromatic Mist
p4591
sVbeedrillite
p4592
VBeedrillite
p4593
sVconfide
p4594
VConfide
p4595
sVleechlife
p4596
VLeech Life
p4597
sVaegislash
p4598
VAegislash
p4599
sVkingsshield
p4600
VKing's Shield
p4601
sVkingsrock
p4602
VKing's Rock
p4603
sVblukberry
p4604
VBluk Berry
p4605
sVflowershield
p4606
VFlower Shield
p4607
sVarenatrap
p4608
VArena Trap
p4609
sVleechseed
p4610
VLeech Seed
p4611
sVlaserfocus
p4612
VLaser Focus
p4613
sVducklett
p4614
VDucklett
p4615
sVgreninja
p4616
VGreninja
p4617
sVreapercloth
p4618
VReaper Cloth
p4619
sVdhelmise
p4620
VDhelmise
p4621
sVbudew
p4622
VBudew
p4623
sVgogoat
p4624
VGogoat
p4625
sVlilligant
p4626
VLilligant
p4627
sVhealball
p4628
VHeal Ball
p4629
sVphanpy
p4630
VPhanpy
p4631
sVaudinite
p4632
VAudinite
p4633
sVimprison
p4634
VImprison
p4635
sVrepeatball
p4636
VRepeat Ball
p4637
sVglare
p4638
VGlare
p4639
sVjangmoo
p4640
VJangmo-o
p4641
sVthief
p4642
VThief
p4643
sVhail
p4644
VHail
p4645
sVcofagrigus
p4646
VCofagrigus
p4647
sVwepearberry
p4648
VWepear Berry
p4649
sVskarmory
p4650
VSkarmory
p4651
sVpersimberry
p4652
VPersim Berry
p4653
sVdragonclaw
p4654
VDragon Claw
p4655
sVdrizzle
p4656
VDrizzle
p4657
sVzygarde10
p4658
VZygarde-10%
p4659
sVstaraptor
p4660
VStaraptor
p4661
sVmagicalleaf
p4662
VMagical Leaf
p4663
sVforcepalm
p4664
VForce Palm
p4665
sVhurricane
p4666
VHurricane
p4667
sVlileep
p4668
VLileep
p4669
sVpiloswine
p4670
VPiloswine
p4671
sVjudgment
p4672
VJudgment
p4673
sVvenusaurite
p4674
VVenusaurite
p4675
sVraichu
p4676
VRaichu
p4677
sVcyclohm
p4678
VCyclohm
p4679
sVhappiny
p4680
VHappiny
p4681
sVpressure
p4682
VPressure
p4683
sVsilkscarf
p4684
VSilk Scarf
p4685
sVpidgeotto
p4686
VPidgeotto
p4687
sVdreadplate
p4688
VDread Plate
p4689
sVsableyemega
p4690
VSableye-Mega
p4691
sVfurret
p4692
VFurret
p4693
sVpsystrike
p4694
VPsystrike
p4695
sVmiltank
p4696
VMiltank
p4697
sVmeteormash
p4698
VMeteor Mash
p4699
sVshucaberry
p4700
VShuca Berry
p4701
sVrockmemory
p4702
VRock Memory
p4703
sVsweetkiss
p4704
VSweet Kiss
p4705
sVacidarmor
p4706
VAcid Armor
p4707
sVlightclay
p4708
VLight Clay
p4709
sVvoodoom
p4710
VVoodoom
p4711
sVblueorb
p4712
VBlue Orb
p4713
sVfeintattack
p4714
VFeint Attack
p4715
sVburmy
p4716
VBurmy
p4717
sVgrassysurge
p4718
VGrassy Surge
p4719
sVcaimanoe
p4720
VCaimanoe
p4721
sVmagostberry
p4722
VMagost Berry
p4723
sVgrasspelt
p4724
VGrass Pelt
p4725
sVicestone
p4726
VIce Stone
p4727
sVspitup
p4728
VSpit Up
p4729
sVstamina
p4730
VStamina
p4731
sVrockthrow
p4732
VRock Throw
p4733
sVroseliberry
p4734
VRoseli Berry
p4735
sVfrustration
p4736
VFrustration
p4737
sVambipom
p4738
VAmbipom
p4739
sVsolgaleo
p4740
VSolgaleo
p4741
sVfellstinger
p4742
VFell Stinger
p4743
sVfollowme
p4744
VFollow Me
p4745
sVclauncher
p4746
VClauncher
p4747
sVquickpowder
p4748
VQuick Powder
p4749
sVfrenzyplant
p4750
VFrenzy Plant
p4751
sVclearbody
p4752
VClear Body
p4753
sVpowerofalchemy
p4754
VPower of Alchemy
p4755
sVmagoberry
p4756
VMago Berry
p4757
sVcroconaw
p4758
VCroconaw
p4759
sVdrowzee
p4760
VDrowzee
p4761
sVserenegrace
p4762
VSerene Grace
p4763
sVoceanicoperetta
p4764
VOceanic Operetta
p4765
sVheracronite
p4766
VHeracronite
p4767
sVtechnician
p4768
VTechnician
p4769
sVarceusgrass
p4770
VArceus-Grass
p4771
sVmorelull
p4772
VMorelull
p4773
sVembargo
p4774
VEmbargo
p4775
sVpikachuunova
p4776
VPikachu-Unova
p4777
sVmetronome
p4778
VMetronome
p4779
sVattackorder
p4780
VAttack Order
p4781
sVallyswitch
p4782
VAlly Switch
p4783
sVwish
p4784
VWish
p4785
sVentrainment
p4786
VEntrainment
p4787
sVpoisonheal
p4788
VPoison Heal
p4789
sVpyukumuku
p4790
VPyukumuku
p4791
sVscizormega
p4792
VScizor-Mega
p4793
sVthroatchop
p4794
VThroat Chop
p4795
sVhoneclaws
p4796
VHone Claws
p4797
sVgrassmemory
p4798
VGrass Memory
p4799
sVpikachurockstar
p4800
VPikachu-Rock-Star
p4801
sVoranberry
p4802
VOran Berry
p4803
sVmarshadow
p4804
VMarshadow
p4805
sVninjask
p4806
VNinjask
p4807
sVslowstart
p4808
VSlow Start
p4809
sVweakarmor
p4810
VWeak Armor
p4811
sVaurasphere
p4812
VAura Sphere
p4813
sVshelgon
p4814
VShelgon
p4815
sVrawstberry
p4816
VRawst Berry
p4817
sVshadowbone
p4818
VShadow Bone
p4819
sVpokestarblackbelt
p4820
VPokestar Black Belt
p4821
sVvacuumwave
p4822
VVacuum Wave
p4823
sVillusion
p4824
VIllusion
p4825
sVroleplay
p4826
VRole Play
p4827
sVyacheberry
p4828
VYache Berry
p4829
sVelectriumz
p4830
VElectrium Z
p4831
sVtreecko
p4832
VTreecko
p4833
sVicehammer
p4834
VIce Hammer
p4835
sVbraviary
p4836
VBraviary
p4837
sVvivillon
p4838
VVivillon
p4839
sVnoguard
p4840
VNo Guard
p4841
sVsalamencemega
p4842
VSalamence-Mega
p4843
sVabomasite
p4844
VAbomasite
p4845
sVstarmie
p4846
VStarmie
p4847
sVpersistent
p4848
VPersistent
p4849
sVmagmar
p4850
VMagmar
p4851
sVzangoose
p4852
VZangoose
p4853
sVvivillonfancy
p4854
VVivillon-Fancy
p4855
sVvanilluxe
p4856
VVanilluxe
p4857
s.