(dp1
Velectivire
p2
VElectivire
p3
sVheracross
p4
VHeracross
p5
sVcolorchange
p6
VColor Change
p7
sVlucarionite
p8
VLucarionite
p9
sVpalkia
p10
VPalkia
p11
sVchatter
p12
VChatter
p13
sValakazite
p14
VAlakazite
p15
sVtickle
p16
VTickle
p17
sVarceuselectric
p18
VArceus-Electric
p19
sVabra
p20
VAbra
p21
sVreuniclus
p22
VReuniclus
p23
sVrecycle
p24
VRecycle
p25
sVtimerball
p26
VTimer Ball
p27
sVmeditite
p28
VMeditite
p29
sVsharpbeak
p30
VSharp Beak
p31
sVmewtwonitex
p32
VMewtwonite X
p33
sVmewtwonitey
p34
VMewtwonite Y
p35
sVquickclaw
p36
VQuick Claw
p37
sVdoubleslap
p38
VDouble Slap
p39
sVeviolite
p40
VEviolite
p41
sVprotean
p42
VProtean
p43
sVsquirtle
p44
VSquirtle
p45
sVdarmanitanzen
p46
VDarmanitan-Zen
p47
sVnastyplot
p48
VNasty Plot
p49
sVwormadam
p50
VWormadam
p51
sVaggronmega
p52
VAggron-Mega
p53
sVwhirlwind
p54
VWhirlwind
p55
sVplumefossil
p56
VPlume Fossil
p57
sVcherrim
p58
VCherrim
p59
sVguillotine
p60
VGuillotine
p61
sVlevitate
p62
VLevitate
p63
sVgyaradosite
p64
VGyaradosite
p65
sVpomegberry
p66
VPomeg Berry
p67
sVmasquerain
p68
VMasquerain
p69
sVthunder
p70
VThunder
p71
sVhaze
p72
VHaze
p73
sVdarkgem
p74
VDark Gem
p75
sVmiltank
p76
VMiltank
p77
sVfraxure
p78
VFraxure
p79
sVmoldbreaker
p80
VMold Breaker
p81
sVcrunch
p82
VCrunch
p83
sVrindoberry
p84
VRindo Berry
p85
sVlatiosite
p86
VLatiosite
p87
sVreflecttype
p88
VReflect Type
p89
sVsnivy
p90
VSnivy
p91
sVmefirst
p92
VMe First
p93
sVstarfberry
p94
VStarf Berry
p95
sVscizorite
p96
VScizorite
p97
sVmew
p98
VMew
p99
sVpursuit
p100
VPursuit
p101
sVheadsmash
p102
VHead Smash
p103
sVaftermath
p104
VAftermath
p105
sVclawitzer
p106
VClawitzer
p107
sVpixilate
p108
VPixilate
p109
sVtornadustherian
p110
VTornadus-Therian
p111
sVlunatone
p112
VLunatone
p113
sVpunishment
p114
VPunishment
p115
sVpoisontouch
p116
VPoison Touch
p117
sVfeebas
p118
VFeebas
p119
sVneedlearm
p120
VNeedle Arm
p121
sValtarianite
p122
VAltarianite
p123
sVblastburn
p124
VBlast Burn
p125
sVhonchkrow
p126
VHonchkrow
p127
sVtirtouga
p128
VTirtouga
p129
sVampharos
p130
VAmpharos
p131
sVdusclops
p132
VDusclops
p133
sVpoisonbarb
p134
VPoison Barb
p135
sVmorningsun
p136
VMorning Sun
p137
sVfreezedry
p138
VFreeze-Dry
p139
sVmandibuzz
p140
VMandibuzz
p141
sVoverheat
p142
VOverheat
p143
sVspiritomb
p144
VSpiritomb
p145
sVvoltabsorb
p146
VVolt Absorb
p147
sVpurugly
p148
VPurugly
p149
sVshiftgear
p150
VShift Gear
p151
sVvenomoth
p152
VVenomoth
p153
sVcastformrainy
p154
VCastform-Rainy
p155
sVbigroot
p156
VBig Root
p157
sVaromaveil
p158
VAroma Veil
p159
sVgardevoir
p160
VGardevoir
p161
sVsheerforce
p162
VSheer Force
p163
sVmagnetrise
p164
VMagnet Rise
p165
sS'naive'
p166
S'Naive'
p167
sVsceptilemega
p168
VSceptile-Mega
p169
sS'adamant'
p170
S'Adamant'
p171
sVkitsunoh
p172
VKitsunoh
p173
sVarceusbug
p174
VArceus-Bug
p175
sVgranbull
p176
VGranbull
p177
sVpidgeot
p178
VPidgeot
p179
sVtangledfeet
p180
VTangled Feet
p181
sVigglybuff
p182
VIgglybuff
p183
sVonix
p184
VOnix
p185
sVgrimer
p186
VGrimer
p187
sVrototiller
p188
VRototiller
p189
sVlucariomega
p190
VLucario-Mega
p191
sVbugbite
p192
VBug Bite
p193
sVpoisongas
p194
VPoison Gas
p195
sVmakuhita
p196
VMakuhita
p197
sVfriendball
p198
VFriend Ball
p199
sVattract
p200
VAttract
p201
sVcharizarditey
p202
VCharizardite Y
p203
sVcharizarditex
p204
VCharizardite X
p205
sVhyperspacehole
p206
VHyperspace Hole
p207
sVskydrop
p208
VSky Drop
p209
sVcrabhammer
p210
VCrabhammer
p211
sVtoxic
p212
VToxic
p213
sVcastformsunny
p214
VCastform-Sunny
p215
sVrotomheat
p216
VRotom-Heat
p217
sVsportball
p218
VSport Ball
p219
sVpoisonpowder
p220
VPoison Powder
p221
sVredcard
p222
VRed Card
p223
sS'modest'
p224
S'Modest'
p225
sVtynamo
p226
VTynamo
p227
sVrocktomb
p228
VRock Tomb
p229
sVcherubi
p230
VCherubi
p231
sVleafstorm
p232
VLeaf Storm
p233
sVspookyplate
p234
VSpooky Plate
p235
sS'hasty'
p236
S'Hasty'
p237
sVentei
p238
VEntei
p239
sVarceussteel
p240
VArceus-Steel
p241
sVcobaberry
p242
VCoba Berry
p243
sVlaggingtail
p244
VLagging Tail
p245
sVfinalgambit
p246
VFinal Gambit
p247
sVrapidash
p248
VRapidash
p249
sVdoubleteam
p250
VDouble Team
p251
sVlumineon
p252
VLumineon
p253
sVgligar
p254
VGligar
p255
sVshielddust
p256
VShield Dust
p257
sVmagicbounce
p258
VMagic Bounce
p259
sVfakeout
p260
VFake Out
p261
sVsludge
p262
VSludge
p263
sVvenusaur
p264
VVenusaur
p265
sVphione
p266
VPhione
p267
sVdiancite
p268
VDiancite
p269
sVflameburst
p270
VFlame Burst
p271
sVzapplate
p272
VZap Plate
p273
sVmunna
p274
VMunna
p275
sVhitmonlee
p276
VHitmonlee
p277
sVdryskin
p278
VDry Skin
p279
sVkricketot
p280
VKricketot
p281
sVroost
p282
VRoost
p283
sVfurycutter
p284
VFury Cutter
p285
sVirontail
p286
VIron Tail
p287
sVheatmor
p288
VHeatmor
p289
sVeggbomb
p290
VEgg Bomb
p291
sVluxray
p292
VLuxray
p293
sVpayback
p294
VPayback
p295
sVexcadrill
p296
VExcadrill
p297
sVgloom
p298
VGloom
p299
sVgluttony
p300
VGluttony
p301
sVvulpix
p302
VVulpix
p303
sVcradily
p304
VCradily
p305
sVthunderfang
p306
VThunder Fang
p307
sVblastoisemega
p308
VBlastoise-Mega
p309
sVespeon
p310
VEspeon
p311
sVmultitype
p312
VMultitype
p313
sVflameorb
p314
VFlame Orb
p315
sVfairywind
p316
VFairy Wind
p317
sVgothorita
p318
VGothorita
p319
sVomastar
p320
VOmastar
p321
sVwalrein
p322
VWalrein
p323
sVsawsbuck
p324
VSawsbuck
p325
sVtruant
p326
VTruant
p327
sVqualotberry
p328
VQualot Berry
p329
sVflowergift
p330
VFlower Gift
p331
sVpsychic
p332
VPsychic
p333
sVkasibberry
p334
VKasib Berry
p335
sVcottonguard
p336
VCotton Guard
p337
sVtornadus
p338
VTornadus
p339
sVshedshell
p340
VShed Shell
p341
sVbarrier
p342
VBarrier
p343
sVleftovers
p344
VLeftovers
p345
sVrevenge
p346
VRevenge
p347
sVsynchronoise
p348
VSynchronoise
p349
sVbestow
p350
VBestow
p351
sVtrumpcard
p352
VTrump Card
p353
sVsweetveil
p354
VSweet Veil
p355
sVgalladite
p356
VGalladite
p357
sVshiftry
p358
VShiftry
p359
sVfletchinder
p360
VFletchinder
p361
sVbeartic
p362
VBeartic
p363
sVkyuremblack
p364
VKyurem-Black
p365
sVsonicboom
p366
VSonic Boom
p367
sVfightinggem
p368
VFighting Gem
p369
sVgroudonprimal
p370
VGroudon-Primal
p371
sVlatias
p372
VLatias
p373
sVdrainpunch
p374
VDrain Punch
p375
sVsteelixmega
p376
VSteelix-Mega
p377
sVcherishball
p378
VCherish Ball
p379
sVcheriberry
p380
VCheri Berry
p381
sS'naughty'
p382
S'Naughty'
p383
sVseedflare
p384
VSeed Flare
p385
sVhydrocannon
p386
VHydro Cannon
p387
sVmagneticflux
p388
VMagnetic Flux
p389
sVdeoxys
p390
VDeoxys
p391
sVursaring
p392
VUrsaring
p393
sVlatiasmega
p394
VLatias-Mega
p395
sVhooh
p396
VHo-Oh
p397
sVshieldon
p398
VShieldon
p399
sVslugma
p400
VSlugma
p401
sVheracrossmega
p402
VHeracross-Mega
p403
sVwaveincense
p404
VWave Incense
p405
sVmanectite
p406
VManectite
p407
sVpikachupopstar
p408
VPikachu-Pop-Star
p409
sVaircutter
p410
VAir Cutter
p411
sVgiratinaorigin
p412
VGiratina-Origin
p413
sVgrowlithe
p414
VGrowlithe
p415
sVinferno
p416
VInferno
p417
sVtwister
p418
VTwister
p419
sVarceusdragon
p420
VArceus-Dragon
p421
sVflamethrower
p422
VFlamethrower
p423
sVtoxicorb
p424
VToxic Orb
p425
sVfairylock
p426
VFairy Lock
p427
sVrockclimb
p428
VRock Climb
p429
sVwonderroom
p430
VWonder Room
p431
sVmegakick
p432
VMega Kick
p433
sVdoomdesire
p434
VDoom Desire
p435
sVmirrormove
p436
VMirror Move
p437
sVsandshrew
p438
VSandshrew
p439
sVpolitoed
p440
VPolitoed
p441
sVminun
p442
VMinun
p443
sVbelueberry
p444
VBelue Berry
p445
sVendure
p446
VEndure
p447
sVswiftswim
p448
VSwift Swim
p449
sVshellbell
p450
VShell Bell
p451
sVminus
p452
VMinus
p453
sVmeowth
p454
VMeowth
p455
sVsweetscent
p456
VSweet Scent
p457
sVwacanberry
p458
VWacan Berry
p459
sVsylveon
p460
VSylveon
p461
sVpayapaberry
p462
VPayapa Berry
p463
sVclosecombat
p464
VClose Combat
p465
sVhealer
p466
VHealer
p467
sVseel
p468
VSeel
p469
sVblastoise
p470
VBlastoise
p471
sVstrength
p472
VStrength
p473
sVchingling
p474
VChingling
p475
sVgothita
p476
VGothita
p477
sVdarmanitan
p478
VDarmanitan
p479
sVcraftyshield
p480
VCrafty Shield
p481
sVgyroball
p482
VGyro Ball
p483
sVrhyperior
p484
VRhyperior
p485
sVgolbat
p486
VGolbat
p487
sVgrassyterrain
p488
VGrassy Terrain
p489
sVdeoxysspeed
p490
VDeoxys-Speed
p491
sVshadowforce
p492
VShadow Force
p493
sVcoil
p494
VCoil
p495
sVdrought
p496
VDrought
p497
sVslackoff
p498
VSlack Off
p499
sVcosmicpower
p500
VCosmic Power
p501
sVempoleon
p502
VEmpoleon
p503
sVthousandwaves
p504
VThousand Waves
p505
sVdunsparce
p506
VDunsparce
p507
sVconstrict
p508
VConstrict
p509
sVvileplume
p510
VVileplume
p511
sVraticate
p512
VRaticate
p513
sVslaking
p514
VSlaking
p515
sVjirachi
p516
VJirachi
p517
sVgolduck
p518
VGolduck
p519
sVarmorfossil
p520
VArmor Fossil
p521
sVstickyweb
p522
VSticky Web
p523
sVtogekiss
p524
VTogekiss
p525
sVhippopotas
p526
VHippopotas
p527
sVdialga
p528
VDialga
p529
sVlastresort
p530
VLast Resort
p531
sVbulletpunch
p532
VBullet Punch
p533
sVicegem
p534
VIce Gem
p535
sVspite
p536
VSpite
p537
sVcarbink
p538
VCarbink
p539
sVwaterpulse
p540
VWater Pulse
p541
sVstoutland
p542
VStoutland
p543
sVbidoof
p544
VBidoof
p545
sVsyclant
p546
VSyclant
p547
sVhaunter
p548
VHaunter
p549
sVweedle
p550
VWeedle
p551
sVaerilate
p552
VAerilate
p553
sVhoneygather
p554
VHoney Gather
p555
sVmachop
p556
VMachop
p557
sVmetalpowder
p558
VMetal Powder
p559
sVdusknoir
p560
VDusknoir
p561
sVmeditate
p562
VMeditate
p563
sVreversal
p564
VReversal
p565
sVlunardance
p566
VLunar Dance
p567
sVpumpkaboosmall
p568
VPumpkaboo-Small
p569
sVtentacool
p570
VTentacool
p571
sVpokeball
p572
VPoke Ball
p573
sVdiancie
p574
VDiancie
p575
sVplasmanta
p576
VPlasmanta
p577
sVnosepass
p578
VNosepass
p579
sVmawilite
p580
VMawilite
p581
sVlaxincense
p582
VLax Incense
p583
sVmagneton
p584
VMagneton
p585
sVstickyhold
p586
VSticky Hold
p587
sVbeatup
p588
VBeat Up
p589
sVleafblade
p590
VLeaf Blade
p591
sVserperior
p592
VSerperior
p593
sVlopunnite
p594
VLopunnite
p595
sVwooper
p596
VWooper
p597
sVforretress
p598
VForretress
p599
sVmindreader
p600
VMind Reader
p601
sVseaincense
p602
VSea Incense
p603
sVsimisage
p604
VSimisage
p605
sVarcheops
p606
VArcheops
p607
sVheavymetal
p608
VHeavy Metal
p609
sVwormadamsandy
p610
VWormadam-Sandy
p611
sVmuscleband
p612
VMuscle Band
p613
sVmatblock
p614
VMat Block
p615
sVpurrloin
p616
VPurrloin
p617
sVdoduo
p618
VDoduo
p619
sVmuk
p620
VMuk
p621
sVmotordrive
p622
VMotor Drive
p623
sVmothim
p624
VMothim
p625
sVslowpoke
p626
VSlowpoke
p627
sVfrostbreath
p628
VFrost Breath
p629
sVvirizion
p630
VVirizion
p631
sVspinda
p632
VSpinda
p633
sVmeadowplate
p634
VMeadow Plate
p635
sVparasect
p636
VParasect
p637
sVgourgeistsmall
p638
VGourgeist-Small
p639
sVrhydon
p640
VRhydon
p641
sVprotect
p642
VProtect
p643
sVplaynice
p644
VPlay Nice
p645
sVsamurott
p646
VSamurott
p647
sVmawile
p648
VMawile
p649
sVchimecho
p650
VChimecho
p651
sVpetayaberry
p652
VPetaya Berry
p653
sVdoublade
p654
VDoublade
p655
sVdeltastream
p656
VDelta Stream
p657
sVluckychant
p658
VLucky Chant
p659
sVleppaberry
p660
VLeppa Berry
p661
sVchlorophyll
p662
VChlorophyll
p663
sVoblivious
p664
VOblivious
p665
sVfierydance
p666
VFiery Dance
p667
sVfloatzel
p668
VFloatzel
p669
sVsmackdown
p670
VSmack Down
p671
sVcopycat
p672
VCopycat
p673
sVsalamencite
p674
VSalamencite
p675
sVbuneary
p676
VBuneary
p677
sVshockdrive
p678
VShock Drive
p679
sVnightdaze
p680
VNight Daze
p681
sVfriendguard
p682
VFriend Guard
p683
sVscaryface
p684
VScary Face
p685
sVsteamroller
p686
VSteamroller
p687
sVkakuna
p688
VKakuna
p689
sVpowertrick
p690
VPower Trick
p691
sVyanma
p692
VYanma
p693
sVchatot
p694
VChatot
p695
sVmarshtomp
p696
VMarshtomp
p697
sVgurdurr
p698
VGurdurr
p699
sVthrash
p700
VThrash
p701
sVsandrush
p702
VSand Rush
p703
sVsliggoo
p704
VSliggoo
p705
sVtotodile
p706
VTotodile
p707
sVgarchompite
p708
VGarchompite
p709
sVslowbro
p710
VSlowbro
p711
sValakazam
p712
VAlakazam
p713
sVbinacle
p714
VBinacle
p715
sVnevermeltice
p716
VNever-Melt Ice
p717
sVgrowl
p718
VGrowl
p719
sVarmaldo
p720
VArmaldo
p721
sVaguavberry
p722
VAguav Berry
p723
sVdrilbur
p724
VDrilbur
p725
sVcameruptite
p726
VCameruptite
p727
sVralts
p728
VRalts
p729
sVpupitar
p730
VPupitar
p731
sVslowking
p732
VSlowking
p733
sVpowerherb
p734
VPower Herb
p735
sVnoivern
p736
VNoivern
p737
sVwaterfall
p738
VWaterfall
p739
sVdewgong
p740
VDewgong
p741
sVkirlia
p742
VKirlia
p743
sVknockoff
p744
VKnock Off
p745
sVoctazooka
p746
VOctazooka
p747
sVcawmodore
p748
VCawmodore
p749
sVpikachubelle
p750
VPikachu-Belle
p751
sVluxuryball
p752
VLuxury Ball
p753
sVhydration
p754
VHydration
p755
sVkrokorok
p756
VKrokorok
p757
sVamoonguss
p758
VAmoonguss
p759
sVquilladin
p760
VQuilladin
p761
sVshellarmor
p762
VShell Armor
p763
sVpoliwag
p764
VPoliwag
p765
sVmetalcoat
p766
VMetal Coat
p767
sVthickclub
p768
VThick Club
p769
sVscizor
p770
VScizor
p771
sVgoomy
p772
VGoomy
p773
sVsilcoon
p774
VSilcoon
p775
sVbuggem
p776
VBug Gem
p777
sVoshawott
p778
VOshawott
p779
sVtorterra
p780
VTorterra
p781
sVtogepi
p782
VTogepi
p783
sVdomefossil
p784
VDome Fossil
p785
sVlowkick
p786
VLow Kick
p787
sVhealbell
p788
VHeal Bell
p789
sVmirrorshot
p790
VMirror Shot
p791
sVlickitung
p792
VLickitung
p793
sVlatiosmega
p794
VLatios-Mega
p795
sVdragonrush
p796
VDragon Rush
p797
sVredorb
p798
VRed Orb
p799
sVspinarak
p800
VSpinarak
p801
sVdiggersby
p802
VDiggersby
p803
sVsilverwind
p804
VSilver Wind
p805
sVpaleowave
p806
VPaleo Wave
p807
sVludicolo
p808
VLudicolo
p809
sVditto
p810
VDitto
p811
sVcirclethrow
p812
VCircle Throw
p813
sVrotom
p814
VRotom
p815
sVnidoqueen
p816
VNidoqueen
p817
sVpinsirmega
p818
VPinsir-Mega
p819
sVflatter
p820
VFlatter
p821
sVtoxicspikes
p822
VToxic Spikes
p823
sVfirepledge
p824
VFire Pledge
p825
sVnoctowl
p826
VNoctowl
p827
sVcornnberry
p828
VCornn Berry
p829
sVskullfossil
p830
VSkull Fossil
p831
sVcheekpouch
p832
VCheek Pouch
p833
sVuproar
p834
VUproar
p835
sVexpertbelt
p836
VExpert Belt
p837
sVholdhands
p838
VHold Hands
p839
sVcrosschop
p840
VCross Chop
p841
sVpsyshock
p842
VPsyshock
p843
sVicyrock
p844
VIcy Rock
p845
sVwynaut
p846
VWynaut
p847
sVtrevenant
p848
VTrevenant
p849
sVabsorbbulb
p850
VAbsorb Bulb
p851
sS'bold'
p852
S'Bold'
p853
sVgunkshot
p854
VGunk Shot
p855
sVarceusfire
p856
VArceus-Fire
p857
sVgarchomp
p858
VGarchomp
p859
sVgeodude
p860
VGeodude
p861
sVlightscreen
p862
VLight Screen
p863
sVwhimsicott
p864
VWhimsicott
p865
sVlavaplume
p866
VLava Plume
p867
sVkeeneye
p868
VKeen Eye
p869
sVsimipour
p870
VSimipour
p871
sVautotomize
p872
VAutotomize
p873
sVspikecannon
p874
VSpike Cannon
p875
sVnecturna
p876
VNecturna
p877
sVplus
p878
VPlus
p879
sVsapsipper
p880
VSap Sipper
p881
sVpikachulibre
p882
VPikachu-Libre
p883
sVriolu
p884
VRiolu
p885
sVhornleech
p886
VHorn Leech
p887
sVbraixen
p888
VBraixen
p889
sVdarkvoid
p890
VDark Void
p891
sVhoundour
p892
VHoundour
p893
sVdualchop
p894
VDual Chop
p895
sVfoulplay
p896
VFoul Play
p897
sVscyther
p898
VScyther
p899
sVgalewings
p900
VGale Wings
p901
sVstormdrain
p902
VStorm Drain
p903
sVseadra
p904
VSeadra
p905
sVovergrow
p906
VOvergrow
p907
sVgengarmega
p908
VGengar-Mega
p909
sVchimchar
p910
VChimchar
p911
sVwrap
p912
VWrap
p913
sVcorsola
p914
VCorsola
p915
sVtransform
p916
VTransform
p917
sVklefki
p918
VKlefki
p919
sVrowapberry
p920
VRowap Berry
p921
sS'quirky'
p922
S'Quirky'
p923
sVquickattack
p924
VQuick Attack
p925
sVsynthesis
p926
VSynthesis
p927
sVmultiscale
p928
VMultiscale
p929
sVgroundgem
p930
VGround Gem
p931
sVreshiram
p932
VReshiram
p933
sVrocksmash
p934
VRock Smash
p935
sVvolttackle
p936
VVolt Tackle
p937
sVghostgem
p938
VGhost Gem
p939
sVroughskin
p940
VRough Skin
p941
sVsafeguard
p942
VSafeguard
p943
sVsmoothrock
p944
VSmooth Rock
p945
sVbide
p946
VBide
p947
sVaurabreak
p948
VAura Break
p949
sVaurorus
p950
VAurorus
p951
sVlightofruin
p952
VLight of Ruin
p953
sVholdback
p954
VHold Back
p955
sVpoweruppunch
p956
VPower-Up Punch
p957
sVunnerve
p958
VUnnerve
p959
sVparentalbond
p960
VParental Bond
p961
sVferaligatr
p962
VFeraligatr
p963
sVoddish
p964
VOddish
p965
sVleer
p966
VLeer
p967
sVmagby
p968
VMagby
p969
sVswadloon
p970
VSwadloon
p971
sVvibrava
p972
VVibrava
p973
sVuxie
p974
VUxie
p975
sVsmoochum
p976
VSmoochum
p977
sVlansatberry
p978
VLansat Berry
p979
sVbutterfree
p980
VButterfree
p981
sVferroseed
p982
VFerroseed
p983
sVamaura
p984
VAmaura
p985
sVfennekin
p986
VFennekin
p987
sVclawfossil
p988
VClaw Fossil
p989
sVdischarge
p990
VDischarge
p991
sVkyogre
p992
VKyogre
p993
sVpoisonpoint
p994
VPoison Point
p995
sVarceuspoison
p996
VArceus-Poison
p997
sVliechiberry
p998
VLiechi Berry
p999
sVlillipup
p1000
VLillipup
p1001
sVcompoundeyes
p1002
VCompound Eyes
p1003
sVmareep
p1004
VMareep
p1005
sVoccaberry
p1006
VOcca Berry
p1007
sVironfist
p1008
VIron Fist
p1009
sS'serious'
p1010
S'Serious'
p1011
sVmegadrain
p1012
VMega Drain
p1013
sVsalacberry
p1014
VSalac Berry
p1015
sVsnubbull
p1016
VSnubbull
p1017
sVsandveil
p1018
VSand Veil
p1019
sVabsolite
p1020
VAbsolite
p1021
sVbonsly
p1022
VBonsly
p1023
sVcelebi
p1024
VCelebi
p1025
sVavalanche
p1026
VAvalanche
p1027
sVshadowsneak
p1028
VShadow Sneak
p1029
sVsuctioncups
p1030
VSuction Cups
p1031
sVsuperpower
p1032
VSuperpower
p1033
sVchinchou
p1034
VChinchou
p1035
sVvenusaurmega
p1036
VVenusaur-Mega
p1037
sVweezing
p1038
VWeezing
p1039
sVdragonpulse
p1040
VDragon Pulse
p1041
sVelectroball
p1042
VElectro Ball
p1043
sVflash
p1044
VFlash
p1045
sVnetball
p1046
VNet Ball
p1047
sVcharge
p1048
VCharge
p1049
sVquash
p1050
VQuash
p1051
sVsnorlax
p1052
VSnorlax
p1053
sVunburden
p1054
VUnburden
p1055
sVrufflet
p1056
VRufflet
p1057
sVmachamp
p1058
VMachamp
p1059
sVkricketune
p1060
VKricketune
p1061
sVtailslap
p1062
VTail Slap
p1063
sVjynx
p1064
VJynx
p1065
sVlopunny
p1066
VLopunny
p1067
sVtwistedspoon
p1068
VTwistedSpoon
p1069
sVskyuppercut
p1070
VSky Uppercut
p1071
sVpoisonsting
p1072
VPoison Sting
p1073
sVdig
p1074
VDig
p1075
sVfocusblast
p1076
VFocus Blast
p1077
sVmesprit
p1078
VMesprit
p1079
sVmagnet
p1080
VMagnet
p1081
sVbanettemega
p1082
VBanette-Mega
p1083
sVround
p1084
VRound
p1085
sVunaware
p1086
VUnaware
p1087
sVduskball
p1088
VDusk Ball
p1089
sVfalseswipe
p1090
VFalse Swipe
p1091
sVtalonflame
p1092
VTalonflame
p1093
sVleafeon
p1094
VLeafeon
p1095
sVzorua
p1096
VZorua
p1097
sVzenmode
p1098
VZen Mode
p1099
sVvitalthrow
p1100
VVital Throw
p1101
sVsubstitute
p1102
VSubstitute
p1103
sVcurse
p1104
VCurse
p1105
sVfocusband
p1106
VFocus Band
p1107
sVmoltres
p1108
VMoltres
p1109
sVpasshoberry
p1110
VPassho Berry
p1111
sVdragondance
p1112
VDragon Dance
p1113
sVaxew
p1114
VAxew
p1115
sVkecleon
p1116
VKecleon
p1117
sVglameow
p1118
VGlameow
p1119
sVaeroblast
p1120
VAeroblast
p1121
sVwartortle
p1122
VWartortle
p1123
sVexplosion
p1124
VExplosion
p1125
sVmiracleeye
p1126
VMiracle Eye
p1127
sVpumpkaboo
p1128
VPumpkaboo
p1129
sVsimisear
p1130
VSimisear
p1131
sVhoopa
p1132
VHoopa
p1133
sVtropius
p1134
VTropius
p1135
sVmysticwater
p1136
VMystic Water
p1137
sVearthquake
p1138
VEarthquake
p1139
sVgastroacid
p1140
VGastro Acid
p1141
sVwoobat
p1142
VWoobat
p1143
sVbeedrillmega
p1144
VBeedrill-Mega
p1145
sVexploud
p1146
VExploud
p1147
sVdiveball
p1148
VDive Ball
p1149
sVsawk
p1150
VSawk
p1151
sVscraggy
p1152
VScraggy
p1153
sVdedenne
p1154
VDedenne
p1155
sVdragonite
p1156
VDragonite
p1157
sVbagon
p1158
VBagon
p1159
sVregenerator
p1160
VRegenerator
p1161
sViondeluge
p1162
VIon Deluge
p1163
sVlarvesta
p1164
VLarvesta
p1165
sVmudslap
p1166
VMud-Slap
p1167
sVflaaffy
p1168
VFlaaffy
p1169
sVmagicroom
p1170
VMagic Room
p1171
sVampharosite
p1172
VAmpharosite
p1173
sVdesolateland
p1174
VDesolate Land
p1175
sVpinsirite
p1176
VPinsirite
p1177
sVheavyslam
p1178
VHeavy Slam
p1179
sVpinmissile
p1180
VPin Missile
p1181
sVkyogreprimal
p1182
VKyogre-Primal
p1183
sVcaptivate
p1184
VCaptivate
p1185
sVflamecharge
p1186
VFlame Charge
p1187
sVswagger
p1188
VSwagger
p1189
sVxatu
p1190
VXatu
p1191
sVrockslide
p1192
VRock Slide
p1193
sVcaterpie
p1194
VCaterpie
p1195
sVhypno
p1196
VHypno
p1197
sVelectrike
p1198
VElectrike
p1199
sVfletchling
p1200
VFletchling
p1201
sVseismictoss
p1202
VSeismic Toss
p1203
sVdarumaka
p1204
VDarumaka
p1205
sVuturn
p1206
VU-turn
p1207
sVflygon
p1208
VFlygon
p1209
sVsandstorm
p1210
VSandstorm
p1211
sVswampertite
p1212
VSwampertite
p1213
sVswablu
p1214
VSwablu
p1215
sVspikyshield
p1216
VSpiky Shield
p1217
sVscolipede
p1218
VScolipede
p1219
sVdwebble
p1220
VDwebble
p1221
sVpignite
p1222
VPignite
p1223
sVsolarpower
p1224
VSolar Power
p1225
sVdonphan
p1226
VDonphan
p1227
sVpalpitoad
p1228
VPalpitoad
p1229
sVchilldrive
p1230
VChill Drive
p1231
sVnormalize
p1232
VNormalize
p1233
sVbanette
p1234
VBanette
p1235
sVtailwind
p1236
VTailwind
p1237
sVdianciemega
p1238
VDiancie-Mega
p1239
sVwideguard
p1240
VWide Guard
p1241
sVeelektrik
p1242
VEelektrik
p1243
sVsandforce
p1244
VSand Force
p1245
sVelectricterrain
p1246
VElectric Terrain
p1247
sVoctillery
p1248
VOctillery
p1249
sVselfdestruct
p1250
VSelf-Destruct
p1251
sVstantler
p1252
VStantler
p1253
sVdive
p1254
VDive
p1255
sVmamoswine
p1256
VMamoswine
p1257
sVwiseglasses
p1258
VWise Glasses
p1259
sVmilkdrink
p1260
VMilk Drink
p1261
sVpowerwhip
p1262
VPower Whip
p1263
sVancientpower
p1264
VAncient Power
p1265
sVblissey
p1266
VBlissey
p1267
sVcryogonal
p1268
VCryogonal
p1269
sVsupersonic
p1270
VSupersonic
p1271
sVdelibird
p1272
VDelibird
p1273
sVmalamar
p1274
VMalamar
p1275
sVshinx
p1276
VShinx
p1277
sVlitwick
p1278
VLitwick
p1279
sVslowbronite
p1280
VSlowbronite
p1281
sVthunderpunch
p1282
VThunder Punch
p1283
sVlugia
p1284
VLugia
p1285
sVbulletseed
p1286
VBullet Seed
p1287
sVbubblebeam
p1288
VBubble Beam
p1289
sVpachirisu
p1290
VPachirisu
p1291
sVarcanine
p1292
VArcanine
p1293
sVsneasel
p1294
VSneasel
p1295
sVgrassknot
p1296
VGrass Knot
p1297
sVklutz
p1298
VKlutz
p1299
sVbulldoze
p1300
VBulldoze
p1301
sVfocusenergy
p1302
VFocus Energy
p1303
sVprimordialsea
p1304
VPrimordial Sea
p1305
sVkabuto
p1306
VKabuto
p1307
sVmail
p1308
VMail
p1309
sVfuryswipes
p1310
VFury Swipes
p1311
sS'lonely'
p1312
S'Lonely'
p1313
sVfling
p1314
VFling
p1315
sVrattled
p1316
VRattled
p1317
sVinsomnia
p1318
VInsomnia
p1319
sVfusionflare
p1320
VFusion Flare
p1321
sVsafariball
p1322
VSafari Ball
p1323
sVeffectspore
p1324
VEffect Spore
p1325
sVboomburst
p1326
VBoomburst
p1327
sVlinoone
p1328
VLinoone
p1329
sValtariamega
p1330
VAltaria-Mega
p1331
sVsynchronize
p1332
VSynchronize
p1333
sVmantine
p1334
VMantine
p1335
sVglalie
p1336
VGlalie
p1337
sVpsyduck
p1338
VPsyduck
p1339
sVmentalherb
p1340
VMental Herb
p1341
sVswalot
p1342
VSwalot
p1343
sVgenesectburn
p1344
VGenesect-Burn
p1345
sVporygonz
p1346
VPorygon-Z
p1347
sVstrugglebug
p1348
VStruggle Bug
p1349
sVpersian
p1350
VPersian
p1351
sVshaymin
p1352
VShaymin
p1353
sVpidove
p1354
VPidove
p1355
sVskillswap
p1356
VSkill Swap
p1357
sVassurance
p1358
VAssurance
p1359
sVpoochyena
p1360
VPoochyena
p1361
sVporygon2
p1362
VPorygon2
p1363
sVtoxicroak
p1364
VToxicroak
p1365
sVsteelwing
p1366
VSteel Wing
p1367
sVunown
p1368
VUnown
p1369
sVpoliwhirl
p1370
VPoliwhirl
p1371
sVpetilil
p1372
VPetilil
p1373
sVtelepathy
p1374
VTelepathy
p1375
sVnidorino
p1376
VNidorino
p1377
sVmeloettapirouette
p1378
VMeloetta-Pirouette
p1379
sVnidorina
p1380
VNidorina
p1381
sVhypnosis
p1382
VHypnosis
p1383
sVdurinberry
p1384
VDurin Berry
p1385
sVdragonrage
p1386
VDragon Rage
p1387
sVjolteon
p1388
VJolteon
p1389
sVdefensecurl
p1390
VDefense Curl
p1391
sVchikorita
p1392
VChikorita
p1393
sVrockyhelmet
p1394
VRocky Helmet
p1395
sVwatergem
p1396
VWater Gem
p1397
sVjabocaberry
p1398
VJaboca Berry
p1399
sVhoppip
p1400
VHoppip
p1401
sViceshard
p1402
VIce Shard
p1403
sVgiratina
p1404
VGiratina
p1405
sVteravolt
p1406
VTeravolt
p1407
sVbite
p1408
VBite
p1409
sVduosion
p1410
VDuosion
p1411
sVaromatherapy
p1412
VAromatherapy
p1413
sVsleeptalk
p1414
VSleep Talk
p1415
sVconfuseray
p1416
VConfuse Ray
p1417
sVfilter
p1418
VFilter
p1419
sVgliscor
p1420
VGliscor
p1421
sVseedot
p1422
VSeedot
p1423
sVsnatch
p1424
VSnatch
p1425
sVslakoth
p1426
VSlakoth
p1427
sVbunnelby
p1428
VBunnelby
p1429
sVdrapion
p1430
VDrapion
p1431
sVpeck
p1432
VPeck
p1433
sVchespin
p1434
VChespin
p1435
sVwormadamtrash
p1436
VWormadam-Trash
p1437
sVearthplate
p1438
VEarth Plate
p1439
sVgarbodor
p1440
VGarbodor
p1441
sVtrickortreat
p1442
VTrick-or-Treat
p1443
sVcubone
p1444
VCubone
p1445
sVrazzberry
p1446
VRazz Berry
p1447
sVlick
p1448
VLick
p1449
sVslam
p1450
VSlam
p1451
sVsandstream
p1452
VSand Stream
p1453
sVledyba
p1454
VLedyba
p1455
sVaquatail
p1456
VAqua Tail
p1457
sVkrilowatt
p1458
VKrilowatt
p1459
sVrecover
p1460
VRecover
p1461
sVconversion
p1462
VConversion
p1463
sVelectrode
p1464
VElectrode
p1465
sVreckless
p1466
VReckless
p1467
sVmetalsound
p1468
VMetal Sound
p1469
sVarghonaut
p1470
VArghonaut
p1471
sVbeedrill
p1472
VBeedrill
p1473
sVsurf
p1474
VSurf
p1475
sVgriseousorb
p1476
VGriseous Orb
p1477
sVmountaineer
p1478
VMountaineer
p1479
sVstunky
p1480
VStunky
p1481
sVtrace
p1482
VTrace
p1483
sVquagsire
p1484
VQuagsire
p1485
sVgeargrind
p1486
VGear Grind
p1487
sVdarkrai
p1488
VDarkrai
p1489
sVbarrage
p1490
VBarrage
p1491
sVbonemerang
p1492
VBonemerang
p1493
sVstunfisk
p1494
VStunfisk
p1495
sVadaptability
p1496
VAdaptability
p1497
sVespurr
p1498
VEspurr
p1499
sVleaftornado
p1500
VLeaf Tornado
p1501
sVhyperfang
p1502
VHyper Fang
p1503
sVdracoplate
p1504
VDraco Plate
p1505
sVhyperspacefury
p1506
VHyperspace Fury
p1507
sVelectirizer
p1508
VElectirizer
p1509
sVmollux
p1510
VMollux
p1511
sVmuddywater
p1512
VMuddy Water
p1513
sVlifeorb
p1514
VLife Orb
p1515
sVdelphox
p1516
VDelphox
p1517
sVtintedlens
p1518
VTinted Lens
p1519
sVgolurk
p1520
VGolurk
p1521
sVfigyberry
p1522
VFigy Berry
p1523
sVgoodra
p1524
VGoodra
p1525
sVrevenankh
p1526
VRevenankh
p1527
sVvolbeat
p1528
VVolbeat
p1529
sVburndrive
p1530
VBurn Drive
p1531
sVpartingshot
p1532
VParting Shot
p1533
sVpatrat
p1534
VPatrat
p1535
sVacupressure
p1536
VAcupressure
p1537
sVanalytic
p1538
VAnalytic
p1539
sVprobopass
p1540
VProbopass
p1541
sVoutrage
p1542
VOutrage
p1543
sVleavanny
p1544
VLeavanny
p1545
sVkinesis
p1546
VKinesis
p1547
sVweaknesspolicy
p1548
VWeakness Policy
p1549
sVstomp
p1550
VStomp
p1551
sVboneclub
p1552
VBone Club
p1553
sVtelekinesis
p1554
VTelekinesis
p1555
sVmoxie
p1556
VMoxie
p1557
sVcelebrate
p1558
VCelebrate
p1559
sVshuppet
p1560
VShuppet
p1561
sVparkball
p1562
VPark Ball
p1563
sVlatiasite
p1564
VLatiasite
p1565
sVspewpa
p1566
VSpewpa
p1567
sVwonderskin
p1568
VWonder Skin
p1569
sVimposter
p1570
VImposter
p1571
sVspore
p1572
VSpore
p1573
sVforesight
p1574
VForesight
p1575
sVdetect
p1576
VDetect
p1577
sVsteadfast
p1578
VSteadfast
p1579
sVlimber
p1580
VLimber
p1581
sVbatonpass
p1582
VBaton Pass
p1583
sVforecast
p1584
VForecast
p1585
sVwhiscash
p1586
VWhiscash
p1587
sVsnowwarning
p1588
VSnow Warning
p1589
sVjustified
p1590
VJustified
p1591
sVdamprock
p1592
VDamp Rock
p1593
sVhariyama
p1594
VHariyama
p1595
sVcrawdaunt
p1596
VCrawdaunt
p1597
sVpluck
p1598
VPluck
p1599
sVfuryattack
p1600
VFury Attack
p1601
sVroseincense
p1602
VRose Incense
p1603
sVspiderweb
p1604
VSpider Web
p1605
sVvictreebel
p1606
VVictreebel
p1607
sVdestinyknot
p1608
VDestiny Knot
p1609
sVluminousmoss
p1610
VLuminous Moss
p1611
sVrhyhorn
p1612
VRhyhorn
p1613
sVsteelix
p1614
VSteelix
p1615
sVnestball
p1616
VNest Ball
p1617
sVkrookodile
p1618
VKrookodile
p1619
sVcellbattery
p1620
VCell Battery
p1621
sVwingattack
p1622
VWing Attack
p1623
sVnomelberry
p1624
VNomel Berry
p1625
sVnormalgem
p1626
VNormal Gem
p1627
sVtyranitarite
p1628
VTyranitarite
p1629
sVdodrio
p1630
VDodrio
p1631
sVstancechange
p1632
VStance Change
p1633
sVzapdos
p1634
VZapdos
p1635
sVendeavor
p1636
VEndeavor
p1637
sVechoedvoice
p1638
VEchoed Voice
p1639
sVrunaway
p1640
VRun Away
p1641
sVlandswrath
p1642
VLand's Wrath
p1643
sVmawilemega
p1644
VMawile-Mega
p1645
sVlightmetal
p1646
VLight Metal
p1647
sVstunspore
p1648
VStun Spore
p1649
sVxerneas
p1650
VXerneas
p1651
sVchopleberry
p1652
VChople Berry
p1653
sVhighjumpkick
p1654
VHigh Jump Kick
p1655
sVheatrock
p1656
VHeat Rock
p1657
sVlopunnymega
p1658
VLopunny-Mega
p1659
sVflamebody
p1660
VFlame Body
p1661
sVhelioptile
p1662
VHelioptile
p1663
sVcresselia
p1664
VCresselia
p1665
sVomanyte
p1666
VOmanyte
p1667
sVbreloom
p1668
VBreloom
p1669
sVstormthrow
p1670
VStorm Throw
p1671
sVhealblock
p1672
VHeal Block
p1673
sVswanna
p1674
VSwanna
p1675
sVskiddo
p1676
VSkiddo
p1677
sS'careful'
p1678
S'Careful'
p1679
sVmudshot
p1680
VMud Shot
p1681
sVdefeatist
p1682
VDefeatist
p1683
sVtrick
p1684
VTrick
p1685
sVlandorus
p1686
VLandorus
p1687
sVgroudon
p1688
VGroudon
p1689
sS'quiet'
p1690
S'Quiet'
p1691
sVgrasswhistle
p1692
VGrass Whistle
p1693
sVshadowclaw
p1694
VShadow Claw
p1695
sVsacredfire
p1696
VSacred Fire
p1697
sVmonferno
p1698
VMonferno
p1699
sVvicegrip
p1700
VVice Grip
p1701
sVgourgeistlarge
p1702
VGourgeist-Large
p1703
sVcubchoo
p1704
VCubchoo
p1705
sVextremespeed
p1706
VExtreme Speed
p1707
sVangerpoint
p1708
VAnger Point
p1709
sVphantomforce
p1710
VPhantom Force
p1711
sVstrongjaw
p1712
VStrong Jaw
p1713
sVnuzzle
p1714
VNuzzle
p1715
sVthunderbolt
p1716
VThunderbolt
p1717
sVgenesectshock
p1718
VGenesect-Shock
p1719
sVmagnetbomb
p1720
VMagnet Bomb
p1721
sVassist
p1722
VAssist
p1723
sVblaziken
p1724
VBlaziken
p1725
sVbulletproof
p1726
VBulletproof
p1727
sVsteelgem
p1728
VSteel Gem
p1729
sVpangoro
p1730
VPangoro
p1731
sVhypervoice
p1732
VHyper Voice
p1733
sVminimize
p1734
VMinimize
p1735
sVdoublehit
p1736
VDouble Hit
p1737
sVmedicham
p1738
VMedicham
p1739
sVsolarbeam
p1740
VSolar Beam
p1741
sVrockgem
p1742
VRock Gem
p1743
sVspark
p1744
VSpark
p1745
sVrazorwind
p1746
VRazor Wind
p1747
sVfurcoat
p1748
VFur Coat
p1749
sVhealingwish
p1750
VHealing Wish
p1751
sVquickguard
p1752
VQuick Guard
p1753
sVwingull
p1754
VWingull
p1755
sVrest
p1756
VRest
p1757
sVfurfrou
p1758
VFurfrou
p1759
sVdarkaura
p1760
VDark Aura
p1761
sVrazorclaw
p1762
VRazor Claw
p1763
sVdragonbreath
p1764
VDragon Breath
p1765
sVelgyem
p1766
VElgyem
p1767
sVduskull
p1768
VDuskull
p1769
sVcometpunch
p1770
VComet Punch
p1771
sVaerialace
p1772
VAerial Ace
p1773
sVparas
p1774
VParas
p1775
sVrayquazamega
p1776
VRayquaza-Mega
p1777
sVflareblitz
p1778
VFlare Blitz
p1779
sVtrubbish
p1780
VTrubbish
p1781
sVsnarl
p1782
VSnarl
p1783
sVmachpunch
p1784
VMach Punch
p1785
sVvolkraken
p1786
VVolkraken
p1787
sVsunkern
p1788
VSunkern
p1789
sVcolossoil
p1790
VColossoil
p1791
sVdreamball
p1792
VDream Ball
p1793
sVsnore
p1794
VSnore
p1795
sVfloatstone
p1796
VFloat Stone
p1797
sVskiploom
p1798
VSkiploom
p1799
sVregigigas
p1800
VRegigigas
p1801
sVvoltswitch
p1802
VVolt Switch
p1803
sVarceusrock
p1804
VArceus-Rock
p1805
sVbrightpowder
p1806
VBrightPowder
p1807
sVhypercutter
p1808
VHyper Cutter
p1809
sVvanillite
p1810
VVanillite
p1811
sVchoiceband
p1812
VChoice Band
p1813
sVheartswap
p1814
VHeart Swap
p1815
sVpinapberry
p1816
VPinap Berry
p1817
sVminccino
p1818
VMinccino
p1819
sVbellsprout
p1820
VBellsprout
p1821
sVprinplup
p1822
VPrinplup
p1823
sVaudinomega
p1824
VAudino-Mega
p1825
sVmachoke
p1826
VMachoke
p1827
sVultraball
p1828
VUltra Ball
p1829
sVcrustle
p1830
VCrustle
p1831
sVpowergem
p1832
VPower Gem
p1833
sViceburn
p1834
VIce Burn
p1835
sVbattlearmor
p1836
VBattle Armor
p1837
sVvolcanion
p1838
VVolcanion
p1839
sVcastformsnowy
p1840
VCastform-Snowy
p1841
sVhustle
p1842
VHustle
p1843
sVthroh
p1844
VThroh
p1845
sVmusharna
p1846
VMusharna
p1847
sVinnerfocus
p1848
VInner Focus
p1849
sVbasculinbluestriped
p1850
VBasculin-Blue-Striped
p1851
sVpumpkaboolarge
p1852
VPumpkaboo-Large
p1853
sVzapcannon
p1854
VZap Cannon
p1855
sVroar
p1856
VRoar
p1857
sVlockon
p1858
VLock-On
p1859
sVfloette
p1860
VFloette
p1861
sVgengar
p1862
VGengar
p1863
sVroserade
p1864
VRoserade
p1865
sVgolem
p1866
VGolem
p1867
sVquilava
p1868
VQuilava
p1869
sVcustapberry
p1870
VCustap Berry
p1871
sVsearingshot
p1872
VSearing Shot
p1873
sVstratagem
p1874
VStratagem
p1875
sVpyroar
p1876
VPyroar
p1877
sVshadowpunch
p1878
VShadow Punch
p1879
sVfocuspunch
p1880
VFocus Punch
p1881
sVtoughclaws
p1882
VTough Claws
p1883
sVstruggle
p1884
VStruggle
p1885
sViciclespear
p1886
VIcicle Spear
p1887
sVpyroak
p1888
VPyroak
p1889
sVgigalith
p1890
VGigalith
p1891
sVsacredsword
p1892
VSacred Sword
p1893
sVhex
p1894
VHex
p1895
sVmarill
p1896
VMarill
p1897
sVsymbiosis
p1898
VSymbiosis
p1899
sVhoopaunbound
p1900
VHoopa-Unbound
p1901
sVwillowisp
p1902
VWill-O-Wisp
p1903
sVbubble
p1904
VBubble
p1905
sVfastball
p1906
VFast Ball
p1907
sVglaciate
p1908
VGlaciate
p1909
sVnightshade
p1910
VNight Shade
p1911
sVfrogadier
p1912
VFrogadier
p1913
sVporygon
p1914
VPorygon
p1915
sVgripclaw
p1916
VGrip Claw
p1917
sVvitalspirit
p1918
VVital Spirit
p1919
sVsolosis
p1920
VSolosis
p1921
sVrage
p1922
VRage
p1923
sVvictorystar
p1924
VVictory Star
p1925
sVvinewhip
p1926
VVine Whip
p1927
sVstoneplate
p1928
VStone Plate
p1929
sVember
p1930
VEmber
p1931
sVsplashplate
p1932
VSplash Plate
p1933
sVpowdersnow
p1934
VPowder Snow
p1935
sVclamperl
p1936
VClamperl
p1937
sVchesnaught
p1938
VChesnaught
p1939
sVgrepaberry
p1940
VGrepa Berry
p1941
sVsmokescreen
p1942
VSmokescreen
p1943
sVmoonblast
p1944
VMoonblast
p1945
sVcolburberry
p1946
VColbur Berry
p1947
sVflareboost
p1948
VFlare Boost
p1949
sVhorndrill
p1950
VHorn Drill
p1951
sVaegislash
p1952
VAegislash
p1953
sVimmunity
p1954
VImmunity
p1955
sVtangela
p1956
VTangela
p1957
sVcharizard
p1958
VCharizard
p1959
sVnincada
p1960
VNincada
p1961
sVaccelgor
p1962
VAccelgor
p1963
sVmirrorcoat
p1964
VMirror Coat
p1965
sVemboar
p1966
VEmboar
p1967
sVdustox
p1968
VDustox
p1969
sVrootfossil
p1970
VRoot Fossil
p1971
sVtackle
p1972
VTackle
p1973
sVrotomwash
p1974
VRotom-Wash
p1975
sVgrudge
p1976
VGrudge
p1977
sVcyndaquil
p1978
VCyndaquil
p1979
sVblueflare
p1980
VBlue Flare
p1981
sVdefog
p1982
VDefog
p1983
sVskyattack
p1984
VSky Attack
p1985
sVmoonlight
p1986
VMoonlight
p1987
sVmimic
p1988
VMimic
p1989
sVstockpile
p1990
VStockpile
p1991
sVoddincense
p1992
VOdd Incense
p1993
sVmeloetta
p1994
VMeloetta
p1995
sVgardevoirmega
p1996
VGardevoir-Mega
p1997
sVlairon
p1998
VLairon
p1999
sVeerieimpulse
p2000
VEerie Impulse
p2001
sVscrappy
p2002
VScrappy
p2003
sVtogetic
p2004
VTogetic
p2005
sVfirepunch
p2006
VFire Punch
p2007
sVunfezant
p2008
VUnfezant
p2009
sVmicleberry
p2010
VMicle Berry
p2011
sS'jolly'
p2012
S'Jolly'
p2013
sVlightningrod
p2014
VLightning Rod
p2015
sVgigadrain
p2016
VGiga Drain
p2017
sVsilverpowder
p2018
VSilverPowder
p2019
sVvanillish
p2020
VVanillish
p2021
sVvenomdrench
p2022
VVenom Drench
p2023
sVbayleef
p2024
VBayleef
p2025
sVhondewberry
p2026
VHondew Berry
p2027
sVtympole
p2028
VTympole
p2029
sVwigglytuff
p2030
VWigglytuff
p2031
sVtyranitarmega
p2032
VTyranitar-Mega
p2033
sVicepunch
p2034
VIce Punch
p2035
sVgalvantula
p2036
VGalvantula
p2037
sVcombusken
p2038
VCombusken
p2039
sVcloudnine
p2040
VCloud Nine
p2041
sVmienshao
p2042
VMienshao
p2043
sVkeeberry
p2044
VKee Berry
p2045
sVsteameruption
p2046
VSteam Eruption
p2047
sS'mild'
p2048
S'Mild'
p2049
sVscrafty
p2050
VScrafty
p2051
sVsecretpower
p2052
VSecret Power
p2053
sVshadowtag
p2054
VShadow Tag
p2055
sVpidgeotmega
p2056
VPidgeot-Mega
p2057
sVdoublekick
p2058
VDouble Kick
p2059
sViceball
p2060
VIce Ball
p2061
sVflorges
p2062
VFlorges
p2063
sVgourgeistsuper
p2064
VGourgeist-Super
p2065
sVironbarbs
p2066
VIron Barbs
p2067
sValtaria
p2068
VAltaria
p2069
sVcrushgrip
p2070
VCrush Grip
p2071
sVseedbomb
p2072
VSeed Bomb
p2073
sVmeganium
p2074
VMeganium
p2075
sVchipaway
p2076
VChip Away
p2077
sVmetalclaw
p2078
VMetal Claw
p2079
sVfeatherdance
p2080
VFeather Dance
p2081
sVshockwave
p2082
VShock Wave
p2083
sVironplate
p2084
VIron Plate
p2085
sVgreatball
p2086
VGreat Ball
p2087
sVfellstinger
p2088
VFell Stinger
p2089
sVaurorabeam
p2090
VAurora Beam
p2091
sVheartstamp
p2092
VHeart Stamp
p2093
sVboldore
p2094
VBoldore
p2095
sVcombee
p2096
VCombee
p2097
sVdragonfang
p2098
VDragon Fang
p2099
sVgastly
p2100
VGastly
p2101
sVclearsmog
p2102
VClear Smog
p2103
sVanticipation
p2104
VAnticipation
p2105
sVinfernape
p2106
VInfernape
p2107
sVpanpour
p2108
VPanpour
p2109
sVaromatisse
p2110
VAromatisse
p2111
sVkyuremwhite
p2112
VKyurem-White
p2113
sVacidspray
p2114
VAcid Spray
p2115
sVcursedbody
p2116
VCursed Body
p2117
sVkyurem
p2118
VKyurem
p2119
sVwringout
p2120
VWring Out
p2121
sVstarly
p2122
VStarly
p2123
sVhawlucha
p2124
VHawlucha
p2125
sVgolett
p2126
VGolett
p2127
sVgyaradosmega
p2128
VGyarados-Mega
p2129
sVgallade
p2130
VGallade
p2131
sVledian
p2132
VLedian
p2133
sVluvdisc
p2134
VLuvdisc
p2135
sVhelixfossil
p2136
VHelix Fossil
p2137
sVsplash
p2138
VSplash
p2139
sVillumise
p2140
VIllumise
p2141
sVgirafarig
p2142
VGirafarig
p2143
sVanorith
p2144
VAnorith
p2145
sVdizzypunch
p2146
VDizzy Punch
p2147
sVflyingpress
p2148
VFlying Press
p2149
sVpumpkaboosuper
p2150
VPumpkaboo-Super
p2151
sVhorsea
p2152
VHorsea
p2153
sVstick
p2154
VStick
p2155
sVrazorfang
p2156
VRazor Fang
p2157
sVchilanberry
p2158
VChilan Berry
p2159
sVturboblaze
p2160
VTurboblaze
p2161
sVaegislashblade
p2162
VAegislash-Blade
p2163
sVnaturalgift
p2164
VNatural Gift
p2165
sVenergypowder
p2166
VEnergyPowder
p2167
sVchartiberry
p2168
VCharti Berry
p2169
sVlumberry
p2170
VLum Berry
p2171
sVvoltorb
p2172
VVoltorb
p2173
sVregice
p2174
VRegice
p2175
sVskyplate
p2176
VSky Plate
p2177
sVsableye
p2178
VSableye
p2179
sVseviper
p2180
VSeviper
p2181
sVmarvelscale
p2182
VMarvel Scale
p2183
sVaurumoth
p2184
VAurumoth
p2185
sVflowerveil
p2186
VFlower Veil
p2187
sVstaryu
p2188
VStaryu
p2189
sVwikiberry
p2190
VWiki Berry
p2191
sVwobbuffet
p2192
VWobbuffet
p2193
sVteleport
p2194
VTeleport
p2195
sVshelmet
p2196
VShelmet
p2197
sVglalitite
p2198
VGlalitite
p2199
sVflyinggem
p2200
VFlying Gem
p2201
sVbulkup
p2202
VBulk Up
p2203
sVglaceon
p2204
VGlaceon
p2205
sVwonderguard
p2206
VWonder Guard
p2207
sVelectricgem
p2208
VElectric Gem
p2209
sVrotomfan
p2210
VRotom-Fan
p2211
sVsignalbeam
p2212
VSignal Beam
p2213
sVshuckle
p2214
VShuckle
p2215
sVreflect
p2216
VReflect
p2217
sVdisable
p2218
VDisable
p2219
sVliquidooze
p2220
VLiquid Ooze
p2221
sVmistyterrain
p2222
VMisty Terrain
p2223
sVfairygem
p2224
VFairy Gem
p2225
sVmedichammega
p2226
VMedicham-Mega
p2227
sVtoxicplate
p2228
VToxic Plate
p2229
sVlanturn
p2230
VLanturn
p2231
sVpineco
p2232
VPineco
p2233
sVretaliate
p2234
VRetaliate
p2235
sVphantump
p2236
VPhantump
p2237
sVcorphish
p2238
VCorphish
p2239
sVbastiodon
p2240
VBastiodon
p2241
sVwatmelberry
p2242
VWatmel Berry
p2243
sVarticuno
p2244
VArticuno
p2245
sVfissure
p2246
VFissure
p2247
sVvolcarona
p2248
VVolcarona
p2249
sVblackglasses
p2250
VBlack Glasses
p2251
sVplayrough
p2252
VPlay Rough
p2253
sVhealorder
p2254
VHeal Order
p2255
sVjigglypuff
p2256
VJigglypuff
p2257
sVsandslash
p2258
VSandslash
p2259
sVastonish
p2260
VAstonish
p2261
sVenergyball
p2262
VEnergy Ball
p2263
sVaggron
p2264
VAggron
p2265
sVlampent
p2266
VLampent
p2267
sVfistplate
p2268
VFist Plate
p2269
sVreturn
p2270
VReturn
p2271
sVmanectricmega
p2272
VManectric-Mega
p2273
sVsnowball
p2274
VSnowball
p2275
sVmrmime
p2276
VMr. Mime
p2277
sVcharizardmegax
p2278
VCharizard-Mega-X
p2279
sVcharizardmegay
p2280
VCharizard-Mega-Y
p2281
sVclefable
p2282
VClefable
p2283
sVskuntank
p2284
VSkuntank
p2285
sVprimeape
p2286
VPrimeape
p2287
sVgabite
p2288
VGabite
p2289
sVmissingno
p2290
VMissingno.
p2291
sVrefresh
p2292
VRefresh
p2293
sVspoink
p2294
VSpoink
p2295
sVlovelykiss
p2296
VLovely Kiss
p2297
sVmeanlook
p2298
VMean Look
p2299
sVclamp
p2300
VClamp
p2301
sVtopsyturvy
p2302
VTopsy-Turvy
p2303
sVquickfeet
p2304
VQuick Feet
p2305
sVwatershuriken
p2306
VWater Shuriken
p2307
sVraichu
p2308
VRaichu
p2309
sVmagnezone
p2310
VMagnezone
p2311
sVtrickroom
p2312
VTrick Room
p2313
sVmist
p2314
VMist
p2315
sVelectroweb
p2316
VElectroweb
p2317
sVkangaskhanmega
p2318
VKangaskhan-Mega
p2319
sVsalamence
p2320
VSalamence
p2321
sVarceuswater
p2322
VArceus-Water
p2323
sVarceusice
p2324
VArceus-Ice
p2325
sVsuperfang
p2326
VSuper Fang
p2327
sVchoicescarf
p2328
VChoice Scarf
p2329
sVroggenrola
p2330
VRoggenrola
p2331
sVflashcannon
p2332
VFlash Cannon
p2333
sVironhead
p2334
VIron Head
p2335
sVsentret
p2336
VSentret
p2337
sVpichuspikyeared
p2338
VPichu-Spiky-eared
p2339
sVtyrogue
p2340
VTyrogue
p2341
sVcleffa
p2342
VCleffa
p2343
sVwaterabsorb
p2344
VWater Absorb
p2345
sVtoxicboost
p2346
VToxic Boost
p2347
sVninetales
p2348
VNinetales
p2349
sVnidoranf
p2350
VNidoran-F
p2351
sVcottonspore
p2352
VCotton Spore
p2353
sVnidoranm
p2354
VNidoran-M
p2355
sVparaboliccharge
p2356
VParabolic Charge
p2357
sVscopelens
p2358
VScope Lens
p2359
sVhydreigon
p2360
VHydreigon
p2361
sVrockpolish
p2362
VRock Polish
p2363
sVmightyena
p2364
VMightyena
p2365
sVabomasnowmega
p2366
VAbomasnow-Mega
p2367
sVmanaphy
p2368
VManaphy
p2369
sS'brave'
p2370
S'Brave'
p2371
sVstoredpower
p2372
VStored Power
p2373
sVapicotberry
p2374
VApicot Berry
p2375
sVpetaldance
p2376
VPetal Dance
p2377
sVmeowstic
p2378
VMeowstic
p2379
sVboltstrike
p2380
VBolt Strike
p2381
sVraikou
p2382
VRaikou
p2383
sVswarm
p2384
VSwarm
p2385
sVbibarel
p2386
VBibarel
p2387
sVdazzlinggleam
p2388
VDazzling Gleam
p2389
sVlandorustherian
p2390
VLandorus-Therian
p2391
sVshedinja
p2392
VShedinja
p2393
sVbabiriberry
p2394
VBabiri Berry
p2395
sVsuckerpunch
p2396
VSucker Punch
p2397
sVdragonascent
p2398
VDragon Ascent
p2399
sVfreezeshock
p2400
VFreeze Shock
p2401
sVpsywave
p2402
VPsywave
p2403
sVdrillrun
p2404
VDrill Run
p2405
sVwhiteherb
p2406
VWhite Herb
p2407
sVringtarget
p2408
VRing Target
p2409
sVvenipede
p2410
VVenipede
p2411
sVdarkpulse
p2412
VDark Pulse
p2413
sVyamask
p2414
VYamask
p2415
sVstall
p2416
VStall
p2417
sVsharpedonite
p2418
VSharpedonite
p2419
sVklinklang
p2420
VKlinklang
p2421
sVdoubleedge
p2422
VDouble-Edge
p2423
sVremoraid
p2424
VRemoraid
p2425
sVclefairy
p2426
VClefairy
p2427
sVklink
p2428
VKlink
p2429
sVclearbody
p2430
VClear Body
p2431
sVfirespin
p2432
VFire Spin
p2433
sVgenesectchill
p2434
VGenesect-Chill
p2435
sVsuicune
p2436
VSuicune
p2437
sVthundurustherian
p2438
VThundurus-Therian
p2439
sVpamtreberry
p2440
VPamtre Berry
p2441
sVmegahorn
p2442
VMegahorn
p2443
sVslowbromega
p2444
VSlowbro-Mega
p2445
sVsunflora
p2446
VSunflora
p2447
sVgourgeist
p2448
VGourgeist
p2449
sVbarbaracle
p2450
VBarbaracle
p2451
sVairballoon
p2452
VAir Balloon
p2453
sVswirlix
p2454
VSwirlix
p2455
sVlitleo
p2456
VLitleo
p2457
sVcamouflage
p2458
VCamouflage
p2459
sVfrillish
p2460
VFrillish
p2461
sVroselia
p2462
VRoselia
p2463
sVkangaskhan
p2464
VKangaskhan
p2465
sVregirock
p2466
VRegirock
p2467
sVpansage
p2468
VPansage
p2469
sVswitcheroo
p2470
VSwitcheroo
p2471
sValakazammega
p2472
VAlakazam-Mega
p2473
sVsoundproof
p2474
VSoundproof
p2475
sVeruption
p2476
VEruption
p2477
sVyawn
p2478
VYawn
p2479
sVcharm
p2480
VCharm
p2481
sVdiglett
p2482
VDiglett
p2483
sVbeldum
p2484
VBeldum
p2485
sVhabanberry
p2486
VHaban Berry
p2487
sVcrosspoison
p2488
VCross Poison
p2489
sVcarvanha
p2490
VCarvanha
p2491
sVrefrigerate
p2492
VRefrigerate
p2493
sVlowsweep
p2494
VLow Sweep
p2495
sVsturdy
p2496
VSturdy
p2497
sVcovet
p2498
VCovet
p2499
sS'lax'
p2500
S'Lax'
p2501
sVgenesectdouse
p2502
VGenesect-Douse
p2503
sVkaratechop
p2504
VKarate Chop
p2505
sVworryseed
p2506
VWorry Seed
p2507
sVazumarill
p2508
VAzumarill
p2509
sVmetalburst
p2510
VMetal Burst
p2511
sVherdier
p2512
VHerdier
p2513
sVguardsplit
p2514
VGuard Split
p2515
sVnanabberry
p2516
VNanab Berry
p2517
sVzoomlens
p2518
VZoom Lens
p2519
sVblackbelt
p2520
VBlack Belt
p2521
sVhammerarm
p2522
VHammer Arm
p2523
sVmagmaarmor
p2524
VMagma Armor
p2525
sVpayday
p2526
VPay Day
p2527
sVgooey
p2528
VGooey
p2529
sVoblivionwing
p2530
VOblivion Wing
p2531
sVtyrantrum
p2532
VTyrantrum
p2533
sVhealpulse
p2534
VHeal Pulse
p2535
sVmagikarp
p2536
VMagikarp
p2537
sVpawniard
p2538
VPawniard
p2539
sVpoisontail
p2540
VPoison Tail
p2541
sVhitmonchan
p2542
VHitmonchan
p2543
sS'docile'
p2544
S'Docile'
p2545
sVfireblast
p2546
VFire Blast
p2547
sVshroomish
p2548
VShroomish
p2549
sVwhismur
p2550
VWhismur
p2551
sVspikes
p2552
VSpikes
p2553
sVshadowstrike
p2554
VShadow Strike
p2555
sVheatcrash
p2556
VHeat Crash
p2557
sVskorupi
p2558
VSkorupi
p2559
sVgengarite
p2560
VGengarite
p2561
sVblitzle
p2562
VBlitzle
p2563
sVlustrousorb
p2564
VLustrous Orb
p2565
sVtamatoberry
p2566
VTamato Berry
p2567
sVblazikenite
p2568
VBlazikenite
p2569
sVfarfetchd
p2570
VFarfetch'd
p2571
sVinkay
p2572
VInkay
p2573
sVpickup
p2574
VPickup
p2575
sVcontrary
p2576
VContrary
p2577
sVarceusdark
p2578
VArceus-Dark
p2579
sVmarowak
p2580
VMarowak
p2581
sVmachobrace
p2582
VMacho Brace
p2583
sVelekid
p2584
VElekid
p2585
sVmagmortar
p2586
VMagmortar
p2587
sVchansey
p2588
VChansey
p2589
sVroaroftime
p2590
VRoar of Time
p2591
sVwildcharge
p2592
VWild Charge
p2593
sVrattata
p2594
VRattata
p2595
sVhoundoommega
p2596
VHoundoom-Mega
p2597
sVclaydol
p2598
VClaydol
p2599
sVrelicanth
p2600
VRelicanth
p2601
sVtorchic
p2602
VTorchic
p2603
sVlapras
p2604
VLapras
p2605
sVmankey
p2606
VMankey
p2607
sVprankster
p2608
VPrankster
p2609
sVshayminsky
p2610
VShaymin-Sky
p2611
sVsludgebomb
p2612
VSludge Bomb
p2613
sVsandile
p2614
VSandile
p2615
sVtyphlosion
p2616
VTyphlosion
p2617
sVsimple
p2618
VSimple
p2619
sVdrillpeck
p2620
VDrill Peck
p2621
sVicebody
p2622
VIce Body
p2623
sVfearow
p2624
VFearow
p2625
sVxscissor
p2626
VX-Scissor
p2627
sVbellossom
p2628
VBellossom
p2629
sVquiverdance
p2630
VQuiver Dance
p2631
sVblastoisinite
p2632
VBlastoisinite
p2633
sVmegapunch
p2634
VMega Punch
p2635
sVdamp
p2636
VDamp
p2637
sVskitty
p2638
VSkitty
p2639
sVmienfoo
p2640
VMienfoo
p2641
sVliepard
p2642
VLiepard
p2643
sVamnesia
p2644
VAmnesia
p2645
sVdestinybond
p2646
VDestiny Bond
p2647
sVcastform
p2648
VCastform
p2649
sVdruddigon
p2650
VDruddigon
p2651
sVtaillow
p2652
VTaillow
p2653
sS'bashful'
p2654
S'Bashful'
p2655
sVdragontail
p2656
VDragon Tail
p2657
sVswellow
p2658
VSwellow
p2659
sVstringshot
p2660
VString Shot
p2661
sValomomola
p2662
VAlomomola
p2663
sVwatergun
p2664
VWater Gun
p2665
sVvcreate
p2666
VV-create
p2667
sVejectbutton
p2668
VEject Button
p2669
sVdrainingkiss
p2670
VDraining Kiss
p2671
sVbasculin
p2672
VBasculin
p2673
sVescavalier
p2674
VEscavalier
p2675
sVpsychoshift
p2676
VPsycho Shift
p2677
sVbisharp
p2678
VBisharp
p2679
sVhoundoom
p2680
VHoundoom
p2681
sVgulpin
p2682
VGulpin
p2683
sVpancham
p2684
VPancham
p2685
sVmantyke
p2686
VMantyke
p2687
sVpound
p2688
VPound
p2689
sVmedichamite
p2690
VMedichamite
p2691
sVrotommow
p2692
VRotom-Mow
p2693
sVdefendorder
p2694
VDefend Order
p2695
sVsurskit
p2696
VSurskit
p2697
sVmegalauncher
p2698
VMega Launcher
p2699
sVicebeam
p2700
VIce Beam
p2701
sVfacade
p2702
VFacade
p2703
sVzubat
p2704
VZubat
p2705
sVmagikarpsrevenge
p2706
VMagikarp's Revenge
p2707
sVingrain
p2708
VIngrain
p2709
sVcottonee
p2710
VCottonee
p2711
sVpikachuphd
p2712
VPikachu-PhD
p2713
sVpoisonjab
p2714
VPoison Jab
p2715
sVcameruptmega
p2716
VCamerupt-Mega
p2717
sVtaunt
p2718
VTaunt
p2719
sVgorebyss
p2720
VGorebyss
p2721
sVgrotle
p2722
VGrotle
p2723
sVpikachu
p2724
VPikachu
p2725
sVrayquaza
p2726
VRayquaza
p2727
sVfroakie
p2728
VFroakie
p2729
sVloveball
p2730
VLove Ball
p2731
sVjumpluff
p2732
VJumpluff
p2733
sS'timid'
p2734
S'Timid'
p2735
sVmismagius
p2736
VMismagius
p2737
sVinfiltrator
p2738
VInfiltrator
p2739
sVpsychup
p2740
VPsych Up
p2741
sVtangrowth
p2742
VTangrowth
p2743
sVfiregem
p2744
VFire Gem
p2745
sVshellder
p2746
VShellder
p2747
sVwithdraw
p2748
VWithdraw
p2749
sVmoonball
p2750
VMoon Ball
p2751
sVpainsplit
p2752
VPain Split
p2753
sVstoneedge
p2754
VStone Edge
p2755
sVhowl
p2756
VHowl
p2757
sVwaterpledge
p2758
VWater Pledge
p2759
sVspearow
p2760
VSpearow
p2761
sVwhirlipede
p2762
VWhirlipede
p2763
sVrockwrecker
p2764
VRock Wrecker
p2765
sVoriginpulse
p2766
VOrigin Pulse
p2767
sVcompetitive
p2768
VCompetitive
p2769
sVzygarde
p2770
VZygarde
p2771
sVsolrock
p2772
VSolrock
p2773
sVthousandarrows
p2774
VThousand Arrows
p2775
sVcut
p2776
VCut
p2777
sVcloyster
p2778
VCloyster
p2779
sVmetapod
p2780
VMetapod
p2781
sVairslash
p2782
VAir Slash
p2783
sVmagiccoat
p2784
VMagic Coat
p2785
sVacrobatics
p2786
VAcrobatics
p2787
sVspheal
p2788
VSpheal
p2789
sVchoicespecs
p2790
VChoice Specs
p2791
sVrebound
p2792
VRebound
p2793
sVlusterpurge
p2794
VLuster Purge
p2795
sVkeldeoresolute
p2796
VKeldeo-Resolute
p2797
sVmoody
p2798
VMoody
p2799
sVglaliemega
p2800
VGlalie-Mega
p2801
sVgothitelle
p2802
VGothitelle
p2803
sVskilllink
p2804
VSkill Link
p2805
sVponyta
p2806
VPonyta
p2807
sVsunnyday
p2808
VSunny Day
p2809
sVsubmission
p2810
VSubmission
p2811
sVstaravia
p2812
VStaravia
p2813
sVtailglow
p2814
VTail Glow
p2815
sVnoibat
p2816
VNoibat
p2817
sVstealthrock
p2818
VStealth Rock
p2819
sVtechnoblast
p2820
VTechno Blast
p2821
sVbaltoy
p2822
VBaltoy
p2823
sVflamewheel
p2824
VFlame Wheel
p2825
sVsketch
p2826
VSketch
p2827
sVbronzor
p2828
VBronzor
p2829
sVbounce
p2830
VBounce
p2831
sVsouldew
p2832
VSoul Dew
p2833
sVgigaimpact
p2834
VGiga Impact
p2835
sVsewaddle
p2836
VSewaddle
p2837
sVscald
p2838
VScald
p2839
sVominouswind
p2840
VOminous Wind
p2841
sVdeepseascale
p2842
VDeepSeaScale
p2843
sVmummy
p2844
VMummy
p2845
sVhuntail
p2846
VHuntail
p2847
sVswordsdance
p2848
VSwords Dance
p2849
sVearlybird
p2850
VEarly Bird
p2851
sVslash
p2852
VSlash
p2853
sVpidgeotite
p2854
VPidgeotite
p2855
sVgarchompmega
p2856
VGarchomp-Mega
p2857
sVmimejr
p2858
VMime Jr.
p2859
sVseismitoad
p2860
VSeismitoad
p2861
sVodorsleuth
p2862
VOdor Sleuth
p2863
sVmewtwomegax
p2864
VMewtwo-Mega-X
p2865
sVmewtwomegay
p2866
VMewtwo-Mega-Y
p2867
sVfocussash
p2868
VFocus Sash
p2869
sVjellicent
p2870
VJellicent
p2871
sVspelonberry
p2872
VSpelon Berry
p2873
sVnobleroar
p2874
VNoble Roar
p2875
sVkangaskhanite
p2876
VKangaskhanite
p2877
sVblazekick
p2878
VBlaze Kick
p2879
sViapapaberry
p2880
VIapapa Berry
p2881
sVmudkip
p2882
VMudkip
p2883
sVbouffalant
p2884
VBouffalant
p2885
sVarceusghost
p2886
VArceus-Ghost
p2887
sVblock
p2888
VBlock
p2889
sVsharpedo
p2890
VSharpedo
p2891
sVarmthrust
p2892
VArm Thrust
p2893
sVchargebeam
p2894
VCharge Beam
p2895
sVshellos
p2896
VShellos
p2897
sVnidoking
p2898
VNidoking
p2899
sVsablenite
p2900
VSablenite
p2901
sVbarboach
p2902
VBarboach
p2903
sVstench
p2904
VStench
p2905
sViciclecrash
p2906
VIcicle Crash
p2907
sVcacnea
p2908
VCacnea
p2909
sVferrothorn
p2910
VFerrothorn
p2911
sVswampertmega
p2912
VSwampert-Mega
p2913
sVsnorunt
p2914
VSnorunt
p2915
sS'relaxed'
p2916
S'Relaxed'
p2917
sVeevee
p2918
VEevee
p2919
sVpsychocut
p2920
VPsycho Cut
p2921
sVtranquill
p2922
VTranquill
p2923
sVragepowder
p2924
VRage Powder
p2925
sVbuizel
p2926
VBuizel
p2927
sVsharpen
p2928
VSharpen
p2929
sVgrasspledge
p2930
VGrass Pledge
p2931
sVabsolmega
p2932
VAbsol-Mega
p2933
sVwatchog
p2934
VWatchog
p2935
sVspacialrend
p2936
VSpacial Rend
p2937
sVbaddreams
p2938
VBad Dreams
p2939
sVgrowth
p2940
VGrowth
p2941
sVpoliwrath
p2942
VPoliwrath
p2943
sVhappyhour
p2944
VHappy Hour
p2945
sVmurkrow
p2946
VMurkrow
p2947
sVpechaberry
p2948
VPecha Berry
p2949
sVarceusfairy
p2950
VArceus-Fairy
p2951
sVmiracleseed
p2952
VMiracle Seed
p2953
sVtakedown
p2954
VTake Down
p2955
sVrockhead
p2956
VRock Head
p2957
sS'calm'
p2958
S'Calm'
p2959
sVstickybarb
p2960
VSticky Barb
p2961
sVganlonberry
p2962
VGanlon Berry
p2963
sVbulbasaur
p2964
VBulbasaur
p2965
sVpichu
p2966
VPichu
p2967
sVheatwave
p2968
VHeat Wave
p2969
sVaudino
p2970
VAudino
p2971
sVdrifloon
p2972
VDrifloon
p2973
sVsnowcloak
p2974
VSnow Cloak
p2975
sVrazorshell
p2976
VRazor Shell
p2977
sVmetagross
p2978
VMetagross
p2979
sVforcepalm
p2980
VForce Palm
p2981
sVlickilicky
p2982
VLickilicky
p2983
sVzigzagoon
p2984
VZigzagoon
p2985
sVprecipiceblades
p2986
VPrecipice Blades
p2987
sVcinccino
p2988
VCinccino
p2989
sVavalugg
p2990
VAvalugg
p2991
sVscratch
p2992
VScratch
p2993
sVcharmeleon
p2994
VCharmeleon
p2995
sVsandtomb
p2996
VSand Tomb
p2997
sVcharmander
p2998
VCharmander
p2999
sVspeedboost
p3000
VSpeed Boost
p3001
sVwakeupslap
p3002
VWake-Up Slap
p3003
sVpsychicgem
p3004
VPsychic Gem
p3005
sVrivalry
p3006
VRivalry
p3007
sVperishsong
p3008
VPerish Song
p3009
sVcutecharm
p3010
VCute Charm
p3011
sVblaze
p3012
VBlaze
p3013
sVsniper
p3014
VSniper
p3015
sVtriplekick
p3016
VTriple Kick
p3017
sVfly
p3018
VFly
p3019
sVnightslash
p3020
VNight Slash
p3021
sVextrasensory
p3022
VExtrasensory
p3023
sVteddiursa
p3024
VTeddiursa
p3025
sVthundershock
p3026
VThunder Shock
p3027
sVazurill
p3028
VAzurill
p3029
sVbigpecks
p3030
VBig Pecks
p3031
sVlureball
p3032
VLure Ball
p3033
sVqwilfish
p3034
VQwilfish
p3035
sVhyperbeam
p3036
VHyper Beam
p3037
sVdynamicpunch
p3038
VDynamic Punch
p3039
sVmagnemite
p3040
VMagnemite
p3041
sVtyrunt
p3042
VTyrunt
p3043
sVirondefense
p3044
VIron Defense
p3045
sVmisdreavus
p3046
VMisdreavus
p3047
sVfidgit
p3048
VFidgit
p3049
sVdousedrive
p3050
VDouse Drive
p3051
sVcrushclaw
p3052
VCrush Claw
p3053
sVsoftboiled
p3054
VSoft-Boiled
p3055
sVpoisongem
p3056
VPoison Gem
p3057
sVdownload
p3058
VDownload
p3059
sVacid
p3060
VAcid
p3061
sVvigoroth
p3062
VVigoroth
p3063
sVlombre
p3064
VLombre
p3065
sVdelcatty
p3066
VDelcatty
p3067
sVhoundoominite
p3068
VHoundoominite
p3069
sVtriattack
p3070
VTri Attack
p3071
sVtyranitar
p3072
VTyranitar
p3073
sVturtwig
p3074
VTurtwig
p3075
sVmagmastorm
p3076
VMagma Storm
p3077
sVpansear
p3078
VPansear
p3079
sVdeerling
p3080
VDeerling
p3081
sVswinub
p3082
VSwinub
p3083
sVabomasnow
p3084
VAbomasnow
p3085
sVsing
p3086
VSing
p3087
sVpikachucosplay
p3088
VPikachu-Cosplay
p3089
sVpowersplit
p3090
VPower Split
p3091
sVincinerate
p3092
VIncinerate
p3093
sVmarangaberry
p3094
VMaranga Berry
p3095
sVrampardos
p3096
VRampardos
p3097
sVscreech
p3098
VScreech
p3099
sVtentacruel
p3100
VTentacruel
p3101
sVnaturalcure
p3102
VNatural Cure
p3103
sVforestscurse
p3104
VForest's Curse
p3105
sVblizzard
p3106
VBlizzard
p3107
sVteeterdance
p3108
VTeeter Dance
p3109
sVfoongus
p3110
VFoongus
p3111
sVaquaring
p3112
VAqua Ring
p3113
sS'hardy'
p3114
S'Hardy'
p3115
sVarceusground
p3116
VArceus-Ground
p3117
sVhornattack
p3118
VHorn Attack
p3119
sVkingdra
p3120
VKingdra
p3121
sVaerodactylite
p3122
VAerodactylite
p3123
sVbanettite
p3124
VBanettite
p3125
sVdragongem
p3126
VDragon Gem
p3127
sVheatran
p3128
VHeatran
p3129
sVsteelixite
p3130
VSteelixite
p3131
sVheavyball
p3132
VHeavy Ball
p3133
sVcharcoal
p3134
VCharcoal
p3135
sVcranidos
p3136
VCranidos
p3137
sVabsol
p3138
VAbsol
p3139
sVplusle
p3140
VPlusle
p3141
sVaerodactylmega
p3142
VAerodactyl-Mega
p3143
sVharvest
p3144
VHarvest
p3145
sVwatersport
p3146
VWater Sport
p3147
sVicicleplate
p3148
VIcicle Plate
p3149
sVfuturesight
p3150
VFuture Sight
p3151
sVsmellingsalts
p3152
VSmelling Salts
p3153
sVarchen
p3154
VArchen
p3155
sVexeggcute
p3156
VExeggcute
p3157
sVlucario
p3158
VLucario
p3159
sVthundurus
p3160
VThundurus
p3161
sVvespiquen
p3162
VVespiquen
p3163
sVterrakion
p3164
VTerrakion
p3165
sVblacksludge
p3166
VBlack Sludge
p3167
sVrelicsong
p3168
VRelic Song
p3169
sVheliolisk
p3170
VHeliolisk
p3171
sVblazikenmega
p3172
VBlaziken-Mega
p3173
sVgastrodon
p3174
VGastrodon
p3175
sVbronzong
p3176
VBronzong
p3177
sVweavile
p3178
VWeavile
p3179
sVdewott
p3180
VDewott
p3181
sVchandelure
p3182
VChandelure
p3183
sVhaxorus
p3184
VHaxorus
p3185
sVsecretsword
p3186
VSecret Sword
p3187
sVowntempo
p3188
VOwn Tempo
p3189
sVhiddenpower
p3190
VHidden Power Ground
p3191
sVrazorleaf
p3192
VRazor Leaf
p3193
sVpowerswap
p3194
VPower Swap
p3195
sVdragalge
p3196
VDragalge
p3197
sVheadcharge
p3198
VHead Charge
p3199
sVswampert
p3200
VSwampert
p3201
sVpidgey
p3202
VPidgey
p3203
sVaggronite
p3204
VAggronite
p3205
sVgenesect
p3206
VGenesect
p3207
sVlotad
p3208
VLotad
p3209
sVbind
p3210
VBind
p3211
sVcounter
p3212
VCounter
p3213
sVfullincense
p3214
VFull Incense
p3215
sVweepinbell
p3216
VWeepinbell
p3217
sVaquajet
p3218
VAqua Jet
p3219
sVkrabby
p3220
VKrabby
p3221
sVumbreon
p3222
VUmbreon
p3223
sVhitmontop
p3224
VHitmontop
p3225
sVheatproof
p3226
VHeatproof
p3227
sVguardswap
p3228
VGuard Swap
p3229
sVassaultvest
p3230
VAssault Vest
p3231
sVpetalblizzard
p3232
VPetal Blizzard
p3233
sVkadabra
p3234
VKadabra
p3235
sVpurepower
p3236
VPure Power
p3237
sVironball
p3238
VIron Ball
p3239
sVdreameater
p3240
VDream Eater
p3241
sVhelpinghand
p3242
VHelping Hand
p3243
sVmunchlax
p3244
VMunchlax
p3245
sVzenheadbutt
p3246
VZen Headbutt
p3247
sVbelch
p3248
VBelch
p3249
sVsuperluck
p3250
VSuper Luck
p3251
sVberryjuice
p3252
VBerry Juice
p3253
sVmilotic
p3254
VMilotic
p3255
sVarbok
p3256
VArbok
p3257
sVflail
p3258
VFlail
p3259
sVkabutops
p3260
VKabutops
p3261
sVhoothoot
p3262
VHoothoot
p3263
sVkoffing
p3264
VKoffing
p3265
sVforewarn
p3266
VForewarn
p3267
sVmagnitude
p3268
VMagnitude
p3269
sVarceusfighting
p3270
VArceus-Fighting
p3271
sVrapidspin
p3272
VRapid Spin
p3273
sVskullbash
p3274
VSkull Bash
p3275
sVdratini
p3276
VDratini
p3277
sVafteryou
p3278
VAfter You
p3279
sVmaractus
p3280
VMaractus
p3281
sVilluminate
p3282
VIlluminate
p3283
sVgallademega
p3284
VGallade-Mega
p3285
sVmagnetpull
p3286
VMagnet Pull
p3287
sVtepig
p3288
VTepig
p3289
sVkelpsyberry
p3290
VKelpsy Berry
p3291
sVstatic
p3292
VStatic
p3293
sVflameplate
p3294
VFlame Plate
p3295
sVicefang
p3296
VIce Fang
p3297
sVvenonat
p3298
VVenonat
p3299
sVjoltik
p3300
VJoltik
p3301
sVrollingkick
p3302
VRolling Kick
p3303
sVweatherball
p3304
VWeather Ball
p3305
sVmanectric
p3306
VManectric
p3307
sVnaturepower
p3308
VNature Power
p3309
sVregisteel
p3310
VRegisteel
p3311
sVsmog
p3312
VSmog
p3313
sVbabydolleyes
p3314
VBaby-Doll Eyes
p3315
sVleafguard
p3316
VLeaf Guard
p3317
sVicywind
p3318
VIcy Wind
p3319
sVemolga
p3320
VEmolga
p3321
sVconkeldurr
p3322
VConkeldurr
p3323
sVworkup
p3324
VWork Up
p3325
sVmetagrossite
p3326
VMetagrossite
p3327
sVhippowdon
p3328
VHippowdon
p3329
sVenigmaberry
p3330
VEnigma Berry
p3331
sVscatterbug
p3332
VScatterbug
p3333
sVcobalion
p3334
VCobalion
p3335
sVbergmite
p3336
VBergmite
p3337
sVsudowoodo
p3338
VSudowoodo
p3339
sVlarvitar
p3340
VLarvitar
p3341
sVheadbutt
p3342
VHeadbutt
p3343
sVbodyslam
p3344
VBody Slam
p3345
sVbugbuzz
p3346
VBug Buzz
p3347
sVfirefang
p3348
VFire Fang
p3349
sVmindplate
p3350
VMind Plate
p3351
sVampharosmega
p3352
VAmpharos-Mega
p3353
sVmistball
p3354
VMist Ball
p3355
sVskrelp
p3356
VSkrelp
p3357
sVjumpkick
p3358
VJump Kick
p3359
sVwaterspout
p3360
VWater Spout
p3361
sVloudred
p3362
VLoudred
p3363
sVearthpower
p3364
VEarth Power
p3365
sVpremierball
p3366
VPremier Ball
p3367
sVrotomfrost
p3368
VRotom-Frost
p3369
sVsolidrock
p3370
VSolid Rock
p3371
sVhonedge
p3372
VHonedge
p3373
sVrabutaberry
p3374
VRabuta Berry
p3375
sVagility
p3376
VAgility
p3377
sVelectabuzz
p3378
VElectabuzz
p3379
sVcrobat
p3380
VCrobat
p3381
sVrockblast
p3382
VRock Blast
p3383
sVfeint
p3384
VFeint
p3385
sVsoftsand
p3386
VSoft Sand
p3387
sVsigilyph
p3388
VSigilyph
p3389
sVdeepseatooth
p3390
VDeepSeaTooth
p3391
sVtorkoal
p3392
VTorkoal
p3393
sVwurmple
p3394
VWurmple
p3395
sVmasterball
p3396
VMaster Ball
p3397
sVtimburr
p3398
VTimburr
p3399
sVsealeo
p3400
VSealeo
p3401
sVpoisonfang
p3402
VPoison Fang
p3403
sVinsectplate
p3404
VInsect Plate
p3405
sVtorrent
p3406
VTorrent
p3407
sVencore
p3408
VEncore
p3409
sVquickball
p3410
VQuick Ball
p3411
sVtrapinch
p3412
VTrapinch
p3413
sVbonerush
p3414
VBone Rush
p3415
sS'gentle'
p3416
S'Gentle'
p3417
sVtorment
p3418
VTorment
p3419
sVarceusflying
p3420
VArceus-Flying
p3421
sVzebstrika
p3422
VZebstrika
p3423
sVwhitesmoke
p3424
VWhite Smoke
p3425
sVlevelball
p3426
VLevel Ball
p3427
sVsoak
p3428
VSoak
p3429
sVfusionbolt
p3430
VFusion Bolt
p3431
sVflareon
p3432
VFlareon
p3433
sVcalmmind
p3434
VCalm Mind
p3435
sVdiamondstorm
p3436
VDiamond Storm
p3437
sVgravity
p3438
VGravity
p3439
sVcarnivine
p3440
VCarnivine
p3441
sVgrassgem
p3442
VGrass Gem
p3443
sVpsychoboost
p3444
VPsycho Boost
p3445
sVnuzleaf
p3446
VNuzleaf
p3447
sVwidelens
p3448
VWide Lens
p3449
sVshadowball
p3450
VShadow Ball
p3451
sVdrifblim
p3452
VDrifblim
p3453
sVmewtwo
p3454
VMewtwo
p3455
sVrollout
p3456
VRollout
p3457
sVslurpuff
p3458
VSlurpuff
p3459
sVdracometeor
p3460
VDraco Meteor
p3461
sVsludgewave
p3462
VSludge Wave
p3463
sVsceptile
p3464
VSceptile
p3465
sVgardevoirite
p3466
VGardevoirite
p3467
sVexeggutor
p3468
VExeggutor
p3469
sVshedskin
p3470
VShed Skin
p3471
sVcherrimsunshine
p3472
VCherrim-Sunshine
p3473
sVarceus
p3474
VArceus
p3475
sS'impish'
p3476
S'Impish'
p3477
sVservine
p3478
VServine
p3479
sVwailmer
p3480
VWailmer
p3481
sVbrine
p3482
VBrine
p3483
sVzweilous
p3484
VZweilous
p3485
sVsleeppowder
p3486
VSleep Powder
p3487
sVoldamber
p3488
VOld Amber
p3489
sVdurant
p3490
VDurant
p3491
sVsimplebeam
p3492
VSimple Beam
p3493
sVyveltal
p3494
VYveltal
p3495
sVbrickbreak
p3496
VBrick Break
p3497
sS'rash'
p3498
S'Rash'
p3499
sVpiplup
p3500
VPiplup
p3501
sVflashfire
p3502
VFlash Fire
p3503
sVdeino
p3504
VDeino
p3505
sVcamerupt
p3506
VCamerupt
p3507
sVluckypunch
p3508
VLucky Punch
p3509
sVrarebone
p3510
VRare Bone
p3511
sVsnover
p3512
VSnover
p3513
sVtangaberry
p3514
VTanga Berry
p3515
sVbellydrum
p3516
VBelly Drum
p3517
sS'sassy'
p3518
S'Sassy'
p3519
sVdeoxysattack
p3520
VDeoxys-Attack
p3521
sVcroagunk
p3522
VCroagunk
p3523
sVbravebird
p3524
VBrave Bird
p3525
sVgust
p3526
VGust
p3527
sVmagicguard
p3528
VMagic Guard
p3529
sVsandattack
p3530
VSand Attack
p3531
sVkingler
p3532
VKingler
p3533
sVhugepower
p3534
VHuge Power
p3535
sVmudbomb
p3536
VMud Bomb
p3537
sVsheercold
p3538
VSheer Cold
p3539
sVgeomancy
p3540
VGeomancy
p3541
sVcacturne
p3542
VCacturne
p3543
sVpowder
p3544
VPowder
p3545
sVvictini
p3546
VVictini
p3547
sVfinneon
p3548
VFinneon
p3549
sVtwineedle
p3550
VTwineedle
p3551
sVchestoberry
p3552
VChesto Berry
p3553
sVgrumpig
p3554
VGrumpig
p3555
sVnightmare
p3556
VNightmare
p3557
sVgyarados
p3558
VGyarados
p3559
sVvaporeon
p3560
VVaporeon
p3561
sVthunderwave
p3562
VThunder Wave
p3563
sVrockincense
p3564
VRock Incense
p3565
sVfroslass
p3566
VFroslass
p3567
sVconfusion
p3568
VConfusion
p3569
sVaron
p3570
VAron
p3571
sVconversion2
p3572
VConversion 2
p3573
sVmysticalfire
p3574
VMystical Fire
p3575
sVzoroark
p3576
VZoroark
p3577
sVshellsmash
p3578
VShell Smash
p3579
sVhydropump
p3580
VHydro Pump
p3581
sVswift
p3582
VSwift
p3583
sVmemento
p3584
VMemento
p3585
sVmetang
p3586
VMetang
p3587
sVaerodactyl
p3588
VAerodactyl
p3589
sVtailwhip
p3590
VTail Whip
p3591
sVsceptilite
p3592
VSceptilite
p3593
sVsafetygoggles
p3594
VSafety Goggles
p3595
sVklang
p3596
VKlang
p3597
sVswallow
p3598
VSwallow
p3599
sVspritzee
p3600
VSpritzee
p3601
sVflabebe
p3602
VFlabebe
p3603
sVnumel
p3604
VNumel
p3605
sVwoodhammer
p3606
VWood Hammer
p3607
sVmalaconda
p3608
VMalaconda
p3609
sVgible
p3610
VGible
p3611
sVovercoat
p3612
VOvercoat
p3613
sVekans
p3614
VEkans
p3615
sVsharpedomega
p3616
VSharpedo-Mega
p3617
sVpixieplate
p3618
VPixie Plate
p3619
sVdugtrio
p3620
VDugtrio
p3621
sVdisarmingvoice
p3622
VDisarming Voice
p3623
sVwailord
p3624
VWailord
p3625
sVswoobat
p3626
VSwoobat
p3627
sVelectrify
p3628
VElectrify
p3629
sVbindingband
p3630
VBinding Band
p3631
sVkeldeo
p3632
VKeldeo
p3633
sVtomohawk
p3634
VTomohawk
p3635
sVivysaur
p3636
VIvysaur
p3637
sVadamantorb
p3638
VAdamant Orb
p3639
sVcoverfossil
p3640
VCover Fossil
p3641
sVgraveler
p3642
VGraveler
p3643
sVsmeargle
p3644
VSmeargle
p3645
sVmetagrossmega
p3646
VMetagross-Mega
p3647
sVraindance
p3648
VRain Dance
p3649
sVinfestation
p3650
VInfestation
p3651
sVpresent
p3652
VPresent
p3653
sVgrovyle
p3654
VGrovyle
p3655
sVintimidate
p3656
VIntimidate
p3657
sVharden
p3658
VHarden
p3659
sVbeheeyem
p3660
VBeheeyem
p3661
sVwhirlpool
p3662
VWhirlpool
p3663
sVpelipper
p3664
VPelipper
p3665
sVthickfat
p3666
VThick Fat
p3667
sVcarracosta
p3668
VCarracosta
p3669
sVluxio
p3670
VLuxio
p3671
sVvullaby
p3672
VVullaby
p3673
sVlightball
p3674
VLight Ball
p3675
sVwaterveil
p3676
VWater Veil
p3677
sVspelltag
p3678
VSpell Tag
p3679
sVdeoxysdefense
p3680
VDeoxys-Defense
p3681
sVzekrom
p3682
VZekrom
p3683
sVaipom
p3684
VAipom
p3685
sVdefiant
p3686
VDefiant
p3687
sVhardstone
p3688
VHard Stone
p3689
sVkebiaberry
p3690
VKebia Berry
p3691
sVcascoon
p3692
VCascoon
p3693
sVmagcargo
p3694
VMagcargo
p3695
sVabsorb
p3696
VAbsorb
p3697
sVraindish
p3698
VRain Dish
p3699
sVseaking
p3700
VSeaking
p3701
sVmagician
p3702
VMagician
p3703
sVjudgment
p3704
VJudgment
p3705
sVairlock
p3706
VAir Lock
p3707
sVpsybeam
p3708
VPsybeam
p3709
sVaspearberry
p3710
VAspear Berry
p3711
sVeelektross
p3712
VEelektross
p3713
sVpickpocket
p3714
VPickpocket
p3715
sVsitrusberry
p3716
VSitrus Berry
p3717
sVarceuspsychic
p3718
VArceus-Psychic
p3719
sVbeautifly
p3720
VBeautifly
p3721
sVvenoshock
p3722
VVenoshock
p3723
sVmudsport
p3724
VMud Sport
p3725
sVazelf
p3726
VAzelf
p3727
sVyanmega
p3728
VYanmega
p3729
sVfairyaura
p3730
VFairy Aura
p3731
sVkarrablast
p3732
VKarrablast
p3733
sVpinsir
p3734
VPinsir
p3735
sVguts
p3736
VGuts
p3737
sVtauros
p3738
VTauros
p3739
sVnatu
p3740
VNatu
p3741
sVfaketears
p3742
VFake Tears
p3743
sVariados
p3744
VAriados
p3745
sVaromaticmist
p3746
VAromatic Mist
p3747
sVbeedrillite
p3748
VBeedrillite
p3749
sVconfide
p3750
VConfide
p3751
sVleechlife
p3752
VLeech Life
p3753
sVkingsshield
p3754
VKing's Shield
p3755
sVkingsrock
p3756
VKing's Rock
p3757
sVblukberry
p3758
VBluk Berry
p3759
sVflowershield
p3760
VFlower Shield
p3761
sVarenatrap
p3762
VArena Trap
p3763
sVleechseed
p3764
VLeech Seed
p3765
sVgoldeen
p3766
VGoldeen
p3767
sVducklett
p3768
VDucklett
p3769
sVgreninja
p3770
VGreninja
p3771
sVlatios
p3772
VLatios
p3773
sVbudew
p3774
VBudew
p3775
sVgogoat
p3776
VGogoat
p3777
sVlilligant
p3778
VLilligant
p3779
sVhealball
p3780
VHeal Ball
p3781
sVphanpy
p3782
VPhanpy
p3783
sVaudinite
p3784
VAudinite
p3785
sVimprison
p3786
VImprison
p3787
sVrepeatball
p3788
VRepeat Ball
p3789
sVglare
p3790
VGlare
p3791
sVthief
p3792
VThief
p3793
sVhail
p3794
VHail
p3795
sVcofagrigus
p3796
VCofagrigus
p3797
sVwepearberry
p3798
VWepear Berry
p3799
sVskarmory
p3800
VSkarmory
p3801
sVpersimberry
p3802
VPersim Berry
p3803
sVdragonclaw
p3804
VDragon Claw
p3805
sVdrizzle
p3806
VDrizzle
p3807
sVstaraptor
p3808
VStaraptor
p3809
sVmagicalleaf
p3810
VMagical Leaf
p3811
sVmeowsticf
p3812
VMeowstic-F
p3813
sVhurricane
p3814
VHurricane
p3815
sVlileep
p3816
VLileep
p3817
sVpiloswine
p3818
VPiloswine
p3819
sVvenusaurite
p3820
VVenusaurite
p3821
sVcyclohm
p3822
VCyclohm
p3823
sVhappiny
p3824
VHappiny
p3825
sVpressure
p3826
VPressure
p3827
sVsilkscarf
p3828
VSilk Scarf
p3829
sVpidgeotto
p3830
VPidgeotto
p3831
sVdreadplate
p3832
VDread Plate
p3833
sVsableyemega
p3834
VSableye-Mega
p3835
sVfurret
p3836
VFurret
p3837
sVpsystrike
p3838
VPsystrike
p3839
sVmeteormash
p3840
VMeteor Mash
p3841
sVshucaberry
p3842
VShuca Berry
p3843
sVsweetkiss
p3844
VSweet Kiss
p3845
sVacidarmor
p3846
VAcid Armor
p3847
sVlightclay
p3848
VLight Clay
p3849
sVvoodoom
p3850
VVoodoom
p3851
sVblueorb
p3852
VBlue Orb
p3853
sVfeintattack
p3854
VFeint Attack
p3855
sVburmy
p3856
VBurmy
p3857
sVmagostberry
p3858
VMagost Berry
p3859
sVgrasspelt
p3860
VGrass Pelt
p3861
sVspitup
p3862
VSpit Up
p3863
sVrockthrow
p3864
VRock Throw
p3865
sVroseliberry
p3866
VRoseli Berry
p3867
sVfrustration
p3868
VFrustration
p3869
sVambipom
p3870
VAmbipom
p3871
sVfollowme
p3872
VFollow Me
p3873
sVclauncher
p3874
VClauncher
p3875
sVquickpowder
p3876
VQuick Powder
p3877
sVfrenzyplant
p3878
VFrenzy Plant
p3879
sVfrisk
p3880
VFrisk
p3881
sVmagoberry
p3882
VMago Berry
p3883
sVcroconaw
p3884
VCroconaw
p3885
sVdrowzee
p3886
VDrowzee
p3887
sVserenegrace
p3888
VSerene Grace
p3889
sVheracronite
p3890
VHeracronite
p3891
sVtechnician
p3892
VTechnician
p3893
sVarceusgrass
p3894
VArceus-Grass
p3895
sVembargo
p3896
VEmbargo
p3897
sVmetronome
p3898
VMetronome
p3899
sVattackorder
p3900
VAttack Order
p3901
sVallyswitch
p3902
VAlly Switch
p3903
sVwish
p3904
VWish
p3905
sVentrainment
p3906
VEntrainment
p3907
sVpoisonheal
p3908
VPoison Heal
p3909
sVscizormega
p3910
VScizor-Mega
p3911
sVhoneclaws
p3912
VHone Claws
p3913
sVfloetteeternalflower
p3914
VFloette-Eternal-Flower
p3915
sVpikachurockstar
p3916
VPikachu-Rock-Star
p3917
sVoranberry
p3918
VOran Berry
p3919
sVninjask
p3920
VNinjask
p3921
sVslowstart
p3922
VSlow Start
p3923
sVweakarmor
p3924
VWeak Armor
p3925
sVaurasphere
p3926
VAura Sphere
p3927
sVshelgon
p3928
VShelgon
p3929
sVrawstberry
p3930
VRawst Berry
p3931
sVvacuumwave
p3932
VVacuum Wave
p3933
sVillusion
p3934
VIllusion
p3935
sVroleplay
p3936
VRole Play
p3937
sVyacheberry
p3938
VYache Berry
p3939
sVtreecko
p3940
VTreecko
p3941
sVdragonair
p3942
VDragonair
p3943
sVbraviary
p3944
VBraviary
p3945
sVvivillon
p3946
VVivillon
p3947
sVnoguard
p3948
VNo Guard
p3949
sVsalamencemega
p3950
VSalamence-Mega
p3951
sVabomasite
p3952
VAbomasite
p3953
sVstarmie
p3954
VStarmie
p3955
sVpersistent
p3956
VPersistent
p3957
sVmagmar
p3958
VMagmar
p3959
sVzangoose
p3960
VZangoose
p3961
sVvanilluxe
p3962
VVanilluxe
p3963
s.