(dp1
Velectivire
p2
VElectivire
p3
sVanchorshot
p4
VAnchor Shot
p5
sVheracross
p6
VHeracross
p7
sVcolorchange
p8
VColor Change
p9
sVlucarionite
p10
VLucarionite
p11
sVpalkia
p12
VPalkia
p13
sVchatter
p14
VChatter
p15
sValakazite
p16
VAlakazite
p17
sVtickle
p18
VTickle
p19
sVarceuselectric
p20
VArceus-Electric
p21
sVabra
p22
VAbra
p23
sVexeggutoralola
p24
VExeggutor-Alola
p25
sVrecycle
p26
VRecycle
p27
sVtimerball
p28
VTimer Ball
p29
sVsteeliumz
p30
VSteelium Z
p31
sVsharpbeak
p32
VSharp Beak
p33
sVmewtwonitex
p34
VMewtwonite X
p35
sVmewtwonitey
p36
VMewtwonite Y
p37
sVquickclaw
p38
VQuick Claw
p39
sVoricoriopompom
p40
VOricorio-Pom-Pom
p41
sVdoubleslap
p42
VDouble Slap
p43
sVlurantis
p44
VLurantis
p45
sVeviolite
p46
VEviolite
p47
sVprotean
p48
VProtean
p49
sVsquirtle
p50
VSquirtle
p51
sVdiglettalola
p52
VDiglett-Alola
p53
sVdarmanitanzen
p54
VDarmanitan-Zen
p55
sVnastyplot
p56
VNasty Plot
p57
sVwormadam
p58
VWormadam
p59
sVmiracleberry
p60
VMiracle Berry
p61
sVaggronmega
p62
VAggron-Mega
p63
sVwhirlwind
p64
VWhirlwind
p65
sVplumefossil
p66
VPlume Fossil
p67
sVcherrim
p68
VCherrim
p69
sVhiddenpowerelectric
p70
VHidden Power Electric
p71
sVhiddenpowerfire
p72
VHidden Power Fire
p73
sVguillotine
p74
VGuillotine
p75
sVlevitate
p76
VLevitate
p77
sVgyaradosite
p78
VGyaradosite
p79
sVpomegberry
p80
VPomeg Berry
p81
sVmasquerain
p82
VMasquerain
p83
sVaccelerock
p84
VAccelerock
p85
sVthunder
p86
VThunder
p87
sVhaze
p88
VHaze
p89
sVdarkgem
p90
VDark Gem
p91
sVmiltank
p92
VMiltank
p93
sVfraxure
p94
VFraxure
p95
sVmoldbreaker
p96
VMold Breaker
p97
sVcrunch
p98
VCrunch
p99
sVrindoberry
p100
VRindo Berry
p101
sVlatiosite
p102
VLatiosite
p103
sVreflecttype
p104
VReflect Type
p105
sVsnivy
p106
VSnivy
p107
sVmefirst
p108
VMe First
p109
sVstarfberry
p110
VStarf Berry
p111
sVscizorite
p112
VScizorite
p113
sVmew
p114
VMew
p115
sVpursuit
p116
VPursuit
p117
sVheadsmash
p118
VHead Smash
p119
sVaftermath
p120
VAftermath
p121
sVmintberry
p122
VMint Berry
p123
sVclawitzer
p124
VClawitzer
p125
sVpixilate
p126
VPixilate
p127
sVtornadustherian
p128
VTornadus-Therian
p129
sVlunatone
p130
VLunatone
p131
sVpunishment
p132
VPunishment
p133
sVpoisontouch
p134
VPoison Touch
p135
sVfeebas
p136
VFeebas
p137
sVneedlearm
p138
VNeedle Arm
p139
sValtarianite
p140
VAltarianite
p141
sVblastburn
p142
VBlast Burn
p143
sVhonchkrow
p144
VHonchkrow
p145
sVschooling
p146
VSchooling
p147
sVtirtouga
p148
VTirtouga
p149
sVampharos
p150
VAmpharos
p151
sVdusclops
p152
VDusclops
p153
sVpoisonbarb
p154
VPoison Barb
p155
sVmorningsun
p156
VMorning Sun
p157
sVfreezedry
p158
VFreeze-Dry
p159
sVmandibuzz
p160
VMandibuzz
p161
sVoverheat
p162
VOverheat
p163
sVwishiwashischool
p164
VWishiwashi-School
p165
sVspiritomb
p166
VSpiritomb
p167
sVvoltabsorb
p168
VVolt Absorb
p169
sVpurugly
p170
VPurugly
p171
sVshiftgear
p172
VShift Gear
p173
sVvenomoth
p174
VVenomoth
p175
sVfirstimpression
p176
VFirst Impression
p177
sVcastformrainy
p178
VCastform-Rainy
p179
sVbigroot
p180
VBig Root
p181
sVcobalion
p182
VCobalion
p183
sVgardevoir
p184
VGardevoir
p185
sVsheerforce
p186
VSheer Force
p187
sVmagnetrise
p188
VMagnet Rise
p189
sVnaive
p190
VNaive
p191
sVreuniclus
p192
VReuniclus
p193
sVbeastboost
p194
VBeast Boost
p195
sVsceptilemega
p196
VSceptile-Mega
p197
sVlunge
p198
VLunge
p199
sVcharjabug
p200
VCharjabug
p201
sVsteelmemory
p202
VSteel Memory
p203
sVbeastball
p204
VBeast Ball
p205
sVkitsunoh
p206
VKitsunoh
p207
sVarceusbug
p208
VArceus-Bug
p209
sVgranbull
p210
VGranbull
p211
sVmeditite
p212
VMeditite
p213
sVpidgeot
p214
VPidgeot
p215
sVsilvallypoison
p216
VSilvally-Poison
p217
sVtangledfeet
p218
VTangled Feet
p219
sVigglybuff
p220
VIgglybuff
p221
sVonix
p222
VOnix
p223
sVgrimer
p224
VGrimer
p225
sVrototiller
p226
VRototiller
p227
sVlucariomega
p228
VLucario-Mega
p229
sVbugbite
p230
VBug Bite
p231
sVpoisongas
p232
VPoison Gas
p233
sVmakuhita
p234
VMakuhita
p235
sVfriendball
p236
VFriend Ball
p237
sVattract
p238
VAttract
p239
sVcharizarditey
p240
VCharizardite Y
p241
sVcharizarditex
p242
VCharizardite X
p243
sVhyperspacehole
p244
VHyperspace Hole
p245
sVskydrop
p246
VSky Drop
p247
sVcrabhammer
p248
VCrabhammer
p249
sVtoxic
p250
VToxic
p251
sVcastformsunny
p252
VCastform-Sunny
p253
sVrotomheat
p254
VRotom-Heat
p255
sVsportball
p256
VSport Ball
p257
sVpoisonpowder
p258
VPoison Powder
p259
sVredcard
p260
VRed Card
p261
sVmodest
p262
VModest
p263
sVtynamo
p264
VTynamo
p265
sVliquidvoice
p266
VLiquid Voice
p267
sVcherubi
p268
VCherubi
p269
sVleafstorm
p270
VLeaf Storm
p271
sVspookyplate
p272
VSpooky Plate
p273
sVhasty
p274
VHasty
p275
sVraichualola
p276
VRaichu-Alola
p277
sVentei
p278
VEntei
p279
sVdecidueye
p280
VDecidueye
p281
sVarceussteel
p282
VArceus-Steel
p283
sVcobaberry
p284
VCoba Berry
p285
sVlaggingtail
p286
VLagging Tail
p287
sVfinalgambit
p288
VFinal Gambit
p289
sVrapidash
p290
VRapidash
p291
sVdoubleteam
p292
VDouble Team
p293
sVlumineon
p294
VLumineon
p295
sVgligar
p296
VGligar
p297
sVshielddust
p298
VShield Dust
p299
sVmagicbounce
p300
VMagic Bounce
p301
sVfakeout
p302
VFake Out
p303
sVsludge
p304
VSludge
p305
sVvenusaur
p306
VVenusaur
p307
sVphione
p308
VPhione
p309
sVmindplate
p310
VMind Plate
p311
sVgrassyseed
p312
VGrassy Seed
p313
sVflameburst
p314
VFlame Burst
p315
sVzapplate
p316
VZap Plate
p317
sVmunna
p318
VMunna
p319
sVdragonscale
p320
VDragon Scale
p321
sVdryskin
p322
VDry Skin
p323
sVnihilego
p324
VNihilego
p325
sVmimikyu
p326
VMimikyu
p327
sVkricketot
p328
VKricketot
p329
sVgroundiumz
p330
VGroundium Z
p331
sVroost
p332
VRoost
p333
sVfurycutter
p334
VFury Cutter
p335
sVirontail
p336
VIron Tail
p337
sVclangingscales
p338
VClanging Scales
p339
sVheatmor
p340
VHeatmor
p341
sVeggbomb
p342
VEgg Bomb
p343
sVluxray
p344
VLuxray
p345
sVpayback
p346
VPayback
p347
sVexcadrill
p348
VExcadrill
p349
sVgloom
p350
VGloom
p351
sVgluttony
p352
VGluttony
p353
sVtapukoko
p354
VTapu Koko
p355
sVvulpix
p356
VVulpix
p357
sVcradily
p358
VCradily
p359
sVwimpod
p360
VWimpod
p361
sVthunderfang
p362
VThunder Fang
p363
sVblastoisemega
p364
VBlastoise-Mega
p365
sVespeon
p366
VEspeon
p367
sVtogedemaru
p368
VTogedemaru
p369
sVmultitype
p370
VMultitype
p371
sVflameorb
p372
VFlame Orb
p373
sVpanpour
p374
VPanpour
p375
sVhiddenpowerdragon
p376
VHidden Power Dragon
p377
sVfairywind
p378
VFairy Wind
p379
sVgothorita
p380
VGothorita
p381
sVomastar
p382
VOmastar
p383
sVwalrein
p384
VWalrein
p385
sVsawsbuck
p386
VSawsbuck
p387
sVtruant
p388
VTruant
p389
sVqualotberry
p390
VQualot Berry
p391
sVflowergift
p392
VFlower Gift
p393
sVpsychic
p394
VPsychic
p395
sVlifeorb
p396
VLife Orb
p397
sVvulpixalola
p398
VVulpix-Alola
p399
sVkasibberry
p400
VKasib Berry
p401
sVribombee
p402
VRibombee
p403
sVcottonguard
p404
VCotton Guard
p405
sVtornadus
p406
VTornadus
p407
sVshedshell
p408
VShed Shell
p409
sVbarrier
p410
VBarrier
p411
sVleftovers
p412
VLeftovers
p413
sVcoreenforcer
p414
VCore Enforcer
p415
sVsynchronoise
p416
VSynchronoise
p417
sVbestow
p418
VBestow
p419
sVtrumpcard
p420
VTrump Card
p421
sVsweetveil
p422
VSweet Veil
p423
sViceball
p424
VIce Ball
p425
sVgalladite
p426
VGalladite
p427
sVshiftry
p428
VShiftry
p429
sVfletchinder
p430
VFletchinder
p431
sVbeartic
p432
VBeartic
p433
sVkyuremblack
p434
VKyurem-Black
p435
sVsonicboom
p436
VSonic Boom
p437
sVfightinggem
p438
VFighting Gem
p439
sVgroudonprimal
p440
VGroudon-Primal
p441
sVlatias
p442
VLatias
p443
sVfilter
p444
VFilter
p445
sVsteelixmega
p446
VSteelix-Mega
p447
sVtapuniumz
p448
VTapunium Z
p449
sVcherishball
p450
VCherish Ball
p451
sVcheriberry
p452
VCheri Berry
p453
sVfightingmemory
p454
VFighting Memory
p455
sVnaughty
p456
VNaughty
p457
sVseedflare
p458
VSeed Flare
p459
sVhydrocannon
p460
VHydro Cannon
p461
sVmagneticflux
p462
VMagnetic Flux
p463
sVdeoxys
p464
VDeoxys
p465
sVursaring
p466
VUrsaring
p467
sVlatiasmega
p468
VLatias-Mega
p469
sVrattataalola
p470
VRattata-Alola
p471
sVinstruct
p472
VInstruct
p473
sVshieldon
p474
VShieldon
p475
sVslugma
p476
VSlugma
p477
sVheracrossmega
p478
VHeracross-Mega
p479
sVwaveincense
p480
VWave Incense
p481
sVmanectite
p482
VManectite
p483
sVinnardsout
p484
VInnards Out
p485
sVpikachupopstar
p486
VPikachu-Pop-Star
p487
sVmudsdale
p488
VMudsdale
p489
sVaircutter
p490
VAir Cutter
p491
sVgiratinaorigin
p492
VGiratina-Origin
p493
sVgrowlithe
p494
VGrowlithe
p495
sVinferno
p496
VInferno
p497
sVtwister
p498
VTwister
p499
sVarceusdragon
p500
VArceus-Dragon
p501
sVflamethrower
p502
VFlamethrower
p503
sVtoxicorb
p504
VToxic Orb
p505
sVfairylock
p506
VFairy Lock
p507
sVrockclimb
p508
VRock Climb
p509
sVwonderroom
p510
VWonder Room
p511
sVmegakick
p512
VMega Kick
p513
sVdoomdesire
p514
VDoom Desire
p515
sVmirrormove
p516
VMirror Move
p517
sVsandshrew
p518
VSandshrew
p519
sVpolitoed
p520
VPolitoed
p521
sVminun
p522
VMinun
p523
sVbelueberry
p524
VBelue Berry
p525
sVgeodudealola
p526
VGeodude-Alola
p527
sVfloralhealing
p528
VFloral Healing
p529
sVfiriumz
p530
VFirium Z
p531
sVendure
p532
VEndure
p533
sVswiftswim
p534
VSwift Swim
p535
sVshellbell
p536
VShell Bell
p537
sVminus
p538
VMinus
p539
sVmeowth
p540
VMeowth
p541
sVprankster
p542
VPrankster
p543
sVwacanberry
p544
VWacan Berry
p545
sVsylveon
p546
VSylveon
p547
sVpayapaberry
p548
VPayapa Berry
p549
sVclosecombat
p550
VClose Combat
p551
sVsilvallydark
p552
VSilvally-Dark
p553
sVmetalclaw
p554
VMetal Claw
p555
sVseel
p556
VSeel
p557
sVblastoise
p558
VBlastoise
p559
sVstrength
p560
VStrength
p561
sVchingling
p562
VChingling
p563
sVgothita
p564
VGothita
p565
sVyungoos
p566
VYungoos
p567
sVcraftyshield
p568
VCrafty Shield
p569
sVgyroball
p570
VGyro Ball
p571
sVrhyperior
p572
VRhyperior
p573
sVgolbat
p574
VGolbat
p575
sVgrassyterrain
p576
VGrassy Terrain
p577
sVdeoxysspeed
p578
VDeoxys-Speed
p579
sVpikachucosplay
p580
VPikachu-Cosplay
p581
sVshadowforce
p582
VShadow Force
p583
sVcoil
p584
VCoil
p585
sVdrought
p586
VDrought
p587
sVfeint
p588
VFeint
p589
sVcosmicpower
p590
VCosmic Power
p591
sVempoleon
p592
VEmpoleon
p593
sVthousandwaves
p594
VThousand Waves
p595
sVdunsparce
p596
VDunsparce
p597
sVnincada
p598
VNincada
p599
sVconstrict
p600
VConstrict
p601
sVvileplume
p602
VVileplume
p603
sVraticate
p604
VRaticate
p605
sVcinccino
p606
VCinccino
p607
sVjirachi
p608
VJirachi
p609
sVgolduck
p610
VGolduck
p611
sVshiinotic
p612
VShiinotic
p613
sVarmorfossil
p614
VArmor Fossil
p615
sVstickyweb
p616
VSticky Web
p617
sVtogekiss
p618
VTogekiss
p619
sVhippopotas
p620
VHippopotas
p621
sVdialga
p622
VDialga
p623
sVlastresort
p624
VLast Resort
p625
sVpsychicterrain
p626
VPsychic Terrain
p627
sVbulletpunch
p628
VBullet Punch
p629
sVicegem
p630
VIce Gem
p631
sVspite
p632
VSpite
p633
sVcarbink
p634
VCarbink
p635
sVwaterpulse
p636
VWater Pulse
p637
sVstoutland
p638
VStoutland
p639
sVgenesissupernova
p640
VGenesis Supernova
p641
sVbidoof
p642
VBidoof
p643
sVsyclant
p644
VSyclant
p645
sVhaunter
p646
VHaunter
p647
sVweedle
p648
VWeedle
p649
sVaerilate
p650
VAerilate
p651
sVhoneygather
p652
VHoney Gather
p653
sVmachop
p654
VMachop
p655
sVpoisoniumz
p656
VPoisonium Z
p657
sVguardianofalola
p658
VGuardian of Alola
p659
sVdusknoir
p660
VDusknoir
p661
sVmeditate
p662
VMeditate
p663
sVreversal
p664
VReversal
p665
sVlunardance
p666
VLunar Dance
p667
sVpumpkaboosmall
p668
VPumpkaboo-Small
p669
sVtentacool
p670
VTentacool
p671
sVpokeball
p672
VPoke Ball
p673
sVsilvally
p674
VSilvally
p675
sVdiancie
p676
VDiancie
p677
sVplasmanta
p678
VPlasmanta
p679
sVnosepass
p680
VNosepass
p681
sVmawilite
p682
VMawilite
p683
sVlaxincense
p684
VLax Incense
p685
sVmagneton
p686
VMagneton
p687
sVstickyhold
p688
VSticky Hold
p689
sVbeatup
p690
VBeat Up
p691
sVleafblade
p692
VLeaf Blade
p693
sVfluffy
p694
VFluffy
p695
sVserperior
p696
VSerperior
p697
sVlopunnite
p698
VLopunnite
p699
sVwooper
p700
VWooper
p701
sVforretress
p702
VForretress
p703
sVmindreader
p704
VMind Reader
p705
sVseaincense
p706
VSea Incense
p707
sVsimisage
p708
VSimisage
p709
sVsolarblade
p710
VSolar Blade
p711
sVarcheops
p712
VArcheops
p713
sVheavymetal
p714
VHeavy Metal
p715
sVwormadamsandy
p716
VWormadam-Sandy
p717
sVpsychiumz
p718
VPsychium Z
p719
sVspiritshackle
p720
VSpirit Shackle
p721
sVcontinentalcrush
p722
VContinental Crush
p723
sVmuscleband
p724
VMuscle Band
p725
sVtwinkletackle
p726
VTwinkle Tackle
p727
sVmatblock
p728
VMat Block
p729
sVmoongeistbeam
p730
VMoongeist Beam
p731
sVdoduo
p732
VDoduo
p733
sVmuk
p734
VMuk
p735
sVmotordrive
p736
VMotor Drive
p737
sVconfusion
p738
VConfusion
p739
sVslowpoke
p740
VSlowpoke
p741
sVfrostbreath
p742
VFrost Breath
p743
sVvirizion
p744
VVirizion
p745
sVspinda
p746
VSpinda
p747
sVcosmoem
p748
VCosmoem
p749
sVmeadowplate
p750
VMeadow Plate
p751
sVparasect
p752
VParasect
p753
sVgourgeistsmall
p754
VGourgeist-Small
p755
sVadamantorb
p756
VAdamant Orb
p757
sVprotect
p758
VProtect
p759
sVplaynice
p760
VPlay Nice
p761
sVsamurott
p762
VSamurott
p763
sVreceiver
p764
VReceiver
p765
sVmawile
p766
VMawile
p767
sVchimecho
p768
VChimecho
p769
sVpetayaberry
p770
VPetaya Berry
p771
sVdoublade
p772
VDoublade
p773
sVpsychicseed
p774
VPsychic Seed
p775
sVdeltastream
p776
VDelta Stream
p777
sVluckychant
p778
VLucky Chant
p779
sVleppaberry
p780
VLeppa Berry
p781
sVlick
p782
VLick
p783
sVoblivious
p784
VOblivious
p785
sVfierydance
p786
VFiery Dance
p787
sVfloatzel
p788
VFloatzel
p789
sVsmackdown
p790
VSmack Down
p791
sVcopycat
p792
VCopycat
p793
sVsalamencite
p794
VSalamencite
p795
sVbuneary
p796
VBuneary
p797
sVrevelationdance
p798
VRevelation Dance
p799
sVshockdrive
p800
VShock Drive
p801
sVnightdaze
p802
VNight Daze
p803
sVfriendguard
p804
VFriend Guard
p805
sVscaryface
p806
VScary Face
p807
sVsteamroller
p808
VSteamroller
p809
sVsalazzle
p810
VSalazzle
p811
sVwimpout
p812
VWimp Out
p813
sVkakuna
p814
VKakuna
p815
sVpowertrick
p816
VPower Trick
p817
sVyanma
p818
VYanma
p819
sVsilvallyfire
p820
VSilvally-Fire
p821
sVchatot
p822
VChatot
p823
sVaciddownpour
p824
VAcid Downpour
p825
sVmarshtomp
p826
VMarshtomp
p827
sVgurdurr
p828
VGurdurr
p829
sVsoundproof
p830
VSoundproof
p831
sVslam
p832
VSlam
p833
sVthrash
p834
VThrash
p835
sVsandrush
p836
VSand Rush
p837
sVsliggoo
p838
VSliggoo
p839
sVtotodile
p840
VTotodile
p841
sVgarchompite
p842
VGarchompite
p843
sVslowbro
p844
VSlowbro
p845
sVprismaticlaser
p846
VPrismatic Laser
p847
sValakazam
p848
VAlakazam
p849
sVbinacle
p850
VBinacle
p851
sVhitmonlee
p852
VHitmonlee
p853
sVmarowakalola
p854
VMarowak-Alola
p855
sVnevermeltice
p856
VNever-Melt Ice
p857
sVgrowl
p858
VGrowl
p859
sViciumz
p860
VIcium Z
p861
sVaguavberry
p862
VAguav Berry
p863
sVdrilbur
p864
VDrilbur
p865
sVcameruptite
p866
VCameruptite
p867
sVralts
p868
VRalts
p869
sVpupitar
p870
VPupitar
p871
sVslowking
p872
VSlowking
p873
sVpowerherb
p874
VPower Herb
p875
sVnoivern
p876
VNoivern
p877
sVwaterfall
p878
VWaterfall
p879
sVdewgong
p880
VDewgong
p881
sVflyiniumz
p882
VFlyinium Z
p883
sVkirlia
p884
VKirlia
p885
sVknockoff
p886
VKnock Off
p887
sVoctazooka
p888
VOctazooka
p889
sVcawmodore
p890
VCawmodore
p891
sVpikachubelle
p892
VPikachu-Belle
p893
sVluxuryball
p894
VLuxury Ball
p895
sVhydration
p896
VHydration
p897
sVkrokorok
p898
VKrokorok
p899
sVamoonguss
p900
VAmoonguss
p901
sVsilvallygrass
p902
VSilvally-Grass
p903
sVquilladin
p904
VQuilladin
p905
sVshellarmor
p906
VShell Armor
p907
sVpoliwag
p908
VPoliwag
p909
sVslushrush
p910
VSlush Rush
p911
sVmetalcoat
p912
VMetal Coat
p913
sVthickclub
p914
VThick Club
p915
sVdugtrioalola
p916
VDugtrio-Alola
p917
sVdisguise
p918
VDisguise
p919
sVscizor
p920
VScizor
p921
sVfloetteeternal
p922
VFloette-Eternal
p923
sVkerfluffle
p924
VKerfluffle
p925
sVsilcoon
p926
VSilcoon
p927
sVbuggem
p928
VBug Gem
p929
sVdragonmemory
p930
VDragon Memory
p931
sVoshawott
p932
VOshawott
p933
sVtorterra
p934
VTorterra
p935
sVtogepi
p936
VTogepi
p937
sVdomefossil
p938
VDome Fossil
p939
sVadamant
p940
VAdamant
p941
sVlowkick
p942
VLow Kick
p943
sVhealbell
p944
VHeal Bell
p945
sVmirrorshot
p946
VMirror Shot
p947
sVtapufini
p948
VTapu Fini
p949
sVlickitung
p950
VLickitung
p951
sVpassimian
p952
VPassimian
p953
sVlatiosmega
p954
VLatios-Mega
p955
sVdragonrush
p956
VDragon Rush
p957
sVredorb
p958
VRed Orb
p959
sVspinarak
p960
VSpinarak
p961
sVdiggersby
p962
VDiggersby
p963
sVsilverwind
p964
VSilver Wind
p965
sVsunnyday
p966
VSunny Day
p967
sVludicolo
p968
VLudicolo
p969
sVditto
p970
VDitto
p971
sVcirclethrow
p972
VCircle Throw
p973
sVfullmetalbody
p974
VFull Metal Body
p975
sValloutpummeling
p976
VAll-Out Pummeling
p977
sVinfernooverdrive
p978
VInferno Overdrive
p979
sVpinsirmega
p980
VPinsir-Mega
p981
sVhiddenpowerpoison
p982
VHidden Power Poison
p983
sVflatter
p984
VFlatter
p985
sVtoxicspikes
p986
VToxic Spikes
p987
sVfirepledge
p988
VFire Pledge
p989
sVnoctowl
p990
VNoctowl
p991
sVcornnberry
p992
VCornn Berry
p993
sVskullfossil
p994
VSkull Fossil
p995
sVcheekpouch
p996
VCheek Pouch
p997
sVuproar
p998
VUproar
p999
sVgoldberry
p1000
VGold Berry
p1001
sVferrothorn
p1002
VFerrothorn
p1003
sVexpertbelt
p1004
VExpert Belt
p1005
sVholdhands
p1006
VHold Hands
p1007
sVcrosschop
p1008
VCross Chop
p1009
sVpsyshock
p1010
VPsyshock
p1011
sVicyrock
p1012
VIcy Rock
p1013
sVsoulheart
p1014
VSoul-Heart
p1015
sVtrevenant
p1016
VTrevenant
p1017
sVabsorbbulb
p1018
VAbsorb Bulb
p1019
sVbold
p1020
VBold
p1021
sVgunkshot
p1022
VGunk Shot
p1023
sVmagearna
p1024
VMagearna
p1025
sVarceusfire
p1026
VArceus-Fire
p1027
sVgarchomp
p1028
VGarchomp
p1029
sVgeodude
p1030
VGeodude
p1031
sVlightscreen
p1032
VLight Screen
p1033
sVwhimsicott
p1034
VWhimsicott
p1035
sVlavaplume
p1036
VLava Plume
p1037
sVkeeneye
p1038
VKeen Eye
p1039
sVsimipour
p1040
VSimipour
p1041
sVtrumbeak
p1042
VTrumbeak
p1043
sVautotomize
p1044
VAutotomize
p1045
sVspikecannon
p1046
VSpike Cannon
p1047
sVnecturna
p1048
VNecturna
p1049
sVplus
p1050
VPlus
p1051
sVnidoqueen
p1052
VNidoqueen
p1053
sVsapsipper
p1054
VSap Sipper
p1055
sVpikachulibre
p1056
VPikachu-Libre
p1057
sVthunderpunch
p1058
VThunder Punch
p1059
sVhornleech
p1060
VHorn Leech
p1061
sVbraixen
p1062
VBraixen
p1063
sVdarkvoid
p1064
VDark Void
p1065
sVsupersonicskystrike
p1066
VSupersonic Skystrike
p1067
sVhoundour
p1068
VHoundour
p1069
sVdualchop
p1070
VDual Chop
p1071
sVfoulplay
p1072
VFoul Play
p1073
sVscyther
p1074
VScyther
p1075
sVgalewings
p1076
VGale Wings
p1077
sVstormdrain
p1078
VStorm Drain
p1079
sVseadra
p1080
VSeadra
p1081
sVovergrow
p1082
VOvergrow
p1083
sVgengarmega
p1084
VGengar-Mega
p1085
sVbronzor
p1086
VBronzor
p1087
sVwrap
p1088
VWrap
p1089
sVterrainextender
p1090
VTerrain Extender
p1091
sVcorsola
p1092
VCorsola
p1093
sVtransform
p1094
VTransform
p1095
sVklefki
p1096
VKlefki
p1097
sVrowapberry
p1098
VRowap Berry
p1099
sVquirky
p1100
VQuirky
p1101
sVquickattack
p1102
VQuick Attack
p1103
sVsynthesis
p1104
VSynthesis
p1105
sVmultiscale
p1106
VMultiscale
p1107
sVgroundgem
p1108
VGround Gem
p1109
sVreshiram
p1110
VReshiram
p1111
sVrocksmash
p1112
VRock Smash
p1113
sVvolttackle
p1114
VVolt Tackle
p1115
sVghostgem
p1116
VGhost Gem
p1117
sVleafage
p1118
VLeafage
p1119
sVroughskin
p1120
VRough Skin
p1121
sVsafeguard
p1122
VSafeguard
p1123
sVsmoothrock
p1124
VSmooth Rock
p1125
sVcosmog
p1126
VCosmog
p1127
sVgearup
p1128
VGear Up
p1129
sVbide
p1130
VBide
p1131
sVaurabreak
p1132
VAura Break
p1133
sVaurorus
p1134
VAurorus
p1135
sVlightofruin
p1136
VLight of Ruin
p1137
sVstokedsparksurfer
p1138
VStoked Sparksurfer
p1139
sVholdback
p1140
VHold Back
p1141
sVpoweruppunch
p1142
VPower-Up Punch
p1143
sVunnerve
p1144
VUnnerve
p1145
sVparentalbond
p1146
VParental Bond
p1147
sVferaligatr
p1148
VFeraligatr
p1149
sVoddish
p1150
VOddish
p1151
sVleer
p1152
VLeer
p1153
sVmagby
p1154
VMagby
p1155
sVtypenull
p1156
VType: Null
p1157
sVswadloon
p1158
VSwadloon
p1159
sVvibrava
p1160
VVibrava
p1161
sVuxie
p1162
VUxie
p1163
sVsmoochum
p1164
VSmoochum
p1165
sVlansatberry
p1166
VLansat Berry
p1167
sVbutterfree
p1168
VButterfree
p1169
sVferroseed
p1170
VFerroseed
p1171
sVgoomy
p1172
VGoomy
p1173
sVamaura
p1174
VAmaura
p1175
sVminiormeteor
p1176
VMinior-Meteor
p1177
sVclawfossil
p1178
VClaw Fossil
p1179
sVdischarge
p1180
VDischarge
p1181
sVkyogre
p1182
VKyogre
p1183
sVstrengthsap
p1184
VStrength Sap
p1185
sVpoisonpoint
p1186
VPoison Point
p1187
sVhiddenpowerground
p1188
VHidden Power Ground
p1189
sVarceuspoison
p1190
VArceus-Poison
p1191
sVliechiberry
p1192
VLiechi Berry
p1193
sVlillipup
p1194
VLillipup
p1195
sVsilvallyflying
p1196
VSilvally-Flying
p1197
sVspectralthief
p1198
VSpectral Thief
p1199
sVflareboost
p1200
VFlare Boost
p1201
sVmareep
p1202
VMareep
p1203
sVoccaberry
p1204
VOcca Berry
p1205
sVironfist
p1206
VIron Fist
p1207
sVserious
p1208
VSerious
p1209
sVmegadrain
p1210
VMega Drain
p1211
sVsalacberry
p1212
VSalac Berry
p1213
sVpolkadotbow
p1214
VPolkadot Bow
p1215
sVsnubbull
p1216
VSnubbull
p1217
sVsandveil
p1218
VSand Veil
p1219
sVabsolite
p1220
VAbsolite
p1221
sVbonsly
p1222
VBonsly
p1223
sVnecrozma
p1224
VNecrozma
p1225
sVcelebi
p1226
VCelebi
p1227
sVavalanche
p1228
VAvalanche
p1229
sVshadowsneak
p1230
VShadow Sneak
p1231
sVsuctioncups
p1232
VSuction Cups
p1233
sVwaterbubble
p1234
VWater Bubble
p1235
sVsuperpower
p1236
VSuperpower
p1237
sVchinchou
p1238
VChinchou
p1239
sVvenusaurmega
p1240
VVenusaur-Mega
p1241
sVweezing
p1242
VWeezing
p1243
sVdragonpulse
p1244
VDragon Pulse
p1245
sVelectroball
p1246
VElectro Ball
p1247
sVflash
p1248
VFlash
p1249
sVnetball
p1250
VNet Ball
p1251
sVcharge
p1252
VCharge
p1253
sVquash
p1254
VQuash
p1255
sVsnorlax
p1256
VSnorlax
p1257
sVblackholeeclipse
p1258
VBlack Hole Eclipse
p1259
sVunburden
p1260
VUnburden
p1261
sVrufflet
p1262
VRufflet
p1263
sVmachamp
p1264
VMachamp
p1265
sVkricketune
p1266
VKricketune
p1267
sVtailslap
p1268
VTail Slap
p1269
sVjynx
p1270
VJynx
p1271
sVlopunny
p1272
VLopunny
p1273
sVtwistedspoon
p1274
VTwistedSpoon
p1275
sVtoucannon
p1276
VToucannon
p1277
sVskyuppercut
p1278
VSky Uppercut
p1279
sVmimejr
p1280
VMime Jr.
p1281
sVguzzlord
p1282
VGuzzlord
p1283
sVpoisonsting
p1284
VPoison Sting
p1285
sVdig
p1286
VDig
p1287
sVfocusblast
p1288
VFocus Blast
p1289
sVmesprit
p1290
VMesprit
p1291
sVmagnet
p1292
VMagnet
p1293
sVbanettemega
p1294
VBanette-Mega
p1295
sVround
p1296
VRound
p1297
sVunaware
p1298
VUnaware
p1299
sVduskball
p1300
VDusk Ball
p1301
sVfalseswipe
p1302
VFalse Swipe
p1303
sVtalonflame
p1304
VTalonflame
p1305
sVleafeon
p1306
VLeafeon
p1307
sVminior
p1308
VMinior
p1309
sVzorua
p1310
VZorua
p1311
sVfairymemory
p1312
VFairy Memory
p1313
sVvitalthrow
p1314
VVital Throw
p1315
sVsubstitute
p1316
VSubstitute
p1317
sVcurse
p1318
VCurse
p1319
sVfocusband
p1320
VFocus Band
p1321
sVmoltres
p1322
VMoltres
p1323
sVpasshoberry
p1324
VPassho Berry
p1325
sVtanglinghair
p1326
VTangling Hair
p1327
sVdragondance
p1328
VDragon Dance
p1329
sVaxew
p1330
VAxew
p1331
sVgolemalola
p1332
VGolem-Alola
p1333
sVkecleon
p1334
VKecleon
p1335
sVglameow
p1336
VGlameow
p1337
sVaeroblast
p1338
VAeroblast
p1339
sVwartortle
p1340
VWartortle
p1341
sVexplosion
p1342
VExplosion
p1343
sVmiracleeye
p1344
VMiracle Eye
p1345
sVpumpkaboo
p1346
VPumpkaboo
p1347
sVsimisear
p1348
VSimisear
p1349
sVhoopa
p1350
VHoopa
p1351
sVtropius
p1352
VTropius
p1353
sVgroundmemory
p1354
VGround Memory
p1355
sVmysticwater
p1356
VMystic Water
p1357
sVearthquake
p1358
VEarthquake
p1359
sVgastroacid
p1360
VGastro Acid
p1361
sVejectbutton
p1362
VEject Button
p1363
sVbeedrillmega
p1364
VBeedrill-Mega
p1365
sVexploud
p1366
VExploud
p1367
sVdiveball
p1368
VDive Ball
p1369
sVsawk
p1370
VSawk
p1371
sVsandygast
p1372
VSandygast
p1373
sVdedenne
p1374
VDedenne
p1375
sVdragonite
p1376
VDragonite
p1377
sVbagon
p1378
VBagon
p1379
sVregenerator
p1380
VRegenerator
p1381
sViondeluge
p1382
VIon Deluge
p1383
sVlarvesta
p1384
VLarvesta
p1385
sVmudslap
p1386
VMud-Slap
p1387
sVhawlucha
p1388
VHawlucha
p1389
sVmagicroom
p1390
VMagic Room
p1391
sVampharosite
p1392
VAmpharosite
p1393
sVdesolateland
p1394
VDesolate Land
p1395
sVpinsirite
p1396
VPinsirite
p1397
sVheavyslam
p1398
VHeavy Slam
p1399
sVpinmissile
p1400
VPin Missile
p1401
sVkyogreprimal
p1402
VKyogre-Primal
p1403
sVbanefulbunker
p1404
VBaneful Bunker
p1405
sVtakedown
p1406
VTake Down
p1407
sVcaptivate
p1408
VCaptivate
p1409
sVflamecharge
p1410
VFlame Charge
p1411
sVswagger
p1412
VSwagger
p1413
sVxatu
p1414
VXatu
p1415
sVrockslide
p1416
VRock Slide
p1417
sVcaterpie
p1418
VCaterpie
p1419
sVhypno
p1420
VHypno
p1421
sVelectrike
p1422
VElectrike
p1423
sVfletchling
p1424
VFletchling
p1425
sVseismictoss
p1426
VSeismic Toss
p1427
sVdarumaka
p1428
VDarumaka
p1429
sVuturn
p1430
VU-turn
p1431
sVflygon
p1432
VFlygon
p1433
sVsandstorm
p1434
VSandstorm
p1435
sVswampertite
p1436
VSwampertite
p1437
sVswablu
p1438
VSwablu
p1439
sVcatastropika
p1440
VCatastropika
p1441
sVspikyshield
p1442
VSpiky Shield
p1443
sVscolipede
p1444
VScolipede
p1445
sVdwebble
p1446
VDwebble
p1447
sVpignite
p1448
VPignite
p1449
sVsolarpower
p1450
VSolar Power
p1451
sVvespiquen
p1452
VVespiquen
p1453
sVpalpitoad
p1454
VPalpitoad
p1455
sVchilldrive
p1456
VChill Drive
p1457
sVnormalize
p1458
VNormalize
p1459
sVbanette
p1460
VBanette
p1461
sVtearfullook
p1462
VTearful Look
p1463
sVtailwind
p1464
VTailwind
p1465
sVdianciemega
p1466
VDiancie-Mega
p1467
sVwideguard
p1468
VWide Guard
p1469
sVeelektrik
p1470
VEelektrik
p1471
sVsandforce
p1472
VSand Force
p1473
sVdarkestlariat
p1474
VDarkest Lariat
p1475
sVelectricterrain
p1476
VElectric Terrain
p1477
sVoctillery
p1478
VOctillery
p1479
sVselfdestruct
p1480
VSelf-Destruct
p1481
sVstantler
p1482
VStantler
p1483
sVdive
p1484
VDive
p1485
sVarmaldo
p1486
VArmaldo
p1487
sVdarkmemory
p1488
VDark Memory
p1489
sVwiseglasses
p1490
VWise Glasses
p1491
sVmilkdrink
p1492
VMilk Drink
p1493
sVpowerwhip
p1494
VPower Whip
p1495
sVancientpower
p1496
VAncient Power
p1497
sVblissey
p1498
VBlissey
p1499
sVcryogonal
p1500
VCryogonal
p1501
sVsupersonic
p1502
VSupersonic
p1503
sVpsychicfangs
p1504
VPsychic Fangs
p1505
sVdelibird
p1506
VDelibird
p1507
sVelectricsurge
p1508
VElectric Surge
p1509
sVmalamar
p1510
VMalamar
p1511
sVpurify
p1512
VPurify
p1513
sVshinx
p1514
VShinx
p1515
sVclamperl
p1516
VClamperl
p1517
sVlitwick
p1518
VLitwick
p1519
sVslowbronite
p1520
VSlowbronite
p1521
sVriolu
p1522
VRiolu
p1523
sVlugia
p1524
VLugia
p1525
sVbulletseed
p1526
VBullet Seed
p1527
sVbubblebeam
p1528
VBubble Beam
p1529
sVpachirisu
p1530
VPachirisu
p1531
sVtoxicthread
p1532
VToxic Thread
p1533
sVchilanberry
p1534
VChilan Berry
p1535
sVarcanine
p1536
VArcanine
p1537
sVsneasel
p1538
VSneasel
p1539
sVgrassknot
p1540
VGrass Knot
p1541
sVauroraveil
p1542
VAurora Veil
p1543
sVklutz
p1544
VKlutz
p1545
sVbulldoze
p1546
VBulldoze
p1547
sVfocusenergy
p1548
VFocus Energy
p1549
sVprimordialsea
p1550
VPrimordial Sea
p1551
sVkabuto
p1552
VKabuto
p1553
sVmail
p1554
VMail
p1555
sVfuryswipes
p1556
VFury Swipes
p1557
sVlonely
p1558
VLonely
p1559
sVfling
p1560
VFling
p1561
sVrattled
p1562
VRattled
p1563
sVinsomnia
p1564
VInsomnia
p1565
sVwatermemory
p1566
VWater Memory
p1567
sVfusionflare
p1568
VFusion Flare
p1569
sVsafariball
p1570
VSafari Ball
p1571
sVeffectspore
p1572
VEffect Spore
p1573
sVboomburst
p1574
VBoomburst
p1575
sVregice
p1576
VRegice
p1577
sVlinoone
p1578
VLinoone
p1579
sValtariamega
p1580
VAltaria-Mega
p1581
sVpowerconstruct
p1582
VPower Construct
p1583
sVsynchronize
p1584
VSynchronize
p1585
sVsilvallyghost
p1586
VSilvally-Ghost
p1587
sVmantine
p1588
VMantine
p1589
sVglalie
p1590
VGlalie
p1591
sVpsyduck
p1592
VPsyduck
p1593
sVmentalherb
p1594
VMental Herb
p1595
sVswalot
p1596
VSwalot
p1597
sVgenesectburn
p1598
VGenesect-Burn
p1599
sVporygonz
p1600
VPorygon-Z
p1601
sVstrugglebug
p1602
VStruggle Bug
p1603
sVpersian
p1604
VPersian
p1605
sVcorkscrewcrash
p1606
VCorkscrew Crash
p1607
sVsilvallybug
p1608
VSilvally-Bug
p1609
sVsinisterarrowraid
p1610
VSinister Arrow Raid
p1611
sVsandslashalola
p1612
VSandslash-Alola
p1613
sVlycanroc
p1614
VLycanroc
p1615
sVshaymin
p1616
VShaymin
p1617
sVpidove
p1618
VPidove
p1619
sVrockiumz
p1620
VRockium Z
p1621
sVskillswap
p1622
VSkill Swap
p1623
sVtorracat
p1624
VTorracat
p1625
sVassurance
p1626
VAssurance
p1627
sVpoochyena
p1628
VPoochyena
p1629
sVporygon2
p1630
VPorygon2
p1631
sVtoxicroak
p1632
VToxicroak
p1633
sVsteelwing
p1634
VSteel Wing
p1635
sVunown
p1636
VUnown
p1637
sVbitterberry
p1638
VBitter Berry
p1639
sVpoliwhirl
p1640
VPoliwhirl
p1641
sVpetilil
p1642
VPetilil
p1643
sVtelepathy
p1644
VTelepathy
p1645
sVstufful
p1646
VStufful
p1647
sVnidorino
p1648
VNidorino
p1649
sVmeloettapirouette
p1650
VMeloetta-Pirouette
p1651
sVnidorina
p1652
VNidorina
p1653
sVhypnosis
p1654
VHypnosis
p1655
sVdurinberry
p1656
VDurin Berry
p1657
sVdragonrage
p1658
VDragon Rage
p1659
sVjolteon
p1660
VJolteon
p1661
sVdefensecurl
p1662
VDefense Curl
p1663
sVrocktomb
p1664
VRock Tomb
p1665
sVchikorita
p1666
VChikorita
p1667
sVrockyhelmet
p1668
VRocky Helmet
p1669
sVspewpa
p1670
VSpewpa
p1671
sVjabocaberry
p1672
VJaboca Berry
p1673
sVhoppip
p1674
VHoppip
p1675
sVpalossand
p1676
VPalossand
p1677
sViceshard
p1678
VIce Shard
p1679
sVgiratina
p1680
VGiratina
p1681
sVteravolt
p1682
VTeravolt
p1683
sVbite
p1684
VBite
p1685
sVduosion
p1686
VDuosion
p1687
sVaromatherapy
p1688
VAromatherapy
p1689
sVsleeptalk
p1690
VSleep Talk
p1691
sVconfuseray
p1692
VConfuse Ray
p1693
sVdrainpunch
p1694
VDrain Punch
p1695
sVgliscor
p1696
VGliscor
p1697
sVseedot
p1698
VSeedot
p1699
sVsnatch
p1700
VSnatch
p1701
sVslakoth
p1702
VSlakoth
p1703
sVbunnelby
p1704
VBunnelby
p1705
sVdrapion
p1706
VDrapion
p1707
sVpeck
p1708
VPeck
p1709
sVchespin
p1710
VChespin
p1711
sVghostmemory
p1712
VGhost Memory
p1713
sVkartana
p1714
VKartana
p1715
sVearthplate
p1716
VEarth Plate
p1717
sVgarbodor
p1718
VGarbodor
p1719
sVtrickortreat
p1720
VTrick-or-Treat
p1721
sVcubone
p1722
VCubone
p1723
sVhiddenpowerrock
p1724
VHidden Power Rock
p1725
sVrazzberry
p1726
VRazz Berry
p1727
sVchlorophyll
p1728
VChlorophyll
p1729
sVsilvallyrock
p1730
VSilvally-Rock
p1731
sViceberry
p1732
VIce Berry
p1733
sVsandstream
p1734
VSand Stream
p1735
sVledyba
p1736
VLedyba
p1737
sVaquatail
p1738
VAqua Tail
p1739
sVarceusdark
p1740
VArceus-Dark
p1741
sVkrilowatt
p1742
VKrilowatt
p1743
sVrecover
p1744
VRecover
p1745
sVflyingmemory
p1746
VFlying Memory
p1747
sVconversion
p1748
VConversion
p1749
sVelectrode
p1750
VElectrode
p1751
sVreckless
p1752
VReckless
p1753
sVhiddenpowerdark
p1754
VHidden Power Dark
p1755
sVmetalsound
p1756
VMetal Sound
p1757
sVarghonaut
p1758
VArghonaut
p1759
sVbeedrill
p1760
VBeedrill
p1761
sVsurf
p1762
VSurf
p1763
sVgriseousorb
p1764
VGriseous Orb
p1765
sVneverendingnightmare
p1766
VNever-Ending Nightmare
p1767
sVmountaineer
p1768
VMountaineer
p1769
sVstunky
p1770
VStunky
p1771
sVtrace
p1772
VTrace
p1773
sVquagsire
p1774
VQuagsire
p1775
sVgeargrind
p1776
VGear Grind
p1777
sVdarkrai
p1778
VDarkrai
p1779
sVbarrage
p1780
VBarrage
p1781
sVbonemerang
p1782
VBonemerang
p1783
sVstunfisk
p1784
VStunfisk
p1785
sVadaptability
p1786
VAdaptability
p1787
sVespurr
p1788
VEspurr
p1789
sVleaftornado
p1790
VLeaf Tornado
p1791
sVhyperfang
p1792
VHyper Fang
p1793
sVdracoplate
p1794
VDraco Plate
p1795
sVhyperspacefury
p1796
VHyperspace Fury
p1797
sVelectirizer
p1798
VElectirizer
p1799
sVmollux
p1800
VMollux
p1801
sVmuddywater
p1802
VMuddy Water
p1803
sVmothim
p1804
VMothim
p1805
sVcompoundeyes
p1806
VCompound Eyes
p1807
sVdelphox
p1808
VDelphox
p1809
sVhakamoo
p1810
VHakamo-o
p1811
sVtintedlens
p1812
VTinted Lens
p1813
sVgolurk
p1814
VGolurk
p1815
sVfigyberry
p1816
VFigy Berry
p1817
sVgoodra
p1818
VGoodra
p1819
sVrevenankh
p1820
VRevenankh
p1821
sVvolbeat
p1822
VVolbeat
p1823
sVpulverizingpancake
p1824
VPulverizing Pancake
p1825
sVemergencyexit
p1826
VEmergency Exit
p1827
sVburndrive
p1828
VBurn Drive
p1829
sVpartingshot
p1830
VParting Shot
p1831
sVpatrat
p1832
VPatrat
p1833
sVacupressure
p1834
VAcupressure
p1835
sVanalytic
p1836
VAnalytic
p1837
sVsilvallysteel
p1838
VSilvally-Steel
p1839
sVprobopass
p1840
VProbopass
p1841
sVoutrage
p1842
VOutrage
p1843
sVleavanny
p1844
VLeavanny
p1845
sVlycanrocmidnight
p1846
VLycanroc-Midnight
p1847
sVkinesis
p1848
VKinesis
p1849
sVweaknesspolicy
p1850
VWeakness Policy
p1851
sVstomp
p1852
VStomp
p1853
sVpersianalola
p1854
VPersian-Alola
p1855
sVboneclub
p1856
VBone Club
p1857
sVtelekinesis
p1858
VTelekinesis
p1859
sVmoxie
p1860
VMoxie
p1861
sVcelebrate
p1862
VCelebrate
p1863
sVshuppet
p1864
VShuppet
p1865
sVparkball
p1866
VPark Ball
p1867
sVlatiasite
p1868
VLatiasite
p1869
sVcrucibelle
p1870
VCrucibelle
p1871
sVwonderskin
p1872
VWonder Skin
p1873
sVhiddenpowerfighting
p1874
VHidden Power Fighting
p1875
sVimposter
p1876
VImposter
p1877
sVspore
p1878
VSpore
p1879
sVforesight
p1880
VForesight
p1881
sVdetect
p1882
VDetect
p1883
sVsteadfast
p1884
VSteadfast
p1885
sVlimber
p1886
VLimber
p1887
sVbatonpass
p1888
VBaton Pass
p1889
sVbeakblast
p1890
VBeak Blast
p1891
sVforecast
p1892
VForecast
p1893
sVwhiscash
p1894
VWhiscash
p1895
sVsnowwarning
p1896
VSnow Warning
p1897
sVjustified
p1898
VJustified
p1899
sVghostiumz
p1900
VGhostium Z
p1901
sVdamprock
p1902
VDamp Rock
p1903
sVhariyama
p1904
VHariyama
p1905
sVcrawdaunt
p1906
VCrawdaunt
p1907
sVpluck
p1908
VPluck
p1909
sVfuryattack
p1910
VFury Attack
p1911
sVroseincense
p1912
VRose Incense
p1913
sVspiderweb
p1914
VSpider Web
p1915
sVbrutalswing
p1916
VBrutal Swing
p1917
sVdestinyknot
p1918
VDestiny Knot
p1919
sVluminousmoss
p1920
VLuminous Moss
p1921
sVvivillonpokeball
p1922
VVivillon-Pokeball
p1923
sVpoisonmemory
p1924
VPoison Memory
p1925
sVsteelix
p1926
VSteelix
p1927
sVnestball
p1928
VNest Ball
p1929
sVberry
p1930
VBerry
p1931
sVcellbattery
p1932
VCell Battery
p1933
sVpheromosa
p1934
VPheromosa
p1935
sVwingattack
p1936
VWing Attack
p1937
sVnormalgem
p1938
VNormal Gem
p1939
sVsmartstrike
p1940
VSmart Strike
p1941
sVhiddenpowersteel
p1942
VHidden Power Steel
p1943
sVtyranitarite
p1944
VTyranitarite
p1945
sVdodrio
p1946
VDodrio
p1947
sVtapubulu
p1948
VTapu Bulu
p1949
sVstancechange
p1950
VStance Change
p1951
sVzapdos
p1952
VZapdos
p1953
sVendeavor
p1954
VEndeavor
p1955
sVechoedvoice
p1956
VEchoed Voice
p1957
sVrunaway
p1958
VRun Away
p1959
sVlandswrath
p1960
VLand's Wrath
p1961
sVmawilemega
p1962
VMawile-Mega
p1963
sVdewpider
p1964
VDewpider
p1965
sVlightmetal
p1966
VLight Metal
p1967
sVburntberry
p1968
VBurnt Berry
p1969
sVstunspore
p1970
VStun Spore
p1971
sVxerneas
p1972
VXerneas
p1973
sVchopleberry
p1974
VChople Berry
p1975
sVhighjumpkick
p1976
VHigh Jump Kick
p1977
sVgripclaw
p1978
VGrip Claw
p1979
sVlopunnymega
p1980
VLopunny-Mega
p1981
sVwhirlipede
p1982
VWhirlipede
p1983
sVflamebody
p1984
VFlame Body
p1985
sVhelioptile
p1986
VHelioptile
p1987
sVcresselia
p1988
VCresselia
p1989
sVvictreebel
p1990
VVictreebel
p1991
sVomanyte
p1992
VOmanyte
p1993
sVbreloom
p1994
VBreloom
p1995
sVstormthrow
p1996
VStorm Throw
p1997
sVhealblock
p1998
VHeal Block
p1999
sVswanna
p2000
VSwanna
p2001
sVskiddo
p2002
VSkiddo
p2003
sVcareful
p2004
VCareful
p2005
sVmudshot
p2006
VMud Shot
p2007
sVsteelworker
p2008
VSteelworker
p2009
sVdefeatist
p2010
VDefeatist
p2011
sVbugmemory
p2012
VBug Memory
p2013
sVtrick
p2014
VTrick
p2015
sVlandorus
p2016
VLandorus
p2017
sVgroudon
p2018
VGroudon
p2019
sVspotlight
p2020
VSpotlight
p2021
sVrhyhorn
p2022
VRhyhorn
p2023
sVquiet
p2024
VQuiet
p2025
sVshadowclaw
p2026
VShadow Claw
p2027
sVsacredfire
p2028
VSacred Fire
p2029
sVmonferno
p2030
VMonferno
p2031
sVvicegrip
p2032
VVice Grip
p2033
sVgourgeistlarge
p2034
VGourgeist-Large
p2035
sVcubchoo
p2036
VCubchoo
p2037
sVprimariumz
p2038
VPrimarium Z
p2039
sVhiddenpowerice
p2040
VHidden Power Ice
p2041
sVextremespeed
p2042
VExtreme Speed
p2043
sVangerpoint
p2044
VAnger Point
p2045
sVphantomforce
p2046
VPhantom Force
p2047
sVstrongjaw
p2048
VStrong Jaw
p2049
sVbrionne
p2050
VBrionne
p2051
sVkrookodile
p2052
VKrookodile
p2053
sVnuzzle
p2054
VNuzzle
p2055
sVmistysurge
p2056
VMisty Surge
p2057
sVgenesectshock
p2058
VGenesect-Shock
p2059
sVmagnetbomb
p2060
VMagnet Bomb
p2061
sVassist
p2062
VAssist
p2063
sVblaziken
p2064
VBlaziken
p2065
sVbulletproof
p2066
VBulletproof
p2067
sVsteelgem
p2068
VSteel Gem
p2069
sVpangoro
p2070
VPangoro
p2071
sVhypervoice
p2072
VHyper Voice
p2073
sVminimize
p2074
VMinimize
p2075
sVdoublehit
p2076
VDouble Hit
p2077
sVmedicham
p2078
VMedicham
p2079
sVmrmime
p2080
VMr. Mime
p2081
sVmasterball
p2082
VMaster Ball
p2083
sVspark
p2084
VSpark
p2085
sVdrampa
p2086
VDrampa
p2087
sVrazorwind
p2088
VRazor Wind
p2089
sVfurcoat
p2090
VFur Coat
p2091
sVhealingwish
p2092
VHealing Wish
p2093
sVquickguard
p2094
VQuick Guard
p2095
sVwingull
p2096
VWingull
p2097
sVsnorliumz
p2098
VSnorlium Z
p2099
sVfurfrou
p2100
VFurfrou
p2101
sVchimchar
p2102
VChimchar
p2103
sVdarkaura
p2104
VDark Aura
p2105
sVrazorclaw
p2106
VRazor Claw
p2107
sVdragonbreath
p2108
VDragon Breath
p2109
sVelgyem
p2110
VElgyem
p2111
sVduskull
p2112
VDuskull
p2113
sVcometpunch
p2114
VComet Punch
p2115
sVaerialace
p2116
VAerial Ace
p2117
sVparas
p2118
VParas
p2119
sVrayquazamega
p2120
VRayquaza-Mega
p2121
sVflareblitz
p2122
VFlare Blitz
p2123
sVxurkitree
p2124
VXurkitree
p2125
sVtrubbish
p2126
VTrubbish
p2127
sVsnarl
p2128
VSnarl
p2129
sVmachpunch
p2130
VMach Punch
p2131
sVvolkraken
p2132
VVolkraken
p2133
sVsunkern
p2134
VSunkern
p2135
sVbreakneckblitz
p2136
VBreakneck Blitz
p2137
sVcolossoil
p2138
VColossoil
p2139
sVdreamball
p2140
VDream Ball
p2141
sVsnore
p2142
VSnore
p2143
sVfloatstone
p2144
VFloat Stone
p2145
sVskiploom
p2146
VSkiploom
p2147
sVregigigas
p2148
VRegigigas
p2149
sVzingzap
p2150
VZing Zap
p2151
sVvoltswitch
p2152
VVolt Switch
p2153
sVarceusrock
p2154
VArceus-Rock
p2155
sVbrightpowder
p2156
VBrightPowder
p2157
sVhypercutter
p2158
VHyper Cutter
p2159
sVvanillite
p2160
VVanillite
p2161
sVchoiceband
p2162
VChoice Band
p2163
sVheartswap
p2164
VHeart Swap
p2165
sVsubzeroslammer
p2166
VSubzero Slammer
p2167
sVheatcrash
p2168
VHeat Crash
p2169
sVpinapberry
p2170
VPinap Berry
p2171
sVminccino
p2172
VMinccino
p2173
sVbellsprout
p2174
VBellsprout
p2175
sVprinplup
p2176
VPrinplup
p2177
sVaudinomega
p2178
VAudino-Mega
p2179
sVmachoke
p2180
VMachoke
p2181
sVultraball
p2182
VUltra Ball
p2183
sVcrustle
p2184
VCrustle
p2185
sVpowergem
p2186
VPower Gem
p2187
sViceburn
p2188
VIce Burn
p2189
sVbattlearmor
p2190
VBattle Armor
p2191
sVvolcanion
p2192
VVolcanion
p2193
sVcastformsnowy
p2194
VCastform-Snowy
p2195
sVhustle
p2196
VHustle
p2197
sVthroh
p2198
VThroh
p2199
sVmusharna
p2200
VMusharna
p2201
sVinnerfocus
p2202
VInner Focus
p2203
sVbasculinbluestriped
p2204
VBasculin-Blue-Striped
p2205
sVdragonhammer
p2206
VDragon Hammer
p2207
sVhornattack
p2208
VHorn Attack
p2209
sVcomfey
p2210
VComfey
p2211
sVzapcannon
p2212
VZap Cannon
p2213
sVroar
p2214
VRoar
p2215
sVlockon
p2216
VLock-On
p2217
sVfloette
p2218
VFloette
p2219
sVgengar
p2220
VGengar
p2221
sVroserade
p2222
VRoserade
p2223
sVquilava
p2224
VQuilava
p2225
sVcustapberry
p2226
VCustap Berry
p2227
sVsearingshot
p2228
VSearing Shot
p2229
sVstratagem
p2230
VStratagem
p2231
sVpyroar
p2232
VPyroar
p2233
sVfennekin
p2234
VFennekin
p2235
sVshadowpunch
p2236
VShadow Punch
p2237
sVfocuspunch
p2238
VFocus Punch
p2239
sVbindingband
p2240
VBinding Band
p2241
sVtoughclaws
p2242
VTough Claws
p2243
sVforewarn
p2244
VForewarn
p2245
sViciclespear
p2246
VIcicle Spear
p2247
sVpyroak
p2248
VPyroak
p2249
sVgigalith
p2250
VGigalith
p2251
sVsurgesurfer
p2252
VSurge Surfer
p2253
sVhex
p2254
VHex
p2255
sVmarill
p2256
VMarill
p2257
sVprimarina
p2258
VPrimarina
p2259
sVsymbiosis
p2260
VSymbiosis
p2261
sVgalvanize
p2262
VGalvanize
p2263
sVwillowisp
p2264
VWill-O-Wisp
p2265
sVbubble
p2266
VBubble
p2267
sVfastball
p2268
VFast Ball
p2269
sVglaciate
p2270
VGlaciate
p2271
sVnightshade
p2272
VNight Shade
p2273
sVfrogadier
p2274
VFrogadier
p2275
sVporygon
p2276
VPorygon
p2277
sVheatrock
p2278
VHeat Rock
p2279
sVvitalspirit
p2280
VVital Spirit
p2281
sVcrabominable
p2282
VCrabominable
p2283
sVrage
p2284
VRage
p2285
sVsandshrewalola
p2286
VSandshrew-Alola
p2287
sVvictorystar
p2288
VVictory Star
p2289
sVvinewhip
p2290
VVine Whip
p2291
sVstoneplate
p2292
VStone Plate
p2293
sVember
p2294
VEmber
p2295
sVsplashplate
p2296
VSplash Plate
p2297
sVpowdersnow
p2298
VPowder Snow
p2299
sVrockruff
p2300
VRockruff
p2301
sVchesnaught
p2302
VChesnaught
p2303
sVgrepaberry
p2304
VGrepa Berry
p2305
sVrhydon
p2306
VRhydon
p2307
sVsmokescreen
p2308
VSmokescreen
p2309
sVmoonblast
p2310
VMoonblast
p2311
sVcolburberry
p2312
VColbur Berry
p2313
sVsilvallydragon
p2314
VSilvally-Dragon
p2315
sVhydrovortex
p2316
VHydro Vortex
p2317
sVsoulstealing7starstrike
p2318
VSoul-Stealing 7-Star Strike
p2319
sVimmunity
p2320
VImmunity
p2321
sVtangela
p2322
VTangela
p2323
sVcharizard
p2324
VCharizard
p2325
sVgolem
p2326
VGolem
p2327
sVstompingtantrum
p2328
VStomping Tantrum
p2329
sVmirrorcoat
p2330
VMirror Coat
p2331
sVemboar
p2332
VEmboar
p2333
sVdustox
p2334
VDustox
p2335
sVrootfossil
p2336
VRoot Fossil
p2337
sVzigzagoon
p2338
VZigzagoon
p2339
sVtackle
p2340
VTackle
p2341
sVpopplio
p2342
VPopplio
p2343
sVrotomwash
p2344
VRotom-Wash
p2345
sVgrudge
p2346
VGrudge
p2347
sVcyndaquil
p2348
VCyndaquil
p2349
sVblueflare
p2350
VBlue Flare
p2351
sVdefog
p2352
VDefog
p2353
sVberserkgene
p2354
VBerserk Gene
p2355
sVskyattack
p2356
VSky Attack
p2357
sVmoonlight
p2358
VMoonlight
p2359
sVmimic
p2360
VMimic
p2361
sVstockpile
p2362
VStockpile
p2363
sVoddincense
p2364
VOdd Incense
p2365
sVmeloetta
p2366
VMeloetta
p2367
sVgardevoirmega
p2368
VGardevoir-Mega
p2369
sVlairon
p2370
VLairon
p2371
sVeerieimpulse
p2372
VEerie Impulse
p2373
sVscrappy
p2374
VScrappy
p2375
sVtogetic
p2376
VTogetic
p2377
sVfirepunch
p2378
VFire Punch
p2379
sVunfezant
p2380
VUnfezant
p2381
sVmicleberry
p2382
VMicle Berry
p2383
sVjolly
p2384
VJolly
p2385
sVsalandit
p2386
VSalandit
p2387
sVbewear
p2388
VBewear
p2389
sVlightningrod
p2390
VLightning Rod
p2391
sVgigadrain
p2392
VGiga Drain
p2393
sVsilverpowder
p2394
VSilverPowder
p2395
sVvanillish
p2396
VVanillish
p2397
sVvenomdrench
p2398
VVenom Drench
p2399
sVbayleef
p2400
VBayleef
p2401
sVhondewberry
p2402
VHondew Berry
p2403
sVbloomdoom
p2404
VBloom Doom
p2405
sVtympole
p2406
VTympole
p2407
sVwigglytuff
p2408
VWigglytuff
p2409
sVtyranitarmega
p2410
VTyranitar-Mega
p2411
sVicepunch
p2412
VIce Punch
p2413
sVgalvantula
p2414
VGalvantula
p2415
sVcombusken
p2416
VCombusken
p2417
sVcloudnine
p2418
VCloud Nine
p2419
sVmienshao
p2420
VMienshao
p2421
sVkeeberry
p2422
VKee Berry
p2423
sVsteameruption
p2424
VSteam Eruption
p2425
sVmild
p2426
VMild
p2427
sVscrafty
p2428
VScrafty
p2429
sVsecretpower
p2430
VSecret Power
p2431
sVshadowtag
p2432
VShadow Tag
p2433
sVpidgeotmega
p2434
VPidgeot-Mega
p2435
sVdoublekick
p2436
VDouble Kick
p2437
sVsandtomb
p2438
VSand Tomb
p2439
sVflorges
p2440
VFlorges
p2441
sVgourgeistsuper
p2442
VGourgeist-Super
p2443
sVironbarbs
p2444
VIron Barbs
p2445
sValtaria
p2446
VAltaria
p2447
sVcrushgrip
p2448
VCrush Grip
p2449
sVmagikarp
p2450
VMagikarp
p2451
sVseedbomb
p2452
VSeed Bomb
p2453
sVmeganium
p2454
VMeganium
p2455
sVchipaway
p2456
VChip Away
p2457
sVhealer
p2458
VHealer
p2459
sVfeatherdance
p2460
VFeather Dance
p2461
sVshockwave
p2462
VShock Wave
p2463
sVironplate
p2464
VIron Plate
p2465
sVgreatball
p2466
VGreat Ball
p2467
sVfellstinger
p2468
VFell Stinger
p2469
sVwateriumz
p2470
VWaterium Z
p2471
sVfightiniumz
p2472
VFightinium Z
p2473
sVheartstamp
p2474
VHeart Stamp
p2475
sVboldore
p2476
VBoldore
p2477
sVcombee
p2478
VCombee
p2479
sVdragonfang
p2480
VDragon Fang
p2481
sVgastly
p2482
VGastly
p2483
sVrevenge
p2484
VRevenge
p2485
sVclearsmog
p2486
VClear Smog
p2487
sVsteenee
p2488
VSteenee
p2489
sVanticipation
p2490
VAnticipation
p2491
sVinfernape
p2492
VInfernape
p2493
sVdecidiumz
p2494
VDecidium Z
p2495
sVaromatisse
p2496
VAromatisse
p2497
sVbattlebond
p2498
VBattle Bond
p2499
sVkyuremwhite
p2500
VKyurem-White
p2501
sVacidspray
p2502
VAcid Spray
p2503
sVcursedbody
p2504
VCursed Body
p2505
sVkyurem
p2506
VKyurem
p2507
sVwringout
p2508
VWring Out
p2509
sVstarly
p2510
VStarly
p2511
sVstruggle
p2512
VStruggle
p2513
sVgolett
p2514
VGolett
p2515
sVinciniumz
p2516
VIncinium Z
p2517
sVgyaradosmega
p2518
VGyarados-Mega
p2519
sVgallade
p2520
VGallade
p2521
sVoranguru
p2522
VOranguru
p2523
sVledian
p2524
VLedian
p2525
sVcutiefly
p2526
VCutiefly
p2527
sVscraggy
p2528
VScraggy
p2529
sVelectricseed
p2530
VElectric Seed
p2531
sVluvdisc
p2532
VLuvdisc
p2533
sVhelixfossil
p2534
VHelix Fossil
p2535
sVsavagespinout
p2536
VSavage Spin-Out
p2537
sVsplash
p2538
VSplash
p2539
sVillumise
p2540
VIllumise
p2541
sVgirafarig
p2542
VGirafarig
p2543
sVanorith
p2544
VAnorith
p2545
sVfairiumz
p2546
VFairium Z
p2547
sVdizzypunch
p2548
VDizzy Punch
p2549
sVflyingpress
p2550
VFlying Press
p2551
sVbounsweet
p2552
VBounsweet
p2553
sVpumpkaboosuper
p2554
VPumpkaboo-Super
p2555
sVhorsea
p2556
VHorsea
p2557
sVstick
p2558
VStick
p2559
sVrazorfang
p2560
VRazor Fang
p2561
sVwatergem
p2562
VWater Gem
p2563
sVturboblaze
p2564
VTurboblaze
p2565
sVaegislashblade
p2566
VAegislash-Blade
p2567
sVnaturalgift
p2568
VNatural Gift
p2569
sVenergypowder
p2570
VEnergy Powder
p2571
sVchartiberry
p2572
VCharti Berry
p2573
sVlumberry
p2574
VLum Berry
p2575
sVvoltorb
p2576
VVoltorb
p2577
sVshadowshield
p2578
VShadow Shield
p2579
sVskyplate
p2580
VSky Plate
p2581
sVsableye
p2582
VSableye
p2583
sVseviper
p2584
VSeviper
p2585
sVmarvelscale
p2586
VMarvel Scale
p2587
sVaurumoth
p2588
VAurumoth
p2589
sVflowerveil
p2590
VFlower Veil
p2591
sVstaryu
p2592
VStaryu
p2593
sVwishiwashi
p2594
VWishiwashi
p2595
sVshelltrap
p2596
VShell Trap
p2597
sVwikiberry
p2598
VWiki Berry
p2599
sVwobbuffet
p2600
VWobbuffet
p2601
sVteleport
p2602
VTeleport
p2603
sVshelmet
p2604
VShelmet
p2605
sVglalitite
p2606
VGlalitite
p2607
sVflyinggem
p2608
VFlying Gem
p2609
sVbulkup
p2610
VBulk Up
p2611
sVglaceon
p2612
VGlaceon
p2613
sVwonderguard
p2614
VWonder Guard
p2615
sVprismarmor
p2616
VPrism Armor
p2617
sVelectricgem
p2618
VElectric Gem
p2619
sVrotomfan
p2620
VRotom-Fan
p2621
sVsignalbeam
p2622
VSignal Beam
p2623
sVshuckle
p2624
VShuckle
p2625
sVreflect
p2626
VReflect
p2627
sVdisable
p2628
VDisable
p2629
sVliquidooze
p2630
VLiquid Ooze
p2631
sVmistyterrain
p2632
VMisty Terrain
p2633
sVfairygem
p2634
VFairy Gem
p2635
sVmedichammega
p2636
VMedicham-Mega
p2637
sVtoxicplate
p2638
VToxic Plate
p2639
sVlanturn
p2640
VLanturn
p2641
sVpineco
p2642
VPineco
p2643
sVcomatose
p2644
VComatose
p2645
sVretaliate
p2646
VRetaliate
p2647
sVphantump
p2648
VPhantump
p2649
sVgolisopod
p2650
VGolisopod
p2651
sVqueenlymajesty
p2652
VQueenly Majesty
p2653
sVcorphish
p2654
VCorphish
p2655
sVbastiodon
p2656
VBastiodon
p2657
sVwatmelberry
p2658
VWatmel Berry
p2659
sVarticuno
p2660
VArticuno
p2661
sVfissure
p2662
VFissure
p2663
sVvolcarona
p2664
VVolcarona
p2665
sVblackglasses
p2666
VBlack Glasses
p2667
sVplayrough
p2668
VPlay Rough
p2669
sVhealorder
p2670
VHeal Order
p2671
sVjigglypuff
p2672
VJigglypuff
p2673
sVsandslash
p2674
VSandslash
p2675
sVastonish
p2676
VAstonish
p2677
sVenergyball
p2678
VEnergy Ball
p2679
sVaggron
p2680
VAggron
p2681
sVlampent
p2682
VLampent
p2683
sVfistplate
p2684
VFist Plate
p2685
sVreturn
p2686
VReturn
p2687
sVmanectricmega
p2688
VManectric-Mega
p2689
sVsnowball
p2690
VSnowball
p2691
sVsolarbeam
p2692
VSolar Beam
p2693
sVcharizardmegax
p2694
VCharizard-Mega-X
p2695
sVcharizardmegay
p2696
VCharizard-Mega-Y
p2697
sVclefable
p2698
VClefable
p2699
sVskuntank
p2700
VSkuntank
p2701
sVprimeape
p2702
VPrimeape
p2703
sVgabite
p2704
VGabite
p2705
sVgrubbin
p2706
VGrubbin
p2707
sVmissingno
p2708
VMissingno.
p2709
sVhooh
p2710
VHo-Oh
p2711
sVrefresh
p2712
VRefresh
p2713
sVspoink
p2714
VSpoink
p2715
sVlovelykiss
p2716
VLovely Kiss
p2717
sVmeanlook
p2718
VMean Look
p2719
sVgumshoos
p2720
VGumshoos
p2721
sVclamp
p2722
VClamp
p2723
sVtopsyturvy
p2724
VTopsy-Turvy
p2725
sVquickfeet
p2726
VQuick Feet
p2727
sVsilvallyelectric
p2728
VSilvally-Electric
p2729
sVwatershuriken
p2730
VWater Shuriken
p2731
sVtsareena
p2732
VTsareena
p2733
sVthunderbolt
p2734
VThunderbolt
p2735
sVmagnezone
p2736
VMagnezone
p2737
sVtrickroom
p2738
VTrick Room
p2739
sVmist
p2740
VMist
p2741
sVwatercompaction
p2742
VWater Compaction
p2743
sVhiddenpowerpsychic
p2744
VHidden Power Psychic
p2745
sVelectroweb
p2746
VElectroweb
p2747
sVkangaskhanmega
p2748
VKangaskhan-Mega
p2749
sVsalamence
p2750
VSalamence
p2751
sVarceuswater
p2752
VArceus-Water
p2753
sVarceusice
p2754
VArceus-Ice
p2755
sVsuperfang
p2756
VSuper Fang
p2757
sVsilvallyground
p2758
VSilvally-Ground
p2759
sVchoicescarf
p2760
VChoice Scarf
p2761
sVroggenrola
p2762
VRoggenrola
p2763
sVflashcannon
p2764
VFlash Cannon
p2765
sVironhead
p2766
VIron Head
p2767
sVsentret
p2768
VSentret
p2769
sVpichuspikyeared
p2770
VPichu-Spiky-eared
p2771
sVtyrogue
p2772
VTyrogue
p2773
sVcleffa
p2774
VCleffa
p2775
sVwaterabsorb
p2776
VWater Absorb
p2777
sVtoxicboost
p2778
VToxic Boost
p2779
sVninetales
p2780
VNinetales
p2781
sVnidoranf
p2782
VNidoran-F
p2783
sVcottonspore
p2784
VCotton Spore
p2785
sVnidoranm
p2786
VNidoran-M
p2787
sVparaboliccharge
p2788
VParabolic Charge
p2789
sVscopelens
p2790
VScope Lens
p2791
sVhydreigon
p2792
VHydreigon
p2793
sVrockpolish
p2794
VRock Polish
p2795
sVmightyena
p2796
VMightyena
p2797
sVabomasnowmega
p2798
VAbomasnow-Mega
p2799
sVmanaphy
p2800
VManaphy
p2801
sVbrave
p2802
VBrave
p2803
sVstoredpower
p2804
VStored Power
p2805
sVapicotberry
p2806
VApicot Berry
p2807
sVpetaldance
p2808
VPetal Dance
p2809
sVmeowstic
p2810
VMeowstic
p2811
sVboltstrike
p2812
VBolt Strike
p2813
sVraikou
p2814
VRaikou
p2815
sVswarm
p2816
VSwarm
p2817
sVbibarel
p2818
VBibarel
p2819
sVpsncureberry
p2820
VPSN Cure Berry
p2821
sVdazzlinggleam
p2822
VDazzling Gleam
p2823
sVlandorustherian
p2824
VLandorus-Therian
p2825
sVshedinja
p2826
VShedinja
p2827
sVpikashuniumz
p2828
VPikashunium Z
p2829
sVpsybeam
p2830
VPsybeam
p2831
sVsuckerpunch
p2832
VSucker Punch
p2833
sVdragonascent
p2834
VDragon Ascent
p2835
sVfreezeshock
p2836
VFreeze Shock
p2837
sVpsywave
p2838
VPsywave
p2839
sVdrillrun
p2840
VDrill Run
p2841
sVwhiteherb
p2842
VWhite Herb
p2843
sVringtarget
p2844
VRing Target
p2845
sVvenipede
p2846
VVenipede
p2847
sVdarkpulse
p2848
VDark Pulse
p2849
sVyamask
p2850
VYamask
p2851
sVstall
p2852
VStall
p2853
sVsharpedonite
p2854
VSharpedonite
p2855
sVmerciless
p2856
VMerciless
p2857
sVdoubleedge
p2858
VDouble-Edge
p2859
sVremoraid
p2860
VRemoraid
p2861
sVclefairy
p2862
VClefairy
p2863
sVklink
p2864
VKlink
p2865
sVfirespin
p2866
VFire Spin
p2867
sVgenesectchill
p2868
VGenesect-Chill
p2869
sVsuicune
p2870
VSuicune
p2871
sVthundurustherian
p2872
VThundurus-Therian
p2873
sVpamtreberry
p2874
VPamtre Berry
p2875
sVmegahorn
p2876
VMegahorn
p2877
sVslowbromega
p2878
VSlowbro-Mega
p2879
sVzenmode
p2880
VZen Mode
p2881
sVsunflora
p2882
VSunflora
p2883
sVariados
p2884
VAriados
p2885
sVgourgeist
p2886
VGourgeist
p2887
sVbarbaracle
p2888
VBarbaracle
p2889
sVairballoon
p2890
VAir Balloon
p2891
sVswirlix
p2892
VSwirlix
p2893
sVlitleo
p2894
VLitleo
p2895
sVcamouflage
p2896
VCamouflage
p2897
sVfrillish
p2898
VFrillish
p2899
sVroselia
p2900
VRoselia
p2901
sVkangaskhan
p2902
VKangaskhan
p2903
sVregirock
p2904
VRegirock
p2905
sVpansage
p2906
VPansage
p2907
sVswitcheroo
p2908
VSwitcheroo
p2909
sValakazammega
p2910
VAlakazam-Mega
p2911
sVrockgem
p2912
VRock Gem
p2913
sVeruption
p2914
VEruption
p2915
sVyawn
p2916
VYawn
p2917
sVcharm
p2918
VCharm
p2919
sVdiglett
p2920
VDiglett
p2921
sVbeldum
p2922
VBeldum
p2923
sVhabanberry
p2924
VHaban Berry
p2925
sVcrosspoison
p2926
VCross Poison
p2927
sVcarvanha
p2928
VCarvanha
p2929
sVrefrigerate
p2930
VRefrigerate
p2931
sVlowsweep
p2932
VLow Sweep
p2933
sVsturdy
p2934
VSturdy
p2935
sVcovet
p2936
VCovet
p2937
sVlax
p2938
VLax
p2939
sVlunala
p2940
VLunala
p2941
sVmarshadiumz
p2942
VMarshadium Z
p2943
sVgenesectdouse
p2944
VGenesect-Douse
p2945
sVkaratechop
p2946
VKarate Chop
p2947
sVworryseed
p2948
VWorry Seed
p2949
sVazumarill
p2950
VAzumarill
p2951
sVmetalburst
p2952
VMetal Burst
p2953
sVherdier
p2954
VHerdier
p2955
sVguardsplit
p2956
VGuard Split
p2957
sVnanabberry
p2958
VNanab Berry
p2959
sVzoomlens
p2960
VZoom Lens
p2961
sVblackbelt
p2962
VBlack Belt
p2963
sVhammerarm
p2964
VHammer Arm
p2965
sVmagmaarmor
p2966
VMagma Armor
p2967
sVcrabrawler
p2968
VCrabrawler
p2969
sVpayday
p2970
VPay Day
p2971
sVgooey
p2972
VGooey
p2973
sVoblivionwing
p2974
VOblivion Wing
p2975
sVtyrantrum
p2976
VTyrantrum
p2977
sVhealpulse
p2978
VHeal Pulse
p2979
sVheadcharge
p2980
VHead Charge
p2981
sVpawniard
p2982
VPawniard
p2983
sVpoisontail
p2984
VPoison Tail
p2985
sVrest
p2986
VRest
p2987
sVdocile
p2988
VDocile
p2989
sVfireblast
p2990
VFire Blast
p2991
sVmaliciousmoonsault
p2992
VMalicious Moonsault
p2993
sVshroomish
p2994
VShroomish
p2995
sVlitten
p2996
VLitten
p2997
sVwhismur
p2998
VWhismur
p2999
sVspikes
p3000
VSpikes
p3001
sVshadowstrike
p3002
VShadow Strike
p3003
sVlongreach
p3004
VLong Reach
p3005
sVskorupi
p3006
VSkorupi
p3007
sVgengarite
p3008
VGengarite
p3009
sVpinkbow
p3010
VPink Bow
p3011
sVblitzle
p3012
VBlitzle
p3013
sVspeedswap
p3014
VSpeed Swap
p3015
sVlustrousorb
p3016
VLustrous Orb
p3017
sVtamatoberry
p3018
VTamato Berry
p3019
sVblazikenite
p3020
VBlazikenite
p3021
sVfarfetchd
p3022
VFarfetch'd
p3023
sVinkay
p3024
VInkay
p3025
sVpickup
p3026
VPickup
p3027
sVcontrary
p3028
VContrary
p3029
sVkarrablast
p3030
VKarrablast
p3031
sVberserk
p3032
VBerserk
p3033
sVmarowak
p3034
VMarowak
p3035
sVmachobrace
p3036
VMacho Brace
p3037
sVsilvallywater
p3038
VSilvally-Water
p3039
sVelekid
p3040
VElekid
p3041
sVmagmortar
p3042
VMagmortar
p3043
sVchansey
p3044
VChansey
p3045
sVroaroftime
p3046
VRoar of Time
p3047
sVwildcharge
p3048
VWild Charge
p3049
sVgraveleralola
p3050
VGraveler-Alola
p3051
sVhoundoommega
p3052
VHoundoom-Mega
p3053
sVclaydol
p3054
VClaydol
p3055
sVrelicanth
p3056
VRelicanth
p3057
sVtorchic
p3058
VTorchic
p3059
sVlapras
p3060
VLapras
p3061
sVmankey
p3062
VMankey
p3063
sVsweetscent
p3064
VSweet Scent
p3065
sVraticatealola
p3066
VRaticate-Alola
p3067
sVshayminsky
p3068
VShaymin-Sky
p3069
sVsludgebomb
p3070
VSludge Bomb
p3071
sVsandile
p3072
VSandile
p3073
sVtyphlosion
p3074
VTyphlosion
p3075
sVsimple
p3076
VSimple
p3077
sVdrillpeck
p3078
VDrill Peck
p3079
sVicebody
p3080
VIce Body
p3081
sVdancer
p3082
VDancer
p3083
sVfearow
p3084
VFearow
p3085
sVxscissor
p3086
VX-Scissor
p3087
sVbellossom
p3088
VBellossom
p3089
sVquiverdance
p3090
VQuiver Dance
p3091
sVblastoisinite
p3092
VBlastoisinite
p3093
sVmegapunch
p3094
VMega Punch
p3095
sVdamp
p3096
VDamp
p3097
sVskitty
p3098
VSkitty
p3099
sVmienfoo
p3100
VMienfoo
p3101
sVpollenpuff
p3102
VPollen Puff
p3103
sVliepard
p3104
VLiepard
p3105
sVamnesia
p3106
VAmnesia
p3107
sVdestinybond
p3108
VDestiny Bond
p3109
sVcastform
p3110
VCastform
p3111
sVmeowthalola
p3112
VMeowth-Alola
p3113
sVdruddigon
p3114
VDruddigon
p3115
sVtaillow
p3116
VTaillow
p3117
sVbashful
p3118
VBashful
p3119
sVdragontail
p3120
VDragon Tail
p3121
sVswellow
p3122
VSwellow
p3123
sVstringshot
p3124
VString Shot
p3125
sValomomola
p3126
VAlomomola
p3127
sVwatergun
p3128
VWater Gun
p3129
sVvcreate
p3130
VV-create
p3131
sVnomelberry
p3132
VNomel Berry
p3133
sVdrainingkiss
p3134
VDraining Kiss
p3135
sVbasculin
p3136
VBasculin
p3137
sVgrassiumz
p3138
VGrassium Z
p3139
sVescavalier
p3140
VEscavalier
p3141
sVpsychoshift
p3142
VPsycho Shift
p3143
sVbisharp
p3144
VBisharp
p3145
sVhoundoom
p3146
VHoundoom
p3147
sVgulpin
p3148
VGulpin
p3149
sVpancham
p3150
VPancham
p3151
sVmantyke
p3152
VMantyke
p3153
sVpound
p3154
VPound
p3155
sVmedichamite
p3156
VMedichamite
p3157
sVrotommow
p3158
VRotom-Mow
p3159
sVdefendorder
p3160
VDefend Order
p3161
sVsurskit
p3162
VSurskit
p3163
sVmegalauncher
p3164
VMega Launcher
p3165
sVicebeam
p3166
VIce Beam
p3167
sVfacade
p3168
VFacade
p3169
sVzubat
p3170
VZubat
p3171
sVmagikarpsrevenge
p3172
VMagikarp's Revenge
p3173
sVingrain
p3174
VIngrain
p3175
sVcottonee
p3176
VCottonee
p3177
sVpikachuphd
p3178
VPikachu-PhD
p3179
sVpoisonjab
p3180
VPoison Jab
p3181
sVcameruptmega
p3182
VCamerupt-Mega
p3183
sVprotectivepads
p3184
VProtective Pads
p3185
sVcrucibellemega
p3186
VCrucibelle-Mega
p3187
sVadrenalineorb
p3188
VAdrenaline Orb
p3189
sVtaunt
p3190
VTaunt
p3191
sVgorebyss
p3192
VGorebyss
p3193
sVgrotle
p3194
VGrotle
p3195
sVpikachu
p3196
VPikachu
p3197
sVrayquaza
p3198
VRayquaza
p3199
sVfroakie
p3200
VFroakie
p3201
sVloveball
p3202
VLove Ball
p3203
sVjumpluff
p3204
VJumpluff
p3205
sVkomala
p3206
VKomala
p3207
sVtimid
p3208
VTimid
p3209
sVmismagius
p3210
VMismagius
p3211
sVhiddenpowerbug
p3212
VHidden Power Bug
p3213
sVinfiltrator
p3214
VInfiltrator
p3215
sVpsychup
p3216
VPsych Up
p3217
sVtangrowth
p3218
VTangrowth
p3219
sVfiregem
p3220
VFire Gem
p3221
sVshellder
p3222
VShellder
p3223
sVwithdraw
p3224
VWithdraw
p3225
sVmoonball
p3226
VMoon Ball
p3227
sVpainsplit
p3228
VPain Split
p3229
sVstoneedge
p3230
VStone Edge
p3231
sVhowl
p3232
VHowl
p3233
sVeeviumz
p3234
VEevium Z
p3235
sVwaterpledge
p3236
VWater Pledge
p3237
sVspearow
p3238
VSpearow
p3239
sVdarmanitan
p3240
VDarmanitan
p3241
sVrockwrecker
p3242
VRock Wrecker
p3243
sVoriginpulse
p3244
VOrigin Pulse
p3245
sVcompetitive
p3246
VCompetitive
p3247
sVzygarde
p3248
VZygarde
p3249
sVsolrock
p3250
VSolrock
p3251
sVthousandarrows
p3252
VThousand Arrows
p3253
sVcut
p3254
VCut
p3255
sVincineroar
p3256
VIncineroar
p3257
sVcloyster
p3258
VCloyster
p3259
sVshoreup
p3260
VShore Up
p3261
sVmetapod
p3262
VMetapod
p3263
sVairslash
p3264
VAir Slash
p3265
sVmagiccoat
p3266
VMagic Coat
p3267
sVacrobatics
p3268
VAcrobatics
p3269
sVspheal
p3270
VSpheal
p3271
sVchoicespecs
p3272
VChoice Specs
p3273
sVrebound
p3274
VRebound
p3275
sVlusterpurge
p3276
VLuster Purge
p3277
sVkeldeoresolute
p3278
VKeldeo-Resolute
p3279
sVzygardecomplete
p3280
VZygarde-Complete
p3281
sVmoody
p3282
VMoody
p3283
sVglaliemega
p3284
VGlalie-Mega
p3285
sVgothitelle
p3286
VGothitelle
p3287
sVskilllink
p3288
VSkill Link
p3289
sVponyta
p3290
VPonyta
p3291
sVpaleowave
p3292
VPaleo Wave
p3293
sVsubmission
p3294
VSubmission
p3295
sVstaravia
p3296
VStaravia
p3297
sVtailglow
p3298
VTail Glow
p3299
sVnoibat
p3300
VNoibat
p3301
sVstealthrock
p3302
VStealth Rock
p3303
sVtechnoblast
p3304
VTechno Blast
p3305
sVbaltoy
p3306
VBaltoy
p3307
sVflamewheel
p3308
VFlame Wheel
p3309
sVsketch
p3310
VSketch
p3311
sVfrisk
p3312
VFrisk
p3313
sVbounce
p3314
VBounce
p3315
sVdartrix
p3316
VDartrix
p3317
sVsouldew
p3318
VSoul Dew
p3319
sVgigaimpact
p3320
VGiga Impact
p3321
sVaurorabeam
p3322
VAurora Beam
p3323
sVsewaddle
p3324
VSewaddle
p3325
sVkommoo
p3326
VKommo-o
p3327
sVscald
p3328
VScald
p3329
sVominouswind
p3330
VOminous Wind
p3331
sVdeepseascale
p3332
VDeepSeaScale
p3333
sVmummy
p3334
VMummy
p3335
sVhuntail
p3336
VHuntail
p3337
sVswordsdance
p3338
VSwords Dance
p3339
sVearlybird
p3340
VEarly Bird
p3341
sVslash
p3342
VSlash
p3343
sVhiddenpowergrass
p3344
VHidden Power Grass
p3345
sVpidgeotite
p3346
VPidgeotite
p3347
sVgarchompmega
p3348
VGarchomp-Mega
p3349
sV10000000voltthunderbolt
p3350
V10,000,000 Volt Thunderbolt
p3351
sVoricoriopau
p3352
VOricorio-Pa'u
p3353
sVseismitoad
p3354
VSeismitoad
p3355
sVodorsleuth
p3356
VOdor Sleuth
p3357
sVmewtwomegax
p3358
VMewtwo-Mega-X
p3359
sVmewtwomegay
p3360
VMewtwo-Mega-Y
p3361
sVfocussash
p3362
VFocus Sash
p3363
sVjellicent
p3364
VJellicent
p3365
sVspelonberry
p3366
VSpelon Berry
p3367
sVnobleroar
p3368
VNoble Roar
p3369
sVkangaskhanite
p3370
VKangaskhanite
p3371
sVblazekick
p3372
VBlaze Kick
p3373
sViapapaberry
p3374
VIapapa Berry
p3375
sVmudkip
p3376
VMudkip
p3377
sVbouffalant
p3378
VBouffalant
p3379
sVarceusghost
p3380
VArceus-Ghost
p3381
sVblock
p3382
VBlock
p3383
sVsharpedo
p3384
VSharpedo
p3385
sVarmthrust
p3386
VArm Thrust
p3387
sVchargebeam
p3388
VCharge Beam
p3389
sVshellos
p3390
VShellos
p3391
sVnidoking
p3392
VNidoking
p3393
sVliquidation
p3394
VLiquidation
p3395
sVextremeevoboost
p3396
VExtreme Evoboost
p3397
sVsablenite
p3398
VSablenite
p3399
sVbarboach
p3400
VBarboach
p3401
sVstench
p3402
VStench
p3403
sViciclecrash
p3404
VIcicle Crash
p3405
sVcacnea
p3406
VCacnea
p3407
sVdevastatingdrake
p3408
VDevastating Drake
p3409
sVswampertmega
p3410
VSwampert-Mega
p3411
sVmimikyubusted
p3412
VMimikyu-Busted
p3413
sVsnorunt
p3414
VSnorunt
p3415
sVrelaxed
p3416
VRelaxed
p3417
sVeevee
p3418
VEevee
p3419
sVpsychocut
p3420
VPsycho Cut
p3421
sVtranquill
p3422
VTranquill
p3423
sVragepowder
p3424
VRage Powder
p3425
sVbuizel
p3426
VBuizel
p3427
sVsharpen
p3428
VSharpen
p3429
sVgrasspledge
p3430
VGrass Pledge
p3431
sVbuzzwole
p3432
VBuzzwole
p3433
sVabsolmega
p3434
VAbsol-Mega
p3435
sVwatchog
p3436
VWatchog
p3437
sVspacialrend
p3438
VSpacial Rend
p3439
sVbaddreams
p3440
VBad Dreams
p3441
sVgrowth
p3442
VGrowth
p3443
sVpoliwrath
p3444
VPoliwrath
p3445
sVhappyhour
p3446
VHappy Hour
p3447
sVmurkrow
p3448
VMurkrow
p3449
sVpechaberry
p3450
VPecha Berry
p3451
sVarceusfairy
p3452
VArceus-Fairy
p3453
sVmiracleseed
p3454
VMiracle Seed
p3455
sVnaturesmadness
p3456
VNature's Madness
p3457
sVrockhead
p3458
VRock Head
p3459
sVcalm
p3460
VCalm
p3461
sVstickybarb
p3462
VSticky Barb
p3463
sVganlonberry
p3464
VGanlon Berry
p3465
sVbulbasaur
p3466
VBulbasaur
p3467
sVpichu
p3468
VPichu
p3469
sVheatwave
p3470
VHeat Wave
p3471
sVaudino
p3472
VAudino
p3473
sVdrifloon
p3474
VDrifloon
p3475
sVsnowcloak
p3476
VSnow Cloak
p3477
sVrazorshell
p3478
VRazor Shell
p3479
sVmetagross
p3480
VMetagross
p3481
sVsparklingaria
p3482
VSparkling Aria
p3483
sVmeowsticf
p3484
VMeowstic-F
p3485
sVlickilicky
p3486
VLickilicky
p3487
sVaccelgor
p3488
VAccelgor
p3489
sVmysteryberry
p3490
VMystery Berry
p3491
sVmudbray
p3492
VMudbray
p3493
sVprecipiceblades
p3494
VPrecipice Blades
p3495
sVslaking
p3496
VSlaking
p3497
sVavalugg
p3498
VAvalugg
p3499
sVscratch
p3500
VScratch
p3501
sVcharmeleon
p3502
VCharmeleon
p3503
sVhighhorsepower
p3504
VHigh Horsepower
p3505
sVnormaliumz
p3506
VNormalium Z
p3507
sVcharmander
p3508
VCharmander
p3509
sVspeedboost
p3510
VSpeed Boost
p3511
sVwakeupslap
p3512
VWake-Up Slap
p3513
sVpsychicgem
p3514
VPsychic Gem
p3515
sVrivalry
p3516
VRivalry
p3517
sVperishsong
p3518
VPerish Song
p3519
sVcutecharm
p3520
VCute Charm
p3521
sVblaze
p3522
VBlaze
p3523
sVsniper
p3524
VSniper
p3525
sVtriplekick
p3526
VTriple Kick
p3527
sVfly
p3528
VFly
p3529
sVnightslash
p3530
VNight Slash
p3531
sVextrasensory
p3532
VExtrasensory
p3533
sVteddiursa
p3534
VTeddiursa
p3535
sVthundershock
p3536
VThunder Shock
p3537
sVazurill
p3538
VAzurill
p3539
sVbigpecks
p3540
VBig Pecks
p3541
sVlureball
p3542
VLure Ball
p3543
sVqwilfish
p3544
VQwilfish
p3545
sVhyperbeam
p3546
VHyper Beam
p3547
sVdynamicpunch
p3548
VDynamic Punch
p3549
sVmagnemite
p3550
VMagnemite
p3551
sVtyrunt
p3552
VTyrunt
p3553
sVmultiattack
p3554
VMulti-Attack
p3555
sVirondefense
p3556
VIron Defense
p3557
sVmisdreavus
p3558
VMisdreavus
p3559
sVfidgit
p3560
VFidgit
p3561
sVdousedrive
p3562
VDouse Drive
p3563
sVcrushclaw
p3564
VCrush Claw
p3565
sVsoftboiled
p3566
VSoft-Boiled
p3567
sVpoisongem
p3568
VPoison Gem
p3569
sVtectonicrage
p3570
VTectonic Rage
p3571
sVdownload
p3572
VDownload
p3573
sVacid
p3574
VAcid
p3575
sVvigoroth
p3576
VVigoroth
p3577
sVlombre
p3578
VLombre
p3579
sVdelcatty
p3580
VDelcatty
p3581
sVhoundoominite
p3582
VHoundoominite
p3583
sVturtonator
p3584
VTurtonator
p3585
sVtriattack
p3586
VTri Attack
p3587
sVtyranitar
p3588
VTyranitar
p3589
sVturtwig
p3590
VTurtwig
p3591
sVbruxish
p3592
VBruxish
p3593
sVmagmastorm
p3594
VMagma Storm
p3595
sVpansear
p3596
VPansear
p3597
sVdeerling
p3598
VDeerling
p3599
sVswinub
p3600
VSwinub
p3601
sVgigavolthavoc
p3602
VGigavolt Havoc
p3603
sVabomasnow
p3604
VAbomasnow
p3605
sVrowlet
p3606
VRowlet
p3607
sVsing
p3608
VSing
p3609
sVtriage
p3610
VTriage
p3611
sVpowersplit
p3612
VPower Split
p3613
sVincinerate
p3614
VIncinerate
p3615
sVmarangaberry
p3616
VMaranga Berry
p3617
sVrampardos
p3618
VRampardos
p3619
sVscreech
p3620
VScreech
p3621
sVtentacruel
p3622
VTentacruel
p3623
sVnaturalcure
p3624
VNatural Cure
p3625
sVforestscurse
p3626
VForest's Curse
p3627
sVblizzard
p3628
VBlizzard
p3629
sVteeterdance
p3630
VTeeter Dance
p3631
sVshieldsdown
p3632
VShields Down
p3633
sVfoongus
p3634
VFoongus
p3635
sVfirememory
p3636
VFire Memory
p3637
sVaquaring
p3638
VAqua Ring
p3639
sVprzcureberry
p3640
VPRZ Cure Berry
p3641
sVhardy
p3642
VHardy
p3643
sVarceusground
p3644
VArceus-Ground
p3645
sVpumpkaboolarge
p3646
VPumpkaboo-Large
p3647
sVkingdra
p3648
VKingdra
p3649
sVaerodactylite
p3650
VAerodactylite
p3651
sVstakeout
p3652
VStakeout
p3653
sVbanettite
p3654
VBanettite
p3655
sVdragongem
p3656
VDragon Gem
p3657
sVheatran
p3658
VHeatran
p3659
sVsteelixite
p3660
VSteelixite
p3661
sVheavyball
p3662
VHeavy Ball
p3663
sVcharcoal
p3664
VCharcoal
p3665
sVmistyseed
p3666
VMisty Seed
p3667
sVcranidos
p3668
VCranidos
p3669
sVabsol
p3670
VAbsol
p3671
sVcelesteela
p3672
VCelesteela
p3673
sVplusle
p3674
VPlusle
p3675
sVaerodactylmega
p3676
VAerodactyl-Mega
p3677
sVharvest
p3678
VHarvest
p3679
sVwatersport
p3680
VWater Sport
p3681
sVpikaniumz
p3682
VPikanium Z
p3683
sVicicleplate
p3684
VIcicle Plate
p3685
sVfuturesight
p3686
VFuture Sight
p3687
sVfirelash
p3688
VFire Lash
p3689
sVsmellingsalts
p3690
VSmelling Salts
p3691
sVarchen
p3692
VArchen
p3693
sVexeggcute
p3694
VExeggcute
p3695
sVlucario
p3696
VLucario
p3697
sVthundurus
p3698
VThundurus
p3699
sVburnup
p3700
VBurn Up
p3701
sVdonphan
p3702
VDonphan
p3703
sVterrakion
p3704
VTerrakion
p3705
sVblacksludge
p3706
VBlack Sludge
p3707
sVsilvallypsychic
p3708
VSilvally-Psychic
p3709
sVrelicsong
p3710
VRelic Song
p3711
sVheliolisk
p3712
VHeliolisk
p3713
sVblazikenmega
p3714
VBlaziken-Mega
p3715
sVgastrodon
p3716
VGastrodon
p3717
sVbronzong
p3718
VBronzong
p3719
sVweavile
p3720
VWeavile
p3721
sVdewott
p3722
VDewott
p3723
sVchandelure
p3724
VChandelure
p3725
sVhaxorus
p3726
VHaxorus
p3727
sVsecretsword
p3728
VSecret Sword
p3729
sVowntempo
p3730
VOwn Tempo
p3731
sVhiddenpower
p3732
VHidden Power
p3733
sVrazorleaf
p3734
VRazor Leaf
p3735
sVpowerswap
p3736
VPower Swap
p3737
sVdragalge
p3738
VDragalge
p3739
sVgrasswhistle
p3740
VGrass Whistle
p3741
sVswampert
p3742
VSwampert
p3743
sVwynaut
p3744
VWynaut
p3745
sVpidgey
p3746
VPidgey
p3747
sVmetalpowder
p3748
VMetal Powder
p3749
sVaggronite
p3750
VAggronite
p3751
sVgenesect
p3752
VGenesect
p3753
sVlotad
p3754
VLotad
p3755
sVrkssystem
p3756
VRKS System
p3757
sVsilvallyice
p3758
VSilvally-Ice
p3759
sVbind
p3760
VBind
p3761
sVcounter
p3762
VCounter
p3763
sVvikavolt
p3764
VVikavolt
p3765
sVfullincense
p3766
VFull Incense
p3767
sVweepinbell
p3768
VWeepinbell
p3769
sVhitmonchan
p3770
VHitmonchan
p3771
sVwoobat
p3772
VWoobat
p3773
sVaquajet
p3774
VAqua Jet
p3775
sVkrabby
p3776
VKrabby
p3777
sVumbreon
p3778
VUmbreon
p3779
sVdragonair
p3780
VDragonair
p3781
sVhitmontop
p3782
VHitmontop
p3783
sVheatproof
p3784
VHeatproof
p3785
sVmukalola
p3786
VMuk-Alola
p3787
sVguardswap
p3788
VGuard Swap
p3789
sVassaultvest
p3790
VAssault Vest
p3791
sVpetalblizzard
p3792
VPetal Blizzard
p3793
sVkadabra
p3794
VKadabra
p3795
sVpurepower
p3796
VPure Power
p3797
sVironball
p3798
VIron Ball
p3799
sVdreameater
p3800
VDream Eater
p3801
sVhelpinghand
p3802
VHelping Hand
p3803
sVmunchlax
p3804
VMunchlax
p3805
sVzenheadbutt
p3806
VZen Headbutt
p3807
sVbelch
p3808
VBelch
p3809
sVpowertrip
p3810
VPower Trip
p3811
sVberryjuice
p3812
VBerry Juice
p3813
sVhiddenpowerflying
p3814
VHidden Power Flying
p3815
sVmilotic
p3816
VMilotic
p3817
sVpsychicsurge
p3818
VPsychic Surge
p3819
sVflail
p3820
VFlail
p3821
sVkabutops
p3822
VKabutops
p3823
sVhoothoot
p3824
VHoothoot
p3825
sVkoffing
p3826
VKoffing
p3827
sVtoxapex
p3828
VToxapex
p3829
sVmagnitude
p3830
VMagnitude
p3831
sVarceusfighting
p3832
VArceus-Fighting
p3833
sVrapidspin
p3834
VRapid Spin
p3835
sVskullbash
p3836
VSkull Bash
p3837
sVdratini
p3838
VDratini
p3839
sVafteryou
p3840
VAfter You
p3841
sVmaractus
p3842
VMaractus
p3843
sVcrucibellite
p3844
VCrucibellite
p3845
sVmareanie
p3846
VMareanie
p3847
sVilluminate
p3848
VIlluminate
p3849
sVgallademega
p3850
VGallade-Mega
p3851
sVmagnetpull
p3852
VMagnet Pull
p3853
sVtepig
p3854
VTepig
p3855
sVkelpsyberry
p3856
VKelpsy Berry
p3857
sVstatic
p3858
VStatic
p3859
sVflameplate
p3860
VFlame Plate
p3861
sVicememory
p3862
VIce Memory
p3863
sVicefang
p3864
VIce Fang
p3865
sVvenonat
p3866
VVenonat
p3867
sVsilvallyfighting
p3868
VSilvally-Fighting
p3869
sVjoltik
p3870
VJoltik
p3871
sVrollingkick
p3872
VRolling Kick
p3873
sVoricorio
p3874
VOricorio
p3875
sVweatherball
p3876
VWeather Ball
p3877
sVshatteredpsyche
p3878
VShattered Psyche
p3879
sVmewniumz
p3880
VMewnium Z
p3881
sVmanectric
p3882
VManectric
p3883
sVnaturepower
p3884
VNature Power
p3885
sVregisteel
p3886
VRegisteel
p3887
sVsmog
p3888
VSmog
p3889
sVbabydolleyes
p3890
VBaby-Doll Eyes
p3891
sVleafguard
p3892
VLeaf Guard
p3893
sVicywind
p3894
VIcy Wind
p3895
sVemolga
p3896
VEmolga
p3897
sVmamoswine
p3898
VMamoswine
p3899
sVconkeldurr
p3900
VConkeldurr
p3901
sVworkup
p3902
VWork Up
p3903
sVmetagrossite
p3904
VMetagrossite
p3905
sVhippowdon
p3906
VHippowdon
p3907
sVenigmaberry
p3908
VEnigma Berry
p3909
sVscatterbug
p3910
VScatterbug
p3911
sVaromaveil
p3912
VAroma Veil
p3913
sVcorrosion
p3914
VCorrosion
p3915
sVtropkick
p3916
VTrop Kick
p3917
sVsudowoodo
p3918
VSudowoodo
p3919
sVlarvitar
p3920
VLarvitar
p3921
sVheadbutt
p3922
VHeadbutt
p3923
sVsacredsword
p3924
VSacred Sword
p3925
sVbodyslam
p3926
VBody Slam
p3927
sVbugbuzz
p3928
VBug Buzz
p3929
sVfirefang
p3930
VFire Fang
p3931
sVdiancite
p3932
VDiancite
p3933
sVampharosmega
p3934
VAmpharos-Mega
p3935
sVmistball
p3936
VMist Ball
p3937
sVskrelp
p3938
VSkrelp
p3939
sVjumpkick
p3940
VJump Kick
p3941
sVninetalesalola
p3942
VNinetales-Alola
p3943
sVwaterspout
p3944
VWater Spout
p3945
sVpsychicmemory
p3946
VPsychic Memory
p3947
sVloudred
p3948
VLoudred
p3949
sVearthpower
p3950
VEarth Power
p3951
sVpremierball
p3952
VPremier Ball
p3953
sVrotomfrost
p3954
VRotom-Frost
p3955
sVsolidrock
p3956
VSolid Rock
p3957
sVhonedge
p3958
VHonedge
p3959
sVrabutaberry
p3960
VRabuta Berry
p3961
sVagility
p3962
VAgility
p3963
sVelectabuzz
p3964
VElectabuzz
p3965
sVhoopaunbound
p3966
VHoopa-Unbound
p3967
sVfomantis
p3968
VFomantis
p3969
sVcrobat
p3970
VCrobat
p3971
sVrockblast
p3972
VRock Blast
p3973
sVslackoff
p3974
VSlack Off
p3975
sVsoftsand
p3976
VSoft Sand
p3977
sVsigilyph
p3978
VSigilyph
p3979
sVdeepseatooth
p3980
VDeepSeaTooth
p3981
sVtorkoal
p3982
VTorkoal
p3983
sVwurmple
p3984
VWurmple
p3985
sVtapulele
p3986
VTapu Lele
p3987
sVsunsteelstrike
p3988
VSunsteel Strike
p3989
sVgrimeralola
p3990
VGrimer-Alola
p3991
sVtimburr
p3992
VTimburr
p3993
sVsealeo
p3994
VSealeo
p3995
sVpoisonfang
p3996
VPoison Fang
p3997
sVinsectplate
p3998
VInsect Plate
p3999
sVtorrent
p4000
VTorrent
p4001
sVencore
p4002
VEncore
p4003
sVquickball
p4004
VQuick Ball
p4005
sVtrapinch
p4006
VTrapinch
p4007
sVbonerush
p4008
VBone Rush
p4009
sVgentle
p4010
VGentle
p4011
sVtorment
p4012
VTorment
p4013
sVarceusflying
p4014
VArceus-Flying
p4015
sVzebstrika
p4016
VZebstrika
p4017
sVwhitesmoke
p4018
VWhite Smoke
p4019
sVlevelball
p4020
VLevel Ball
p4021
sVsoak
p4022
VSoak
p4023
sVfusionbolt
p4024
VFusion Bolt
p4025
sVflareon
p4026
VFlareon
p4027
sVcalmmind
p4028
VCalm Mind
p4029
sVdiamondstorm
p4030
VDiamond Storm
p4031
sVgravity
p4032
VGravity
p4033
sVcarnivine
p4034
VCarnivine
p4035
sVgrassgem
p4036
VGrass Gem
p4037
sVfleurcannon
p4038
VFleur Cannon
p4039
sVpsychoboost
p4040
VPsycho Boost
p4041
sVnuzleaf
p4042
VNuzleaf
p4043
sVwidelens
p4044
VWide Lens
p4045
sVshadowball
p4046
VShadow Ball
p4047
sVdrifblim
p4048
VDrifblim
p4049
sVgoldeen
p4050
VGoldeen
p4051
sVmewtwo
p4052
VMewtwo
p4053
sVrollout
p4054
VRollout
p4055
sVslurpuff
p4056
VSlurpuff
p4057
sVdracometeor
p4058
VDraco Meteor
p4059
sVsludgewave
p4060
VSludge Wave
p4061
sVsceptile
p4062
VSceptile
p4063
sVaraquanid
p4064
VAraquanid
p4065
sVgardevoirite
p4066
VGardevoirite
p4067
sVexeggutor
p4068
VExeggutor
p4069
sVshedskin
p4070
VShed Skin
p4071
sVcherrimsunshine
p4072
VCherrim-Sunshine
p4073
sVarceus
p4074
VArceus
p4075
sVimpish
p4076
VImpish
p4077
sVservine
p4078
VServine
p4079
sVwailmer
p4080
VWailmer
p4081
sVbrine
p4082
VBrine
p4083
sVzweilous
p4084
VZweilous
p4085
sVsleeppowder
p4086
VSleep Powder
p4087
sVoldamber
p4088
VOld Amber
p4089
sVsnover
p4090
VSnover
p4091
sVdurant
p4092
VDurant
p4093
sVdarkiniumz
p4094
VDarkinium Z
p4095
sVsimplebeam
p4096
VSimple Beam
p4097
sVyveltal
p4098
VYveltal
p4099
sVbrickbreak
p4100
VBrick Break
p4101
sVrash
p4102
VRash
p4103
sVpiplup
p4104
VPiplup
p4105
sVflashfire
p4106
VFlash Fire
p4107
sVelectricmemory
p4108
VElectric Memory
p4109
sValoraichiumz
p4110
VAloraichium Z
p4111
sVpikipek
p4112
VPikipek
p4113
sVdeino
p4114
VDeino
p4115
sVcamerupt
p4116
VCamerupt
p4117
sVluckypunch
p4118
VLucky Punch
p4119
sVpurrloin
p4120
VPurrloin
p4121
sVrarebone
p4122
VRare Bone
p4123
sVsolosis
p4124
VSolosis
p4125
sVtangaberry
p4126
VTanga Berry
p4127
sVbellydrum
p4128
VBelly Drum
p4129
sVsassy
p4130
VSassy
p4131
sVdeoxysattack
p4132
VDeoxys-Attack
p4133
sVcroagunk
p4134
VCroagunk
p4135
sVbravebird
p4136
VBrave Bird
p4137
sVgust
p4138
VGust
p4139
sVmagicguard
p4140
VMagic Guard
p4141
sVsandattack
p4142
VSand Attack
p4143
sVkingler
p4144
VKingler
p4145
sVhugepower
p4146
VHuge Power
p4147
sVmudbomb
p4148
VMud Bomb
p4149
sVsheercold
p4150
VSheer Cold
p4151
sVgeomancy
p4152
VGeomancy
p4153
sVcacturne
p4154
VCacturne
p4155
sVpowder
p4156
VPowder
p4157
sVvictini
p4158
VVictini
p4159
sVfinneon
p4160
VFinneon
p4161
sVtwineedle
p4162
VTwineedle
p4163
sVchestoberry
p4164
VChesto Berry
p4165
sVgrumpig
p4166
VGrumpig
p4167
sVbuginiumz
p4168
VBuginium Z
p4169
sVnightmare
p4170
VNightmare
p4171
sVgyarados
p4172
VGyarados
p4173
sVvaporeon
p4174
VVaporeon
p4175
sVthunderwave
p4176
VThunder Wave
p4177
sVrockincense
p4178
VRock Incense
p4179
sVfroslass
p4180
VFroslass
p4181
sVaron
p4182
VAron
p4183
sVconversion2
p4184
VConversion 2
p4185
sVmysticalfire
p4186
VMystical Fire
p4187
sVzoroark
p4188
VZoroark
p4189
sVshellsmash
p4190
VShell Smash
p4191
sVhydropump
p4192
VHydro Pump
p4193
sVswift
p4194
VSwift
p4195
sVmemento
p4196
VMemento
p4197
sVmetang
p4198
VMetang
p4199
sVklinklang
p4200
VKlinklang
p4201
sVaerodactyl
p4202
VAerodactyl
p4203
sVtailwhip
p4204
VTail Whip
p4205
sVsceptilite
p4206
VSceptilite
p4207
sVsafetygoggles
p4208
VSafety Goggles
p4209
sVklang
p4210
VKlang
p4211
sVgreninjaash
p4212
VGreninja-Ash
p4213
sVswallow
p4214
VSwallow
p4215
sVspritzee
p4216
VSpritzee
p4217
sVflabebe
p4218
VFlabebe
p4219
sVnumel
p4220
VNumel
p4221
sVwoodhammer
p4222
VWood Hammer
p4223
sVhiddenpowerwater
p4224
VHidden Power Water
p4225
sVmalaconda
p4226
VMalaconda
p4227
sVgible
p4228
VGible
p4229
sVovercoat
p4230
VOvercoat
p4231
sVekans
p4232
VEkans
p4233
sVsharpedomega
p4234
VSharpedo-Mega
p4235
sVpixieplate
p4236
VPixie Plate
p4237
sVdugtrio
p4238
VDugtrio
p4239
sVdisarmingvoice
p4240
VDisarming Voice
p4241
sVwailord
p4242
VWailord
p4243
sVswoobat
p4244
VSwoobat
p4245
sVelectrify
p4246
VElectrify
p4247
sVdazzling
p4248
VDazzling
p4249
sVoricoriosensu
p4250
VOricorio-Sensu
p4251
sVkeldeo
p4252
VKeldeo
p4253
sVrattata
p4254
VRattata
p4255
sVtomohawk
p4256
VTomohawk
p4257
sVivysaur
p4258
VIvysaur
p4259
sVhorndrill
p4260
VHorn Drill
p4261
sVcoverfossil
p4262
VCover Fossil
p4263
sVgraveler
p4264
VGraveler
p4265
sVsmeargle
p4266
VSmeargle
p4267
sVmetagrossmega
p4268
VMetagross-Mega
p4269
sVraindance
p4270
VRain Dance
p4271
sVinfestation
p4272
VInfestation
p4273
sVpresent
p4274
VPresent
p4275
sVgrovyle
p4276
VGrovyle
p4277
sVintimidate
p4278
VIntimidate
p4279
sVharden
p4280
VHarden
p4281
sVflaaffy
p4282
VFlaaffy
p4283
sVbeheeyem
p4284
VBeheeyem
p4285
sVwhirlpool
p4286
VWhirlpool
p4287
sVpelipper
p4288
VPelipper
p4289
sVthickfat
p4290
VThick Fat
p4291
sVcarracosta
p4292
VCarracosta
p4293
sVluxio
p4294
VLuxio
p4295
sVvullaby
p4296
VVullaby
p4297
sVhiddenpowerghost
p4298
VHidden Power Ghost
p4299
sVlightball
p4300
VLight Ball
p4301
sVwaterveil
p4302
VWater Veil
p4303
sVspelltag
p4304
VSpell Tag
p4305
sVdeoxysdefense
p4306
VDeoxys-Defense
p4307
sVzekrom
p4308
VZekrom
p4309
sVaipom
p4310
VAipom
p4311
sVdefiant
p4312
VDefiant
p4313
sVhardstone
p4314
VHard Stone
p4315
sVkebiaberry
p4316
VKebia Berry
p4317
sVbergmite
p4318
VBergmite
p4319
sVcascoon
p4320
VCascoon
p4321
sVsuperluck
p4322
VSuper Luck
p4323
sVmagcargo
p4324
VMagcargo
p4325
sVabsorb
p4326
VAbsorb
p4327
sVraindish
p4328
VRain Dish
p4329
sVseaking
p4330
VSeaking
p4331
sVmagician
p4332
VMagician
p4333
sVdragoniumz
p4334
VDragonium Z
p4335
sVairlock
p4336
VAir Lock
p4337
sVbabiriberry
p4338
VBabiri Berry
p4339
sVaspearberry
p4340
VAspear Berry
p4341
sVeelektross
p4342
VEelektross
p4343
sVpickpocket
p4344
VPickpocket
p4345
sVsitrusberry
p4346
VSitrus Berry
p4347
sVarceuspsychic
p4348
VArceus-Psychic
p4349
sVbeautifly
p4350
VBeautifly
p4351
sVwormadamtrash
p4352
VWormadam-Trash
p4353
sVvenoshock
p4354
VVenoshock
p4355
sVsilvallyfairy
p4356
VSilvally-Fairy
p4357
sVmudsport
p4358
VMud Sport
p4359
sVazelf
p4360
VAzelf
p4361
sVyanmega
p4362
VYanmega
p4363
sVnaviathan
p4364
VNaviathan
p4365
sVfairyaura
p4366
VFairy Aura
p4367
sVarbok
p4368
VArbok
p4369
sVpinsir
p4370
VPinsir
p4371
sVrotom
p4372
VRotom
p4373
sVguts
p4374
VGuts
p4375
sVtauros
p4376
VTauros
p4377
sVnatu
p4378
VNatu
p4379
sVfaketears
p4380
VFake Tears
p4381
sVbattery
p4382
VBattery
p4383
sVaromaticmist
p4384
VAromatic Mist
p4385
sVbeedrillite
p4386
VBeedrillite
p4387
sVconfide
p4388
VConfide
p4389
sVleechlife
p4390
VLeech Life
p4391
sVaegislash
p4392
VAegislash
p4393
sVkingsshield
p4394
VKing's Shield
p4395
sVkingsrock
p4396
VKing's Rock
p4397
sVblukberry
p4398
VBluk Berry
p4399
sVflowershield
p4400
VFlower Shield
p4401
sVarenatrap
p4402
VArena Trap
p4403
sVleechseed
p4404
VLeech Seed
p4405
sVlaserfocus
p4406
VLaser Focus
p4407
sVducklett
p4408
VDucklett
p4409
sVgreninja
p4410
VGreninja
p4411
sVlatios
p4412
VLatios
p4413
sVdhelmise
p4414
VDhelmise
p4415
sVbudew
p4416
VBudew
p4417
sVgogoat
p4418
VGogoat
p4419
sVlilligant
p4420
VLilligant
p4421
sVhealball
p4422
VHeal Ball
p4423
sVphanpy
p4424
VPhanpy
p4425
sVaudinite
p4426
VAudinite
p4427
sVimprison
p4428
VImprison
p4429
sVrepeatball
p4430
VRepeat Ball
p4431
sVglare
p4432
VGlare
p4433
sVjangmoo
p4434
VJangmo-o
p4435
sVthief
p4436
VThief
p4437
sVhail
p4438
VHail
p4439
sVcofagrigus
p4440
VCofagrigus
p4441
sVwepearberry
p4442
VWepear Berry
p4443
sVskarmory
p4444
VSkarmory
p4445
sVpersimberry
p4446
VPersim Berry
p4447
sVdragonclaw
p4448
VDragon Claw
p4449
sVdrizzle
p4450
VDrizzle
p4451
sVzygarde10
p4452
VZygarde-10%
p4453
sVstaraptor
p4454
VStaraptor
p4455
sVmagicalleaf
p4456
VMagical Leaf
p4457
sVforcepalm
p4458
VForce Palm
p4459
sVhurricane
p4460
VHurricane
p4461
sVlileep
p4462
VLileep
p4463
sVpiloswine
p4464
VPiloswine
p4465
sVjudgment
p4466
VJudgment
p4467
sVvenusaurite
p4468
VVenusaurite
p4469
sVraichu
p4470
VRaichu
p4471
sVcyclohm
p4472
VCyclohm
p4473
sVhappiny
p4474
VHappiny
p4475
sVpressure
p4476
VPressure
p4477
sVsilkscarf
p4478
VSilk Scarf
p4479
sVpidgeotto
p4480
VPidgeotto
p4481
sVdreadplate
p4482
VDread Plate
p4483
sVsableyemega
p4484
VSableye-Mega
p4485
sVfurret
p4486
VFurret
p4487
sVpsystrike
p4488
VPsystrike
p4489
sVmeteormash
p4490
VMeteor Mash
p4491
sVshucaberry
p4492
VShuca Berry
p4493
sVrockmemory
p4494
VRock Memory
p4495
sVsweetkiss
p4496
VSweet Kiss
p4497
sVacidarmor
p4498
VAcid Armor
p4499
sVlightclay
p4500
VLight Clay
p4501
sVvoodoom
p4502
VVoodoom
p4503
sVblueorb
p4504
VBlue Orb
p4505
sVfeintattack
p4506
VFeint Attack
p4507
sVburmy
p4508
VBurmy
p4509
sVgrassysurge
p4510
VGrassy Surge
p4511
sVmagostberry
p4512
VMagost Berry
p4513
sVgrasspelt
p4514
VGrass Pelt
p4515
sVspitup
p4516
VSpit Up
p4517
sVstamina
p4518
VStamina
p4519
sVrockthrow
p4520
VRock Throw
p4521
sVroseliberry
p4522
VRoseli Berry
p4523
sVfrustration
p4524
VFrustration
p4525
sVambipom
p4526
VAmbipom
p4527
sVsolgaleo
p4528
VSolgaleo
p4529
sVfollowme
p4530
VFollow Me
p4531
sVclauncher
p4532
VClauncher
p4533
sVquickpowder
p4534
VQuick Powder
p4535
sVfrenzyplant
p4536
VFrenzy Plant
p4537
sVclearbody
p4538
VClear Body
p4539
sVpowerofalchemy
p4540
VPower of Alchemy
p4541
sVmagoberry
p4542
VMago Berry
p4543
sVcroconaw
p4544
VCroconaw
p4545
sVdrowzee
p4546
VDrowzee
p4547
sVserenegrace
p4548
VSerene Grace
p4549
sVoceanicoperetta
p4550
VOceanic Operetta
p4551
sVheracronite
p4552
VHeracronite
p4553
sVtechnician
p4554
VTechnician
p4555
sVarceusgrass
p4556
VArceus-Grass
p4557
sVmorelull
p4558
VMorelull
p4559
sVembargo
p4560
VEmbargo
p4561
sVmetronome
p4562
VMetronome
p4563
sVattackorder
p4564
VAttack Order
p4565
sVallyswitch
p4566
VAlly Switch
p4567
sVwish
p4568
VWish
p4569
sVentrainment
p4570
VEntrainment
p4571
sVpoisonheal
p4572
VPoison Heal
p4573
sVpyukumuku
p4574
VPyukumuku
p4575
sVscizormega
p4576
VScizor-Mega
p4577
sVthroatchop
p4578
VThroat Chop
p4579
sVhoneclaws
p4580
VHone Claws
p4581
sVgrassmemory
p4582
VGrass Memory
p4583
sVpikachurockstar
p4584
VPikachu-Rock-Star
p4585
sVoranberry
p4586
VOran Berry
p4587
sVmarshadow
p4588
VMarshadow
p4589
sVninjask
p4590
VNinjask
p4591
sVslowstart
p4592
VSlow Start
p4593
sVweakarmor
p4594
VWeak Armor
p4595
sVaurasphere
p4596
VAura Sphere
p4597
sVshelgon
p4598
VShelgon
p4599
sVrawstberry
p4600
VRawst Berry
p4601
sVshadowbone
p4602
VShadow Bone
p4603
sVvacuumwave
p4604
VVacuum Wave
p4605
sVillusion
p4606
VIllusion
p4607
sVroleplay
p4608
VRole Play
p4609
sVyacheberry
p4610
VYache Berry
p4611
sVelectriumz
p4612
VElectrium Z
p4613
sVtreecko
p4614
VTreecko
p4615
sVicehammer
p4616
VIce Hammer
p4617
sVbraviary
p4618
VBraviary
p4619
sVvivillon
p4620
VVivillon
p4621
sVnoguard
p4622
VNo Guard
p4623
sVsalamencemega
p4624
VSalamence-Mega
p4625
sVabomasite
p4626
VAbomasite
p4627
sVstarmie
p4628
VStarmie
p4629
sVpersistent
p4630
VPersistent
p4631
sVmagmar
p4632
VMagmar
p4633
sVzangoose
p4634
VZangoose
p4635
sVvivillonfancy
p4636
VVivillon-Fancy
p4637
sVvanilluxe
p4638
VVanilluxe
p4639
s.