(dp1
Velectivire
p2
VElectivire
p3
sVarceusice
p4
VArceus-Ice
p5
sVcolorchange
p6
VColor Change
p7
sVpersimberry
p8
VPersim Berry
p9
sVlucarionite
p10
VLucarionite
p11
sVpalkia
p12
VPalkia
p13
sVchatter
p14
VChatter
p15
sValakazite
p16
VAlakazite
p17
sVtickle
p18
VTickle
p19
sVarceuselectric
p20
VArceus-Electric
p21
sVabra
p22
VAbra
p23
sVreuniclus
p24
VReuniclus
p25
sVrecycle
p26
VRecycle
p27
sVtimerball
p28
VTimer Ball
p29
sVmeditite
p30
VMeditite
p31
sVsharpbeak
p32
VSharp Beak
p33
sVmewtwonitex
p34
VMewtwonite X
p35
sVmewtwonitey
p36
VMewtwonite Y
p37
sVquickclaw
p38
VQuick Claw
p39
sVdoubleslap
p40
VDoubleSlap
p41
sVplayaround
p42
VPlay Around
p43
sVeviolite
p44
VEviolite
p45
sVprotean
p46
S'Protean'
p47
sVsquirtle
p48
VSquirtle
p49
sVdarmanitanzen
p50
VDarmanitan-Zen
p51
sVnastyplot
p52
VNasty Plot
p53
sVwormadam
p54
VWormadam
p55
sVaggronmega
p56
VAggron-Mega
p57
sVwhirlwind
p58
VWhirlwind
p59
sVplumefossil
p60
VPlume Fossil
p61
sVcherrim
p62
VCherrim
p63
sVhiddenpowerelectric
p64
VHidden Power Electric
p65
sVhiddenpowerfire
p66
VHidden Power Fire
p67
sVguillotine
p68
VGuillotine
p69
sVlevitate
p70
VLevitate
p71
sVgyaradosite
p72
VGyaradosite
p73
sVpomegberry
p74
VPomeg Berry
p75
sVmasquerain
p76
VMasquerain
p77
sVthunder
p78
VThunder
p79
sVwaterpulse
p80
VWater Pulse
p81
sVdarkgem
p82
VDark Gem
p83
sVsteelwing
p84
VSteel Wing
p85
sVfraxure
p86
VFraxure
p87
sVmoldbreaker
p88
VMold Breaker
p89
sVcrunch
p90
VCrunch
p91
sVrindoberry
p92
VRindo Berry
p93
sVreflecttype
p94
VReflect Type
p95
sVsnivy
p96
VSnivy
p97
sVmefirst
p98
VMe First
p99
sVmothim
p100
VMothim
p101
sVscizorite
p102
VScizorite
p103
sVmew
p104
VMew
p105
sVpursuit
p106
VPursuit
p107
sVheadsmash
p108
VHead Smash
p109
sVaftermath
p110
VAftermath
p111
sVclawitzer
p112
VClawitzer
p113
sVpixilate
p114
S'Pixilate'
p115
sVtornadustherian
p116
VTornadus-Therian
p117
sVlunatone
p118
VLunatone
p119
sVpunishment
p120
VPunishment
p121
sVpoisontouch
p122
VPoison Touch
p123
sVfeebas
p124
VFeebas
p125
sVneedlearm
p126
VNeedle Arm
p127
sVblastburn
p128
VBlast Burn
p129
sVhonchkrow
p130
VHonchkrow
p131
sVtirtouga
p132
VTirtouga
p133
sVampharos
p134
VAmpharos
p135
sVdusclops
p136
VDusclops
p137
sVpoisonbarb
p138
VPoison Barb
p139
sVmorningsun
p140
VMorning Sun
p141
sVfreezedry
p142
VFreeze Dry
p143
sVmandibuzz
p144
VMandibuzz
p145
sVoverheat
p146
VOverheat
p147
sVspiritomb
p148
VSpiritomb
p149
sVvoltabsorb
p150
VVolt Absorb
p151
sVpurugly
p152
VPurugly
p153
sVshiftgear
p154
VShift Gear
p155
sS'calm'
p156
S'Calm'
p157
sVcastformrainy
p158
VCastform-Rainy
p159
sVbigroot
p160
VBig Root
p161
sVtorment
p162
VTorment
p163
sS'aromaveil'
p164
S'Aroma Veil'
p165
sVgardevoir
p166
VGardevoir
p167
sVvenomdrench
p168
VVenom Drench
p169
sVmagnetrise
p170
VMagnet Rise
p171
sS'naive'
p172
S'Naive'
p173
sVkyogre
p174
VKyogre
p175
sS'adamant'
p176
S'Adamant'
p177
sVkitsunoh
p178
VKitsunoh
p179
sVarceusbug
p180
VArceus-Bug
p181
sVnoibat
p182
VNoibat
p183
sVpidgeot
p184
VPidgeot
p185
sVtangledfeet
p186
VTangled Feet
p187
sValakazam
p188
VAlakazam
p189
sVonix
p190
VOnix
p191
sVgrimer
p192
VGrimer
p193
sVrototiller
p194
VRototiller
p195
sVlucariomega
p196
VLucario-Mega
p197
sVbugbite
p198
VBug Bite
p199
sVpoisongas
p200
VPoison Gas
p201
sVmakuhita
p202
VMakuhita
p203
sVattract
p204
VAttract
p205
sVcharizarditey
p206
VCharizardite Y
p207
sVcharizarditex
p208
VCharizardite X
p209
sVpowerwhip
p210
VPower Whip
p211
sVskydrop
p212
VSky Drop
p213
sVcrabhammer
p214
VCrabhammer
p215
sVtoxic
p216
VToxic
p217
sVcastformsunny
p218
VCastform-Sunny
p219
sVrotomheat
p220
VRotom-Heat
p221
sVsportball
p222
VSport Ball
p223
sVpoisonpowder
p224
VPoisonPowder
p225
sVredcard
p226
VRed Card
p227
sS'modest'
p228
S'Modest'
p229
sS'lax'
p230
S'Lax'
p231
sVrocktomb
p232
VRock Tomb
p233
sVcherubi
p234
VCherubi
p235
sVleafstorm
p236
VLeaf Storm
p237
sVspookyplate
p238
VSpooky Plate
p239
sS'hasty'
p240
S'Hasty'
p241
sVentei
p242
VEntei
p243
sVmemento
p244
VMemento
p245
sVarceussteel
p246
VArceus-Steel
p247
sVcobaberry
p248
VCoba Berry
p249
sVlaggingtail
p250
VLagging Tail
p251
sVfinalgambit
p252
VFinal Gambit
p253
sVrapidash
p254
VRapidash
p255
sVdoubleteam
p256
VDouble Team
p257
sVlumineon
p258
VLumineon
p259
sVshielddust
p260
VShield Dust
p261
sVmagicbounce
p262
VMagic Bounce
p263
sVfakeout
p264
VFake Out
p265
sVsludge
p266
VSludge
p267
sVvenusaur
p268
VVenusaur
p269
sVphione
p270
VPhione
p271
sVflameburst
p272
VFlame Burst
p273
sVzapplate
p274
VZap Plate
p275
sVfletchinder
p276
VFletchinder
p277
sVmunna
p278
VMunna
p279
sVhitmonlee
p280
VHitmonlee
p281
sVdryskin
p282
VDry Skin
p283
sVkricketot
p284
VKricketot
p285
sVroost
p286
VRoost
p287
sVfurycutter
p288
VFury Cutter
p289
sVirontail
p290
VIron Tail
p291
sVpoliwhirl
p292
VPoliwhirl
p293
sVeggbomb
p294
VEgg Bomb
p295
sVluxray
p296
VLuxray
p297
sVpayback
p298
VPayback
p299
sVexcadrill
p300
VExcadrill
p301
sVgloom
p302
VGloom
p303
sVgluttony
p304
VGluttony
p305
sVvulpix
p306
VVulpix
p307
sVcradily
p308
VCradily
p309
sVthunderfang
p310
VThunder Fang
p311
sVblastoisemega
p312
VBlastoise-Mega
p313
sVespeon
p314
VEspeon
p315
sVmultitype
p316
VMultitype
p317
sVflameorb
p318
VFlame Orb
p319
sVhiddenpowerdragon
p320
VHidden Power Dragon
p321
sVfairywind
p322
VFairy Wind
p323
sVgothorita
p324
VGothorita
p325
sVshadowtag
p326
VShadow Tag
p327
sVomastar
p328
VOmastar
p329
sVwalrein
p330
VWalrein
p331
sVtruant
p332
VTruant
p333
sVqualotberry
p334
VQualot Berry
p335
sVflowergift
p336
VFlower Gift
p337
sVpsychic
p338
VPsychic
p339
sVlifeorb
p340
VLife Orb
p341
sVkasibberry
p342
VKasib Berry
p343
sVseedbomb
p344
VSeed Bomb
p345
sVtornadus
p346
VTornadus
p347
sVshedshell
p348
VShed Shell
p349
sVbarrier
p350
VBarrier
p351
sVleftovers
p352
VLeftovers
p353
sVrevenge
p354
VRevenge
p355
sVsynchronoise
p356
VSynchronoise
p357
sVbestow
p358
VBestow
p359
sVtrumpcard
p360
VTrump Card
p361
sVstruggle
p362
VStruggle
p363
sVshiftry
p364
VShiftry
p365
sVhonedge
p366
VHonedge
p367
sVbeartic
p368
VBeartic
p369
sVkyuremblack
p370
VKyurem-Black
p371
sVsonicboom
p372
VSonicBoom
p373
sVfightinggem
p374
VFighting Gem
p375
sVlatias
p376
VLatias
p377
sVfilter
p378
VFilter
p379
sVcherishball
p380
VCherish Ball
p381
sVcheriberry
p382
VCheri Berry
p383
sS'naughty'
p384
S'Naughty'
p385
sVseedflare
p386
VSeed Flare
p387
sVhydrocannon
p388
VHydro Cannon
p389
sVmagneticflux
p390
VMagnetic Flux
p391
sVdeoxys
p392
VDeoxys
p393
sVhooh
p394
VHo-Oh
p395
sVshieldon
p396
VShieldon
p397
sVslugma
p398
VSlugma
p399
sVheracrossmega
p400
VHeracross-Mega
p401
sVwaveincense
p402
VWave Incense
p403
sVmanectite
p404
VManectite
p405
sVaircutter
p406
VAir Cutter
p407
sVgiratinaorigin
p408
VGiratina-Origin
p409
sVgrowlithe
p410
VGrowlithe
p411
sVinferno
p412
VInferno
p413
sVtwister
p414
VTwister
p415
sVyamask
p416
VYamask
p417
sVflamethrower
p418
VFlamethrower
p419
sVtoxicorb
p420
VToxic Orb
p421
sVfairylock
p422
VFairy Lock
p423
sVrockclimb
p424
VRock Climb
p425
sVwonderroom
p426
VWonder Room
p427
sVmachoke
p428
VMachoke
p429
sVdoomdesire
p430
VDoom Desire
p431
sVmirrormove
p432
VMirror Move
p433
sVsandshrew
p434
VSandshrew
p435
sVpolitoed
p436
VPolitoed
p437
sVminun
p438
VMinun
p439
sVbelueberry
p440
VBelue Berry
p441
sVendure
p442
VEndure
p443
sVswiftswim
p444
VSwift Swim
p445
sVshellbell
p446
VShell Bell
p447
sVminus
p448
VMinus
p449
sVmeowth
p450
VMeowth
p451
sVsweetscent
p452
VSweet Scent
p453
sVsludgebomb
p454
VSludge Bomb
p455
sVpayapaberry
p456
VPayapa Berry
p457
sVclosecombat
p458
VClose Combat
p459
sVmetalclaw
p460
VMetal Claw
p461
sVseel
p462
VSeel
p463
sVblastoise
p464
VBlastoise
p465
sVstrength
p466
VStrength
p467
sVchingling
p468
VChingling
p469
sVgothita
p470
VGothita
p471
sVdarmanitan
p472
VDarmanitan
p473
sVcraftyshield
p474
VCrafty Shield
p475
sVgyroball
p476
VGyro Ball
p477
sVursaring
p478
VUrsaring
p479
sVamoonguss
p480
VAmoonguss
p481
sVgrassyterrain
p482
VGrassy Terrain
p483
sVdeoxysspeed
p484
VDeoxys-Speed
p485
sVshadowforce
p486
VShadow Force
p487
sVcoil
p488
VCoil
p489
sVdrought
p490
VDrought
p491
sVferrothorn
p492
VFerrothorn
p493
sVcosmicpower
p494
VCosmic Power
p495
sVdunsparce
p496
VDunsparce
p497
sVconstrict
p498
VConstrict
p499
sVvileplume
p500
VVileplume
p501
sVraticate
p502
VRaticate
p503
sVslaking
p504
VSlaking
p505
sVjirachi
p506
VJirachi
p507
sVgolduck
p508
VGolduck
p509
sVarmorfossil
p510
VArmor Fossil
p511
sVstickyweb
p512
VSticky Web
p513
sVtogekiss
p514
VTogekiss
p515
sVhippopotas
p516
VHippopotas
p517
sVdialga
p518
VDialga
p519
sVlastresort
p520
VLast Resort
p521
sVbulletpunch
p522
VBullet Punch
p523
sVicegem
p524
VIce Gem
p525
sVspite
p526
VSpite
p527
sVcarbink
p528
VCarbink
p529
sVhaze
p530
VHaze
p531
sVstoutland
p532
VStoutland
p533
sVbidoof
p534
VBidoof
p535
sVsyclant
p536
VSyclant
p537
sVhaunter
p538
VHaunter
p539
sVweedle
p540
VWeedle
p541
sVaerilate
p542
S'Aerilate'
p543
sVhoneygather
p544
VHoney Gather
p545
sVmachop
p546
VMachop
p547
sVmetalpowder
p548
VMetal Powder
p549
sVdusknoir
p550
VDusknoir
p551
sVmeditate
p552
VMeditate
p553
sVreversal
p554
VReversal
p555
sVlunardance
p556
VLunar Dance
p557
sVpumpkaboosmall
p558
VPumpkaboo-Small
p559
sVtentacool
p560
VTentacool
p561
sVmilotic
p562
VMilotic
p563
sVscizor
p564
VScizor
p565
sVwailmer
p566
VWailmer
p567
sVnosepass
p568
VNosepass
p569
sVearthplate
p570
VEarth Plate
p571
sVlaxincense
p572
VLax Incense
p573
sVmagneton
p574
VMagneton
p575
sVstickyhold
p576
VSticky Hold
p577
sVbeatup
p578
VBeat Up
p579
sVleafblade
p580
VLeaf Blade
p581
sVserperior
p582
VSerperior
p583
sVempoleon
p584
VEmpoleon
p585
sVwooper
p586
VWooper
p587
sVforretress
p588
VForretress
p589
sVmindreader
p590
VMind Reader
p591
sVseaincense
p592
VSea Incense
p593
sVsimisage
p594
VSimisage
p595
sVarcheops
p596
VArcheops
p597
sVheavymetal
p598
VHeavy Metal
p599
sVwormadamsandy
p600
VWormadam-Sandy
p601
sVmuscleband
p602
VMuscle Band
p603
sVmatblock
p604
VMat Block
p605
sVpurrloin
p606
VPurrloin
p607
sVdoduo
p608
VDoduo
p609
sVmuk
p610
VMuk
p611
sVmotordrive
p612
VMotor Drive
p613
sVstarfberry
p614
VStarf Berry
p615
sVslowpoke
p616
VSlowpoke
p617
sVfrostbreath
p618
VFrost Breath
p619
sVcubone
p620
VCubone
p621
sVcut
p622
VCut
p623
sVmeadowplate
p624
VMeadow Plate
p625
sVparasect
p626
VParasect
p627
sVgourgeistsmall
p628
VGourgeist-Small
p629
sVclearsmog
p630
VClear Smog
p631
sVprotect
p632
VProtect
p633
sVplaynice
p634
VPlay Nice
p635
sVsamurott
p636
VSamurott
p637
sVmawile
p638
VMawile
p639
sVchimecho
p640
VChimecho
p641
sVpetayaberry
p642
VPetaya Berry
p643
sVdoublade
p644
VDoublade
p645
sVconfide
p646
VConfide
p647
sVluckychant
p648
VLucky Chant
p649
sVleppaberry
p650
VLeppa Berry
p651
sVlick
p652
VLick
p653
sVhitmontop
p654
VHitmontop
p655
sVfierydance
p656
VFiery Dance
p657
sVfloatzel
p658
VFloatzel
p659
sVsmackdown
p660
VSmack Down
p661
sVcyclohm
p662
VCyclohm
p663
sVbuneary
p664
VBuneary
p665
sVshockdrive
p666
VShock Drive
p667
sVnightdaze
p668
VNight Daze
p669
sVfriendguard
p670
VFriend Guard
p671
sVfrisk
p672
VFrisk
p673
sVsteamroller
p674
VSteamroller
p675
sVkakuna
p676
VKakuna
p677
sVpowertrick
p678
VPower Trick
p679
sVyanma
p680
VYanma
p681
sVmagiccoat
p682
VMagic Coat
p683
sVmarshtomp
p684
VMarshtomp
p685
sVgurdurr
p686
VGurdurr
p687
sVsoundproof
p688
VSoundproof
p689
sVthrash
p690
VThrash
p691
sVchespin
p692
VChespin
p693
sVsliggoo
p694
VSliggoo
p695
sVtotodile
p696
VTotodile
p697
sVgarchompite
p698
VGarchompite
p699
sVslowbro
p700
VSlowbro
p701
sVigglybuff
p702
VIgglybuff
p703
sVbinacle
p704
VBinacle
p705
sVnevermeltice
p706
VNeverMeltIce
p707
sVgrowl
p708
VGrowl
p709
sVaguavberry
p710
VAguav Berry
p711
sVdrilbur
p712
VDrilbur
p713
sVheracross
p714
VHeracross
p715
sVralts
p716
VRalts
p717
sVpupitar
p718
VPupitar
p719
sVslowking
p720
VSlowking
p721
sVpowerherb
p722
VPower Herb
p723
sVnoivern
p724
VNoivern
p725
sVwaterfall
p726
VWaterfall
p727
sVdewgong
p728
VDewgong
p729
sVkirlia
p730
VKirlia
p731
sVknockoff
p732
VKnock Off
p733
sVoctazooka
p734
VOctazooka
p735
sS'cawmodore'
p736
S'Cawmodore'
p737
sVsylveon
p738
VSylveon
p739
sVluxuryball
p740
VLuxury Ball
p741
sVhydration
p742
VHydration
p743
sVkrokorok
p744
VKrokorok
p745
sVgolbat
p746
VGolbat
p747
sVquilladin
p748
VQuilladin
p749
sVshellarmor
p750
VShell Armor
p751
sVpoliwag
p752
VPoliwag
p753
sVmetalcoat
p754
VMetal Coat
p755
sVthickclub
p756
VThick Club
p757
sVsweetveil
p758
VSweet Veil
p759
sVgoomy
p760
VGoomy
p761
sVsilcoon
p762
VSilcoon
p763
sVbuggem
p764
VBug Gem
p765
sVoshawott
p766
VOshawott
p767
sVtorterra
p768
VTorterra
p769
sVtogepi
p770
VTogepi
p771
sVdomefossil
p772
VDome Fossil
p773
sVlowkick
p774
VLow Kick
p775
sVhealbell
p776
VHeal Bell
p777
sVmirrorshot
p778
VMirror Shot
p779
sVlickitung
p780
VLickitung
p781
sVdragonrush
p782
VDragon Rush
p783
sVspinarak
p784
VSpinarak
p785
sVdiggersby
p786
VDiggersby
p787
sVsilverwind
p788
VSilver Wind
p789
sVthundurustherian
p790
VThundurus-Therian
p791
sVludicolo
p792
VLudicolo
p793
sVditto
p794
VDitto
p795
sVcirclethrow
p796
VCircle Throw
p797
sVrotom
p798
VRotom
p799
sVnidoqueen
p800
VNidoqueen
p801
sVpinsirmega
p802
VPinsir-Mega
p803
sVhiddenpowerpoison
p804
VHidden Power Poison
p805
sVflatter
p806
VFlatter
p807
sVtoxicspikes
p808
VToxic Spikes
p809
sVfirepledge
p810
VFire Pledge
p811
sVnoctowl
p812
VNoctowl
p813
sVcornnberry
p814
VCornn Berry
p815
sVskullfossil
p816
VSkull Fossil
p817
sVcheekpouch
p818
S'Cheek Pouch'
p819
sVuproar
p820
VUproar
p821
sVrhyperior
p822
VRhyperior
p823
sVtynamo
p824
VTynamo
p825
sVrufflet
p826
VRufflet
p827
sVpsyshock
p828
VPsyshock
p829
sVicyrock
p830
VIcy Rock
p831
sVwynaut
p832
VWynaut
p833
sVtrevenant
p834
VTrevenant
p835
sVabsorbbulb
p836
VAbsorb Bulb
p837
sS'bold'
p838
S'Bold'
p839
sVgunkshot
p840
VGunk Shot
p841
sVgarchomp
p842
VGarchomp
p843
sVgeodude
p844
VGeodude
p845
sVlightscreen
p846
VLight Screen
p847
sVwhimsicott
p848
VWhimsicott
p849
sVlavaplume
p850
VLava Plume
p851
sVkeeneye
p852
VKeen Eye
p853
sVsimipour
p854
VSimipour
p855
sVautotomize
p856
VAutotomize
p857
sVspikecannon
p858
VSpike Cannon
p859
sVnecturna
p860
VNecturna
p861
sVplus
p862
VPlus
p863
sVsapsipper
p864
VSap Sipper
p865
sVthunderpunch
p866
VThunder Punch
p867
sVhornleech
p868
VHorn Leech
p869
sVbraixen
p870
VBraixen
p871
sVdarkvoid
p872
VDark Void
p873
sVhoundour
p874
VHoundour
p875
sVdualchop
p876
VDual Chop
p877
sVfoulplay
p878
VFoul Play
p879
sVscyther
p880
VScyther
p881
sVgalewings
p882
S'Gale Wings'
p883
sVstormdrain
p884
VStorm Drain
p885
sVseadra
p886
VSeadra
p887
sVovergrow
p888
VOvergrow
p889
sVbonemerang
p890
VBonemerang
p891
sVshellos
p892
VShellos
p893
sVwrap
p894
VWrap
p895
sVcorsola
p896
VCorsola
p897
sVtransform
p898
VTransform
p899
sVklefki
p900
VKlefki
p901
sVrowapberry
p902
VRowap Berry
p903
sS'quirky'
p904
S'Quirky'
p905
sVgarbodor
p906
VGarbodor
p907
sVsynthesis
p908
VSynthesis
p909
sVmultiscale
p910
VMultiscale
p911
sVgroundgem
p912
VGround Gem
p913
sVreshiram
p914
VReshiram
p915
sVrocksmash
p916
VRock Smash
p917
sVvolttackle
p918
VVolt Tackle
p919
sVghostgem
p920
VGhost Gem
p921
sVroughskin
p922
VRough Skin
p923
sVsafeguard
p924
VSafeguard
p925
sVsmoothrock
p926
VSmooth Rock
p927
sVbide
p928
VBide
p929
sVaurabreak
p930
S'Aura Break'
p931
sVaurorus
p932
VAurorus
p933
sVchopleberry
p934
VChople Berry
p935
sVunnerve
p936
VUnnerve
p937
sVpaleowave
p938
VPaleo Wave
p939
sVparentalbond
p940
S'Parental Bond'
p941
sVferaligatr
p942
VFeraligatr
p943
sVoddish
p944
VOddish
p945
sVleer
p946
VLeer
p947
sVmagby
p948
VMagby
p949
sVswadloon
p950
VSwadloon
p951
sVvibrava
p952
VVibrava
p953
sVuxie
p954
VUxie
p955
sVsmoochum
p956
VSmoochum
p957
sVlansatberry
p958
VLansat Berry
p959
sVbutterfree
p960
VButterfree
p961
sVferroseed
p962
VFerroseed
p963
sVamaura
p964
VAmaura
p965
sVfennekin
p966
VFennekin
p967
sVclawfossil
p968
VClaw Fossil
p969
sVdischarge
p970
VDischarge
p971
sVpoisonpoint
p972
VPoison Point
p973
sVhiddenpowerground
p974
VHidden Power Ground
p975
sVarceuspoison
p976
VArceus-Poison
p977
sVliechiberry
p978
VLiechi Berry
p979
sVlillipup
p980
VLillipup
p981
sVflareboost
p982
VFlare Boost
p983
sVmummy
p984
VMummy
p985
sVoccaberry
p986
VOcca Berry
p987
sVironfist
p988
VIron Fist
p989
sS'serious'
p990
S'Serious'
p991
sVmegadrain
p992
VMega Drain
p993
sVsalacberry
p994
VSalac Berry
p995
sVsnubbull
p996
VSnubbull
p997
sVsandveil
p998
VSand Veil
p999
sVabsolite
p1000
VAbsolite
p1001
sVbonsly
p1002
VBonsly
p1003
sVcelebi
p1004
VCelebi
p1005
sVavalanche
p1006
VAvalanche
p1007
sVshadowsneak
p1008
VShadow Sneak
p1009
sVsuctioncups
p1010
VSuction Cups
p1011
sVsuperpower
p1012
VSuperpower
p1013
sVanticipation
p1014
VAnticipation
p1015
sVpanpour
p1016
VPanpour
p1017
sVdragonpulse
p1018
VDragon Pulse
p1019
sVelectroball
p1020
VElectro Ball
p1021
sVflash
p1022
VFlash
p1023
sVnetball
p1024
VNet Ball
p1025
sVcharge
p1026
VCharge
p1027
sVquash
p1028
VQuash
p1029
sVsnorlax
p1030
VSnorlax
p1031
sVunburden
p1032
VUnburden
p1033
sVcrosschop
p1034
VCross Chop
p1035
sVmachamp
p1036
VMachamp
p1037
sVkricketune
p1038
VKricketune
p1039
sVtailslap
p1040
VTail Slap
p1041
sVjynx
p1042
VJynx
p1043
sVlopunny
p1044
VLopunny
p1045
sVtoxicplate
p1046
VToxic Plate
p1047
sVskyuppercut
p1048
VSky Uppercut
p1049
sVpoisonsting
p1050
VPoison Sting
p1051
sVarceusfire
p1052
VArceus-Fire
p1053
sVfocusblast
p1054
VFocus Blast
p1055
sVmesprit
p1056
VMesprit
p1057
sVmagnet
p1058
VMagnet
p1059
sVbanettemega
p1060
VBanette-Mega
p1061
sVround
p1062
VRound
p1063
sVunaware
p1064
VUnaware
p1065
sVduskball
p1066
VDusk Ball
p1067
sVfalseswipe
p1068
VFalse Swipe
p1069
sVtalonflame
p1070
VTalonflame
p1071
sVleafeon
p1072
VLeafeon
p1073
sVzorua
p1074
VZorua
p1075
sVzenmode
p1076
VZen Mode
p1077
sVvitalthrow
p1078
VVital Throw
p1079
sVsubstitute
p1080
VSubstitute
p1081
sVcurse
p1082
VCurse
p1083
sVfocusband
p1084
VFocus Band
p1085
sVmoltres
p1086
VMoltres
p1087
sVpasshoberry
p1088
VPassho Berry
p1089
sVdragondance
p1090
VDragon Dance
p1091
sVaxew
p1092
VAxew
p1093
sVkecleon
p1094
VKecleon
p1095
sVglameow
p1096
VGlameow
p1097
sVaeroblast
p1098
VAeroblast
p1099
sVwartortle
p1100
VWartortle
p1101
sVexplosion
p1102
VExplosion
p1103
sVmiracleeye
p1104
VMiracle Eye
p1105
sVpumpkaboo
p1106
VPumpkaboo
p1107
sVsimisear
p1108
VSimisear
p1109
sVtropius
p1110
VTropius
p1111
sVmysticwater
p1112
VMystic Water
p1113
sVearthquake
p1114
VEarthquake
p1115
sVgastroacid
p1116
VGastro Acid
p1117
sVejectbutton
p1118
VEject Button
p1119
sVexploud
p1120
VExploud
p1121
sVdiveball
p1122
VDive Ball
p1123
sVsawk
p1124
VSawk
p1125
sVscraggy
p1126
VScraggy
p1127
sVdedenne
p1128
VDedenne
p1129
sVbrickbreak
p1130
VBrick Break
p1131
sVbagon
p1132
VBagon
p1133
sVregenerator
p1134
VRegenerator
p1135
sViondeluge
p1136
VIon Deluge
p1137
sVburndrive
p1138
VBurn Drive
p1139
sVmudslap
p1140
VMud-Slap
p1141
sVflaaffy
p1142
VFlaaffy
p1143
sVmagicroom
p1144
VMagic Room
p1145
sVampharosite
p1146
VAmpharosite
p1147
sVpinsirite
p1148
VPinsirite
p1149
sVheavyslam
p1150
VHeavy Slam
p1151
sVpinmissile
p1152
VPin Missile
p1153
sVsmellingsalts
p1154
VSmelling Salts
p1155
sVcaptivate
p1156
VCaptivate
p1157
sVsharpen
p1158
VSharpen
p1159
sVswagger
p1160
VSwagger
p1161
sVxatu
p1162
VXatu
p1163
sVrockslide
p1164
VRock Slide
p1165
sVcaterpie
p1166
VCaterpie
p1167
sVhypno
p1168
VHypno
p1169
sVblazekick
p1170
VBlaze Kick
p1171
sVfletchling
p1172
VFletchling
p1173
sVseismictoss
p1174
VSeismic Toss
p1175
sVdarumaka
p1176
VDarumaka
p1177
sVuturn
p1178
VU-turn
p1179
sVflygon
p1180
VFlygon
p1181
sVsandstorm
p1182
VSandstorm
p1183
sVswablu
p1184
VSwablu
p1185
sVspikyshield
p1186
VSpiky Shield
p1187
sVscolipede
p1188
VScolipede
p1189
sVdwebble
p1190
VDwebble
p1191
sVpignite
p1192
VPignite
p1193
sVsolarpower
p1194
VSolar Power
p1195
sVdonphan
p1196
VDonphan
p1197
sVpalpitoad
p1198
VPalpitoad
p1199
sVchilldrive
p1200
VChill Drive
p1201
sVnormalize
p1202
VNormalize
p1203
sVbanette
p1204
VBanette
p1205
sVtailwind
p1206
VTailwind
p1207
sVwideguard
p1208
VWide Guard
p1209
sVwikiberry
p1210
VWiki Berry
p1211
sVarbok
p1212
VArbok
p1213
sVelectricterrain
p1214
VElectric Terrain
p1215
sVoctillery
p1216
VOctillery
p1217
sVvenonat
p1218
VVenonat
p1219
sVteleport
p1220
VTeleport
p1221
sVdive
p1222
VDive
p1223
sVmamoswine
p1224
VMamoswine
p1225
sVwiseglasses
p1226
VWise Glasses
p1227
sVmilkdrink
p1228
VMilk Drink
p1229
sVancientpower
p1230
VAncient Power
p1231
sVblissey
p1232
VBlissey
p1233
sVcryogonal
p1234
VCryogonal
p1235
sVsupersonic
p1236
VSupersonic
p1237
sVdelibird
p1238
VDelibird
p1239
sVmalamar
p1240
VMalamar
p1241
sVshinx
p1242
VShinx
p1243
sVlitwick
p1244
VLitwick
p1245
sVriolu
p1246
VRiolu
p1247
sVlugia
p1248
VLugia
p1249
sVbulletseed
p1250
VBullet Seed
p1251
sVbubblebeam
p1252
VBubbleBeam
p1253
sVpachirisu
p1254
VPachirisu
p1255
sVarcanine
p1256
VArcanine
p1257
sVsneasel
p1258
VSneasel
p1259
sVgrassknot
p1260
VGrass Knot
p1261
sVklutz
p1262
VKlutz
p1263
sVbulldoze
p1264
VBulldoze
p1265
sVfocusenergy
p1266
VFocus Energy
p1267
sVkabuto
p1268
VKabuto
p1269
sVmail
p1270
VMail
p1271
sVgarchompmega
p1272
VGarchomp-Mega
p1273
sS'lonely'
p1274
S'Lonely'
p1275
sVfling
p1276
VFling
p1277
sVrattled
p1278
VRattled
p1279
sS'bashful'
p1280
S'Bashful'
p1281
sVfusionflare
p1282
VFusion Flare
p1283
sVsafariball
p1284
VSafari Ball
p1285
sVeffectspore
p1286
VEffect Spore
p1287
sVboomburst
p1288
VBoomburst
p1289
sVlinoone
p1290
VLinoone
p1291
sVsynchronize
p1292
VSynchronize
p1293
sVmantine
p1294
VMantine
p1295
sVglalie
p1296
VGlalie
p1297
sVpsyduck
p1298
VPsyduck
p1299
sVrockthrow
p1300
VRock Throw
p1301
sVswalot
p1302
VSwalot
p1303
sVgenesectburn
p1304
VGenesect-Burn
p1305
sVporygonz
p1306
VPorygon-Z
p1307
sVstrugglebug
p1308
VStruggle Bug
p1309
sVpersian
p1310
VPersian
p1311
sVshaymin
p1312
VShaymin
p1313
sVpidove
p1314
VPidove
p1315
sVskillswap
p1316
VSkill Swap
p1317
sVassurance
p1318
VAssurance
p1319
sVpoochyena
p1320
VPoochyena
p1321
sVporygon2
p1322
VPorygon2
p1323
sVtoxicroak
p1324
VToxicroak
p1325
sVmiltank
p1326
VMiltank
p1327
sVdig
p1328
VDig
p1329
sVpetilil
p1330
VPetilil
p1331
sVtelepathy
p1332
VTelepathy
p1333
sVnidorino
p1334
VNidorino
p1335
sVmeloettapirouette
p1336
VMeloetta-Pirouette
p1337
sVnidorina
p1338
VNidorina
p1339
sVhypnosis
p1340
VHypnosis
p1341
sVdurinberry
p1342
VDurin Berry
p1343
sVdragonrage
p1344
VDragon Rage
p1345
sVjolteon
p1346
VJolteon
p1347
sVdefensecurl
p1348
VDefense Curl
p1349
sVchikorita
p1350
VChikorita
p1351
sVrockyhelmet
p1352
VRocky Helmet
p1353
sVwatergem
p1354
VWater Gem
p1355
sVjabocaberry
p1356
VJaboca Berry
p1357
sVhoppip
p1358
VHoppip
p1359
sViceshard
p1360
VIce Shard
p1361
sVgiratina
p1362
VGiratina
p1363
sVteravolt
p1364
VTeravolt
p1365
sVbite
p1366
VBite
p1367
sVduosion
p1368
VDuosion
p1369
sVaromatherapy
p1370
VAromatherapy
p1371
sVsleeptalk
p1372
VSleep Talk
p1373
sVconfuseray
p1374
VConfuse Ray
p1375
sVgliscor
p1376
VGliscor
p1377
sVseedot
p1378
VSeedot
p1379
sVsnatch
p1380
VSnatch
p1381
sVbunnelby
p1382
VBunnelby
p1383
sVdrapion
p1384
VDrapion
p1385
sVpeck
p1386
VPeck
p1387
sVwormadamtrash
p1388
VWormadam-Trash
p1389
sVflashcannon
p1390
VFlash Cannon
p1391
sVquickattack
p1392
VQuick Attack
p1393
sVtrickortreat
p1394
VTrick-or-Treat
p1395
sVvirizion
p1396
VVirizion
p1397
sVhiddenpowerrock
p1398
VHidden Power Rock
p1399
sVrazzberry
p1400
VRazz Berry
p1401
sVchlorophyll
p1402
VChlorophyll
p1403
sVslam
p1404
VSlam
p1405
sVsandstream
p1406
VSand Stream
p1407
sVledyba
p1408
VLedyba
p1409
sVaquatail
p1410
VAqua Tail
p1411
sVkrilowatt
p1412
VKrilowatt
p1413
sVrecover
p1414
VRecover
p1415
sVconversion
p1416
VConversion
p1417
sVelectrode
p1418
VElectrode
p1419
sVhiddenpowerdark
p1420
VHidden Power Dark
p1421
sVmetalsound
p1422
VMetal Sound
p1423
sVarghonaut
p1424
VArghonaut
p1425
sVbeedrill
p1426
VBeedrill
p1427
sVsurf
p1428
VSurf
p1429
sVgriseousorb
p1430
VGriseous Orb
p1431
sVmountaineer
p1432
VMountaineer
p1433
sVstunky
p1434
VStunky
p1435
sVtrace
p1436
VTrace
p1437
sVgeargrind
p1438
VGear Grind
p1439
sVdarkrai
p1440
VDarkrai
p1441
sVbarrage
p1442
VBarrage
p1443
sVgengarmega
p1444
VGengar-Mega
p1445
sVstunfisk
p1446
VStunfisk
p1447
sVadaptability
p1448
VAdaptability
p1449
sVespurr
p1450
VEspurr
p1451
sVleaftornado
p1452
VLeaf Tornado
p1453
sVhyperfang
p1454
VHyper Fang
p1455
sVdracoplate
p1456
VDraco Plate
p1457
sVelectirizer
p1458
VElectirizer
p1459
sVmollux
p1460
VMollux
p1461
sVmuddywater
p1462
VMuddy Water
p1463
sVcompoundeyes
p1464
VCompound Eyes
p1465
sVdelphox
p1466
VDelphox
p1467
sVtintedlens
p1468
VTinted Lens
p1469
sVgolurk
p1470
VGolurk
p1471
sVfigyberry
p1472
VFigy Berry
p1473
sVgoodra
p1474
VGoodra
p1475
sVrevenankh
p1476
VRevenankh
p1477
sVvolbeat
p1478
VVolbeat
p1479
sVlarvesta
p1480
VLarvesta
p1481
sVthunderwave
p1482
VThunder Wave
p1483
sVpatrat
p1484
VPatrat
p1485
sVacupressure
p1486
VAcupressure
p1487
sVanalytic
p1488
VAnalytic
p1489
sVprobopass
p1490
VProbopass
p1491
sVoutrage
p1492
VOutrage
p1493
sVleavanny
p1494
VLeavanny
p1495
sVkinesis
p1496
VKinesis
p1497
sVweaknesspolicy
p1498
VWeakness Policy
p1499
sVstomp
p1500
VStomp
p1501
sVboneclub
p1502
VBone Club
p1503
sVtelekinesis
p1504
VTelekinesis
p1505
sVmoxie
p1506
VMoxie
p1507
sVabsolmega
p1508
VAbsol-Mega
p1509
sVparkball
p1510
VPark Ball
p1511
sVspewpa
p1512
VSpewpa
p1513
sVwonderskin
p1514
VWonder Skin
p1515
sVhiddenpowerfighting
p1516
VHidden Power Fighting
p1517
sVimposter
p1518
VImposter
p1519
sVspore
p1520
VSpore
p1521
sVquagsire
p1522
VQuagsire
p1523
sVdetect
p1524
VDetect
p1525
sVsteadfast
p1526
VSteadfast
p1527
sVlimber
p1528
VLimber
p1529
sVbatonpass
p1530
VBaton Pass
p1531
sVforecast
p1532
VForecast
p1533
sVwhiscash
p1534
VWhiscash
p1535
sVsnowwarning
p1536
VSnow Warning
p1537
sVjustified
p1538
VJustified
p1539
sVdamprock
p1540
VDamp Rock
p1541
sVhariyama
p1542
VHariyama
p1543
sVcrawdaunt
p1544
VCrawdaunt
p1545
sVpluck
p1546
VPluck
p1547
sVspark
p1548
VSpark
p1549
sVxerneas
p1550
VXerneas
p1551
sVspoink
p1552
VSpoink
p1553
sVvictreebel
p1554
VVictreebel
p1555
sVdestinyknot
p1556
VDestiny Knot
p1557
sVskiddo
p1558
VSkiddo
p1559
sVrhyhorn
p1560
VRhyhorn
p1561
sVsteelix
p1562
VSteelix
p1563
sVnestball
p1564
VNest Ball
p1565
sVkrookodile
p1566
VKrookodile
p1567
sVcellbattery
p1568
VCell Battery
p1569
sVwingattack
p1570
VWing Attack
p1571
sVnormalgem
p1572
VNormal Gem
p1573
sVhiddenpowersteel
p1574
VHidden Power Steel
p1575
sVtyranitarite
p1576
VTyranitarite
p1577
sVdodrio
p1578
VDodrio
p1579
sVstancechange
p1580
VStance Change
p1581
sVzapdos
p1582
VZapdos
p1583
sVendeavor
p1584
VEndeavor
p1585
sVechoedvoice
p1586
VEchoed Voice
p1587
sVrunaway
p1588
VRun Away
p1589
sVlandswrath
p1590
VLand's Wrath
p1591
sVmawilemega
p1592
VMawile-Mega
p1593
sVlightmetal
p1594
VLight Metal
p1595
sVstunspore
p1596
VStun Spore
p1597
sVroseincense
p1598
VRose Incense
p1599
sVgigalith
p1600
VGigalith
p1601
sVspiderweb
p1602
VSpider Web
p1603
sVstantler
p1604
VStantler
p1605
sVflamebody
p1606
VFlame Body
p1607
sVhelioptile
p1608
VHelioptile
p1609
sVcresselia
p1610
VCresselia
p1611
sVomanyte
p1612
VOmanyte
p1613
sVbreloom
p1614
VBreloom
p1615
sVtangela
p1616
VTangela
p1617
sVhealblock
p1618
VHeal Block
p1619
sVswanna
p1620
VSwanna
p1621
sVluminousmoss
p1622
VLuminous Moss
p1623
sS'careful'
p1624
S'Careful'
p1625
sVmudshot
p1626
VMud Shot
p1627
sVdefeatist
p1628
VDefeatist
p1629
sVtrick
p1630
VTrick
p1631
sVlandorus
p1632
VLandorus
p1633
sVgroudon
p1634
VGroudon
p1635
sS'quiet'
p1636
S'Quiet'
p1637
sVenergypowder
p1638
VEnergyPowder
p1639
sVsacredfire
p1640
VSacred Fire
p1641
sVstaryu
p1642
VStaryu
p1643
sVvicegrip
p1644
VViceGrip
p1645
sVgourgeistlarge
p1646
VGourgeist-Large
p1647
sVcubchoo
p1648
VCubchoo
p1649
sVhiddenpowerice
p1650
VHidden Power Ice
p1651
sVextremespeed
p1652
VExtreme Speed
p1653
sVangerpoint
p1654
VAnger Point
p1655
sVphantomforce
p1656
VPhantom Force
p1657
sVstrongjaw
p1658
VStrong Jaw
p1659
sVnuzzle
p1660
VNuzzle
p1661
sVthunderbolt
p1662
VThunderbolt
p1663
sVgenesectshock
p1664
VGenesect-Shock
p1665
sVmagnetbomb
p1666
VMagnet Bomb
p1667
sVassist
p1668
VAssist
p1669
sVblaziken
p1670
VBlaziken
p1671
sS'bulletproof'
p1672
S'Bulletproof'
p1673
sVgligar
p1674
VGligar
p1675
sVrockhead
p1676
VRock Head
p1677
sVhypervoice
p1678
VHyper Voice
p1679
sVminimize
p1680
VMinimize
p1681
sVdoublehit
p1682
VDouble Hit
p1683
sVmedicham
p1684
VMedicham
p1685
sVheatmor
p1686
VHeatmor
p1687
sVrockgem
p1688
VRock Gem
p1689
sVrazorwind
p1690
VRazor Wind
p1691
sVfurcoat
p1692
S'Fur Coat'
p1693
sVhealingwish
p1694
VHealing Wish
p1695
sVquickguard
p1696
VQuick Guard
p1697
sVwingull
p1698
VWingull
p1699
sVrest
p1700
VRest
p1701
sVfurfrou
p1702
VFurfrou
p1703
sVchimchar
p1704
VChimchar
p1705
sVdarkaura
p1706
S'Dark Aura'
p1707
sVrazorclaw
p1708
VRazor Claw
p1709
sVdragonbreath
p1710
VDragon Breath
p1711
sVelgyem
p1712
VElgyem
p1713
sVduskull
p1714
VDuskull
p1715
sVcometpunch
p1716
VComet Punch
p1717
sVaerialace
p1718
VAerial Ace
p1719
sVparas
p1720
VParas
p1721
sVskitty
p1722
VSkitty
p1723
sVflareblitz
p1724
VFlare Blitz
p1725
sVtrubbish
p1726
VTrubbish
p1727
sVsnarl
p1728
VSnarl
p1729
sVmachpunch
p1730
VMach Punch
p1731
sVsunkern
p1732
VSunkern
p1733
sVcolossoil
p1734
VColossoil
p1735
sVdreamball
p1736
VDream Ball
p1737
sVsnore
p1738
VSnore
p1739
sVfloatstone
p1740
VFloat Stone
p1741
sVskiploom
p1742
VSkiploom
p1743
sVregigigas
p1744
VRegigigas
p1745
sVvoltswitch
p1746
VVolt Switch
p1747
sVarceusrock
p1748
VArceus-Rock
p1749
sVbrightpowder
p1750
VBrightPowder
p1751
sVhypercutter
p1752
VHyper Cutter
p1753
sVvanillite
p1754
VVanillite
p1755
sVchoiceband
p1756
VChoice Band
p1757
sVheartswap
p1758
VHeart Swap
p1759
sVpinapberry
p1760
VPinap Berry
p1761
sVminccino
p1762
VMinccino
p1763
sVrefresh
p1764
VRefresh
p1765
sVprinplup
p1766
VPrinplup
p1767
sVultraball
p1768
VUltra Ball
p1769
sVheadcharge
p1770
VHead Charge
p1771
sVcrustle
p1772
VCrustle
p1773
sVpowergem
p1774
VPower Gem
p1775
sViceburn
p1776
VIce Burn
p1777
sVbattlearmor
p1778
VBattle Armor
p1779
sVcastformsnowy
p1780
VCastform-Snowy
p1781
sVhustle
p1782
VHustle
p1783
sVthroh
p1784
VThroh
p1785
sVmusharna
p1786
VMusharna
p1787
sVinnerfocus
p1788
VInner Focus
p1789
sVbasculinbluestriped
p1790
VBasculin-Blue-Striped
p1791
sVhornattack
p1792
VHorn Attack
p1793
sVzapcannon
p1794
VZap Cannon
p1795
sVroar
p1796
VRoar
p1797
sVlockon
p1798
VLock-On
p1799
sVfloette
p1800
VFloette
p1801
sVgengar
p1802
VGengar
p1803
sVswampert
p1804
VSwampert
p1805
sVgolem
p1806
VGolem
p1807
sVquilava
p1808
VQuilava
p1809
sVcustapberry
p1810
VCustap Berry
p1811
sVsearingshot
p1812
VSearing Shot
p1813
sVstratagem
p1814
VStratagem
p1815
sVpyroar
p1816
VPyroar
p1817
sVshadowpunch
p1818
VShadow Punch
p1819
sVfocuspunch
p1820
VFocus Punch
p1821
sVtoughclaws
p1822
VTough Claws
p1823
sVforewarn
p1824
VForewarn
p1825
sViciclespear
p1826
VIcicle Spear
p1827
sVpyroak
p1828
VPyroak
p1829
sVsacredsword
p1830
VSacred Sword
p1831
sVhex
p1832
VHex
p1833
sVmarill
p1834
VMarill
p1835
sVsymbiosis
p1836
VSymbiosis
p1837
sVwillowisp
p1838
VWill-O-Wisp
p1839
sVbubble
p1840
VBubble
p1841
sVsealeo
p1842
VSealeo
p1843
sVglaciate
p1844
VGlaciate
p1845
sVnightshade
p1846
VNight Shade
p1847
sVfrogadier
p1848
VFrogadier
p1849
sVporygon
p1850
VPorygon
p1851
sVheatrock
p1852
VHeat Rock
p1853
sVvitalspirit
p1854
VVital Spirit
p1855
sVsnover
p1856
VSnover
p1857
sVrage
p1858
VRage
p1859
sVvictorystar
p1860
VVictory Star
p1861
sVvinewhip
p1862
VVine Whip
p1863
sVstoneplate
p1864
VStone Plate
p1865
sVsheercold
p1866
VSheer Cold
p1867
sVsplashplate
p1868
VSplash Plate
p1869
sVpowdersnow
p1870
VPowder Snow
p1871
sVclamperl
p1872
VClamperl
p1873
sVchesnaught
p1874
VChesnaught
p1875
sVdugtrio
p1876
VDugtrio
p1877
sVsmokescreen
p1878
VSmokeScreen
p1879
sVmoonblast
p1880
VMoonblast
p1881
sVcolburberry
p1882
VColbur Berry
p1883
sVaegislash
p1884
VAegislash
p1885
sVimmunity
p1886
VImmunity
p1887
sVstormthrow
p1888
VStorm Throw
p1889
sVcharizard
p1890
VCharizard
p1891
sVnincada
p1892
VNincada
p1893
sVaccelgor
p1894
VAccelgor
p1895
sVmirrorcoat
p1896
VMirror Coat
p1897
sVemboar
p1898
VEmboar
p1899
sVmawilite
p1900
VMawilite
p1901
sVdustox
p1902
VDustox
p1903
sVrootfossil
p1904
VRoot Fossil
p1905
sVtackle
p1906
VTackle
p1907
sVrotomwash
p1908
VRotom-Wash
p1909
sVgrudge
p1910
VGrudge
p1911
sVcyndaquil
p1912
VCyndaquil
p1913
sVblueflare
p1914
VBlue Flare
p1915
sVdefog
p1916
VDefog
p1917
sVskyattack
p1918
VSky Attack
p1919
sVmoonlight
p1920
VMoonlight
p1921
sVmimic
p1922
VMimic
p1923
sVstockpile
p1924
VStockpile
p1925
sVoddincense
p1926
VOdd Incense
p1927
sVgardevoirmega
p1928
VGardevoir-Mega
p1929
sVlairon
p1930
VLairon
p1931
sVeerieimpulse
p1932
VEerie Impulse
p1933
sVscrappy
p1934
VScrappy
p1935
sVtogetic
p1936
VTogetic
p1937
sVfirepunch
p1938
VFire Punch
p1939
sVunfezant
p1940
VUnfezant
p1941
sVmicleberry
p1942
VMicle Berry
p1943
sVlightningrod
p1944
VLightningrod
p1945
sVgigadrain
p1946
VGiga Drain
p1947
sVsilverpowder
p1948
VSilverPowder
p1949
sVvanillish
p1950
VVanillish
p1951
sVsheerforce
p1952
VSheer Force
p1953
sVbayleef
p1954
VBayleef
p1955
sVhondewberry
p1956
VHondew Berry
p1957
sVtympole
p1958
VTympole
p1959
sVwigglytuff
p1960
VWigglytuff
p1961
sVtyranitarmega
p1962
VTyranitar-Mega
p1963
sVicepunch
p1964
VIce Punch
p1965
sVgalvantula
p1966
VGalvantula
p1967
sVcombusken
p1968
VCombusken
p1969
sVcloudnine
p1970
VCloud Nine
p1971
sVmienshao
p1972
VMienshao
p1973
sVkeeberry
p1974
VKee Berry
p1975
sVscrafty
p1976
VScrafty
p1977
sVsecretpower
p1978
VSecret Power
p1979
sS'mild'
p1980
S'Mild'
p1981
sVsawsbuck
p1982
VSawsbuck
p1983
sVdoublekick
p1984
VDouble Kick
p1985
sViceball
p1986
VIce Ball
p1987
sVflorges
p1988
VFlorges
p1989
sVgourgeistsuper
p1990
VGourgeist-Super
p1991
sVironbarbs
p1992
VIron Barbs
p1993
sValtaria
p1994
VAltaria
p1995
sVcrushgrip
p1996
VCrush Grip
p1997
sVcottonguard
p1998
VCotton Guard
p1999
sVmeganium
p2000
VMeganium
p2001
sVchipaway
p2002
VChip Away
p2003
sVhealer
p2004
VHealer
p2005
sVfeatherdance
p2006
VFeatherDance
p2007
sVshockwave
p2008
VShock Wave
p2009
sVironplate
p2010
VIron Plate
p2011
sVgreatball
p2012
VGreat Ball
p2013
sVfellstinger
p2014
VFell Stinger
p2015
sVaurorabeam
p2016
VAurora Beam
p2017
sVheartstamp
p2018
VHeart Stamp
p2019
sVboldore
p2020
VBoldore
p2021
sVchoicescarf
p2022
VChoice Scarf
p2023
sVdragonfang
p2024
VDragon Fang
p2025
sVgastly
p2026
VGastly
p2027
sVrhydon
p2028
VRhydon
p2029
sVvenusaurmega
p2030
VVenusaur-Mega
p2031
sVinfernape
p2032
VInfernape
p2033
sVweezing
p2034
VWeezing
p2035
sVaromatisse
p2036
VAromatisse
p2037
sVkyuremwhite
p2038
VKyurem-White
p2039
sVacidspray
p2040
VAcid Spray
p2041
sVarmaldo
p2042
VArmaldo
p2043
sVkyurem
p2044
VKyurem
p2045
sVwringout
p2046
VWring Out
p2047
sVstarly
p2048
VStarly
p2049
sVhawlucha
p2050
VHawlucha
p2051
sVgolett
p2052
VGolett
p2053
sVgyaradosmega
p2054
VGyarados-Mega
p2055
sVgallade
p2056
VGallade
p2057
sVledian
p2058
VLedian
p2059
sVfeint
p2060
VFeint
p2061
sVluvdisc
p2062
VLuvdisc
p2063
sVhelixfossil
p2064
VHelix Fossil
p2065
sVsplash
p2066
VSplash
p2067
sVillumise
p2068
VIllumise
p2069
sVgirafarig
p2070
VGirafarig
p2071
sVanorith
p2072
VAnorith
p2073
sVdizzypunch
p2074
VDizzy Punch
p2075
sVflyingpress
p2076
VFlying Press
p2077
sVpumpkaboosuper
p2078
VPumpkaboo-Super
p2079
sVhorsea
p2080
VHorsea
p2081
sVstick
p2082
VStick
p2083
sVrazorfang
p2084
VRazor Fang
p2085
sVchilanberry
p2086
VChilan Berry
p2087
sVturboblaze
p2088
VTurboblaze
p2089
sVaegislashblade
p2090
VAegislash-Blade
p2091
sVnaturalgift
p2092
VNatural Gift
p2093
sVshadowclaw
p2094
VShadow Claw
p2095
sVchartiberry
p2096
VCharti Berry
p2097
sVlumberry
p2098
VLum Berry
p2099
sVvoltorb
p2100
VVoltorb
p2101
sVskyplate
p2102
VSky Plate
p2103
sVsableye
p2104
VSableye
p2105
sVseviper
p2106
VSeviper
p2107
sVmarvelscale
p2108
VMarvel Scale
p2109
sVaurumoth
p2110
VAurumoth
p2111
sVslakoth
p2112
VSlakoth
p2113
sVmonferno
p2114
VMonferno
p2115
sVeelektrik
p2116
VEelektrik
p2117
sVwobbuffet
p2118
VWobbuffet
p2119
sVdrainpunch
p2120
VDrain Punch
p2121
sVshelmet
p2122
VShelmet
p2123
sVflyinggem
p2124
VFlying Gem
p2125
sVbulkup
p2126
VBulk Up
p2127
sVglaceon
p2128
VGlaceon
p2129
sVwonderguard
p2130
VWonder Guard
p2131
sVelectricgem
p2132
VElectric Gem
p2133
sVrotomfan
p2134
VRotom-Fan
p2135
sVsignalbeam
p2136
VSignal Beam
p2137
sVshuckle
p2138
VShuckle
p2139
sVreflect
p2140
VReflect
p2141
sVdisable
p2142
VDisable
p2143
sVliquidooze
p2144
VLiquid Ooze
p2145
sVmedichammega
p2146
VMedicham-Mega
p2147
sVtwistedspoon
p2148
VTwistedSpoon
p2149
sVlanturn
p2150
VLanturn
p2151
sVparaboliccharge
p2152
VParabolic Charge
p2153
sVretaliate
p2154
VRetaliate
p2155
sVphantump
p2156
VPhantump
p2157
sVcorphish
p2158
VCorphish
p2159
sVbastiodon
p2160
VBastiodon
p2161
sVmudbomb
p2162
VMud Bomb
p2163
sVarticuno
p2164
VArticuno
p2165
sVfissure
p2166
VFissure
p2167
sVvolcarona
p2168
VVolcarona
p2169
sVblackglasses
p2170
VBlackGlasses
p2171
sVplayrough
p2172
VPlay Rough
p2173
sVhealorder
p2174
VHeal Order
p2175
sVjigglypuff
p2176
VJigglypuff
p2177
sVsandslash
p2178
VSandslash
p2179
sVastonish
p2180
VAstonish
p2181
sVenergyball
p2182
VEnergy Ball
p2183
sVaggron
p2184
VAggron
p2185
sVlampent
p2186
VLampent
p2187
sVfistplate
p2188
VFist Plate
p2189
sVreturn
p2190
VReturn
p2191
sVmanectricmega
p2192
VManectric-Mega
p2193
sVsnowball
p2194
VSnowball
p2195
sVmrmime
p2196
VMr. Mime
p2197
sVcharizardmegax
p2198
VCharizard-Mega-X
p2199
sVcharizardmegay
p2200
VCharizard-Mega-Y
p2201
sVclefable
p2202
VClefable
p2203
sVskuntank
p2204
VSkuntank
p2205
sVprimeape
p2206
VPrimeape
p2207
sVgabite
p2208
VGabite
p2209
sVmissingno
p2210
VMissingno.
p2211
sVbellsprout
p2212
VBellsprout
p2213
sVlovelykiss
p2214
VLovely Kiss
p2215
sVmeanlook
p2216
VMean Look
p2217
sVclamp
p2218
VClamp
p2219
sVtopsyturvy
p2220
VTopsy-turvy
p2221
sVquickfeet
p2222
VQuick Feet
p2223
sVirondefense
p2224
VIron Defense
p2225
sVraichu
p2226
VRaichu
p2227
sVmagnezone
p2228
VMagnezone
p2229
sVtrickroom
p2230
VTrick Room
p2231
sVmist
p2232
VMist
p2233
sVhiddenpowerpsychic
p2234
VHidden Power Psychic
p2235
sVelectroweb
p2236
VElectroweb
p2237
sS'jolly'
p2238
S'Jolly'
p2239
sVsalamence
p2240
VSalamence
p2241
sVabsorb
p2242
VAbsorb
p2243
sVwhirlpool
p2244
VWhirlpool
p2245
sVsuperfang
p2246
VSuper Fang
p2247
sVcombee
p2248
VCombee
p2249
sVroggenrola
p2250
VRoggenrola
p2251
sVironhead
p2252
VIron Head
p2253
sVsentret
p2254
VSentret
p2255
sVpichuspikyeared
p2256
VPichu-Spiky-eared
p2257
sVtyrogue
p2258
VTyrogue
p2259
sVcleffa
p2260
VCleffa
p2261
sVguardsplit
p2262
VGuard Split
p2263
sVwaterabsorb
p2264
VWater Absorb
p2265
sVtoxicboost
p2266
VToxic Boost
p2267
sVninetales
p2268
VNinetales
p2269
sVnidoranf
p2270
S'NidoranF'
p2271
sVcottonspore
p2272
VCotton Spore
p2273
sVnidoranm
p2274
S'NidoranM'
p2275
sVpineco
p2276
VPineco
p2277
sVscopelens
p2278
VScope Lens
p2279
sVhydreigon
p2280
VHydreigon
p2281
sVrockpolish
p2282
VRock Polish
p2283
sVmightyena
p2284
VMightyena
p2285
sVabomasnowmega
p2286
VAbomasnow-Mega
p2287
sVmanaphy
p2288
VManaphy
p2289
sS'brave'
p2290
S'Brave'
p2291
sVstoredpower
p2292
VStored Power
p2293
sVkangaskhanmega
p2294
VKangaskhan-Mega
p2295
sVpetaldance
p2296
VPetal Dance
p2297
sVmeowstic
p2298
VMeowstic
p2299
sVboltstrike
p2300
VBolt Strike
p2301
sVswarm
p2302
VSwarm
p2303
sVbibarel
p2304
VBibarel
p2305
sVklinklang
p2306
VKlinklang
p2307
sVlandorustherian
p2308
VLandorus-Therian
p2309
sVpoisongem
p2310
VPoison Gem
p2311
sVpsybeam
p2312
VPsybeam
p2313
sVsuckerpunch
p2314
VSucker Punch
p2315
sVfreezeshock
p2316
VFreeze Shock
p2317
sVpsywave
p2318
VPsywave
p2319
sVdrillrun
p2320
VDrill Run
p2321
sVwhiteherb
p2322
VWhite Herb
p2323
sVringtarget
p2324
VRing Target
p2325
sVvenipede
p2326
VVenipede
p2327
sVdarkpulse
p2328
VDark Pulse
p2329
sVarceusdragon
p2330
VArceus-Dragon
p2331
sVstall
p2332
VStall
p2333
sVcontrary
p2334
VContrary
p2335
sVdazzlinggleam
p2336
VDazzling Gleam
p2337
sVdoubleedge
p2338
VDouble-Edge
p2339
sVremoraid
p2340
VRemoraid
p2341
sVclefairy
p2342
VClefairy
p2343
sVklink
p2344
VKlink
p2345
sVclearbody
p2346
VClear Body
p2347
sVfirespin
p2348
VFire Spin
p2349
sVgenesectchill
p2350
VGenesect-Chill
p2351
sVsuicune
p2352
VSuicune
p2353
sVpamtreberry
p2354
VPamtre Berry
p2355
sVmegahorn
p2356
VMegahorn
p2357
sVsunflora
p2358
VSunflora
p2359
sVgourgeist
p2360
VGourgeist
p2361
sVbarbaracle
p2362
VBarbaracle
p2363
sVairballoon
p2364
VAir Balloon
p2365
sVswirlix
p2366
VSwirlix
p2367
sVlitleo
p2368
VLitleo
p2369
sVcamouflage
p2370
VCamouflage
p2371
sVfrillish
p2372
VFrillish
p2373
sVspheal
p2374
VSpheal
p2375
sVkangaskhan
p2376
VKangaskhan
p2377
sVregirock
p2378
VRegirock
p2379
sVpansage
p2380
VPansage
p2381
sVswitcheroo
p2382
VSwitcheroo
p2383
sValakazammega
p2384
VAlakazam-Mega
p2385
sVmasterball
p2386
VMaster Ball
p2387
sVeruption
p2388
VEruption
p2389
sVyawn
p2390
VYawn
p2391
sVcharm
p2392
VCharm
p2393
sVdiglett
p2394
VDiglett
p2395
sVbeldum
p2396
VBeldum
p2397
sVbarboach
p2398
VBarboach
p2399
sVcrosspoison
p2400
VCross Poison
p2401
sVcarvanha
p2402
VCarvanha
p2403
sVrefrigerate
p2404
S'Refrigerate'
p2405
sVlowsweep
p2406
VLow Sweep
p2407
sVsturdy
p2408
VSturdy
p2409
sVcovet
p2410
VCovet
p2411
sVgenesectdouse
p2412
VGenesect-Douse
p2413
sVkaratechop
p2414
VKarate Chop
p2415
sVhoundoominite
p2416
VHoundoominite
p2417
sVazumarill
p2418
VAzumarill
p2419
sVmetalburst
p2420
VMetal Burst
p2421
sVcharmeleon
p2422
VCharmeleon
p2423
sVmeloetta
p2424
VMeloetta
p2425
sVnanabberry
p2426
VNanab Berry
p2427
sVzoomlens
p2428
VZoom Lens
p2429
sVblackbelt
p2430
VBlack Belt
p2431
sVhammerarm
p2432
VHammer Arm
p2433
sVmagmaarmor
p2434
VMagma Armor
p2435
sVpayday
p2436
VPay Day
p2437
sVgooey
p2438
S'Gooey'
p2439
sVoblivionwing
p2440
VOblivion Wing
p2441
sVtyrantrum
p2442
VTyrantrum
p2443
sVhealpulse
p2444
VHeal Pulse
p2445
sVmagikarp
p2446
VMagikarp
p2447
sVpawniard
p2448
VPawniard
p2449
sVpoisontail
p2450
VPoison Tail
p2451
sVhitmonchan
p2452
VHitmonchan
p2453
sS'docile'
p2454
S'Docile'
p2455
sVfireblast
p2456
VFire Blast
p2457
sVshroomish
p2458
VShroomish
p2459
sVwhismur
p2460
VWhismur
p2461
sVspikes
p2462
VSpikes
p2463
sVshadowstrike
p2464
VShadowStrike
p2465
sVheatcrash
p2466
VHeat Crash
p2467
sVskorupi
p2468
VSkorupi
p2469
sVgengarite
p2470
VGengarite
p2471
sVblitzle
p2472
VBlitzle
p2473
sVtamatoberry
p2474
VTamato Berry
p2475
sVblazikenite
p2476
VBlazikenite
p2477
sVfarfetchd
p2478
VFarfetch'd
p2479
sVinkay
p2480
VInkay
p2481
sVpickup
p2482
VPickup
p2483
sVtangaberry
p2484
VTanga Berry
p2485
sVarceusdark
p2486
VArceus-Dark
p2487
sVmarowak
p2488
VMarowak
p2489
sVmachobrace
p2490
VMacho Brace
p2491
sVelekid
p2492
VElekid
p2493
sVmagmortar
p2494
VMagmortar
p2495
sVchansey
p2496
VChansey
p2497
sVroaroftime
p2498
VRoar of Time
p2499
sVwildcharge
p2500
VWild Charge
p2501
sVrattata
p2502
VRattata
p2503
sVhoundoommega
p2504
VHoundoom-Mega
p2505
sVclaydol
p2506
VClaydol
p2507
sVrelicanth
p2508
VRelicanth
p2509
sVtorchic
p2510
VTorchic
p2511
sVlapras
p2512
VLapras
p2513
sVmankey
p2514
VMankey
p2515
sVfuryattack
p2516
VFury Attack
p2517
sVprankster
p2518
VPrankster
p2519
sVshayminsky
p2520
VShaymin-Sky
p2521
sVwacanberry
p2522
VWacan Berry
p2523
sVsandile
p2524
VSandile
p2525
sVtyphlosion
p2526
VTyphlosion
p2527
sVariados
p2528
VAriados
p2529
sVdrillpeck
p2530
VDrill Peck
p2531
sVicebody
p2532
VIce Body
p2533
sVbronzor
p2534
VBronzor
p2535
sVnatu
p2536
VNatu
p2537
sVxscissor
p2538
VX-Scissor
p2539
sVsing
p2540
VSing
p2541
sVquiverdance
p2542
VQuiver Dance
p2543
sVblastoisinite
p2544
VBlastoisinite
p2545
sVmegapunch
p2546
VMega Punch
p2547
sVdamp
p2548
VDamp
p2549
sVmienfoo
p2550
VMienfoo
p2551
sVliepard
p2552
VLiepard
p2553
sVamnesia
p2554
VAmnesia
p2555
sVdestinybond
p2556
VDestiny Bond
p2557
sVcastform
p2558
VCastform
p2559
sVdruddigon
p2560
VDruddigon
p2561
sVaromaticmist
p2562
VAromatic Mist
p2563
sVdragontail
p2564
VDragon Tail
p2565
sVstringshot
p2566
VString Shot
p2567
sVdragonair
p2568
VDragonair
p2569
sVwatergun
p2570
VWater Gun
p2571
sVvanilluxe
p2572
VVanilluxe
p2573
sVnomelberry
p2574
VNomel Berry
p2575
sVdrainingkiss
p2576
VDraining Kiss
p2577
sVbasculin
p2578
VBasculin
p2579
sVescavalier
p2580
VEscavalier
p2581
sVpsychoshift
p2582
VPsycho Shift
p2583
sVbisharp
p2584
VBisharp
p2585
sVhoundoom
p2586
VHoundoom
p2587
sVgulpin
p2588
VGulpin
p2589
sVpancham
p2590
VPancham
p2591
sVmantyke
p2592
VMantyke
p2593
sVpound
p2594
VPound
p2595
sVmedichamite
p2596
VMedichamite
p2597
sVrotommow
p2598
VRotom-Mow
p2599
sVdefendorder
p2600
VDefend Order
p2601
sVsurskit
p2602
VSurskit
p2603
sVmegalauncher
p2604
S'Mega Launcher'
p2605
sVicebeam
p2606
VIce Beam
p2607
sVfacade
p2608
VFacade
p2609
sVzubat
p2610
VZubat
p2611
sVmagikarpsrevenge
p2612
VMagikarp's Revenge
p2613
sVingrain
p2614
VIngrain
p2615
sVcottonee
p2616
VCottonee
p2617
sVpoisonjab
p2618
VPoison Jab
p2619
sVleechseed
p2620
VLeech Seed
p2621
sVgorebyss
p2622
VGorebyss
p2623
sVgrotle
p2624
VGrotle
p2625
sVpikachu
p2626
VPikachu
p2627
sVrayquaza
p2628
VRayquaza
p2629
sVfroakie
p2630
VFroakie
p2631
sVloveball
p2632
VLove Ball
p2633
sVjumpluff
p2634
VJumpluff
p2635
sS'timid'
p2636
S'Timid'
p2637
sVmismagius
p2638
VMismagius
p2639
sVhiddenpowerbug
p2640
VHidden Power Bug
p2641
sVinfiltrator
p2642
VInfiltrator
p2643
sVpsychup
p2644
VPsych Up
p2645
sVregice
p2646
VRegice
p2647
sVfiregem
p2648
VFire Gem
p2649
sVshellder
p2650
VShellder
p2651
sVwithdraw
p2652
VWithdraw
p2653
sVmoonball
p2654
VMoon Ball
p2655
sVpainsplit
p2656
VPain Split
p2657
sVstoneedge
p2658
VStone Edge
p2659
sVhowl
p2660
VHowl
p2661
sVwaterpledge
p2662
VWater Pledge
p2663
sVspearow
p2664
VSpearow
p2665
sVmagneticfield
p2666
VMagnetic Field
p2667
sVrockwrecker
p2668
VRock Wrecker
p2669
sVcompetitive
p2670
S'Competitive'
p2671
sVsteelgem
p2672
VSteel Gem
p2673
sVzygarde
p2674
VZygarde
p2675
sVsolrock
p2676
VSolrock
p2677
sVspinda
p2678
VSpinda
p2679
sVcloyster
p2680
VCloyster
p2681
sVmetapod
p2682
VMetapod
p2683
sVairslash
p2684
VAir Slash
p2685
sVchatot
p2686
VChatot
p2687
sVacrobatics
p2688
VAcrobatics
p2689
sVchoicespecs
p2690
VChoice Specs
p2691
sVrebound
p2692
VRebound
p2693
sVsolarbeam
p2694
VSolarBeam
p2695
sVlusterpurge
p2696
VLuster Purge
p2697
sVkeldeoresolute
p2698
VKeldeo-Resolute
p2699
sVmoody
p2700
VMoody
p2701
sVgothitelle
p2702
VGothitelle
p2703
sVskilllink
p2704
VSkill Link
p2705
sVponyta
p2706
VPonyta
p2707
sVsunnyday
p2708
VSunny Day
p2709
sVsubmission
p2710
VSubmission
p2711
sVstaravia
p2712
VStaravia
p2713
sVtailglow
p2714
VTail Glow
p2715
sVstealthrock
p2716
VStealth Rock
p2717
sVtechnoblast
p2718
VTechno Blast
p2719
sVlilligant
p2720
VLilligant
p2721
sVflamewheel
p2722
VFlame Wheel
p2723
sVsketch
p2724
VSketch
p2725
sVwhirlipede
p2726
VWhirlipede
p2727
sVbounce
p2728
VBounce
p2729
sVsouldew
p2730
VSoul Dew
p2731
sVgigaimpact
p2732
VGiga Impact
p2733
sVsewaddle
p2734
VSewaddle
p2735
sVscald
p2736
VScald
p2737
sVominouswind
p2738
VOminous Wind
p2739
sVdeepseascale
p2740
VDeepSeaScale
p2741
sVmareep
p2742
VMareep
p2743
sVhuntail
p2744
VHuntail
p2745
sVswordsdance
p2746
VSwords Dance
p2747
sVearlybird
p2748
VEarly Bird
p2749
sVslash
p2750
VSlash
p2751
sVhiddenpowergrass
p2752
VHidden Power Grass
p2753
sVmimejr
p2754
VMime Jr.
p2755
sVimprison
p2756
VImprison
p2757
sVseismitoad
p2758
VSeismitoad
p2759
sVodorsleuth
p2760
VOdor Sleuth
p2761
sVmewtwomegax
p2762
VMewtwo-Mega-X
p2763
sVmewtwomegay
p2764
VMewtwo-Mega-Y
p2765
sVfocussash
p2766
VFocus Sash
p2767
sVjellicent
p2768
VJellicent
p2769
sVspelonberry
p2770
VSpelon Berry
p2771
sVnobleroar
p2772
VNoble Roar
p2773
sVkangaskhanite
p2774
VKangaskhanite
p2775
sVelectrike
p2776
VElectrike
p2777
sViapapaberry
p2778
VIapapa Berry
p2779
sVmudkip
p2780
VMudkip
p2781
sVbouffalant
p2782
VBouffalant
p2783
sVarceusghost
p2784
VArceus-Ghost
p2785
sVmurkrow
p2786
VMurkrow
p2787
sVsharpedo
p2788
VSharpedo
p2789
sVarmthrust
p2790
VArm Thrust
p2791
sVchargebeam
p2792
VCharge Beam
p2793
sVnidoking
p2794
VNidoking
p2795
sVhabanberry
p2796
VHaban Berry
p2797
sVstench
p2798
VStench
p2799
sViciclecrash
p2800
VIcicle Crash
p2801
sVunown
p2802
VUnown
p2803
sVsnorunt
p2804
VSnorunt
p2805
sS'relaxed'
p2806
S'Relaxed'
p2807
sVeevee
p2808
VEevee
p2809
sVpsychocut
p2810
VPsycho Cut
p2811
sVtranquill
p2812
VTranquill
p2813
sVragepowder
p2814
VRage Powder
p2815
sVbuizel
p2816
VBuizel
p2817
sVflamecharge
p2818
VFlame Charge
p2819
sVgrasspledge
p2820
VGrass Pledge
p2821
sVshuppet
p2822
VShuppet
p2823
sVspacialrend
p2824
VSpacial Rend
p2825
sVforesight
p2826
VForesight
p2827
sVwepearberry
p2828
VWepear Berry
p2829
sVheavyball
p2830
VHeavy Ball
p2831
sVpechaberry
p2832
VPecha Berry
p2833
sVarceusfairy
p2834
VArceus-Fairy
p2835
sVmiracleseed
p2836
VMiracle Seed
p2837
sVtakedown
p2838
VTake Down
p2839
sVpangoro
p2840
VPangoro
p2841
sVstickybarb
p2842
VSticky Barb
p2843
sVganlonberry
p2844
VGanlon Berry
p2845
sVbulbasaur
p2846
VBulbasaur
p2847
sVpichu
p2848
VPichu
p2849
sVheatwave
p2850
VHeat Wave
p2851
sVaudino
p2852
VAudino
p2853
sVdrifloon
p2854
VDrifloon
p2855
sVsnowcloak
p2856
VSnow Cloak
p2857
sVrazorshell
p2858
VRazor Shell
p2859
sVmetagross
p2860
VMetagross
p2861
sVforcepalm
p2862
VForce Palm
p2863
sVlickilicky
p2864
VLickilicky
p2865
sVzigzagoon
p2866
VZigzagoon
p2867
sVcinccino
p2868
VCinccino
p2869
sVavalugg
p2870
VAvalugg
p2871
sVscratch
p2872
VScratch
p2873
sVherdier
p2874
VHerdier
p2875
sVsandtomb
p2876
VSand Tomb
p2877
sVcharmander
p2878
VCharmander
p2879
sVspeedboost
p2880
VSpeed Boost
p2881
sVwakeupslap
p2882
VWake-Up Slap
p2883
sVcursedbody
p2884
VCursed Body
p2885
sVharvest
p2886
VHarvest
p2887
sVperishsong
p2888
VPerish Song
p2889
sVpoweruppunch
p2890
VPower-Up Punch
p2891
sVcutecharm
p2892
VCute Charm
p2893
sVblaze
p2894
VBlaze
p2895
sVsniper
p2896
VSniper
p2897
sVtriplekick
p2898
VTriple Kick
p2899
sVfly
p2900
VFly
p2901
sVnightslash
p2902
VNight Slash
p2903
sVextrasensory
p2904
VExtrasensory
p2905
sVteddiursa
p2906
VTeddiursa
p2907
sVthundershock
p2908
VThunder Shock
p2909
sVazurill
p2910
VAzurill
p2911
sVbigpecks
p2912
VBig Pecks
p2913
sVlureball
p2914
VLure Ball
p2915
sVqwilfish
p2916
VQwilfish
p2917
sVhyperbeam
p2918
VHyper Beam
p2919
sVdynamicpunch
p2920
VDynamic Punch
p2921
sVmagnemite
p2922
VMagnemite
p2923
sVtyrunt
p2924
VTyrunt
p2925
sVwatershuriken
p2926
VWater Shuriken
p2927
sVmisdreavus
p2928
VMisdreavus
p2929
sVfidgit
p2930
VFidgit
p2931
sVdousedrive
p2932
VDouse Drive
p2933
sVcrushclaw
p2934
VCrush Claw
p2935
sVsoftboiled
p2936
VSoftboiled
p2937
sVshedinja
p2938
VShedinja
p2939
sVdownload
p2940
VDownload
p2941
sVacid
p2942
VAcid
p2943
sVvigoroth
p2944
VVigoroth
p2945
sVlombre
p2946
VLombre
p2947
sVdelcatty
p2948
VDelcatty
p2949
sVworryseed
p2950
VWorry Seed
p2951
sVtriattack
p2952
VTri Attack
p2953
sVtyranitar
p2954
VTyranitar
p2955
sVturtwig
p2956
VTurtwig
p2957
sVmagmastorm
p2958
VMagma Storm
p2959
sVpansear
p2960
VPansear
p2961
sVdeerling
p2962
VDeerling
p2963
sVswinub
p2964
VSwinub
p2965
sVabomasnow
p2966
VAbomasnow
p2967
sVbellossom
p2968
VBellossom
p2969
sVpowersplit
p2970
VPower Split
p2971
sVincinerate
p2972
VIncinerate
p2973
sVmarangaberry
p2974
VMaranga Berry
p2975
sVrampardos
p2976
VRampardos
p2977
sVscreech
p2978
VScreech
p2979
sVtentacruel
p2980
VTentacruel
p2981
sVnaturalcure
p2982
VNatural Cure
p2983
sVforestscurse
p2984
VForest's Curse
p2985
sVblizzard
p2986
VBlizzard
p2987
sVteeterdance
p2988
VTeeter Dance
p2989
sVfoongus
p2990
VFoongus
p2991
sVaquaring
p2992
VAqua Ring
p2993
sS'hardy'
p2994
S'Hardy'
p2995
sVarceusground
p2996
VArceus-Ground
p2997
sVpumpkaboolarge
p2998
VPumpkaboo-Large
p2999
sVkingdra
p3000
VKingdra
p3001
sVaerodactylite
p3002
VAerodactylite
p3003
sVbanettite
p3004
VBanettite
p3005
sVdragongem
p3006
VDragon Gem
p3007
sVheatran
p3008
VHeatran
p3009
sVwatchog
p3010
VWatchog
p3011
sVpoliwrath
p3012
VPoliwrath
p3013
sVinsomnia
p3014
VInsomnia
p3015
sVcharcoal
p3016
VCharcoal
p3017
sVcranidos
p3018
VCranidos
p3019
sVabsol
p3020
VAbsol
p3021
sVplusle
p3022
VPlusle
p3023
sVaerodactylmega
p3024
VAerodactyl-Mega
p3025
sVrivalry
p3026
VRivalry
p3027
sVwatersport
p3028
VWater Sport
p3029
sVicicleplate
p3030
VIcicle Plate
p3031
sVfuturesight
p3032
VFuture Sight
p3033
sVlustrousorb
p3034
VLustrous Orb
p3035
sVarchen
p3036
VArchen
p3037
sVexeggcute
p3038
VExeggcute
p3039
sVlucario
p3040
VLucario
p3041
sVthundurus
p3042
VThundurus
p3043
sVtangrowth
p3044
VTangrowth
p3045
sVvespiquen
p3046
VVespiquen
p3047
sVterrakion
p3048
VTerrakion
p3049
sVblacksludge
p3050
VBlack Sludge
p3051
sVadamantorb
p3052
VAdamant Orb
p3053
sVrelicsong
p3054
VRelic Song
p3055
sVheliolisk
p3056
VHeliolisk
p3057
sVblazikenmega
p3058
VBlaziken-Mega
p3059
sVgastrodon
p3060
VGastrodon
p3061
sVbronzong
p3062
VBronzong
p3063
sVweavile
p3064
VWeavile
p3065
sVdewott
p3066
VDewott
p3067
sVchandelure
p3068
VChandelure
p3069
sVhaxorus
p3070
VHaxorus
p3071
sVsecretsword
p3072
VSecret Sword
p3073
sVowntempo
p3074
VOwn Tempo
p3075
sVhiddenpower
p3076
VHidden Power
p3077
sVrazorleaf
p3078
VRazor Leaf
p3079
sVpowerswap
p3080
VPower Swap
p3081
sVdragalge
p3082
VDragalge
p3083
sVgrasswhistle
p3084
VGrassWhistle
p3085
sVroserade
p3086
VRoserade
p3087
sVpidgey
p3088
VPidgey
p3089
sVaggronite
p3090
VAggronite
p3091
sVgenesect
p3092
VGenesect
p3093
sVlotad
p3094
VLotad
p3095
sVbind
p3096
VBind
p3097
sVcounter
p3098
VCounter
p3099
sVfullincense
p3100
VFull Incense
p3101
sVweepinbell
p3102
VWeepinbell
p3103
sVwoobat
p3104
VWoobat
p3105
sVaquajet
p3106
VAqua Jet
p3107
sVkrabby
p3108
VKrabby
p3109
sVumbreon
p3110
VUmbreon
p3111
sVheatproof
p3112
VHeatproof
p3113
sVguardswap
p3114
VGuard Swap
p3115
sVassaultvest
p3116
VAssault Vest
p3117
sVpetalblizzard
p3118
VPetal Blizzard
p3119
sVkadabra
p3120
VKadabra
p3121
sVpurepower
p3122
VPure Power
p3123
sVironball
p3124
VIron Ball
p3125
sVdreameater
p3126
VDream Eater
p3127
sVhelpinghand
p3128
VHelping Hand
p3129
sVmunchlax
p3130
VMunchlax
p3131
sVdeoxysdefense
p3132
VDeoxys-Defense
p3133
sVbelch
p3134
VBelch
p3135
sVsuperluck
p3136
VSuper Luck
p3137
sVberryjuice
p3138
VBerry Juice
p3139
sVhiddenpowerflying
p3140
VHidden Power Flying
p3141
sVflowerveil
p3142
S'Flower Veil'
p3143
sVpokeball
p3144
VPoke Ball
p3145
sVsandforce
p3146
VSand Force
p3147
sVflail
p3148
VFlail
p3149
sVkabutops
p3150
VKabutops
p3151
sVgreninja
p3152
VGreninja
p3153
sVchinchou
p3154
VChinchou
p3155
sVmagnitude
p3156
VMagnitude
p3157
sVarceusfighting
p3158
VArceus-Fighting
p3159
sVrapidspin
p3160
VRapid Spin
p3161
sVskullbash
p3162
VSkull Bash
p3163
sVdratini
p3164
VDratini
p3165
sVafteryou
p3166
VAfter You
p3167
sVmaractus
p3168
VMaractus
p3169
sVilluminate
p3170
VIlluminate
p3171
sVmagnetpull
p3172
VMagnet Pull
p3173
sVtepig
p3174
VTepig
p3175
sVkelpsyberry
p3176
VKelpsy Berry
p3177
sVstatic
p3178
VStatic
p3179
sVflameplate
p3180
VFlame Plate
p3181
sVicefang
p3182
VIce Fang
p3183
sVninjask
p3184
VNinjask
p3185
sVjoltik
p3186
VJoltik
p3187
sVrollingkick
p3188
VRolling Kick
p3189
sVweatherball
p3190
VWeather Ball
p3191
sVmanectric
p3192
VManectric
p3193
sVnaturepower
p3194
VNature Power
p3195
sVregisteel
p3196
VRegisteel
p3197
sVsmog
p3198
VSmog
p3199
sVbabydolleyes
p3200
VBaby-Doll Eyes
p3201
sVleafguard
p3202
VLeaf Guard
p3203
sVicywind
p3204
VIcy Wind
p3205
sVemolga
p3206
VEmolga
p3207
sVconkeldurr
p3208
VConkeldurr
p3209
sVworkup
p3210
VWork Up
p3211
sVhippowdon
p3212
VHippowdon
p3213
sVenigmaberry
p3214
VEnigma Berry
p3215
sVscatterbug
p3216
VScatterbug
p3217
sVcobalion
p3218
VCobalion
p3219
sVbergmite
p3220
VBergmite
p3221
sVsudowoodo
p3222
VSudowoodo
p3223
sVlarvitar
p3224
VLarvitar
p3225
sVheadbutt
p3226
VHeadbutt
p3227
sVbodyslam
p3228
VBody Slam
p3229
sVexpertbelt
p3230
VExpert Belt
p3231
sVbugbuzz
p3232
VBug Buzz
p3233
sVfirefang
p3234
VFire Fang
p3235
sVmindplate
p3236
VMind Plate
p3237
sVampharosmega
p3238
VAmpharos-Mega
p3239
sVmistball
p3240
VMist Ball
p3241
sVskrelp
p3242
VSkrelp
p3243
sVjumpkick
p3244
VJump Kick
p3245
sVwaterspout
p3246
VWater Spout
p3247
sVloudred
p3248
VLoudred
p3249
sVearthpower
p3250
VEarth Power
p3251
sVpremierball
p3252
VPremier Ball
p3253
sVrotomfrost
p3254
VRotom-Frost
p3255
sVsolidrock
p3256
VSolid Rock
p3257
sVrabutaberry
p3258
VRabuta Berry
p3259
sVagility
p3260
VAgility
p3261
sVelectabuzz
p3262
VElectabuzz
p3263
sVcrobat
p3264
VCrobat
p3265
sVrockblast
p3266
VRock Blast
p3267
sVslackoff
p3268
VSlack Off
p3269
sVsoftsand
p3270
VSoft Sand
p3271
sVsigilyph
p3272
VSigilyph
p3273
sVdeepseatooth
p3274
VDeepSeaTooth
p3275
sVtorkoal
p3276
VTorkoal
p3277
sVwurmple
p3278
VWurmple
p3279
sVtimburr
p3280
VTimburr
p3281
sVfastball
p3282
VFast Ball
p3283
sVpoisonfang
p3284
VPoison Fang
p3285
sVinsectplate
p3286
VInsect Plate
p3287
sVtorrent
p3288
VTorrent
p3289
sVencore
p3290
VEncore
p3291
sVquickball
p3292
VQuick Ball
p3293
sVtrapinch
p3294
VTrapinch
p3295
sVbonerush
p3296
VBone Rush
p3297
sS'gentle'
p3298
S'Gentle'
p3299
sVsandrush
p3300
VSand Rush
p3301
sVarceusflying
p3302
VArceus-Flying
p3303
sVzebstrika
p3304
VZebstrika
p3305
sVwhitesmoke
p3306
VWhite Smoke
p3307
sVlevelball
p3308
VLevel Ball
p3309
sVsoak
p3310
VSoak
p3311
sVfusionbolt
p3312
VFusion Bolt
p3313
sVflareon
p3314
VFlareon
p3315
sVcalmmind
p3316
VCalm Mind
p3317
sVgravity
p3318
VGravity
p3319
sVcarnivine
p3320
VCarnivine
p3321
sVmistyterrain
p3322
VMisty Terrain
p3323
sVpsychoboost
p3324
VPsycho Boost
p3325
sVnuzleaf
p3326
VNuzleaf
p3327
sVwidelens
p3328
VWide Lens
p3329
sVshadowball
p3330
VShadow Ball
p3331
sVdrifblim
p3332
VDrifblim
p3333
sVmewtwo
p3334
VMewtwo
p3335
sVrollout
p3336
VRollout
p3337
sVslurpuff
p3338
VSlurpuff
p3339
sVgrassgem
p3340
VGrass Gem
p3341
sVdracometeor
p3342
VDraco Meteor
p3343
sVsludgewave
p3344
VSludge Wave
p3345
sVsceptile
p3346
VSceptile
p3347
sVgardevoirite
p3348
VGardevoirite
p3349
sVexeggutor
p3350
VExeggutor
p3351
sVshedskin
p3352
VShed Skin
p3353
sVcherrimsunshine
p3354
VCherrim-Sunshine
p3355
sVarceus
p3356
VArceus
p3357
sS'impish'
p3358
S'Impish'
p3359
sVservine
p3360
VServine
p3361
sVroselia
p3362
VRoselia
p3363
sVbrine
p3364
VBrine
p3365
sVzweilous
p3366
VZweilous
p3367
sVsleeppowder
p3368
VSleep Powder
p3369
sVoldamber
p3370
VOld Amber
p3371
sVdurant
p3372
VDurant
p3373
sVsimplebeam
p3374
VSimple Beam
p3375
sVyveltal
p3376
VYveltal
p3377
sVdragonite
p3378
VDragonite
p3379
sS'rash'
p3380
S'Rash'
p3381
sVpiplup
p3382
VPiplup
p3383
sVflashfire
p3384
VFlash Fire
p3385
sVdeino
p3386
VDeino
p3387
sVcamerupt
p3388
VCamerupt
p3389
sVluckypunch
p3390
VLucky Punch
p3391
sVpsychicgem
p3392
VPsychic Gem
p3393
sVrarebone
p3394
VRare Bone
p3395
sVsolosis
p3396
VSolosis
p3397
sVbellydrum
p3398
VBelly Drum
p3399
sS'sassy'
p3400
S'Sassy'
p3401
sVdeoxysattack
p3402
VDeoxys-Attack
p3403
sVcroagunk
p3404
VCroagunk
p3405
sVbravebird
p3406
VBrave Bird
p3407
sVgust
p3408
VGust
p3409
sVmagicguard
p3410
VMagic Guard
p3411
sVsandattack
p3412
VSand Attack
p3413
sVkingler
p3414
VKingler
p3415
sVwish
p3416
VWish
p3417
sVwatmelberry
p3418
VWatmel Berry
p3419
sVember
p3420
VEmber
p3421
sVgeomancy
p3422
VGeomancy
p3423
sVcacturne
p3424
VCacturne
p3425
sVpowder
p3426
VPowder
p3427
sVvictini
p3428
VVictini
p3429
sVfinneon
p3430
VFinneon
p3431
sVtwineedle
p3432
VTwineedle
p3433
sVchestoberry
p3434
VChesto Berry
p3435
sVgrumpig
p3436
VGrumpig
p3437
sVnightmare
p3438
VNightmare
p3439
sVgyarados
p3440
VGyarados
p3441
sVvaporeon
p3442
VVaporeon
p3443
sVpartingshot
p3444
VParting Shot
p3445
sVrockincense
p3446
VRock Incense
p3447
sVfroslass
p3448
VFroslass
p3449
sVconfusion
p3450
VConfusion
p3451
sVaron
p3452
VAron
p3453
sVconversion2
p3454
VConversion 2
p3455
sVmysticalfire
p3456
VMystical Fire
p3457
sVcacnea
p3458
VCacnea
p3459
sVzoroark
p3460
VZoroark
p3461
sVshellsmash
p3462
VShell Smash
p3463
sVhydropump
p3464
VHydro Pump
p3465
sVswift
p3466
VSwift
p3467
sVhighjumpkick
p3468
VHigh Jump Kick
p3469
sVmetang
p3470
VMetang
p3471
sVbaddreams
p3472
VBad Dreams
p3473
sVaerodactyl
p3474
VAerodactyl
p3475
sVtailwhip
p3476
VTail Whip
p3477
sVsafetygoggles
p3478
VSafety Goggles
p3479
sVklang
p3480
VKlang
p3481
sVswallow
p3482
VSwallow
p3483
sVspritzee
p3484
VSpritzee
p3485
sVflabebe
p3486
VFlabebe
p3487
sVapicotberry
p3488
VApicot Berry
p3489
sVnumel
p3490
VNumel
p3491
sVwoodhammer
p3492
VWood Hammer
p3493
sVhiddenpowerwater
p3494
VHidden Power Water
p3495
sVmalaconda
p3496
VMalaconda
p3497
sVgible
p3498
VGible
p3499
sVovercoat
p3500
VOvercoat
p3501
sVekans
p3502
VEkans
p3503
sVpixieplate
p3504
VPixie Plate
p3505
sVgrepaberry
p3506
VGrepa Berry
p3507
sVdisarmingvoice
p3508
VDisarming Voice
p3509
sVwailord
p3510
VWailord
p3511
sVswoobat
p3512
VSwoobat
p3513
sVelectrify
p3514
VElectrify
p3515
sVbindingband
p3516
VBinding Band
p3517
sVkeldeo
p3518
VKeldeo
p3519
sVtomohawk
p3520
VTomohawk
p3521
sVivysaur
p3522
VIvysaur
p3523
sVgripclaw
p3524
VGrip Claw
p3525
sVhorndrill
p3526
VHorn Drill
p3527
sVcoverfossil
p3528
VCover Fossil
p3529
sVgraveler
p3530
VGraveler
p3531
sVsmeargle
p3532
VSmeargle
p3533
sVraindance
p3534
VRain Dance
p3535
sVinfestation
p3536
VInfestation
p3537
sVpresent
p3538
VPresent
p3539
sVgrovyle
p3540
VGrovyle
p3541
sVintimidate
p3542
VIntimidate
p3543
sVharden
p3544
VHarden
p3545
sVbeheeyem
p3546
VBeheeyem
p3547
sVfuryswipes
p3548
VFury Swipes
p3549
sVpelipper
p3550
VPelipper
p3551
sVthickfat
p3552
VThick Fat
p3553
sVcarracosta
p3554
VCarracosta
p3555
sVluxio
p3556
VLuxio
p3557
sVvullaby
p3558
VVullaby
p3559
sVhiddenpowerghost
p3560
VHidden Power Ghost
p3561
sVlightball
p3562
VLight Ball
p3563
sVwaterveil
p3564
VWater Veil
p3565
sVspelltag
p3566
VSpell Tag
p3567
sVzenheadbutt
p3568
VZen Headbutt
p3569
sVzekrom
p3570
VZekrom
p3571
sVaipom
p3572
VAipom
p3573
sVdefiant
p3574
VDefiant
p3575
sVhardstone
p3576
VHard Stone
p3577
sVkebiaberry
p3578
VKebia Berry
p3579
sVcascoon
p3580
VCascoon
p3581
sVmagcargo
p3582
VMagcargo
p3583
sVarceuswater
p3584
VArceus-Water
p3585
sVraindish
p3586
VRain Dish
p3587
sVseaking
p3588
VSeaking
p3589
sVmagician
p3590
S'Magician'
p3591
sVjudgment
p3592
VJudgment
p3593
sVairlock
p3594
VAir Lock
p3595
sVbabiriberry
p3596
VBabiri Berry
p3597
sVaspearberry
p3598
VAspear Berry
p3599
sVeelektross
p3600
VEelektross
p3601
sVpickpocket
p3602
VPickpocket
p3603
sVsitrusberry
p3604
VSitrus Berry
p3605
sVarceuspsychic
p3606
VArceus-Psychic
p3607
sVbeautifly
p3608
VBeautifly
p3609
sVvenoshock
p3610
VVenoshock
p3611
sVmudsport
p3612
VMud Sport
p3613
sVazelf
p3614
VAzelf
p3615
sVyanmega
p3616
VYanmega
p3617
sVfairyaura
p3618
S'Fairy Aura'
p3619
sVkarrablast
p3620
VKarrablast
p3621
sVpinsir
p3622
VPinsir
p3623
sVguts
p3624
VGuts
p3625
sVtauros
p3626
VTauros
p3627
sVfearow
p3628
VFearow
p3629
sVfaketears
p3630
VFake Tears
p3631
sVsimple
p3632
VSimple
p3633
sVraikou
p3634
VRaikou
p3635
sVswellow
p3636
VSwellow
p3637
sVleechlife
p3638
VLeech Life
p3639
sVkingsshield
p3640
VKing's Shield
p3641
sVkingsrock
p3642
VKing's Rock
p3643
sVblukberry
p3644
VBluk Berry
p3645
sVflowershield
p3646
VFlower Shield
p3647
sVarenatrap
p3648
VArena Trap
p3649
sVtaunt
p3650
VTaunt
p3651
sVselfdestruct
p3652
VSelfdestruct
p3653
sVgoldeen
p3654
VGoldeen
p3655
sVducklett
p3656
VDucklett
p3657
sVglowpunch
p3658
VGlow Punch
p3659
sVhoothoot
p3660
VHoothoot
p3661
sVlatios
p3662
VLatios
p3663
sVbudew
p3664
VBudew
p3665
sVgogoat
p3666
VGogoat
p3667
sVbaltoy
p3668
VBaltoy
p3669
sVhealball
p3670
VHeal Ball
p3671
sVphanpy
p3672
VPhanpy
p3673
sVroleplay
p3674
VRole Play
p3675
sVkoffing
p3676
VKoffing
p3677
sVrepeatball
p3678
VRepeat Ball
p3679
sVglare
p3680
VGlare
p3681
sVthief
p3682
VThief
p3683
sVhail
p3684
VHail
p3685
sVcofagrigus
p3686
VCofagrigus
p3687
sVgrowth
p3688
VGrowth
p3689
sVskarmory
p3690
VSkarmory
p3691
sVoblivious
p3692
VOblivious
p3693
sVdragonclaw
p3694
VDragon Claw
p3695
sVdrizzle
p3696
VDrizzle
p3697
sVstaraptor
p3698
VStaraptor
p3699
sVmagicalleaf
p3700
VMagical Leaf
p3701
sVmeowsticf
p3702
VMeowstic-F
p3703
sVhurricane
p3704
VHurricane
p3705
sVlileep
p3706
VLileep
p3707
sVpiloswine
p3708
VPiloswine
p3709
sVvenusaurite
p3710
VVenusaurite
p3711
sVcopycat
p3712
VCopycat
p3713
sVhappiny
p3714
VHappiny
p3715
sVpressure
p3716
VPressure
p3717
sVsilkscarf
p3718
VSilk Scarf
p3719
sVpidgeotto
p3720
VPidgeotto
p3721
sVdreadplate
p3722
VDread Plate
p3723
sVvenomoth
p3724
VVenomoth
p3725
sVfurret
p3726
VFurret
p3727
sVpsystrike
p3728
VPsystrike
p3729
sVmeteormash
p3730
VMeteor Mash
p3731
sVshucaberry
p3732
VShuca Berry
p3733
sVsweetkiss
p3734
VSweet Kiss
p3735
sVacidarmor
p3736
VAcid Armor
p3737
sVlightclay
p3738
VLight Clay
p3739
sVvoodoom
p3740
VVoodoom
p3741
sVfeintattack
p3742
VFeint Attack
p3743
sVburmy
p3744
VBurmy
p3745
sVmagostberry
p3746
VMagost Berry
p3747
sVgrasspelt
p3748
S'Grass Pelt'
p3749
sVspitup
p3750
VSpit Up
p3751
sVmentalherb
p3752
VMental Herb
p3753
sVroseliberry
p3754
VRoseli Berry
p3755
sVfrustration
p3756
VFrustration
p3757
sVambipom
p3758
VAmbipom
p3759
sVfollowme
p3760
VFollow Me
p3761
sVclauncher
p3762
VClauncher
p3763
sVquickpowder
p3764
VQuick Powder
p3765
sVfrenzyplant
p3766
VFrenzy Plant
p3767
sVscaryface
p3768
VScary Face
p3769
sVmagoberry
p3770
VMago Berry
p3771
sVcroconaw
p3772
VCroconaw
p3773
sVdrowzee
p3774
VDrowzee
p3775
sVserenegrace
p3776
VSerene Grace
p3777
sVheracronite
p3778
VHeracronite
p3779
sVtechnician
p3780
VTechnician
p3781
sVarceusgrass
p3782
VArceus-Grass
p3783
sVembargo
p3784
VEmbargo
p3785
sVmetronome
p3786
VMetronome
p3787
sVattackorder
p3788
VAttack Order
p3789
sVallyswitch
p3790
VAlly Switch
p3791
sVhugepower
p3792
VHuge Power
p3793
sVmegakick
p3794
VMega Kick
p3795
sVentrainment
p3796
VEntrainment
p3797
sVtaillow
p3798
VTaillow
p3799
sVpoisonheal
p3800
VPoison Heal
p3801
sVblock
p3802
VBlock
p3803
sVscizormega
p3804
VScizor-Mega
p3805
sVhoneclaws
p3806
VHone Claws
p3807
sVoranberry
p3808
VOran Berry
p3809
sVslowstart
p3810
VSlow Start
p3811
sVgranbull
p3812
VGranbull
p3813
sVweakarmor
p3814
VWeak Armor
p3815
sVaurasphere
p3816
VAura Sphere
p3817
sVshelgon
p3818
VShelgon
p3819
sVrawstberry
p3820
VRawst Berry
p3821
sVvacuumwave
p3822
VVacuum Wave
p3823
sVillusion
p3824
VIllusion
p3825
sVreckless
p3826
VReckless
p3827
sVyacheberry
p3828
VYache Berry
p3829
sVtreecko
p3830
VTreecko
p3831
sValomomola
p3832
VAlomomola
p3833
sVbraviary
p3834
VBraviary
p3835
sVvivillon
p3836
VVivillon
p3837
sVnoguard
p3838
VNo Guard
p3839
sVabomasite
p3840
VAbomasite
p3841
sVstarmie
p3842
VStarmie
p3843
sVpersistent
p3844
VPersistent
p3845
sVmagmar
p3846
VMagmar
p3847
sVzangoose
p3848
VZangoose
p3849
sVvcreate
p3850
VV-create
p3851
s.