(dp1
Velectivire
p2
VElectivire
p3
sVanchorshot
p4
VAnchor Shot
p5
sVcherrim
p6
VCherrim
p7
sVcolorchange
p8
VColor Change
p9
sVlucarionite
p10
VLucarionite
p11
sVpalkia
p12
VPalkia
p13
sVchatter
p14
VChatter
p15
sValakazite
p16
VAlakazite
p17
sVtickle
p18
VTickle
p19
sVarceuselectric
p20
VArceus-Electric
p21
sVabra
p22
VAbra
p23
sVexeggutoralola
p24
VExeggutor-Alola
p25
sVrecycle
p26
VRecycle
p27
sVtimerball
p28
VTimer Ball
p29
sVsteeliumz
p30
VSteelium Z
p31
sVsharpbeak
p32
VSharp Beak
p33
sVmewtwonitex
p34
VMewtwonite X
p35
sVmewtwonitey
p36
VMewtwonite Y
p37
sVquickclaw
p38
VQuick Claw
p39
sVoricoriopompom
p40
VOricorio-Pom-Pom
p41
sVdoubleslap
p42
VDouble Slap
p43
sVlurantis
p44
VLurantis
p45
sVeviolite
p46
VEviolite
p47
sVprotean
p48
VProtean
p49
sVsquirtle
p50
VSquirtle
p51
sVdiglettalola
p52
VDiglett-Alola
p53
sVdarmanitanzen
p54
VDarmanitan-Zen
p55
sVnastyplot
p56
VNasty Plot
p57
sVwormadam
p58
VWormadam
p59
sVmiracleberry
p60
VMiracle Berry
p61
sVaggronmega
p62
VAggron-Mega
p63
sVwhirlwind
p64
VWhirlwind
p65
sVplumefossil
p66
VPlume Fossil
p67
sVheracross
p68
VHeracross
p69
sVguillotine
p70
VGuillotine
p71
sVlevitate
p72
VLevitate
p73
sVgyaradosite
p74
VGyaradosite
p75
sVpomegberry
p76
VPomeg Berry
p77
sVmasquerain
p78
VMasquerain
p79
sVaccelerock
p80
VAccelerock
p81
sVthunder
p82
VThunder
p83
sVhaze
p84
VHaze
p85
sVdarkgem
p86
VDark Gem
p87
sVmiltank
p88
VMiltank
p89
sVfraxure
p90
VFraxure
p91
sVmoldbreaker
p92
VMold Breaker
p93
sVcrunch
p94
VCrunch
p95
sVrindoberry
p96
VRindo Berry
p97
sVlatiosite
p98
VLatiosite
p99
sVreflecttype
p100
VReflect Type
p101
sVsnivy
p102
VSnivy
p103
sVmefirst
p104
VMe First
p105
sVstarfberry
p106
VStarf Berry
p107
sVscizorite
p108
VScizorite
p109
sVmew
p110
VMew
p111
sVpursuit
p112
VPursuit
p113
sVheadsmash
p114
VHead Smash
p115
sVaftermath
p116
VAftermath
p117
sVmintberry
p118
VMint Berry
p119
sVclawitzer
p120
VClawitzer
p121
sVpixilate
p122
VPixilate
p123
sVtornadustherian
p124
VTornadus-Therian
p125
sVlunatone
p126
VLunatone
p127
sVpunishment
p128
VPunishment
p129
sVpoisontouch
p130
VPoison Touch
p131
sVfeebas
p132
VFeebas
p133
sVneedlearm
p134
VNeedle Arm
p135
sValtarianite
p136
VAltarianite
p137
sVblastburn
p138
VBlast Burn
p139
sVhonchkrow
p140
VHonchkrow
p141
sVschooling
p142
VSchooling
p143
sVtirtouga
p144
VTirtouga
p145
sVampharos
p146
VAmpharos
p147
sVdusclops
p148
VDusclops
p149
sVpoisonbarb
p150
VPoison Barb
p151
sVmorningsun
p152
VMorning Sun
p153
sVfreezedry
p154
VFreeze-Dry
p155
sVmandibuzz
p156
VMandibuzz
p157
sVoverheat
p158
VOverheat
p159
sVwishiwashischool
p160
VWishiwashi-School
p161
sVspiritomb
p162
VSpiritomb
p163
sVvoltabsorb
p164
VVolt Absorb
p165
sVpurugly
p166
VPurugly
p167
sVshiftgear
p168
VShift Gear
p169
sVvenomoth
p170
VVenomoth
p171
sVfirstimpression
p172
VFirst Impression
p173
sVcastformrainy
p174
VCastform-Rainy
p175
sVbigroot
p176
VBig Root
p177
sVcobalion
p178
VCobalion
p179
sVgardevoir
p180
VGardevoir
p181
sVsheerforce
p182
VSheer Force
p183
sVmagnetrise
p184
VMagnet Rise
p185
sVnaive
p186
VNaive
p187
sVreuniclus
p188
VReuniclus
p189
sVbeastboost
p190
VBeast Boost
p191
sVsceptilemega
p192
VSceptile-Mega
p193
sVlunge
p194
VLunge
p195
sVcharjabug
p196
VCharjabug
p197
sVsteelmemory
p198
VSteel Memory
p199
sVbeastball
p200
VBeast Ball
p201
sVkitsunoh
p202
VKitsunoh
p203
sVarceusbug
p204
VArceus-Bug
p205
sVgranbull
p206
VGranbull
p207
sVmeditite
p208
VMeditite
p209
sVpidgeot
p210
VPidgeot
p211
sVsilvallypoison
p212
VSilvally-Poison
p213
sVtangledfeet
p214
VTangled Feet
p215
sVigglybuff
p216
VIgglybuff
p217
sVonix
p218
VOnix
p219
sVgrimer
p220
VGrimer
p221
sVrototiller
p222
VRototiller
p223
sVlucariomega
p224
VLucario-Mega
p225
sVbugbite
p226
VBug Bite
p227
sVpoisongas
p228
VPoison Gas
p229
sVmakuhita
p230
VMakuhita
p231
sVfriendball
p232
VFriend Ball
p233
sVattract
p234
VAttract
p235
sVcharizarditey
p236
VCharizardite Y
p237
sVcharizarditex
p238
VCharizardite X
p239
sVhyperspacehole
p240
VHyperspace Hole
p241
sVskydrop
p242
VSky Drop
p243
sVcrabhammer
p244
VCrabhammer
p245
sVtoxic
p246
VToxic
p247
sVcastformsunny
p248
VCastform-Sunny
p249
sVrotomheat
p250
VRotom-Heat
p251
sVsportball
p252
VSport Ball
p253
sVpoisonpowder
p254
VPoison Powder
p255
sVredcard
p256
VRed Card
p257
sVmodest
p258
VModest
p259
sVtynamo
p260
VTynamo
p261
sVliquidvoice
p262
VLiquid Voice
p263
sVcherubi
p264
VCherubi
p265
sVleafstorm
p266
VLeaf Storm
p267
sVspookyplate
p268
VSpooky Plate
p269
sVhasty
p270
VHasty
p271
sVraichualola
p272
VRaichu-Alola
p273
sVentei
p274
VEntei
p275
sVdecidueye
p276
VDecidueye
p277
sVarceussteel
p278
VArceus-Steel
p279
sVcobaberry
p280
VCoba Berry
p281
sVlaggingtail
p282
VLagging Tail
p283
sVfinalgambit
p284
VFinal Gambit
p285
sVrapidash
p286
VRapidash
p287
sVdoubleteam
p288
VDouble Team
p289
sVlumineon
p290
VLumineon
p291
sVgligar
p292
VGligar
p293
sVshielddust
p294
VShield Dust
p295
sVmagicbounce
p296
VMagic Bounce
p297
sVfakeout
p298
VFake Out
p299
sVsludge
p300
VSludge
p301
sVvenusaur
p302
VVenusaur
p303
sVphione
p304
VPhione
p305
sVmindplate
p306
VMind Plate
p307
sVgrassyseed
p308
VGrassy Seed
p309
sVflameburst
p310
VFlame Burst
p311
sVzapplate
p312
VZap Plate
p313
sVmunna
p314
VMunna
p315
sVdragonscale
p316
VDragon Scale
p317
sVdryskin
p318
VDry Skin
p319
sVnihilego
p320
VNihilego
p321
sVmimikyu
p322
VMimikyu
p323
sVkricketot
p324
VKricketot
p325
sVgroundiumz
p326
VGroundium Z
p327
sVroost
p328
VRoost
p329
sVfurycutter
p330
VFury Cutter
p331
sVirontail
p332
VIron Tail
p333
sVclangingscales
p334
VClanging Scales
p335
sVheatmor
p336
VHeatmor
p337
sVeggbomb
p338
VEgg Bomb
p339
sVluxray
p340
VLuxray
p341
sVpayback
p342
VPayback
p343
sVexcadrill
p344
VExcadrill
p345
sVgloom
p346
VGloom
p347
sVgluttony
p348
VGluttony
p349
sVtapukoko
p350
VTapu Koko
p351
sVvulpix
p352
VVulpix
p353
sVcradily
p354
VCradily
p355
sVwimpod
p356
VWimpod
p357
sVthunderfang
p358
VThunder Fang
p359
sVblastoisemega
p360
VBlastoise-Mega
p361
sVespeon
p362
VEspeon
p363
sVtogedemaru
p364
VTogedemaru
p365
sVmultitype
p366
VMultitype
p367
sVflameorb
p368
VFlame Orb
p369
sVpanpour
p370
VPanpour
p371
sVfairywind
p372
VFairy Wind
p373
sVgothorita
p374
VGothorita
p375
sVomastar
p376
VOmastar
p377
sVwalrein
p378
VWalrein
p379
sVsawsbuck
p380
VSawsbuck
p381
sVtruant
p382
VTruant
p383
sVqualotberry
p384
VQualot Berry
p385
sVflowergift
p386
VFlower Gift
p387
sVpsychic
p388
VPsychic
p389
sVlifeorb
p390
VLife Orb
p391
sVvulpixalola
p392
VVulpix-Alola
p393
sVkasibberry
p394
VKasib Berry
p395
sVribombee
p396
VRibombee
p397
sVcottonguard
p398
VCotton Guard
p399
sVtornadus
p400
VTornadus
p401
sVshedshell
p402
VShed Shell
p403
sVbarrier
p404
VBarrier
p405
sVleftovers
p406
VLeftovers
p407
sVcoreenforcer
p408
VCore Enforcer
p409
sVsynchronoise
p410
VSynchronoise
p411
sVbestow
p412
VBestow
p413
sVtrumpcard
p414
VTrump Card
p415
sVsweetveil
p416
VSweet Veil
p417
sViceball
p418
VIce Ball
p419
sVgalladite
p420
VGalladite
p421
sVshiftry
p422
VShiftry
p423
sVfletchinder
p424
VFletchinder
p425
sVbeartic
p426
VBeartic
p427
sVkyuremblack
p428
VKyurem-Black
p429
sVsonicboom
p430
VSonic Boom
p431
sVfightinggem
p432
VFighting Gem
p433
sVgroudonprimal
p434
VGroudon-Primal
p435
sVlatias
p436
VLatias
p437
sVfilter
p438
VFilter
p439
sVsteelixmega
p440
VSteelix-Mega
p441
sVtapuniumz
p442
VTapunium Z
p443
sVcherishball
p444
VCherish Ball
p445
sVcheriberry
p446
VCheri Berry
p447
sVfightingmemory
p448
VFighting Memory
p449
sVnaughty
p450
VNaughty
p451
sVseedflare
p452
VSeed Flare
p453
sVhydrocannon
p454
VHydro Cannon
p455
sVmagneticflux
p456
VMagnetic Flux
p457
sVdeoxys
p458
VDeoxys
p459
sVursaring
p460
VUrsaring
p461
sVlatiasmega
p462
VLatias-Mega
p463
sVrattataalola
p464
VRattata-Alola
p465
sVinstruct
p466
VInstruct
p467
sVshieldon
p468
VShieldon
p469
sVslugma
p470
VSlugma
p471
sVheracrossmega
p472
VHeracross-Mega
p473
sVwaveincense
p474
VWave Incense
p475
sVmanectite
p476
VManectite
p477
sVinnardsout
p478
VInnards Out
p479
sVpikachupopstar
p480
VPikachu-Pop-Star
p481
sVmudsdale
p482
VMudsdale
p483
sVaircutter
p484
VAir Cutter
p485
sVgiratinaorigin
p486
VGiratina-Origin
p487
sVgrowlithe
p488
VGrowlithe
p489
sVinferno
p490
VInferno
p491
sVtwister
p492
VTwister
p493
sVarceusdragon
p494
VArceus-Dragon
p495
sVflamethrower
p496
VFlamethrower
p497
sVtoxicorb
p498
VToxic Orb
p499
sVfairylock
p500
VFairy Lock
p501
sVrockclimb
p502
VRock Climb
p503
sVwonderroom
p504
VWonder Room
p505
sVmegakick
p506
VMega Kick
p507
sVdoomdesire
p508
VDoom Desire
p509
sVmirrormove
p510
VMirror Move
p511
sVsandshrew
p512
VSandshrew
p513
sVpolitoed
p514
VPolitoed
p515
sVminun
p516
VMinun
p517
sVbelueberry
p518
VBelue Berry
p519
sVgeodudealola
p520
VGeodude-Alola
p521
sVfloralhealing
p522
VFloral Healing
p523
sVfiriumz
p524
VFirium Z
p525
sVendure
p526
VEndure
p527
sVswiftswim
p528
VSwift Swim
p529
sVshellbell
p530
VShell Bell
p531
sVminus
p532
VMinus
p533
sVmeowth
p534
VMeowth
p535
sVprankster
p536
VPrankster
p537
sVwacanberry
p538
VWacan Berry
p539
sVsylveon
p540
VSylveon
p541
sVpayapaberry
p542
VPayapa Berry
p543
sVclosecombat
p544
VClose Combat
p545
sVsilvallydark
p546
VSilvally-Dark
p547
sVmetalclaw
p548
VMetal Claw
p549
sVseel
p550
VSeel
p551
sVblastoise
p552
VBlastoise
p553
sVstrength
p554
VStrength
p555
sVchingling
p556
VChingling
p557
sVgothita
p558
VGothita
p559
sVyungoos
p560
VYungoos
p561
sVcraftyshield
p562
VCrafty Shield
p563
sVgyroball
p564
VGyro Ball
p565
sVrhyperior
p566
VRhyperior
p567
sVgolbat
p568
VGolbat
p569
sVgrassyterrain
p570
VGrassy Terrain
p571
sVdeoxysspeed
p572
VDeoxys-Speed
p573
sVpikachucosplay
p574
VPikachu-Cosplay
p575
sVshadowforce
p576
VShadow Force
p577
sVcoil
p578
VCoil
p579
sVdrought
p580
VDrought
p581
sVfeint
p582
VFeint
p583
sVcosmicpower
p584
VCosmic Power
p585
sVempoleon
p586
VEmpoleon
p587
sVthousandwaves
p588
VThousand Waves
p589
sVdunsparce
p590
VDunsparce
p591
sVnincada
p592
VNincada
p593
sVconstrict
p594
VConstrict
p595
sVvileplume
p596
VVileplume
p597
sVraticate
p598
VRaticate
p599
sVcinccino
p600
VCinccino
p601
sVjirachi
p602
VJirachi
p603
sVgolduck
p604
VGolduck
p605
sVshiinotic
p606
VShiinotic
p607
sVarmorfossil
p608
VArmor Fossil
p609
sVstickyweb
p610
VSticky Web
p611
sVtogekiss
p612
VTogekiss
p613
sVhippopotas
p614
VHippopotas
p615
sVdialga
p616
VDialga
p617
sVlastresort
p618
VLast Resort
p619
sVpsychicterrain
p620
VPsychic Terrain
p621
sVbulletpunch
p622
VBullet Punch
p623
sVicegem
p624
VIce Gem
p625
sVspite
p626
VSpite
p627
sVcarbink
p628
VCarbink
p629
sVwaterpulse
p630
VWater Pulse
p631
sVstoutland
p632
VStoutland
p633
sVgenesissupernova
p634
VGenesis Supernova
p635
sVbidoof
p636
VBidoof
p637
sVsyclant
p638
VSyclant
p639
sVhaunter
p640
VHaunter
p641
sVweedle
p642
VWeedle
p643
sVaerilate
p644
VAerilate
p645
sVhoneygather
p646
VHoney Gather
p647
sVmachop
p648
VMachop
p649
sVpoisoniumz
p650
VPoisonium Z
p651
sVguardianofalola
p652
VGuardian of Alola
p653
sVdusknoir
p654
VDusknoir
p655
sVmeditate
p656
VMeditate
p657
sVreversal
p658
VReversal
p659
sVlunardance
p660
VLunar Dance
p661
sVpumpkaboosmall
p662
VPumpkaboo-Small
p663
sVtentacool
p664
VTentacool
p665
sVpokeball
p666
VPoke Ball
p667
sVsilvally
p668
VSilvally
p669
sVdiancie
p670
VDiancie
p671
sVplasmanta
p672
VPlasmanta
p673
sVnosepass
p674
VNosepass
p675
sVmawilite
p676
VMawilite
p677
sVlaxincense
p678
VLax Incense
p679
sVmagneton
p680
VMagneton
p681
sVstickyhold
p682
VSticky Hold
p683
sVbeatup
p684
VBeat Up
p685
sVleafblade
p686
VLeaf Blade
p687
sVfluffy
p688
VFluffy
p689
sVserperior
p690
VSerperior
p691
sVlopunnite
p692
VLopunnite
p693
sVwooper
p694
VWooper
p695
sVforretress
p696
VForretress
p697
sVmindreader
p698
VMind Reader
p699
sVseaincense
p700
VSea Incense
p701
sVsimisage
p702
VSimisage
p703
sVsolarblade
p704
VSolar Blade
p705
sVarcheops
p706
VArcheops
p707
sVheavymetal
p708
VHeavy Metal
p709
sVwormadamsandy
p710
VWormadam-Sandy
p711
sVpsychiumz
p712
VPsychium Z
p713
sVspiritshackle
p714
VSpirit Shackle
p715
sVcontinentalcrush
p716
VContinental Crush
p717
sVmuscleband
p718
VMuscle Band
p719
sVtwinkletackle
p720
VTwinkle Tackle
p721
sVmatblock
p722
VMat Block
p723
sVmoongeistbeam
p724
VMoongeist Beam
p725
sVdoduo
p726
VDoduo
p727
sVmuk
p728
VMuk
p729
sVmotordrive
p730
VMotor Drive
p731
sVconfusion
p732
VConfusion
p733
sVslowpoke
p734
VSlowpoke
p735
sVfrostbreath
p736
VFrost Breath
p737
sVvirizion
p738
VVirizion
p739
sVspinda
p740
VSpinda
p741
sVcosmoem
p742
VCosmoem
p743
sVmeadowplate
p744
VMeadow Plate
p745
sVparasect
p746
VParasect
p747
sVgourgeistsmall
p748
VGourgeist-Small
p749
sVadamantorb
p750
VAdamant Orb
p751
sVprotect
p752
VProtect
p753
sVplaynice
p754
VPlay Nice
p755
sVsamurott
p756
VSamurott
p757
sVreceiver
p758
VReceiver
p759
sVmawile
p760
VMawile
p761
sVchimecho
p762
VChimecho
p763
sVpetayaberry
p764
VPetaya Berry
p765
sVdoublade
p766
VDoublade
p767
sVpsychicseed
p768
VPsychic Seed
p769
sVdeltastream
p770
VDelta Stream
p771
sVluckychant
p772
VLucky Chant
p773
sVleppaberry
p774
VLeppa Berry
p775
sVlick
p776
VLick
p777
sVoblivious
p778
VOblivious
p779
sVfierydance
p780
VFiery Dance
p781
sVfloatzel
p782
VFloatzel
p783
sVsmackdown
p784
VSmack Down
p785
sVcopycat
p786
VCopycat
p787
sVsalamencite
p788
VSalamencite
p789
sVbuneary
p790
VBuneary
p791
sVrevelationdance
p792
VRevelation Dance
p793
sVshockdrive
p794
VShock Drive
p795
sVnightdaze
p796
VNight Daze
p797
sVfriendguard
p798
VFriend Guard
p799
sVscaryface
p800
VScary Face
p801
sVsteamroller
p802
VSteamroller
p803
sVsalazzle
p804
VSalazzle
p805
sVwimpout
p806
VWimp Out
p807
sVkakuna
p808
VKakuna
p809
sVpowertrick
p810
VPower Trick
p811
sVyanma
p812
VYanma
p813
sVsilvallyfire
p814
VSilvally-Fire
p815
sVchatot
p816
VChatot
p817
sVaciddownpour
p818
VAcid Downpour
p819
sVmarshtomp
p820
VMarshtomp
p821
sVgurdurr
p822
VGurdurr
p823
sVsoundproof
p824
VSoundproof
p825
sVslam
p826
VSlam
p827
sVthrash
p828
VThrash
p829
sVsandrush
p830
VSand Rush
p831
sVsliggoo
p832
VSliggoo
p833
sVtotodile
p834
VTotodile
p835
sVgarchompite
p836
VGarchompite
p837
sVslowbro
p838
VSlowbro
p839
sVprismaticlaser
p840
VPrismatic Laser
p841
sValakazam
p842
VAlakazam
p843
sVbinacle
p844
VBinacle
p845
sVmarowakalola
p846
VMarowak-Alola
p847
sVnevermeltice
p848
VNever-Melt Ice
p849
sVgrowl
p850
VGrowl
p851
sViciumz
p852
VIcium Z
p853
sVaguavberry
p854
VAguav Berry
p855
sVdrilbur
p856
VDrilbur
p857
sVcameruptite
p858
VCameruptite
p859
sVralts
p860
VRalts
p861
sVpupitar
p862
VPupitar
p863
sVslowking
p864
VSlowking
p865
sVpowerherb
p866
VPower Herb
p867
sVnoivern
p868
VNoivern
p869
sVwaterfall
p870
VWaterfall
p871
sVdewgong
p872
VDewgong
p873
sVflyiniumz
p874
VFlyinium Z
p875
sVkirlia
p876
VKirlia
p877
sVknockoff
p878
VKnock Off
p879
sVoctazooka
p880
VOctazooka
p881
sVcawmodore
p882
VCawmodore
p883
sVpikachubelle
p884
VPikachu-Belle
p885
sVluxuryball
p886
VLuxury Ball
p887
sVhydration
p888
VHydration
p889
sVkrokorok
p890
VKrokorok
p891
sVamoonguss
p892
VAmoonguss
p893
sVsilvallygrass
p894
VSilvally-Grass
p895
sVquilladin
p896
VQuilladin
p897
sVshellarmor
p898
VShell Armor
p899
sVpoliwag
p900
VPoliwag
p901
sVslushrush
p902
VSlush Rush
p903
sVmetalcoat
p904
VMetal Coat
p905
sVthickclub
p906
VThick Club
p907
sVdugtrioalola
p908
VDugtrio-Alola
p909
sVdisguise
p910
VDisguise
p911
sVscizor
p912
VScizor
p913
sVfloetteeternal
p914
VFloette-Eternal
p915
sVkerfluffle
p916
VKerfluffle
p917
sVsilcoon
p918
VSilcoon
p919
sVbuggem
p920
VBug Gem
p921
sVdragonmemory
p922
VDragon Memory
p923
sVoshawott
p924
VOshawott
p925
sVtorterra
p926
VTorterra
p927
sVtogepi
p928
VTogepi
p929
sVdomefossil
p930
VDome Fossil
p931
sVadamant
p932
VAdamant
p933
sVlowkick
p934
VLow Kick
p935
sVhealbell
p936
VHeal Bell
p937
sVmirrorshot
p938
VMirror Shot
p939
sVtapufini
p940
VTapu Fini
p941
sVlickitung
p942
VLickitung
p943
sVpassimian
p944
VPassimian
p945
sVlatiosmega
p946
VLatios-Mega
p947
sVdragonrush
p948
VDragon Rush
p949
sVredorb
p950
VRed Orb
p951
sVspinarak
p952
VSpinarak
p953
sVdiggersby
p954
VDiggersby
p955
sVsilverwind
p956
VSilver Wind
p957
sVsunnyday
p958
VSunny Day
p959
sVludicolo
p960
VLudicolo
p961
sVditto
p962
VDitto
p963
sVcirclethrow
p964
VCircle Throw
p965
sVfullmetalbody
p966
VFull Metal Body
p967
sValloutpummeling
p968
VAll-Out Pummeling
p969
sVinfernooverdrive
p970
VInferno Overdrive
p971
sVpinsirmega
p972
VPinsir-Mega
p973
sVflatter
p974
VFlatter
p975
sVtoxicspikes
p976
VToxic Spikes
p977
sVfirepledge
p978
VFire Pledge
p979
sVnoctowl
p980
VNoctowl
p981
sVcornnberry
p982
VCornn Berry
p983
sVskullfossil
p984
VSkull Fossil
p985
sVcheekpouch
p986
VCheek Pouch
p987
sVuproar
p988
VUproar
p989
sVgoldberry
p990
VGold Berry
p991
sVferrothorn
p992
VFerrothorn
p993
sVexpertbelt
p994
VExpert Belt
p995
sVholdhands
p996
VHold Hands
p997
sVcrosschop
p998
VCross Chop
p999
sVpsyshock
p1000
VPsyshock
p1001
sVicyrock
p1002
VIcy Rock
p1003
sVsoulheart
p1004
VSoul-Heart
p1005
sVtrevenant
p1006
VTrevenant
p1007
sVabsorbbulb
p1008
VAbsorb Bulb
p1009
sVbold
p1010
VBold
p1011
sVgunkshot
p1012
VGunk Shot
p1013
sVmagearna
p1014
VMagearna
p1015
sVarceusfire
p1016
VArceus-Fire
p1017
sVgarchomp
p1018
VGarchomp
p1019
sVgeodude
p1020
VGeodude
p1021
sVlightscreen
p1022
VLight Screen
p1023
sVwhimsicott
p1024
VWhimsicott
p1025
sVlavaplume
p1026
VLava Plume
p1027
sVkeeneye
p1028
VKeen Eye
p1029
sVsimipour
p1030
VSimipour
p1031
sVtrumbeak
p1032
VTrumbeak
p1033
sVautotomize
p1034
VAutotomize
p1035
sVspikecannon
p1036
VSpike Cannon
p1037
sVnecturna
p1038
VNecturna
p1039
sVplus
p1040
VPlus
p1041
sVnidoqueen
p1042
VNidoqueen
p1043
sVsapsipper
p1044
VSap Sipper
p1045
sVpikachulibre
p1046
VPikachu-Libre
p1047
sVthunderpunch
p1048
VThunder Punch
p1049
sVhornleech
p1050
VHorn Leech
p1051
sVbraixen
p1052
VBraixen
p1053
sVdarkvoid
p1054
VDark Void
p1055
sVsupersonicskystrike
p1056
VSupersonic Skystrike
p1057
sVhoundour
p1058
VHoundour
p1059
sVdualchop
p1060
VDual Chop
p1061
sVfoulplay
p1062
VFoul Play
p1063
sVscyther
p1064
VScyther
p1065
sVgalewings
p1066
VGale Wings
p1067
sVstormdrain
p1068
VStorm Drain
p1069
sVseadra
p1070
VSeadra
p1071
sVovergrow
p1072
VOvergrow
p1073
sVgengarmega
p1074
VGengar-Mega
p1075
sVbronzor
p1076
VBronzor
p1077
sVwrap
p1078
VWrap
p1079
sVterrainextender
p1080
VTerrain Extender
p1081
sVcorsola
p1082
VCorsola
p1083
sVtransform
p1084
VTransform
p1085
sVklefki
p1086
VKlefki
p1087
sVrowapberry
p1088
VRowap Berry
p1089
sVquirky
p1090
VQuirky
p1091
sVquickattack
p1092
VQuick Attack
p1093
sVsynthesis
p1094
VSynthesis
p1095
sVmultiscale
p1096
VMultiscale
p1097
sVgroundgem
p1098
VGround Gem
p1099
sVreshiram
p1100
VReshiram
p1101
sVrocksmash
p1102
VRock Smash
p1103
sVvolttackle
p1104
VVolt Tackle
p1105
sVghostgem
p1106
VGhost Gem
p1107
sVleafage
p1108
VLeafage
p1109
sVroughskin
p1110
VRough Skin
p1111
sVsafeguard
p1112
VSafeguard
p1113
sVsmoothrock
p1114
VSmooth Rock
p1115
sVcosmog
p1116
VCosmog
p1117
sVgearup
p1118
VGear Up
p1119
sVbide
p1120
VBide
p1121
sVaurabreak
p1122
VAura Break
p1123
sVaurorus
p1124
VAurorus
p1125
sVlightofruin
p1126
VLight of Ruin
p1127
sVstokedsparksurfer
p1128
VStoked Sparksurfer
p1129
sVholdback
p1130
VHold Back
p1131
sVpoweruppunch
p1132
VPower-Up Punch
p1133
sVunnerve
p1134
VUnnerve
p1135
sVparentalbond
p1136
VParental Bond
p1137
sVferaligatr
p1138
VFeraligatr
p1139
sVoddish
p1140
VOddish
p1141
sVleer
p1142
VLeer
p1143
sVmagby
p1144
VMagby
p1145
sVtypenull
p1146
VType: Null
p1147
sVswadloon
p1148
VSwadloon
p1149
sVvibrava
p1150
VVibrava
p1151
sVuxie
p1152
VUxie
p1153
sVsmoochum
p1154
VSmoochum
p1155
sVlansatberry
p1156
VLansat Berry
p1157
sVbutterfree
p1158
VButterfree
p1159
sVferroseed
p1160
VFerroseed
p1161
sVgoomy
p1162
VGoomy
p1163
sVamaura
p1164
VAmaura
p1165
sVminiormeteor
p1166
VMinior-Meteor
p1167
sVclawfossil
p1168
VClaw Fossil
p1169
sVdischarge
p1170
VDischarge
p1171
sVkyogre
p1172
VKyogre
p1173
sVstrengthsap
p1174
VStrength Sap
p1175
sVpoisonpoint
p1176
VPoison Point
p1177
sVhitmonlee
p1178
VHitmonlee
p1179
sVarceuspoison
p1180
VArceus-Poison
p1181
sVliechiberry
p1182
VLiechi Berry
p1183
sVlillipup
p1184
VLillipup
p1185
sVsilvallyflying
p1186
VSilvally-Flying
p1187
sVspectralthief
p1188
VSpectral Thief
p1189
sVflareboost
p1190
VFlare Boost
p1191
sVmareep
p1192
VMareep
p1193
sVoccaberry
p1194
VOcca Berry
p1195
sVironfist
p1196
VIron Fist
p1197
sVserious
p1198
VSerious
p1199
sVmegadrain
p1200
VMega Drain
p1201
sVsalacberry
p1202
VSalac Berry
p1203
sVpolkadotbow
p1204
VPolkadot Bow
p1205
sVsnubbull
p1206
VSnubbull
p1207
sVsandveil
p1208
VSand Veil
p1209
sVabsolite
p1210
VAbsolite
p1211
sVbonsly
p1212
VBonsly
p1213
sVnecrozma
p1214
VNecrozma
p1215
sVcelebi
p1216
VCelebi
p1217
sVavalanche
p1218
VAvalanche
p1219
sVshadowsneak
p1220
VShadow Sneak
p1221
sVsuctioncups
p1222
VSuction Cups
p1223
sVwaterbubble
p1224
VWater Bubble
p1225
sVsuperpower
p1226
VSuperpower
p1227
sVchinchou
p1228
VChinchou
p1229
sVvenusaurmega
p1230
VVenusaur-Mega
p1231
sVweezing
p1232
VWeezing
p1233
sVdragonpulse
p1234
VDragon Pulse
p1235
sVelectroball
p1236
VElectro Ball
p1237
sVflash
p1238
VFlash
p1239
sVnetball
p1240
VNet Ball
p1241
sVcharge
p1242
VCharge
p1243
sVquash
p1244
VQuash
p1245
sVsnorlax
p1246
VSnorlax
p1247
sVblackholeeclipse
p1248
VBlack Hole Eclipse
p1249
sVunburden
p1250
VUnburden
p1251
sVrufflet
p1252
VRufflet
p1253
sVmachamp
p1254
VMachamp
p1255
sVkricketune
p1256
VKricketune
p1257
sVtailslap
p1258
VTail Slap
p1259
sVjynx
p1260
VJynx
p1261
sVlopunny
p1262
VLopunny
p1263
sVtwistedspoon
p1264
VTwistedSpoon
p1265
sVtoucannon
p1266
VToucannon
p1267
sVskyuppercut
p1268
VSky Uppercut
p1269
sVmimejr
p1270
VMime Jr.
p1271
sVguzzlord
p1272
VGuzzlord
p1273
sVpoisonsting
p1274
VPoison Sting
p1275
sVdig
p1276
VDig
p1277
sVfocusblast
p1278
VFocus Blast
p1279
sVmesprit
p1280
VMesprit
p1281
sVmagnet
p1282
VMagnet
p1283
sVbanettemega
p1284
VBanette-Mega
p1285
sVround
p1286
VRound
p1287
sVunaware
p1288
VUnaware
p1289
sVduskball
p1290
VDusk Ball
p1291
sVfalseswipe
p1292
VFalse Swipe
p1293
sVtalonflame
p1294
VTalonflame
p1295
sVleafeon
p1296
VLeafeon
p1297
sVminior
p1298
VMinior
p1299
sVzorua
p1300
VZorua
p1301
sVfairymemory
p1302
VFairy Memory
p1303
sVvitalthrow
p1304
VVital Throw
p1305
sVsubstitute
p1306
VSubstitute
p1307
sVcurse
p1308
VCurse
p1309
sVfocusband
p1310
VFocus Band
p1311
sVmoltres
p1312
VMoltres
p1313
sVpasshoberry
p1314
VPassho Berry
p1315
sVtanglinghair
p1316
VTangling Hair
p1317
sVdragondance
p1318
VDragon Dance
p1319
sVaxew
p1320
VAxew
p1321
sVgolemalola
p1322
VGolem-Alola
p1323
sVkecleon
p1324
VKecleon
p1325
sVglameow
p1326
VGlameow
p1327
sVaeroblast
p1328
VAeroblast
p1329
sVwartortle
p1330
VWartortle
p1331
sVexplosion
p1332
VExplosion
p1333
sVmiracleeye
p1334
VMiracle Eye
p1335
sVpumpkaboo
p1336
VPumpkaboo
p1337
sVsimisear
p1338
VSimisear
p1339
sVhoopa
p1340
VHoopa
p1341
sVtropius
p1342
VTropius
p1343
sVgroundmemory
p1344
VGround Memory
p1345
sVmysticwater
p1346
VMystic Water
p1347
sVearthquake
p1348
VEarthquake
p1349
sVgastroacid
p1350
VGastro Acid
p1351
sVejectbutton
p1352
VEject Button
p1353
sVbeedrillmega
p1354
VBeedrill-Mega
p1355
sVexploud
p1356
VExploud
p1357
sVdiveball
p1358
VDive Ball
p1359
sVsawk
p1360
VSawk
p1361
sVsandygast
p1362
VSandygast
p1363
sVdedenne
p1364
VDedenne
p1365
sVdragonite
p1366
VDragonite
p1367
sVbagon
p1368
VBagon
p1369
sVregenerator
p1370
VRegenerator
p1371
sViondeluge
p1372
VIon Deluge
p1373
sVlarvesta
p1374
VLarvesta
p1375
sVmudslap
p1376
VMud-Slap
p1377
sVhawlucha
p1378
VHawlucha
p1379
sVmagicroom
p1380
VMagic Room
p1381
sVampharosite
p1382
VAmpharosite
p1383
sVdesolateland
p1384
VDesolate Land
p1385
sVpinsirite
p1386
VPinsirite
p1387
sVheavyslam
p1388
VHeavy Slam
p1389
sVpinmissile
p1390
VPin Missile
p1391
sVkyogreprimal
p1392
VKyogre-Primal
p1393
sVbanefulbunker
p1394
VBaneful Bunker
p1395
sVtakedown
p1396
VTake Down
p1397
sVcaptivate
p1398
VCaptivate
p1399
sVflamecharge
p1400
VFlame Charge
p1401
sVswagger
p1402
VSwagger
p1403
sVxatu
p1404
VXatu
p1405
sVrockslide
p1406
VRock Slide
p1407
sVcaterpie
p1408
VCaterpie
p1409
sVhypno
p1410
VHypno
p1411
sVelectrike
p1412
VElectrike
p1413
sVfletchling
p1414
VFletchling
p1415
sVseismictoss
p1416
VSeismic Toss
p1417
sVdarumaka
p1418
VDarumaka
p1419
sVuturn
p1420
VU-turn
p1421
sVflygon
p1422
VFlygon
p1423
sVsandstorm
p1424
VSandstorm
p1425
sVswampertite
p1426
VSwampertite
p1427
sVswablu
p1428
VSwablu
p1429
sVcatastropika
p1430
VCatastropika
p1431
sVspikyshield
p1432
VSpiky Shield
p1433
sVscolipede
p1434
VScolipede
p1435
sVdwebble
p1436
VDwebble
p1437
sVpignite
p1438
VPignite
p1439
sVsolarpower
p1440
VSolar Power
p1441
sVvespiquen
p1442
VVespiquen
p1443
sVpalpitoad
p1444
VPalpitoad
p1445
sVchilldrive
p1446
VChill Drive
p1447
sVnormalize
p1448
VNormalize
p1449
sVbanette
p1450
VBanette
p1451
sVtearfullook
p1452
VTearful Look
p1453
sVtailwind
p1454
VTailwind
p1455
sVdianciemega
p1456
VDiancie-Mega
p1457
sVwideguard
p1458
VWide Guard
p1459
sVeelektrik
p1460
VEelektrik
p1461
sVsandforce
p1462
VSand Force
p1463
sVdarkestlariat
p1464
VDarkest Lariat
p1465
sVelectricterrain
p1466
VElectric Terrain
p1467
sVoctillery
p1468
VOctillery
p1469
sVselfdestruct
p1470
VSelf-Destruct
p1471
sVstantler
p1472
VStantler
p1473
sVdive
p1474
VDive
p1475
sVarmaldo
p1476
VArmaldo
p1477
sVdarkmemory
p1478
VDark Memory
p1479
sVwiseglasses
p1480
VWise Glasses
p1481
sVmilkdrink
p1482
VMilk Drink
p1483
sVpowerwhip
p1484
VPower Whip
p1485
sVancientpower
p1486
VAncient Power
p1487
sVblissey
p1488
VBlissey
p1489
sVcryogonal
p1490
VCryogonal
p1491
sVsupersonic
p1492
VSupersonic
p1493
sVpsychicfangs
p1494
VPsychic Fangs
p1495
sVdelibird
p1496
VDelibird
p1497
sVelectricsurge
p1498
VElectric Surge
p1499
sVmalamar
p1500
VMalamar
p1501
sVpurify
p1502
VPurify
p1503
sVshinx
p1504
VShinx
p1505
sVclamperl
p1506
VClamperl
p1507
sVlitwick
p1508
VLitwick
p1509
sVslowbronite
p1510
VSlowbronite
p1511
sVriolu
p1512
VRiolu
p1513
sVlugia
p1514
VLugia
p1515
sVbulletseed
p1516
VBullet Seed
p1517
sVbubblebeam
p1518
VBubble Beam
p1519
sVpachirisu
p1520
VPachirisu
p1521
sVtoxicthread
p1522
VToxic Thread
p1523
sVchilanberry
p1524
VChilan Berry
p1525
sVarcanine
p1526
VArcanine
p1527
sVsneasel
p1528
VSneasel
p1529
sVgrassknot
p1530
VGrass Knot
p1531
sVauroraveil
p1532
VAurora Veil
p1533
sVklutz
p1534
VKlutz
p1535
sVbulldoze
p1536
VBulldoze
p1537
sVfocusenergy
p1538
VFocus Energy
p1539
sVprimordialsea
p1540
VPrimordial Sea
p1541
sVkabuto
p1542
VKabuto
p1543
sVmail
p1544
VMail
p1545
sVfuryswipes
p1546
VFury Swipes
p1547
sVlonely
p1548
VLonely
p1549
sVfling
p1550
VFling
p1551
sVrattled
p1552
VRattled
p1553
sVinsomnia
p1554
VInsomnia
p1555
sVwatermemory
p1556
VWater Memory
p1557
sVfusionflare
p1558
VFusion Flare
p1559
sVsafariball
p1560
VSafari Ball
p1561
sVeffectspore
p1562
VEffect Spore
p1563
sVboomburst
p1564
VBoomburst
p1565
sVregice
p1566
VRegice
p1567
sVlinoone
p1568
VLinoone
p1569
sValtariamega
p1570
VAltaria-Mega
p1571
sVpowerconstruct
p1572
VPower Construct
p1573
sVsynchronize
p1574
VSynchronize
p1575
sVsilvallyghost
p1576
VSilvally-Ghost
p1577
sVmantine
p1578
VMantine
p1579
sVglalie
p1580
VGlalie
p1581
sVpsyduck
p1582
VPsyduck
p1583
sVmentalherb
p1584
VMental Herb
p1585
sVswalot
p1586
VSwalot
p1587
sVgenesectburn
p1588
VGenesect-Burn
p1589
sVporygonz
p1590
VPorygon-Z
p1591
sVstrugglebug
p1592
VStruggle Bug
p1593
sVpersian
p1594
VPersian
p1595
sVcorkscrewcrash
p1596
VCorkscrew Crash
p1597
sVsilvallybug
p1598
VSilvally-Bug
p1599
sVsinisterarrowraid
p1600
VSinister Arrow Raid
p1601
sVsandslashalola
p1602
VSandslash-Alola
p1603
sVlycanroc
p1604
VLycanroc
p1605
sVshaymin
p1606
VShaymin
p1607
sVpidove
p1608
VPidove
p1609
sVrockiumz
p1610
VRockium Z
p1611
sVskillswap
p1612
VSkill Swap
p1613
sVtorracat
p1614
VTorracat
p1615
sVassurance
p1616
VAssurance
p1617
sVpoochyena
p1618
VPoochyena
p1619
sVporygon2
p1620
VPorygon2
p1621
sVtoxicroak
p1622
VToxicroak
p1623
sVsteelwing
p1624
VSteel Wing
p1625
sVunown
p1626
VUnown
p1627
sVbitterberry
p1628
VBitter Berry
p1629
sVpoliwhirl
p1630
VPoliwhirl
p1631
sVpetilil
p1632
VPetilil
p1633
sVtelepathy
p1634
VTelepathy
p1635
sVstufful
p1636
VStufful
p1637
sVnidorino
p1638
VNidorino
p1639
sVmeloettapirouette
p1640
VMeloetta-Pirouette
p1641
sVnidorina
p1642
VNidorina
p1643
sVhypnosis
p1644
VHypnosis
p1645
sVdurinberry
p1646
VDurin Berry
p1647
sVdragonrage
p1648
VDragon Rage
p1649
sVjolteon
p1650
VJolteon
p1651
sVdefensecurl
p1652
VDefense Curl
p1653
sVrocktomb
p1654
VRock Tomb
p1655
sVchikorita
p1656
VChikorita
p1657
sVrockyhelmet
p1658
VRocky Helmet
p1659
sVspewpa
p1660
VSpewpa
p1661
sVjabocaberry
p1662
VJaboca Berry
p1663
sVhoppip
p1664
VHoppip
p1665
sVpalossand
p1666
VPalossand
p1667
sViceshard
p1668
VIce Shard
p1669
sVgiratina
p1670
VGiratina
p1671
sVteravolt
p1672
VTeravolt
p1673
sVbite
p1674
VBite
p1675
sVduosion
p1676
VDuosion
p1677
sVaromatherapy
p1678
VAromatherapy
p1679
sVsleeptalk
p1680
VSleep Talk
p1681
sVconfuseray
p1682
VConfuse Ray
p1683
sVdrainpunch
p1684
VDrain Punch
p1685
sVgliscor
p1686
VGliscor
p1687
sVseedot
p1688
VSeedot
p1689
sVsnatch
p1690
VSnatch
p1691
sVslakoth
p1692
VSlakoth
p1693
sVbunnelby
p1694
VBunnelby
p1695
sVdrapion
p1696
VDrapion
p1697
sVpeck
p1698
VPeck
p1699
sVchespin
p1700
VChespin
p1701
sVghostmemory
p1702
VGhost Memory
p1703
sVkartana
p1704
VKartana
p1705
sVearthplate
p1706
VEarth Plate
p1707
sVgarbodor
p1708
VGarbodor
p1709
sVtrickortreat
p1710
VTrick-or-Treat
p1711
sVcubone
p1712
VCubone
p1713
sVrazzberry
p1714
VRazz Berry
p1715
sVchlorophyll
p1716
VChlorophyll
p1717
sVsilvallyrock
p1718
VSilvally-Rock
p1719
sViceberry
p1720
VIce Berry
p1721
sVsandstream
p1722
VSand Stream
p1723
sVledyba
p1724
VLedyba
p1725
sVaquatail
p1726
VAqua Tail
p1727
sVarceusdark
p1728
VArceus-Dark
p1729
sVkrilowatt
p1730
VKrilowatt
p1731
sVrecover
p1732
VRecover
p1733
sVflyingmemory
p1734
VFlying Memory
p1735
sVconversion
p1736
VConversion
p1737
sVelectrode
p1738
VElectrode
p1739
sVreckless
p1740
VReckless
p1741
sVmetalsound
p1742
VMetal Sound
p1743
sVarghonaut
p1744
VArghonaut
p1745
sVbeedrill
p1746
VBeedrill
p1747
sVsurf
p1748
VSurf
p1749
sVgriseousorb
p1750
VGriseous Orb
p1751
sVneverendingnightmare
p1752
VNever-Ending Nightmare
p1753
sVmountaineer
p1754
VMountaineer
p1755
sVstunky
p1756
VStunky
p1757
sVtrace
p1758
VTrace
p1759
sVquagsire
p1760
VQuagsire
p1761
sVgeargrind
p1762
VGear Grind
p1763
sVdarkrai
p1764
VDarkrai
p1765
sVbarrage
p1766
VBarrage
p1767
sVbonemerang
p1768
VBonemerang
p1769
sVstunfisk
p1770
VStunfisk
p1771
sVadaptability
p1772
VAdaptability
p1773
sVespurr
p1774
VEspurr
p1775
sVleaftornado
p1776
VLeaf Tornado
p1777
sVhyperfang
p1778
VHyper Fang
p1779
sVdracoplate
p1780
VDraco Plate
p1781
sVhyperspacefury
p1782
VHyperspace Fury
p1783
sVelectirizer
p1784
VElectirizer
p1785
sVmollux
p1786
VMollux
p1787
sVmuddywater
p1788
VMuddy Water
p1789
sVmothim
p1790
VMothim
p1791
sVcompoundeyes
p1792
VCompound Eyes
p1793
sVdelphox
p1794
VDelphox
p1795
sVhakamoo
p1796
VHakamo-o
p1797
sVtintedlens
p1798
VTinted Lens
p1799
sVgolurk
p1800
VGolurk
p1801
sVfigyberry
p1802
VFigy Berry
p1803
sVgoodra
p1804
VGoodra
p1805
sVrevenankh
p1806
VRevenankh
p1807
sVvolbeat
p1808
VVolbeat
p1809
sVpulverizingpancake
p1810
VPulverizing Pancake
p1811
sVemergencyexit
p1812
VEmergency Exit
p1813
sVburndrive
p1814
VBurn Drive
p1815
sVpartingshot
p1816
VParting Shot
p1817
sVpatrat
p1818
VPatrat
p1819
sVacupressure
p1820
VAcupressure
p1821
sVanalytic
p1822
VAnalytic
p1823
sVsilvallysteel
p1824
VSilvally-Steel
p1825
sVprobopass
p1826
VProbopass
p1827
sVoutrage
p1828
VOutrage
p1829
sVleavanny
p1830
VLeavanny
p1831
sVlycanrocmidnight
p1832
VLycanroc-Midnight
p1833
sVkinesis
p1834
VKinesis
p1835
sVweaknesspolicy
p1836
VWeakness Policy
p1837
sVstomp
p1838
VStomp
p1839
sVpersianalola
p1840
VPersian-Alola
p1841
sVboneclub
p1842
VBone Club
p1843
sVtelekinesis
p1844
VTelekinesis
p1845
sVmoxie
p1846
VMoxie
p1847
sVcelebrate
p1848
VCelebrate
p1849
sVshuppet
p1850
VShuppet
p1851
sVparkball
p1852
VPark Ball
p1853
sVlatiasite
p1854
VLatiasite
p1855
sVcrucibelle
p1856
VCrucibelle
p1857
sVwonderskin
p1858
VWonder Skin
p1859
sVimposter
p1860
VImposter
p1861
sVspore
p1862
VSpore
p1863
sVforesight
p1864
VForesight
p1865
sVdetect
p1866
VDetect
p1867
sVsteadfast
p1868
VSteadfast
p1869
sVlimber
p1870
VLimber
p1871
sVbatonpass
p1872
VBaton Pass
p1873
sVbeakblast
p1874
VBeak Blast
p1875
sVforecast
p1876
VForecast
p1877
sVwhiscash
p1878
VWhiscash
p1879
sVsnowwarning
p1880
VSnow Warning
p1881
sVjustified
p1882
VJustified
p1883
sVghostiumz
p1884
VGhostium Z
p1885
sVdamprock
p1886
VDamp Rock
p1887
sVhariyama
p1888
VHariyama
p1889
sVcrawdaunt
p1890
VCrawdaunt
p1891
sVpluck
p1892
VPluck
p1893
sVfuryattack
p1894
VFury Attack
p1895
sVroseincense
p1896
VRose Incense
p1897
sVspiderweb
p1898
VSpider Web
p1899
sVbrutalswing
p1900
VBrutal Swing
p1901
sVdestinyknot
p1902
VDestiny Knot
p1903
sVluminousmoss
p1904
VLuminous Moss
p1905
sVvivillonpokeball
p1906
VVivillon-Pokeball
p1907
sVpoisonmemory
p1908
VPoison Memory
p1909
sVsteelix
p1910
VSteelix
p1911
sVnestball
p1912
VNest Ball
p1913
sVberry
p1914
VBerry
p1915
sVcellbattery
p1916
VCell Battery
p1917
sVpheromosa
p1918
VPheromosa
p1919
sVwingattack
p1920
VWing Attack
p1921
sVnormalgem
p1922
VNormal Gem
p1923
sVsmartstrike
p1924
VSmart Strike
p1925
sVtyranitarite
p1926
VTyranitarite
p1927
sVdodrio
p1928
VDodrio
p1929
sVtapubulu
p1930
VTapu Bulu
p1931
sVstancechange
p1932
VStance Change
p1933
sVzapdos
p1934
VZapdos
p1935
sVendeavor
p1936
VEndeavor
p1937
sVechoedvoice
p1938
VEchoed Voice
p1939
sVrunaway
p1940
VRun Away
p1941
sVlandswrath
p1942
VLand's Wrath
p1943
sVmawilemega
p1944
VMawile-Mega
p1945
sVdewpider
p1946
VDewpider
p1947
sVlightmetal
p1948
VLight Metal
p1949
sVburntberry
p1950
VBurnt Berry
p1951
sVstunspore
p1952
VStun Spore
p1953
sVxerneas
p1954
VXerneas
p1955
sVchopleberry
p1956
VChople Berry
p1957
sVhighjumpkick
p1958
VHigh Jump Kick
p1959
sVgripclaw
p1960
VGrip Claw
p1961
sVlopunnymega
p1962
VLopunny-Mega
p1963
sVwhirlipede
p1964
VWhirlipede
p1965
sVflamebody
p1966
VFlame Body
p1967
sVhelioptile
p1968
VHelioptile
p1969
sVcresselia
p1970
VCresselia
p1971
sVvictreebel
p1972
VVictreebel
p1973
sVomanyte
p1974
VOmanyte
p1975
sVbreloom
p1976
VBreloom
p1977
sVstormthrow
p1978
VStorm Throw
p1979
sVhealblock
p1980
VHeal Block
p1981
sVswanna
p1982
VSwanna
p1983
sVskiddo
p1984
VSkiddo
p1985
sVcareful
p1986
VCareful
p1987
sVmudshot
p1988
VMud Shot
p1989
sVsteelworker
p1990
VSteelworker
p1991
sVdefeatist
p1992
VDefeatist
p1993
sVbugmemory
p1994
VBug Memory
p1995
sVtrick
p1996
VTrick
p1997
sVlandorus
p1998
VLandorus
p1999
sVgroudon
p2000
VGroudon
p2001
sVspotlight
p2002
VSpotlight
p2003
sVrhyhorn
p2004
VRhyhorn
p2005
sVquiet
p2006
VQuiet
p2007
sVshadowclaw
p2008
VShadow Claw
p2009
sVsacredfire
p2010
VSacred Fire
p2011
sVmonferno
p2012
VMonferno
p2013
sVvicegrip
p2014
VVice Grip
p2015
sVgourgeistlarge
p2016
VGourgeist-Large
p2017
sVcubchoo
p2018
VCubchoo
p2019
sVprimariumz
p2020
VPrimarium Z
p2021
sVextremespeed
p2022
VExtreme Speed
p2023
sVangerpoint
p2024
VAnger Point
p2025
sVphantomforce
p2026
VPhantom Force
p2027
sVstrongjaw
p2028
VStrong Jaw
p2029
sVbrionne
p2030
VBrionne
p2031
sVkrookodile
p2032
VKrookodile
p2033
sVnuzzle
p2034
VNuzzle
p2035
sVmistysurge
p2036
VMisty Surge
p2037
sVgenesectshock
p2038
VGenesect-Shock
p2039
sVmagnetbomb
p2040
VMagnet Bomb
p2041
sVassist
p2042
VAssist
p2043
sVblaziken
p2044
VBlaziken
p2045
sVbulletproof
p2046
VBulletproof
p2047
sVsteelgem
p2048
VSteel Gem
p2049
sVpangoro
p2050
VPangoro
p2051
sVhypervoice
p2052
VHyper Voice
p2053
sVminimize
p2054
VMinimize
p2055
sVdoublehit
p2056
VDouble Hit
p2057
sVmedicham
p2058
VMedicham
p2059
sVmrmime
p2060
VMr. Mime
p2061
sVmasterball
p2062
VMaster Ball
p2063
sVspark
p2064
VSpark
p2065
sVdrampa
p2066
VDrampa
p2067
sVrazorwind
p2068
VRazor Wind
p2069
sVfurcoat
p2070
VFur Coat
p2071
sVhealingwish
p2072
VHealing Wish
p2073
sVquickguard
p2074
VQuick Guard
p2075
sVwingull
p2076
VWingull
p2077
sVsnorliumz
p2078
VSnorlium Z
p2079
sVfurfrou
p2080
VFurfrou
p2081
sVchimchar
p2082
VChimchar
p2083
sVdarkaura
p2084
VDark Aura
p2085
sVrazorclaw
p2086
VRazor Claw
p2087
sVdragonbreath
p2088
VDragon Breath
p2089
sVelgyem
p2090
VElgyem
p2091
sVduskull
p2092
VDuskull
p2093
sVcometpunch
p2094
VComet Punch
p2095
sVaerialace
p2096
VAerial Ace
p2097
sVparas
p2098
VParas
p2099
sVrayquazamega
p2100
VRayquaza-Mega
p2101
sVflareblitz
p2102
VFlare Blitz
p2103
sVxurkitree
p2104
VXurkitree
p2105
sVtrubbish
p2106
VTrubbish
p2107
sVsnarl
p2108
VSnarl
p2109
sVmachpunch
p2110
VMach Punch
p2111
sVvolkraken
p2112
VVolkraken
p2113
sVsunkern
p2114
VSunkern
p2115
sVbreakneckblitz
p2116
VBreakneck Blitz
p2117
sVcolossoil
p2118
VColossoil
p2119
sVdreamball
p2120
VDream Ball
p2121
sVsnore
p2122
VSnore
p2123
sVfloatstone
p2124
VFloat Stone
p2125
sVskiploom
p2126
VSkiploom
p2127
sVregigigas
p2128
VRegigigas
p2129
sVzingzap
p2130
VZing Zap
p2131
sVvoltswitch
p2132
VVolt Switch
p2133
sVarceusrock
p2134
VArceus-Rock
p2135
sVbrightpowder
p2136
VBrightPowder
p2137
sVhypercutter
p2138
VHyper Cutter
p2139
sVvanillite
p2140
VVanillite
p2141
sVchoiceband
p2142
VChoice Band
p2143
sVheartswap
p2144
VHeart Swap
p2145
sVsubzeroslammer
p2146
VSubzero Slammer
p2147
sVheatcrash
p2148
VHeat Crash
p2149
sVpinapberry
p2150
VPinap Berry
p2151
sVminccino
p2152
VMinccino
p2153
sVbellsprout
p2154
VBellsprout
p2155
sVprinplup
p2156
VPrinplup
p2157
sVaudinomega
p2158
VAudino-Mega
p2159
sVmachoke
p2160
VMachoke
p2161
sVultraball
p2162
VUltra Ball
p2163
sVcrustle
p2164
VCrustle
p2165
sVpowergem
p2166
VPower Gem
p2167
sViceburn
p2168
VIce Burn
p2169
sVbattlearmor
p2170
VBattle Armor
p2171
sVvolcanion
p2172
VVolcanion
p2173
sVcastformsnowy
p2174
VCastform-Snowy
p2175
sVhustle
p2176
VHustle
p2177
sVthroh
p2178
VThroh
p2179
sVmusharna
p2180
VMusharna
p2181
sVinnerfocus
p2182
VInner Focus
p2183
sVbasculinbluestriped
p2184
VBasculin-Blue-Striped
p2185
sVdragonhammer
p2186
VDragon Hammer
p2187
sVpumpkaboolarge
p2188
VPumpkaboo-Large
p2189
sVcomfey
p2190
VComfey
p2191
sVzapcannon
p2192
VZap Cannon
p2193
sVroar
p2194
VRoar
p2195
sVlockon
p2196
VLock-On
p2197
sVfloette
p2198
VFloette
p2199
sVgengar
p2200
VGengar
p2201
sVroserade
p2202
VRoserade
p2203
sVquilava
p2204
VQuilava
p2205
sVcustapberry
p2206
VCustap Berry
p2207
sVsearingshot
p2208
VSearing Shot
p2209
sVstratagem
p2210
VStratagem
p2211
sVpyroar
p2212
VPyroar
p2213
sVfennekin
p2214
VFennekin
p2215
sVshadowpunch
p2216
VShadow Punch
p2217
sVfocuspunch
p2218
VFocus Punch
p2219
sVbindingband
p2220
VBinding Band
p2221
sVtoughclaws
p2222
VTough Claws
p2223
sVforewarn
p2224
VForewarn
p2225
sViciclespear
p2226
VIcicle Spear
p2227
sVpyroak
p2228
VPyroak
p2229
sVgigalith
p2230
VGigalith
p2231
sVsurgesurfer
p2232
VSurge Surfer
p2233
sVhex
p2234
VHex
p2235
sVmarill
p2236
VMarill
p2237
sVprimarina
p2238
VPrimarina
p2239
sVsymbiosis
p2240
VSymbiosis
p2241
sVgalvanize
p2242
VGalvanize
p2243
sVwillowisp
p2244
VWill-O-Wisp
p2245
sVbubble
p2246
VBubble
p2247
sVfastball
p2248
VFast Ball
p2249
sVglaciate
p2250
VGlaciate
p2251
sVnightshade
p2252
VNight Shade
p2253
sVfrogadier
p2254
VFrogadier
p2255
sVporygon
p2256
VPorygon
p2257
sVheatrock
p2258
VHeat Rock
p2259
sVvitalspirit
p2260
VVital Spirit
p2261
sVcrabominable
p2262
VCrabominable
p2263
sVrage
p2264
VRage
p2265
sVsandshrewalola
p2266
VSandshrew-Alola
p2267
sVvictorystar
p2268
VVictory Star
p2269
sVvinewhip
p2270
VVine Whip
p2271
sVstoneplate
p2272
VStone Plate
p2273
sVember
p2274
VEmber
p2275
sVsplashplate
p2276
VSplash Plate
p2277
sVpowdersnow
p2278
VPowder Snow
p2279
sVrockruff
p2280
VRockruff
p2281
sVchesnaught
p2282
VChesnaught
p2283
sVgrepaberry
p2284
VGrepa Berry
p2285
sVrhydon
p2286
VRhydon
p2287
sVsmokescreen
p2288
VSmokescreen
p2289
sVmoonblast
p2290
VMoonblast
p2291
sVcolburberry
p2292
VColbur Berry
p2293
sVsilvallydragon
p2294
VSilvally-Dragon
p2295
sVhydrovortex
p2296
VHydro Vortex
p2297
sVsoulstealing7starstrike
p2298
VSoul-Stealing 7-Star Strike
p2299
sVimmunity
p2300
VImmunity
p2301
sVtangela
p2302
VTangela
p2303
sVcharizard
p2304
VCharizard
p2305
sVgolem
p2306
VGolem
p2307
sVstompingtantrum
p2308
VStomping Tantrum
p2309
sVmirrorcoat
p2310
VMirror Coat
p2311
sVemboar
p2312
VEmboar
p2313
sVdustox
p2314
VDustox
p2315
sVrootfossil
p2316
VRoot Fossil
p2317
sVzigzagoon
p2318
VZigzagoon
p2319
sVtackle
p2320
VTackle
p2321
sVpopplio
p2322
VPopplio
p2323
sVrotomwash
p2324
VRotom-Wash
p2325
sVgrudge
p2326
VGrudge
p2327
sVcyndaquil
p2328
VCyndaquil
p2329
sVblueflare
p2330
VBlue Flare
p2331
sVdefog
p2332
VDefog
p2333
sVberserkgene
p2334
VBerserk Gene
p2335
sVskyattack
p2336
VSky Attack
p2337
sVmoonlight
p2338
VMoonlight
p2339
sVmimic
p2340
VMimic
p2341
sVstockpile
p2342
VStockpile
p2343
sVoddincense
p2344
VOdd Incense
p2345
sVmeloetta
p2346
VMeloetta
p2347
sVgardevoirmega
p2348
VGardevoir-Mega
p2349
sVlairon
p2350
VLairon
p2351
sVeerieimpulse
p2352
VEerie Impulse
p2353
sVscrappy
p2354
VScrappy
p2355
sVtogetic
p2356
VTogetic
p2357
sVfirepunch
p2358
VFire Punch
p2359
sVunfezant
p2360
VUnfezant
p2361
sVmicleberry
p2362
VMicle Berry
p2363
sVjolly
p2364
VJolly
p2365
sVsalandit
p2366
VSalandit
p2367
sVbewear
p2368
VBewear
p2369
sVlightningrod
p2370
VLightning Rod
p2371
sVgigadrain
p2372
VGiga Drain
p2373
sVsilverpowder
p2374
VSilverPowder
p2375
sVvanillish
p2376
VVanillish
p2377
sVvenomdrench
p2378
VVenom Drench
p2379
sVbayleef
p2380
VBayleef
p2381
sVhondewberry
p2382
VHondew Berry
p2383
sVbloomdoom
p2384
VBloom Doom
p2385
sVtympole
p2386
VTympole
p2387
sVwigglytuff
p2388
VWigglytuff
p2389
sVtyranitarmega
p2390
VTyranitar-Mega
p2391
sVicepunch
p2392
VIce Punch
p2393
sVgalvantula
p2394
VGalvantula
p2395
sVcombusken
p2396
VCombusken
p2397
sVcloudnine
p2398
VCloud Nine
p2399
sVmienshao
p2400
VMienshao
p2401
sVkeeberry
p2402
VKee Berry
p2403
sVsteameruption
p2404
VSteam Eruption
p2405
sVmild
p2406
VMild
p2407
sVscrafty
p2408
VScrafty
p2409
sVsecretpower
p2410
VSecret Power
p2411
sVshadowtag
p2412
VShadow Tag
p2413
sVpidgeotmega
p2414
VPidgeot-Mega
p2415
sVdoublekick
p2416
VDouble Kick
p2417
sVsandtomb
p2418
VSand Tomb
p2419
sVflorges
p2420
VFlorges
p2421
sVgourgeistsuper
p2422
VGourgeist-Super
p2423
sVironbarbs
p2424
VIron Barbs
p2425
sValtaria
p2426
VAltaria
p2427
sVcrushgrip
p2428
VCrush Grip
p2429
sVmagikarp
p2430
VMagikarp
p2431
sVseedbomb
p2432
VSeed Bomb
p2433
sVmeganium
p2434
VMeganium
p2435
sVchipaway
p2436
VChip Away
p2437
sVhealer
p2438
VHealer
p2439
sVfeatherdance
p2440
VFeather Dance
p2441
sVshockwave
p2442
VShock Wave
p2443
sVironplate
p2444
VIron Plate
p2445
sVgreatball
p2446
VGreat Ball
p2447
sVfellstinger
p2448
VFell Stinger
p2449
sVwateriumz
p2450
VWaterium Z
p2451
sVfightiniumz
p2452
VFightinium Z
p2453
sVheartstamp
p2454
VHeart Stamp
p2455
sVboldore
p2456
VBoldore
p2457
sVcombee
p2458
VCombee
p2459
sVdragonfang
p2460
VDragon Fang
p2461
sVgastly
p2462
VGastly
p2463
sVrevenge
p2464
VRevenge
p2465
sVclearsmog
p2466
VClear Smog
p2467
sVsteenee
p2468
VSteenee
p2469
sVanticipation
p2470
VAnticipation
p2471
sVinfernape
p2472
VInfernape
p2473
sVdecidiumz
p2474
VDecidium Z
p2475
sVaromatisse
p2476
VAromatisse
p2477
sVbattlebond
p2478
VBattle Bond
p2479
sVkyuremwhite
p2480
VKyurem-White
p2481
sVacidspray
p2482
VAcid Spray
p2483
sVcursedbody
p2484
VCursed Body
p2485
sVkyurem
p2486
VKyurem
p2487
sVwringout
p2488
VWring Out
p2489
sVstarly
p2490
VStarly
p2491
sVstruggle
p2492
VStruggle
p2493
sVgolett
p2494
VGolett
p2495
sVinciniumz
p2496
VIncinium Z
p2497
sVgyaradosmega
p2498
VGyarados-Mega
p2499
sVgallade
p2500
VGallade
p2501
sVoranguru
p2502
VOranguru
p2503
sVledian
p2504
VLedian
p2505
sVcutiefly
p2506
VCutiefly
p2507
sVscraggy
p2508
VScraggy
p2509
sVelectricseed
p2510
VElectric Seed
p2511
sVluvdisc
p2512
VLuvdisc
p2513
sVhelixfossil
p2514
VHelix Fossil
p2515
sVsavagespinout
p2516
VSavage Spin-Out
p2517
sVsplash
p2518
VSplash
p2519
sVillumise
p2520
VIllumise
p2521
sVgirafarig
p2522
VGirafarig
p2523
sVanorith
p2524
VAnorith
p2525
sVfairiumz
p2526
VFairium Z
p2527
sVdizzypunch
p2528
VDizzy Punch
p2529
sVflyingpress
p2530
VFlying Press
p2531
sVbounsweet
p2532
VBounsweet
p2533
sVpumpkaboosuper
p2534
VPumpkaboo-Super
p2535
sVhorsea
p2536
VHorsea
p2537
sVstick
p2538
VStick
p2539
sVrazorfang
p2540
VRazor Fang
p2541
sVwatergem
p2542
VWater Gem
p2543
sVturboblaze
p2544
VTurboblaze
p2545
sVaegislashblade
p2546
VAegislash-Blade
p2547
sVnaturalgift
p2548
VNatural Gift
p2549
sVenergypowder
p2550
VEnergy Powder
p2551
sVchartiberry
p2552
VCharti Berry
p2553
sVlumberry
p2554
VLum Berry
p2555
sVvoltorb
p2556
VVoltorb
p2557
sVshadowshield
p2558
VShadow Shield
p2559
sVskyplate
p2560
VSky Plate
p2561
sVsableye
p2562
VSableye
p2563
sVseviper
p2564
VSeviper
p2565
sVmarvelscale
p2566
VMarvel Scale
p2567
sVaurumoth
p2568
VAurumoth
p2569
sVflowerveil
p2570
VFlower Veil
p2571
sVstaryu
p2572
VStaryu
p2573
sVwishiwashi
p2574
VWishiwashi
p2575
sVshelltrap
p2576
VShell Trap
p2577
sVwikiberry
p2578
VWiki Berry
p2579
sVwobbuffet
p2580
VWobbuffet
p2581
sVteleport
p2582
VTeleport
p2583
sVshelmet
p2584
VShelmet
p2585
sVglalitite
p2586
VGlalitite
p2587
sVflyinggem
p2588
VFlying Gem
p2589
sVbulkup
p2590
VBulk Up
p2591
sVglaceon
p2592
VGlaceon
p2593
sVwonderguard
p2594
VWonder Guard
p2595
sVprismarmor
p2596
VPrism Armor
p2597
sVelectricgem
p2598
VElectric Gem
p2599
sVrotomfan
p2600
VRotom-Fan
p2601
sVsignalbeam
p2602
VSignal Beam
p2603
sVshuckle
p2604
VShuckle
p2605
sVreflect
p2606
VReflect
p2607
sVdisable
p2608
VDisable
p2609
sVliquidooze
p2610
VLiquid Ooze
p2611
sVmistyterrain
p2612
VMisty Terrain
p2613
sVfairygem
p2614
VFairy Gem
p2615
sVmedichammega
p2616
VMedicham-Mega
p2617
sVtoxicplate
p2618
VToxic Plate
p2619
sVlanturn
p2620
VLanturn
p2621
sVpineco
p2622
VPineco
p2623
sVcomatose
p2624
VComatose
p2625
sVretaliate
p2626
VRetaliate
p2627
sVphantump
p2628
VPhantump
p2629
sVgolisopod
p2630
VGolisopod
p2631
sVqueenlymajesty
p2632
VQueenly Majesty
p2633
sVcorphish
p2634
VCorphish
p2635
sVbastiodon
p2636
VBastiodon
p2637
sVwatmelberry
p2638
VWatmel Berry
p2639
sVarticuno
p2640
VArticuno
p2641
sVfissure
p2642
VFissure
p2643
sVvolcarona
p2644
VVolcarona
p2645
sVblackglasses
p2646
VBlack Glasses
p2647
sVplayrough
p2648
VPlay Rough
p2649
sVhealorder
p2650
VHeal Order
p2651
sVjigglypuff
p2652
VJigglypuff
p2653
sVsandslash
p2654
VSandslash
p2655
sVastonish
p2656
VAstonish
p2657
sVenergyball
p2658
VEnergy Ball
p2659
sVaggron
p2660
VAggron
p2661
sVlampent
p2662
VLampent
p2663
sVfistplate
p2664
VFist Plate
p2665
sVreturn
p2666
VReturn
p2667
sVmanectricmega
p2668
VManectric-Mega
p2669
sVsnowball
p2670
VSnowball
p2671
sVsolarbeam
p2672
VSolar Beam
p2673
sVcharizardmegax
p2674
VCharizard-Mega-X
p2675
sVcharizardmegay
p2676
VCharizard-Mega-Y
p2677
sVclefable
p2678
VClefable
p2679
sVskuntank
p2680
VSkuntank
p2681
sVprimeape
p2682
VPrimeape
p2683
sVgabite
p2684
VGabite
p2685
sVgrubbin
p2686
VGrubbin
p2687
sVmissingno
p2688
VMissingno.
p2689
sVhooh
p2690
VHo-Oh
p2691
sVrefresh
p2692
VRefresh
p2693
sVspoink
p2694
VSpoink
p2695
sVlovelykiss
p2696
VLovely Kiss
p2697
sVmeanlook
p2698
VMean Look
p2699
sVgumshoos
p2700
VGumshoos
p2701
sVclamp
p2702
VClamp
p2703
sVtopsyturvy
p2704
VTopsy-Turvy
p2705
sVquickfeet
p2706
VQuick Feet
p2707
sVsilvallyelectric
p2708
VSilvally-Electric
p2709
sVwatershuriken
p2710
VWater Shuriken
p2711
sVtsareena
p2712
VTsareena
p2713
sVthunderbolt
p2714
VThunderbolt
p2715
sVmagnezone
p2716
VMagnezone
p2717
sVtrickroom
p2718
VTrick Room
p2719
sVmist
p2720
VMist
p2721
sVwatercompaction
p2722
VWater Compaction
p2723
sVelectroweb
p2724
VElectroweb
p2725
sVkangaskhanmega
p2726
VKangaskhan-Mega
p2727
sVsalamence
p2728
VSalamence
p2729
sVarceuswater
p2730
VArceus-Water
p2731
sVarceusice
p2732
VArceus-Ice
p2733
sVsuperfang
p2734
VSuper Fang
p2735
sVsilvallyground
p2736
VSilvally-Ground
p2737
sVchoicescarf
p2738
VChoice Scarf
p2739
sVroggenrola
p2740
VRoggenrola
p2741
sVflashcannon
p2742
VFlash Cannon
p2743
sVironhead
p2744
VIron Head
p2745
sVsentret
p2746
VSentret
p2747
sVpichuspikyeared
p2748
VPichu-Spiky-eared
p2749
sVtyrogue
p2750
VTyrogue
p2751
sVcleffa
p2752
VCleffa
p2753
sVwaterabsorb
p2754
VWater Absorb
p2755
sVtoxicboost
p2756
VToxic Boost
p2757
sVninetales
p2758
VNinetales
p2759
sVnidoranf
p2760
VNidoran-F
p2761
sVcottonspore
p2762
VCotton Spore
p2763
sVnidoranm
p2764
VNidoran-M
p2765
sVparaboliccharge
p2766
VParabolic Charge
p2767
sVscopelens
p2768
VScope Lens
p2769
sVhydreigon
p2770
VHydreigon
p2771
sVrockpolish
p2772
VRock Polish
p2773
sVmightyena
p2774
VMightyena
p2775
sVabomasnowmega
p2776
VAbomasnow-Mega
p2777
sVmanaphy
p2778
VManaphy
p2779
sVbrave
p2780
VBrave
p2781
sVstoredpower
p2782
VStored Power
p2783
sVapicotberry
p2784
VApicot Berry
p2785
sVpetaldance
p2786
VPetal Dance
p2787
sVmeowstic
p2788
VMeowstic
p2789
sVboltstrike
p2790
VBolt Strike
p2791
sVraikou
p2792
VRaikou
p2793
sVswarm
p2794
VSwarm
p2795
sVbibarel
p2796
VBibarel
p2797
sVpsncureberry
p2798
VPSN Cure Berry
p2799
sVdazzlinggleam
p2800
VDazzling Gleam
p2801
sVlandorustherian
p2802
VLandorus-Therian
p2803
sVshedinja
p2804
VShedinja
p2805
sVpikashuniumz
p2806
VPikashunium Z
p2807
sVpsybeam
p2808
VPsybeam
p2809
sVsuckerpunch
p2810
VSucker Punch
p2811
sVdragonascent
p2812
VDragon Ascent
p2813
sVfreezeshock
p2814
VFreeze Shock
p2815
sVpsywave
p2816
VPsywave
p2817
sVdrillrun
p2818
VDrill Run
p2819
sVwhiteherb
p2820
VWhite Herb
p2821
sVringtarget
p2822
VRing Target
p2823
sVvenipede
p2824
VVenipede
p2825
sVdarkpulse
p2826
VDark Pulse
p2827
sVyamask
p2828
VYamask
p2829
sVstall
p2830
VStall
p2831
sVsharpedonite
p2832
VSharpedonite
p2833
sVmerciless
p2834
VMerciless
p2835
sVdoubleedge
p2836
VDouble-Edge
p2837
sVremoraid
p2838
VRemoraid
p2839
sVclefairy
p2840
VClefairy
p2841
sVklink
p2842
VKlink
p2843
sVfirespin
p2844
VFire Spin
p2845
sVgenesectchill
p2846
VGenesect-Chill
p2847
sVsuicune
p2848
VSuicune
p2849
sVthundurustherian
p2850
VThundurus-Therian
p2851
sVpamtreberry
p2852
VPamtre Berry
p2853
sVmegahorn
p2854
VMegahorn
p2855
sVslowbromega
p2856
VSlowbro-Mega
p2857
sVzenmode
p2858
VZen Mode
p2859
sVsunflora
p2860
VSunflora
p2861
sVariados
p2862
VAriados
p2863
sVgourgeist
p2864
VGourgeist
p2865
sVbarbaracle
p2866
VBarbaracle
p2867
sVairballoon
p2868
VAir Balloon
p2869
sVswirlix
p2870
VSwirlix
p2871
sVlitleo
p2872
VLitleo
p2873
sVcamouflage
p2874
VCamouflage
p2875
sVfrillish
p2876
VFrillish
p2877
sVroselia
p2878
VRoselia
p2879
sVkangaskhan
p2880
VKangaskhan
p2881
sVregirock
p2882
VRegirock
p2883
sVpansage
p2884
VPansage
p2885
sVswitcheroo
p2886
VSwitcheroo
p2887
sValakazammega
p2888
VAlakazam-Mega
p2889
sVrockgem
p2890
VRock Gem
p2891
sVeruption
p2892
VEruption
p2893
sVyawn
p2894
VYawn
p2895
sVcharm
p2896
VCharm
p2897
sVdiglett
p2898
VDiglett
p2899
sVbeldum
p2900
VBeldum
p2901
sVhabanberry
p2902
VHaban Berry
p2903
sVcrosspoison
p2904
VCross Poison
p2905
sVcarvanha
p2906
VCarvanha
p2907
sVrefrigerate
p2908
VRefrigerate
p2909
sVlowsweep
p2910
VLow Sweep
p2911
sVsturdy
p2912
VSturdy
p2913
sVcovet
p2914
VCovet
p2915
sVlax
p2916
VLax
p2917
sVlunala
p2918
VLunala
p2919
sVmarshadiumz
p2920
VMarshadium Z
p2921
sVgenesectdouse
p2922
VGenesect-Douse
p2923
sVkaratechop
p2924
VKarate Chop
p2925
sVworryseed
p2926
VWorry Seed
p2927
sVazumarill
p2928
VAzumarill
p2929
sVmetalburst
p2930
VMetal Burst
p2931
sVherdier
p2932
VHerdier
p2933
sVguardsplit
p2934
VGuard Split
p2935
sVnanabberry
p2936
VNanab Berry
p2937
sVzoomlens
p2938
VZoom Lens
p2939
sVblackbelt
p2940
VBlack Belt
p2941
sVhammerarm
p2942
VHammer Arm
p2943
sVmagmaarmor
p2944
VMagma Armor
p2945
sVcrabrawler
p2946
VCrabrawler
p2947
sVpayday
p2948
VPay Day
p2949
sVgooey
p2950
VGooey
p2951
sVoblivionwing
p2952
VOblivion Wing
p2953
sVtyrantrum
p2954
VTyrantrum
p2955
sVhealpulse
p2956
VHeal Pulse
p2957
sVheadcharge
p2958
VHead Charge
p2959
sVpawniard
p2960
VPawniard
p2961
sVpoisontail
p2962
VPoison Tail
p2963
sVrest
p2964
VRest
p2965
sVdocile
p2966
VDocile
p2967
sVfireblast
p2968
VFire Blast
p2969
sVmaliciousmoonsault
p2970
VMalicious Moonsault
p2971
sVshroomish
p2972
VShroomish
p2973
sVlitten
p2974
VLitten
p2975
sVwhismur
p2976
VWhismur
p2977
sVspikes
p2978
VSpikes
p2979
sVshadowstrike
p2980
VShadow Strike
p2981
sVlongreach
p2982
VLong Reach
p2983
sVskorupi
p2984
VSkorupi
p2985
sVgengarite
p2986
VGengarite
p2987
sVpinkbow
p2988
VPink Bow
p2989
sVblitzle
p2990
VBlitzle
p2991
sVspeedswap
p2992
VSpeed Swap
p2993
sVlustrousorb
p2994
VLustrous Orb
p2995
sVtamatoberry
p2996
VTamato Berry
p2997
sVblazikenite
p2998
VBlazikenite
p2999
sVfarfetchd
p3000
VFarfetch'd
p3001
sVinkay
p3002
VInkay
p3003
sVpickup
p3004
VPickup
p3005
sVcontrary
p3006
VContrary
p3007
sVkarrablast
p3008
VKarrablast
p3009
sVberserk
p3010
VBerserk
p3011
sVmarowak
p3012
VMarowak
p3013
sVmachobrace
p3014
VMacho Brace
p3015
sVsilvallywater
p3016
VSilvally-Water
p3017
sVelekid
p3018
VElekid
p3019
sVmagmortar
p3020
VMagmortar
p3021
sVchansey
p3022
VChansey
p3023
sVroaroftime
p3024
VRoar of Time
p3025
sVwildcharge
p3026
VWild Charge
p3027
sVgraveleralola
p3028
VGraveler-Alola
p3029
sVhoundoommega
p3030
VHoundoom-Mega
p3031
sVclaydol
p3032
VClaydol
p3033
sVrelicanth
p3034
VRelicanth
p3035
sVtorchic
p3036
VTorchic
p3037
sVlapras
p3038
VLapras
p3039
sVmankey
p3040
VMankey
p3041
sVsweetscent
p3042
VSweet Scent
p3043
sVraticatealola
p3044
VRaticate-Alola
p3045
sVshayminsky
p3046
VShaymin-Sky
p3047
sVsludgebomb
p3048
VSludge Bomb
p3049
sVsandile
p3050
VSandile
p3051
sVtyphlosion
p3052
VTyphlosion
p3053
sVbattery
p3054
VBattery
p3055
sVdrillpeck
p3056
VDrill Peck
p3057
sVicebody
p3058
VIce Body
p3059
sVdancer
p3060
VDancer
p3061
sVfearow
p3062
VFearow
p3063
sVxscissor
p3064
VX-Scissor
p3065
sVbellossom
p3066
VBellossom
p3067
sVquiverdance
p3068
VQuiver Dance
p3069
sVblastoisinite
p3070
VBlastoisinite
p3071
sVmegapunch
p3072
VMega Punch
p3073
sVdamp
p3074
VDamp
p3075
sVskitty
p3076
VSkitty
p3077
sVmienfoo
p3078
VMienfoo
p3079
sVpollenpuff
p3080
VPollen Puff
p3081
sVliepard
p3082
VLiepard
p3083
sVamnesia
p3084
VAmnesia
p3085
sVdestinybond
p3086
VDestiny Bond
p3087
sVcastform
p3088
VCastform
p3089
sVmeowthalola
p3090
VMeowth-Alola
p3091
sVdruddigon
p3092
VDruddigon
p3093
sVtaillow
p3094
VTaillow
p3095
sVbashful
p3096
VBashful
p3097
sVdragontail
p3098
VDragon Tail
p3099
sVswellow
p3100
VSwellow
p3101
sVstringshot
p3102
VString Shot
p3103
sValomomola
p3104
VAlomomola
p3105
sVwatergun
p3106
VWater Gun
p3107
sVvcreate
p3108
VV-create
p3109
sVnomelberry
p3110
VNomel Berry
p3111
sVdrainingkiss
p3112
VDraining Kiss
p3113
sVbasculin
p3114
VBasculin
p3115
sVgrassiumz
p3116
VGrassium Z
p3117
sVescavalier
p3118
VEscavalier
p3119
sVpsychoshift
p3120
VPsycho Shift
p3121
sVbisharp
p3122
VBisharp
p3123
sVhoundoom
p3124
VHoundoom
p3125
sVgulpin
p3126
VGulpin
p3127
sVpancham
p3128
VPancham
p3129
sVmantyke
p3130
VMantyke
p3131
sVpound
p3132
VPound
p3133
sVmedichamite
p3134
VMedichamite
p3135
sVrotommow
p3136
VRotom-Mow
p3137
sVdefendorder
p3138
VDefend Order
p3139
sVsurskit
p3140
VSurskit
p3141
sVmegalauncher
p3142
VMega Launcher
p3143
sVicebeam
p3144
VIce Beam
p3145
sVfacade
p3146
VFacade
p3147
sVzubat
p3148
VZubat
p3149
sVmagikarpsrevenge
p3150
VMagikarp's Revenge
p3151
sVingrain
p3152
VIngrain
p3153
sVcottonee
p3154
VCottonee
p3155
sVpikachuphd
p3156
VPikachu-PhD
p3157
sVpoisonjab
p3158
VPoison Jab
p3159
sVcameruptmega
p3160
VCamerupt-Mega
p3161
sVprotectivepads
p3162
VProtective Pads
p3163
sVcrucibellemega
p3164
VCrucibelle-Mega
p3165
sVadrenalineorb
p3166
VAdrenaline Orb
p3167
sVtaunt
p3168
VTaunt
p3169
sVgorebyss
p3170
VGorebyss
p3171
sVgrotle
p3172
VGrotle
p3173
sVpikachu
p3174
VPikachu
p3175
sVrayquaza
p3176
VRayquaza
p3177
sVfroakie
p3178
VFroakie
p3179
sVloveball
p3180
VLove Ball
p3181
sVjumpluff
p3182
VJumpluff
p3183
sVkomala
p3184
VKomala
p3185
sVtimid
p3186
VTimid
p3187
sVmismagius
p3188
VMismagius
p3189
sVinfiltrator
p3190
VInfiltrator
p3191
sVpsychup
p3192
VPsych Up
p3193
sVtangrowth
p3194
VTangrowth
p3195
sVfiregem
p3196
VFire Gem
p3197
sVshellder
p3198
VShellder
p3199
sVwithdraw
p3200
VWithdraw
p3201
sVmoonball
p3202
VMoon Ball
p3203
sVpainsplit
p3204
VPain Split
p3205
sVstoneedge
p3206
VStone Edge
p3207
sVhowl
p3208
VHowl
p3209
sVeeviumz
p3210
VEevium Z
p3211
sVwaterpledge
p3212
VWater Pledge
p3213
sVspearow
p3214
VSpearow
p3215
sVdarmanitan
p3216
VDarmanitan
p3217
sVrockwrecker
p3218
VRock Wrecker
p3219
sVoriginpulse
p3220
VOrigin Pulse
p3221
sVcompetitive
p3222
VCompetitive
p3223
sVzygarde
p3224
VZygarde
p3225
sVsolrock
p3226
VSolrock
p3227
sVthousandarrows
p3228
VThousand Arrows
p3229
sVcut
p3230
VCut
p3231
sVincineroar
p3232
VIncineroar
p3233
sVcloyster
p3234
VCloyster
p3235
sVshoreup
p3236
VShore Up
p3237
sVmetapod
p3238
VMetapod
p3239
sVairslash
p3240
VAir Slash
p3241
sVmagiccoat
p3242
VMagic Coat
p3243
sVacrobatics
p3244
VAcrobatics
p3245
sVspheal
p3246
VSpheal
p3247
sVchoicespecs
p3248
VChoice Specs
p3249
sVrebound
p3250
VRebound
p3251
sVlusterpurge
p3252
VLuster Purge
p3253
sVkeldeoresolute
p3254
VKeldeo-Resolute
p3255
sVzygardecomplete
p3256
VZygarde-Complete
p3257
sVmoody
p3258
VMoody
p3259
sVglaliemega
p3260
VGlalie-Mega
p3261
sVgothitelle
p3262
VGothitelle
p3263
sVskilllink
p3264
VSkill Link
p3265
sVponyta
p3266
VPonyta
p3267
sVpaleowave
p3268
VPaleo Wave
p3269
sVsubmission
p3270
VSubmission
p3271
sVstaravia
p3272
VStaravia
p3273
sVtailglow
p3274
VTail Glow
p3275
sVnoibat
p3276
VNoibat
p3277
sVstealthrock
p3278
VStealth Rock
p3279
sVtechnoblast
p3280
VTechno Blast
p3281
sVbaltoy
p3282
VBaltoy
p3283
sVflamewheel
p3284
VFlame Wheel
p3285
sVsketch
p3286
VSketch
p3287
sVfrisk
p3288
VFrisk
p3289
sVbounce
p3290
VBounce
p3291
sVdartrix
p3292
VDartrix
p3293
sVsouldew
p3294
VSoul Dew
p3295
sVgigaimpact
p3296
VGiga Impact
p3297
sVaurorabeam
p3298
VAurora Beam
p3299
sVsewaddle
p3300
VSewaddle
p3301
sVkommoo
p3302
VKommo-o
p3303
sVscald
p3304
VScald
p3305
sVominouswind
p3306
VOminous Wind
p3307
sVdeepseascale
p3308
VDeepSeaScale
p3309
sVmummy
p3310
VMummy
p3311
sVhuntail
p3312
VHuntail
p3313
sVswordsdance
p3314
VSwords Dance
p3315
sVearlybird
p3316
VEarly Bird
p3317
sVslash
p3318
VSlash
p3319
sVpidgeotite
p3320
VPidgeotite
p3321
sVgarchompmega
p3322
VGarchomp-Mega
p3323
sV10000000voltthunderbolt
p3324
V10,000,000 Volt Thunderbolt
p3325
sVoricoriopau
p3326
VOricorio-Pa'u
p3327
sVseismitoad
p3328
VSeismitoad
p3329
sVodorsleuth
p3330
VOdor Sleuth
p3331
sVmewtwomegax
p3332
VMewtwo-Mega-X
p3333
sVmewtwomegay
p3334
VMewtwo-Mega-Y
p3335
sVfocussash
p3336
VFocus Sash
p3337
sVjellicent
p3338
VJellicent
p3339
sVspelonberry
p3340
VSpelon Berry
p3341
sVnobleroar
p3342
VNoble Roar
p3343
sVkangaskhanite
p3344
VKangaskhanite
p3345
sVblazekick
p3346
VBlaze Kick
p3347
sViapapaberry
p3348
VIapapa Berry
p3349
sVmudkip
p3350
VMudkip
p3351
sVbouffalant
p3352
VBouffalant
p3353
sVarceusghost
p3354
VArceus-Ghost
p3355
sVblock
p3356
VBlock
p3357
sVsharpedo
p3358
VSharpedo
p3359
sVarmthrust
p3360
VArm Thrust
p3361
sVchargebeam
p3362
VCharge Beam
p3363
sVshellos
p3364
VShellos
p3365
sVnidoking
p3366
VNidoking
p3367
sVliquidation
p3368
VLiquidation
p3369
sVextremeevoboost
p3370
VExtreme Evoboost
p3371
sVsablenite
p3372
VSablenite
p3373
sVbarboach
p3374
VBarboach
p3375
sVstench
p3376
VStench
p3377
sViciclecrash
p3378
VIcicle Crash
p3379
sVcacnea
p3380
VCacnea
p3381
sVdevastatingdrake
p3382
VDevastating Drake
p3383
sVswampertmega
p3384
VSwampert-Mega
p3385
sVmimikyubusted
p3386
VMimikyu-Busted
p3387
sVsnorunt
p3388
VSnorunt
p3389
sVrelaxed
p3390
VRelaxed
p3391
sVeevee
p3392
VEevee
p3393
sVpsychocut
p3394
VPsycho Cut
p3395
sVtranquill
p3396
VTranquill
p3397
sVragepowder
p3398
VRage Powder
p3399
sVbuizel
p3400
VBuizel
p3401
sVsharpen
p3402
VSharpen
p3403
sVgrasspledge
p3404
VGrass Pledge
p3405
sVbuzzwole
p3406
VBuzzwole
p3407
sVabsolmega
p3408
VAbsol-Mega
p3409
sVwatchog
p3410
VWatchog
p3411
sVspacialrend
p3412
VSpacial Rend
p3413
sVbaddreams
p3414
VBad Dreams
p3415
sVgrowth
p3416
VGrowth
p3417
sVpoliwrath
p3418
VPoliwrath
p3419
sVhappyhour
p3420
VHappy Hour
p3421
sVmurkrow
p3422
VMurkrow
p3423
sVpechaberry
p3424
VPecha Berry
p3425
sVarceusfairy
p3426
VArceus-Fairy
p3427
sVmiracleseed
p3428
VMiracle Seed
p3429
sVnaturesmadness
p3430
VNature's Madness
p3431
sVrockhead
p3432
VRock Head
p3433
sVcalm
p3434
VCalm
p3435
sVstickybarb
p3436
VSticky Barb
p3437
sVganlonberry
p3438
VGanlon Berry
p3439
sVbulbasaur
p3440
VBulbasaur
p3441
sVpichu
p3442
VPichu
p3443
sVheatwave
p3444
VHeat Wave
p3445
sVaudino
p3446
VAudino
p3447
sVdrifloon
p3448
VDrifloon
p3449
sVsnowcloak
p3450
VSnow Cloak
p3451
sVrazorshell
p3452
VRazor Shell
p3453
sVmetagross
p3454
VMetagross
p3455
sVsparklingaria
p3456
VSparkling Aria
p3457
sVmeowsticf
p3458
VMeowstic-F
p3459
sVlickilicky
p3460
VLickilicky
p3461
sVaccelgor
p3462
VAccelgor
p3463
sVmysteryberry
p3464
VMystery Berry
p3465
sVmudbray
p3466
VMudbray
p3467
sVprecipiceblades
p3468
VPrecipice Blades
p3469
sVslaking
p3470
VSlaking
p3471
sVavalugg
p3472
VAvalugg
p3473
sVscratch
p3474
VScratch
p3475
sVcharmeleon
p3476
VCharmeleon
p3477
sVhighhorsepower
p3478
VHigh Horsepower
p3479
sVnormaliumz
p3480
VNormalium Z
p3481
sVcharmander
p3482
VCharmander
p3483
sVspeedboost
p3484
VSpeed Boost
p3485
sVwakeupslap
p3486
VWake-Up Slap
p3487
sVpsychicgem
p3488
VPsychic Gem
p3489
sVrivalry
p3490
VRivalry
p3491
sVperishsong
p3492
VPerish Song
p3493
sVcutecharm
p3494
VCute Charm
p3495
sVblaze
p3496
VBlaze
p3497
sVsniper
p3498
VSniper
p3499
sVtriplekick
p3500
VTriple Kick
p3501
sVfly
p3502
VFly
p3503
sVnightslash
p3504
VNight Slash
p3505
sVextrasensory
p3506
VExtrasensory
p3507
sVteddiursa
p3508
VTeddiursa
p3509
sVthundershock
p3510
VThunder Shock
p3511
sVazurill
p3512
VAzurill
p3513
sVbigpecks
p3514
VBig Pecks
p3515
sVlureball
p3516
VLure Ball
p3517
sVqwilfish
p3518
VQwilfish
p3519
sVhyperbeam
p3520
VHyper Beam
p3521
sVdynamicpunch
p3522
VDynamic Punch
p3523
sVmagnemite
p3524
VMagnemite
p3525
sVtyrunt
p3526
VTyrunt
p3527
sVmultiattack
p3528
VMulti-Attack
p3529
sVirondefense
p3530
VIron Defense
p3531
sVmisdreavus
p3532
VMisdreavus
p3533
sVfidgit
p3534
VFidgit
p3535
sVdousedrive
p3536
VDouse Drive
p3537
sVcrushclaw
p3538
VCrush Claw
p3539
sVsoftboiled
p3540
VSoft-Boiled
p3541
sVpoisongem
p3542
VPoison Gem
p3543
sVtectonicrage
p3544
VTectonic Rage
p3545
sVdownload
p3546
VDownload
p3547
sVacid
p3548
VAcid
p3549
sVvigoroth
p3550
VVigoroth
p3551
sVlombre
p3552
VLombre
p3553
sVdelcatty
p3554
VDelcatty
p3555
sVhoundoominite
p3556
VHoundoominite
p3557
sVturtonator
p3558
VTurtonator
p3559
sVtriattack
p3560
VTri Attack
p3561
sVtyranitar
p3562
VTyranitar
p3563
sVturtwig
p3564
VTurtwig
p3565
sVbruxish
p3566
VBruxish
p3567
sVmagmastorm
p3568
VMagma Storm
p3569
sVpansear
p3570
VPansear
p3571
sVdeerling
p3572
VDeerling
p3573
sVswinub
p3574
VSwinub
p3575
sVgigavolthavoc
p3576
VGigavolt Havoc
p3577
sVabomasnow
p3578
VAbomasnow
p3579
sVrowlet
p3580
VRowlet
p3581
sVsing
p3582
VSing
p3583
sVtriage
p3584
VTriage
p3585
sVpowersplit
p3586
VPower Split
p3587
sVincinerate
p3588
VIncinerate
p3589
sVmarangaberry
p3590
VMaranga Berry
p3591
sVrampardos
p3592
VRampardos
p3593
sVscreech
p3594
VScreech
p3595
sVtentacruel
p3596
VTentacruel
p3597
sVnaturalcure
p3598
VNatural Cure
p3599
sVforestscurse
p3600
VForest's Curse
p3601
sVblizzard
p3602
VBlizzard
p3603
sVteeterdance
p3604
VTeeter Dance
p3605
sVshieldsdown
p3606
VShields Down
p3607
sVfoongus
p3608
VFoongus
p3609
sVfirememory
p3610
VFire Memory
p3611
sVaquaring
p3612
VAqua Ring
p3613
sVprzcureberry
p3614
VPRZ Cure Berry
p3615
sVhardy
p3616
VHardy
p3617
sVarceusground
p3618
VArceus-Ground
p3619
sVhornattack
p3620
VHorn Attack
p3621
sVkingdra
p3622
VKingdra
p3623
sVaerodactylite
p3624
VAerodactylite
p3625
sVstakeout
p3626
VStakeout
p3627
sVbanettite
p3628
VBanettite
p3629
sVdragongem
p3630
VDragon Gem
p3631
sVheatran
p3632
VHeatran
p3633
sVsteelixite
p3634
VSteelixite
p3635
sVheavyball
p3636
VHeavy Ball
p3637
sVcharcoal
p3638
VCharcoal
p3639
sVmistyseed
p3640
VMisty Seed
p3641
sVcranidos
p3642
VCranidos
p3643
sVabsol
p3644
VAbsol
p3645
sVcelesteela
p3646
VCelesteela
p3647
sVplusle
p3648
VPlusle
p3649
sVaerodactylmega
p3650
VAerodactyl-Mega
p3651
sVharvest
p3652
VHarvest
p3653
sVwatersport
p3654
VWater Sport
p3655
sVpikaniumz
p3656
VPikanium Z
p3657
sVicicleplate
p3658
VIcicle Plate
p3659
sVfuturesight
p3660
VFuture Sight
p3661
sVfirelash
p3662
VFire Lash
p3663
sVsmellingsalts
p3664
VSmelling Salts
p3665
sVarchen
p3666
VArchen
p3667
sVexeggcute
p3668
VExeggcute
p3669
sVlucario
p3670
VLucario
p3671
sVthundurus
p3672
VThundurus
p3673
sVburnup
p3674
VBurn Up
p3675
sVdonphan
p3676
VDonphan
p3677
sVterrakion
p3678
VTerrakion
p3679
sVblacksludge
p3680
VBlack Sludge
p3681
sVsilvallypsychic
p3682
VSilvally-Psychic
p3683
sVrelicsong
p3684
VRelic Song
p3685
sVheliolisk
p3686
VHeliolisk
p3687
sVblazikenmega
p3688
VBlaziken-Mega
p3689
sVgastrodon
p3690
VGastrodon
p3691
sVbronzong
p3692
VBronzong
p3693
sVweavile
p3694
VWeavile
p3695
sVdewott
p3696
VDewott
p3697
sVchandelure
p3698
VChandelure
p3699
sVhaxorus
p3700
VHaxorus
p3701
sVsecretsword
p3702
VSecret Sword
p3703
sVowntempo
p3704
VOwn Tempo
p3705
sVhiddenpower
p3706
VHidden Power Ground
p3707
sVrazorleaf
p3708
VRazor Leaf
p3709
sVpowerswap
p3710
VPower Swap
p3711
sVdragalge
p3712
VDragalge
p3713
sVgrasswhistle
p3714
VGrass Whistle
p3715
sVswampert
p3716
VSwampert
p3717
sVwynaut
p3718
VWynaut
p3719
sVpidgey
p3720
VPidgey
p3721
sVmetalpowder
p3722
VMetal Powder
p3723
sVaggronite
p3724
VAggronite
p3725
sVgenesect
p3726
VGenesect
p3727
sVlotad
p3728
VLotad
p3729
sVrkssystem
p3730
VRKS System
p3731
sVsilvallyice
p3732
VSilvally-Ice
p3733
sVbind
p3734
VBind
p3735
sVcounter
p3736
VCounter
p3737
sVvikavolt
p3738
VVikavolt
p3739
sVfullincense
p3740
VFull Incense
p3741
sVweepinbell
p3742
VWeepinbell
p3743
sVhitmonchan
p3744
VHitmonchan
p3745
sVwoobat
p3746
VWoobat
p3747
sVaquajet
p3748
VAqua Jet
p3749
sVkrabby
p3750
VKrabby
p3751
sVumbreon
p3752
VUmbreon
p3753
sVdragonair
p3754
VDragonair
p3755
sVhitmontop
p3756
VHitmontop
p3757
sVheatproof
p3758
VHeatproof
p3759
sVmukalola
p3760
VMuk-Alola
p3761
sVguardswap
p3762
VGuard Swap
p3763
sVassaultvest
p3764
VAssault Vest
p3765
sVpetalblizzard
p3766
VPetal Blizzard
p3767
sVkadabra
p3768
VKadabra
p3769
sVpurepower
p3770
VPure Power
p3771
sVironball
p3772
VIron Ball
p3773
sVdreameater
p3774
VDream Eater
p3775
sVhelpinghand
p3776
VHelping Hand
p3777
sVmunchlax
p3778
VMunchlax
p3779
sVzenheadbutt
p3780
VZen Headbutt
p3781
sVbelch
p3782
VBelch
p3783
sVpowertrip
p3784
VPower Trip
p3785
sVberryjuice
p3786
VBerry Juice
p3787
sVmilotic
p3788
VMilotic
p3789
sVpsychicsurge
p3790
VPsychic Surge
p3791
sVflail
p3792
VFlail
p3793
sVkabutops
p3794
VKabutops
p3795
sVhoothoot
p3796
VHoothoot
p3797
sVkoffing
p3798
VKoffing
p3799
sVtoxapex
p3800
VToxapex
p3801
sVmagnitude
p3802
VMagnitude
p3803
sVarceusfighting
p3804
VArceus-Fighting
p3805
sVrapidspin
p3806
VRapid Spin
p3807
sVskullbash
p3808
VSkull Bash
p3809
sVdratini
p3810
VDratini
p3811
sVafteryou
p3812
VAfter You
p3813
sVmaractus
p3814
VMaractus
p3815
sVcrucibellite
p3816
VCrucibellite
p3817
sVmareanie
p3818
VMareanie
p3819
sVilluminate
p3820
VIlluminate
p3821
sVgallademega
p3822
VGallade-Mega
p3823
sVmagnetpull
p3824
VMagnet Pull
p3825
sVtepig
p3826
VTepig
p3827
sVkelpsyberry
p3828
VKelpsy Berry
p3829
sVstatic
p3830
VStatic
p3831
sVflameplate
p3832
VFlame Plate
p3833
sVicememory
p3834
VIce Memory
p3835
sVicefang
p3836
VIce Fang
p3837
sVvenonat
p3838
VVenonat
p3839
sVsilvallyfighting
p3840
VSilvally-Fighting
p3841
sVjoltik
p3842
VJoltik
p3843
sVrollingkick
p3844
VRolling Kick
p3845
sVoricorio
p3846
VOricorio
p3847
sVweatherball
p3848
VWeather Ball
p3849
sVshatteredpsyche
p3850
VShattered Psyche
p3851
sVmewniumz
p3852
VMewnium Z
p3853
sVmanectric
p3854
VManectric
p3855
sVnaturepower
p3856
VNature Power
p3857
sVregisteel
p3858
VRegisteel
p3859
sVsmog
p3860
VSmog
p3861
sVbabydolleyes
p3862
VBaby-Doll Eyes
p3863
sVleafguard
p3864
VLeaf Guard
p3865
sVicywind
p3866
VIcy Wind
p3867
sVemolga
p3868
VEmolga
p3869
sVmamoswine
p3870
VMamoswine
p3871
sVconkeldurr
p3872
VConkeldurr
p3873
sVworkup
p3874
VWork Up
p3875
sVmetagrossite
p3876
VMetagrossite
p3877
sVhippowdon
p3878
VHippowdon
p3879
sVenigmaberry
p3880
VEnigma Berry
p3881
sVscatterbug
p3882
VScatterbug
p3883
sVaromaveil
p3884
VAroma Veil
p3885
sVcorrosion
p3886
VCorrosion
p3887
sVtropkick
p3888
VTrop Kick
p3889
sVsudowoodo
p3890
VSudowoodo
p3891
sVlarvitar
p3892
VLarvitar
p3893
sVheadbutt
p3894
VHeadbutt
p3895
sVsacredsword
p3896
VSacred Sword
p3897
sVbodyslam
p3898
VBody Slam
p3899
sVbugbuzz
p3900
VBug Buzz
p3901
sVfirefang
p3902
VFire Fang
p3903
sVdiancite
p3904
VDiancite
p3905
sVampharosmega
p3906
VAmpharos-Mega
p3907
sVmistball
p3908
VMist Ball
p3909
sVskrelp
p3910
VSkrelp
p3911
sVjumpkick
p3912
VJump Kick
p3913
sVninetalesalola
p3914
VNinetales-Alola
p3915
sVwaterspout
p3916
VWater Spout
p3917
sVpsychicmemory
p3918
VPsychic Memory
p3919
sVloudred
p3920
VLoudred
p3921
sVearthpower
p3922
VEarth Power
p3923
sVpremierball
p3924
VPremier Ball
p3925
sVrotomfrost
p3926
VRotom-Frost
p3927
sVsolidrock
p3928
VSolid Rock
p3929
sVhonedge
p3930
VHonedge
p3931
sVrabutaberry
p3932
VRabuta Berry
p3933
sVagility
p3934
VAgility
p3935
sVelectabuzz
p3936
VElectabuzz
p3937
sVhoopaunbound
p3938
VHoopa-Unbound
p3939
sVfomantis
p3940
VFomantis
p3941
sVcrobat
p3942
VCrobat
p3943
sVrockblast
p3944
VRock Blast
p3945
sVslackoff
p3946
VSlack Off
p3947
sVsoftsand
p3948
VSoft Sand
p3949
sVsigilyph
p3950
VSigilyph
p3951
sVdeepseatooth
p3952
VDeepSeaTooth
p3953
sVtorkoal
p3954
VTorkoal
p3955
sVwurmple
p3956
VWurmple
p3957
sVtapulele
p3958
VTapu Lele
p3959
sVsunsteelstrike
p3960
VSunsteel Strike
p3961
sVgrimeralola
p3962
VGrimer-Alola
p3963
sVtimburr
p3964
VTimburr
p3965
sVsealeo
p3966
VSealeo
p3967
sVpoisonfang
p3968
VPoison Fang
p3969
sVinsectplate
p3970
VInsect Plate
p3971
sVtorrent
p3972
VTorrent
p3973
sVencore
p3974
VEncore
p3975
sVquickball
p3976
VQuick Ball
p3977
sVtrapinch
p3978
VTrapinch
p3979
sVbonerush
p3980
VBone Rush
p3981
sVgentle
p3982
VGentle
p3983
sVtorment
p3984
VTorment
p3985
sVarceusflying
p3986
VArceus-Flying
p3987
sVzebstrika
p3988
VZebstrika
p3989
sVwhitesmoke
p3990
VWhite Smoke
p3991
sVlevelball
p3992
VLevel Ball
p3993
sVsoak
p3994
VSoak
p3995
sVfusionbolt
p3996
VFusion Bolt
p3997
sVflareon
p3998
VFlareon
p3999
sVcalmmind
p4000
VCalm Mind
p4001
sVdiamondstorm
p4002
VDiamond Storm
p4003
sVgravity
p4004
VGravity
p4005
sVcarnivine
p4006
VCarnivine
p4007
sVgrassgem
p4008
VGrass Gem
p4009
sVfleurcannon
p4010
VFleur Cannon
p4011
sVpsychoboost
p4012
VPsycho Boost
p4013
sVnuzleaf
p4014
VNuzleaf
p4015
sVwidelens
p4016
VWide Lens
p4017
sVshadowball
p4018
VShadow Ball
p4019
sVdrifblim
p4020
VDrifblim
p4021
sVgoldeen
p4022
VGoldeen
p4023
sVmewtwo
p4024
VMewtwo
p4025
sVrollout
p4026
VRollout
p4027
sVslurpuff
p4028
VSlurpuff
p4029
sVdracometeor
p4030
VDraco Meteor
p4031
sVsludgewave
p4032
VSludge Wave
p4033
sVsceptile
p4034
VSceptile
p4035
sVaraquanid
p4036
VAraquanid
p4037
sVgardevoirite
p4038
VGardevoirite
p4039
sVexeggutor
p4040
VExeggutor
p4041
sVshedskin
p4042
VShed Skin
p4043
sVcherrimsunshine
p4044
VCherrim-Sunshine
p4045
sVarceus
p4046
VArceus
p4047
sVimpish
p4048
VImpish
p4049
sVservine
p4050
VServine
p4051
sVwailmer
p4052
VWailmer
p4053
sVbrine
p4054
VBrine
p4055
sVzweilous
p4056
VZweilous
p4057
sVsleeppowder
p4058
VSleep Powder
p4059
sVoldamber
p4060
VOld Amber
p4061
sVsnover
p4062
VSnover
p4063
sVdurant
p4064
VDurant
p4065
sVdarkiniumz
p4066
VDarkinium Z
p4067
sVsimplebeam
p4068
VSimple Beam
p4069
sVyveltal
p4070
VYveltal
p4071
sVbrickbreak
p4072
VBrick Break
p4073
sVrash
p4074
VRash
p4075
sVpiplup
p4076
VPiplup
p4077
sVflashfire
p4078
VFlash Fire
p4079
sVelectricmemory
p4080
VElectric Memory
p4081
sValoraichiumz
p4082
VAloraichium Z
p4083
sVpikipek
p4084
VPikipek
p4085
sVdeino
p4086
VDeino
p4087
sVcamerupt
p4088
VCamerupt
p4089
sVluckypunch
p4090
VLucky Punch
p4091
sVpurrloin
p4092
VPurrloin
p4093
sVrarebone
p4094
VRare Bone
p4095
sVsolosis
p4096
VSolosis
p4097
sVtangaberry
p4098
VTanga Berry
p4099
sVbellydrum
p4100
VBelly Drum
p4101
sVsassy
p4102
VSassy
p4103
sVdeoxysattack
p4104
VDeoxys-Attack
p4105
sVcroagunk
p4106
VCroagunk
p4107
sVbravebird
p4108
VBrave Bird
p4109
sVgust
p4110
VGust
p4111
sVmagicguard
p4112
VMagic Guard
p4113
sVsandattack
p4114
VSand Attack
p4115
sVkingler
p4116
VKingler
p4117
sVhugepower
p4118
VHuge Power
p4119
sVmudbomb
p4120
VMud Bomb
p4121
sVsheercold
p4122
VSheer Cold
p4123
sVgeomancy
p4124
VGeomancy
p4125
sVcacturne
p4126
VCacturne
p4127
sVpowder
p4128
VPowder
p4129
sVvictini
p4130
VVictini
p4131
sVfinneon
p4132
VFinneon
p4133
sVtwineedle
p4134
VTwineedle
p4135
sVchestoberry
p4136
VChesto Berry
p4137
sVgrumpig
p4138
VGrumpig
p4139
sVbuginiumz
p4140
VBuginium Z
p4141
sVnightmare
p4142
VNightmare
p4143
sVgyarados
p4144
VGyarados
p4145
sVvaporeon
p4146
VVaporeon
p4147
sVthunderwave
p4148
VThunder Wave
p4149
sVrockincense
p4150
VRock Incense
p4151
sVfroslass
p4152
VFroslass
p4153
sVaron
p4154
VAron
p4155
sVconversion2
p4156
VConversion 2
p4157
sVmysticalfire
p4158
VMystical Fire
p4159
sVzoroark
p4160
VZoroark
p4161
sVshellsmash
p4162
VShell Smash
p4163
sVhydropump
p4164
VHydro Pump
p4165
sVswift
p4166
VSwift
p4167
sVmemento
p4168
VMemento
p4169
sVmetang
p4170
VMetang
p4171
sVklinklang
p4172
VKlinklang
p4173
sVaerodactyl
p4174
VAerodactyl
p4175
sVtailwhip
p4176
VTail Whip
p4177
sVsceptilite
p4178
VSceptilite
p4179
sVsafetygoggles
p4180
VSafety Goggles
p4181
sVklang
p4182
VKlang
p4183
sVgreninjaash
p4184
VGreninja-Ash
p4185
sVswallow
p4186
VSwallow
p4187
sVspritzee
p4188
VSpritzee
p4189
sVflabebe
p4190
VFlabebe
p4191
sVnumel
p4192
VNumel
p4193
sVwoodhammer
p4194
VWood Hammer
p4195
sVmalaconda
p4196
VMalaconda
p4197
sVgible
p4198
VGible
p4199
sVovercoat
p4200
VOvercoat
p4201
sVekans
p4202
VEkans
p4203
sVsharpedomega
p4204
VSharpedo-Mega
p4205
sVpixieplate
p4206
VPixie Plate
p4207
sVdugtrio
p4208
VDugtrio
p4209
sVdisarmingvoice
p4210
VDisarming Voice
p4211
sVwailord
p4212
VWailord
p4213
sVswoobat
p4214
VSwoobat
p4215
sVelectrify
p4216
VElectrify
p4217
sVdazzling
p4218
VDazzling
p4219
sVoricoriosensu
p4220
VOricorio-Sensu
p4221
sVkeldeo
p4222
VKeldeo
p4223
sVrattata
p4224
VRattata
p4225
sVtomohawk
p4226
VTomohawk
p4227
sVivysaur
p4228
VIvysaur
p4229
sVhorndrill
p4230
VHorn Drill
p4231
sVcoverfossil
p4232
VCover Fossil
p4233
sVgraveler
p4234
VGraveler
p4235
sVsmeargle
p4236
VSmeargle
p4237
sVmetagrossmega
p4238
VMetagross-Mega
p4239
sVraindance
p4240
VRain Dance
p4241
sVinfestation
p4242
VInfestation
p4243
sVpresent
p4244
VPresent
p4245
sVgrovyle
p4246
VGrovyle
p4247
sVintimidate
p4248
VIntimidate
p4249
sVharden
p4250
VHarden
p4251
sVflaaffy
p4252
VFlaaffy
p4253
sVbeheeyem
p4254
VBeheeyem
p4255
sVwhirlpool
p4256
VWhirlpool
p4257
sVpelipper
p4258
VPelipper
p4259
sVthickfat
p4260
VThick Fat
p4261
sVcarracosta
p4262
VCarracosta
p4263
sVluxio
p4264
VLuxio
p4265
sVvullaby
p4266
VVullaby
p4267
sVlightball
p4268
VLight Ball
p4269
sVwaterveil
p4270
VWater Veil
p4271
sVspelltag
p4272
VSpell Tag
p4273
sVdeoxysdefense
p4274
VDeoxys-Defense
p4275
sVzekrom
p4276
VZekrom
p4277
sVaipom
p4278
VAipom
p4279
sVdefiant
p4280
VDefiant
p4281
sVhardstone
p4282
VHard Stone
p4283
sVkebiaberry
p4284
VKebia Berry
p4285
sVbergmite
p4286
VBergmite
p4287
sVcascoon
p4288
VCascoon
p4289
sVsuperluck
p4290
VSuper Luck
p4291
sVmagcargo
p4292
VMagcargo
p4293
sVabsorb
p4294
VAbsorb
p4295
sVraindish
p4296
VRain Dish
p4297
sVseaking
p4298
VSeaking
p4299
sVmagician
p4300
VMagician
p4301
sVdragoniumz
p4302
VDragonium Z
p4303
sVairlock
p4304
VAir Lock
p4305
sVbabiriberry
p4306
VBabiri Berry
p4307
sVaspearberry
p4308
VAspear Berry
p4309
sVeelektross
p4310
VEelektross
p4311
sVpickpocket
p4312
VPickpocket
p4313
sVsitrusberry
p4314
VSitrus Berry
p4315
sVarceuspsychic
p4316
VArceus-Psychic
p4317
sVbeautifly
p4318
VBeautifly
p4319
sVwormadamtrash
p4320
VWormadam-Trash
p4321
sVvenoshock
p4322
VVenoshock
p4323
sVsilvallyfairy
p4324
VSilvally-Fairy
p4325
sVmudsport
p4326
VMud Sport
p4327
sVazelf
p4328
VAzelf
p4329
sVyanmega
p4330
VYanmega
p4331
sVnaviathan
p4332
VNaviathan
p4333
sVfairyaura
p4334
VFairy Aura
p4335
sVarbok
p4336
VArbok
p4337
sVpinsir
p4338
VPinsir
p4339
sVrotom
p4340
VRotom
p4341
sVguts
p4342
VGuts
p4343
sVtauros
p4344
VTauros
p4345
sVnatu
p4346
VNatu
p4347
sVfaketears
p4348
VFake Tears
p4349
sVsimple
p4350
VSimple
p4351
sVaromaticmist
p4352
VAromatic Mist
p4353
sVbeedrillite
p4354
VBeedrillite
p4355
sVconfide
p4356
VConfide
p4357
sVleechlife
p4358
VLeech Life
p4359
sVaegislash
p4360
VAegislash
p4361
sVkingsshield
p4362
VKing's Shield
p4363
sVkingsrock
p4364
VKing's Rock
p4365
sVblukberry
p4366
VBluk Berry
p4367
sVflowershield
p4368
VFlower Shield
p4369
sVarenatrap
p4370
VArena Trap
p4371
sVleechseed
p4372
VLeech Seed
p4373
sVlaserfocus
p4374
VLaser Focus
p4375
sVducklett
p4376
VDucklett
p4377
sVgreninja
p4378
VGreninja
p4379
sVlatios
p4380
VLatios
p4381
sVdhelmise
p4382
VDhelmise
p4383
sVbudew
p4384
VBudew
p4385
sVgogoat
p4386
VGogoat
p4387
sVlilligant
p4388
VLilligant
p4389
sVhealball
p4390
VHeal Ball
p4391
sVphanpy
p4392
VPhanpy
p4393
sVaudinite
p4394
VAudinite
p4395
sVimprison
p4396
VImprison
p4397
sVrepeatball
p4398
VRepeat Ball
p4399
sVglare
p4400
VGlare
p4401
sVjangmoo
p4402
VJangmo-o
p4403
sVthief
p4404
VThief
p4405
sVhail
p4406
VHail
p4407
sVcofagrigus
p4408
VCofagrigus
p4409
sVwepearberry
p4410
VWepear Berry
p4411
sVskarmory
p4412
VSkarmory
p4413
sVpersimberry
p4414
VPersim Berry
p4415
sVdragonclaw
p4416
VDragon Claw
p4417
sVdrizzle
p4418
VDrizzle
p4419
sVzygarde10
p4420
VZygarde-10%
p4421
sVstaraptor
p4422
VStaraptor
p4423
sVmagicalleaf
p4424
VMagical Leaf
p4425
sVforcepalm
p4426
VForce Palm
p4427
sVhurricane
p4428
VHurricane
p4429
sVlileep
p4430
VLileep
p4431
sVpiloswine
p4432
VPiloswine
p4433
sVjudgment
p4434
VJudgment
p4435
sVvenusaurite
p4436
VVenusaurite
p4437
sVraichu
p4438
VRaichu
p4439
sVcyclohm
p4440
VCyclohm
p4441
sVhappiny
p4442
VHappiny
p4443
sVpressure
p4444
VPressure
p4445
sVsilkscarf
p4446
VSilk Scarf
p4447
sVpidgeotto
p4448
VPidgeotto
p4449
sVdreadplate
p4450
VDread Plate
p4451
sVsableyemega
p4452
VSableye-Mega
p4453
sVfurret
p4454
VFurret
p4455
sVpsystrike
p4456
VPsystrike
p4457
sVmeteormash
p4458
VMeteor Mash
p4459
sVshucaberry
p4460
VShuca Berry
p4461
sVrockmemory
p4462
VRock Memory
p4463
sVsweetkiss
p4464
VSweet Kiss
p4465
sVacidarmor
p4466
VAcid Armor
p4467
sVlightclay
p4468
VLight Clay
p4469
sVvoodoom
p4470
VVoodoom
p4471
sVblueorb
p4472
VBlue Orb
p4473
sVfeintattack
p4474
VFeint Attack
p4475
sVburmy
p4476
VBurmy
p4477
sVgrassysurge
p4478
VGrassy Surge
p4479
sVmagostberry
p4480
VMagost Berry
p4481
sVgrasspelt
p4482
VGrass Pelt
p4483
sVspitup
p4484
VSpit Up
p4485
sVstamina
p4486
VStamina
p4487
sVrockthrow
p4488
VRock Throw
p4489
sVroseliberry
p4490
VRoseli Berry
p4491
sVfrustration
p4492
VFrustration
p4493
sVambipom
p4494
VAmbipom
p4495
sVsolgaleo
p4496
VSolgaleo
p4497
sVfollowme
p4498
VFollow Me
p4499
sVclauncher
p4500
VClauncher
p4501
sVquickpowder
p4502
VQuick Powder
p4503
sVfrenzyplant
p4504
VFrenzy Plant
p4505
sVclearbody
p4506
VClear Body
p4507
sVpowerofalchemy
p4508
VPower of Alchemy
p4509
sVmagoberry
p4510
VMago Berry
p4511
sVcroconaw
p4512
VCroconaw
p4513
sVdrowzee
p4514
VDrowzee
p4515
sVserenegrace
p4516
VSerene Grace
p4517
sVoceanicoperetta
p4518
VOceanic Operetta
p4519
sVheracronite
p4520
VHeracronite
p4521
sVtechnician
p4522
VTechnician
p4523
sVarceusgrass
p4524
VArceus-Grass
p4525
sVmorelull
p4526
VMorelull
p4527
sVembargo
p4528
VEmbargo
p4529
sVmetronome
p4530
VMetronome
p4531
sVattackorder
p4532
VAttack Order
p4533
sVallyswitch
p4534
VAlly Switch
p4535
sVwish
p4536
VWish
p4537
sVentrainment
p4538
VEntrainment
p4539
sVpoisonheal
p4540
VPoison Heal
p4541
sVpyukumuku
p4542
VPyukumuku
p4543
sVscizormega
p4544
VScizor-Mega
p4545
sVthroatchop
p4546
VThroat Chop
p4547
sVhoneclaws
p4548
VHone Claws
p4549
sVgrassmemory
p4550
VGrass Memory
p4551
sVpikachurockstar
p4552
VPikachu-Rock-Star
p4553
sVoranberry
p4554
VOran Berry
p4555
sVmarshadow
p4556
VMarshadow
p4557
sVninjask
p4558
VNinjask
p4559
sVslowstart
p4560
VSlow Start
p4561
sVweakarmor
p4562
VWeak Armor
p4563
sVaurasphere
p4564
VAura Sphere
p4565
sVshelgon
p4566
VShelgon
p4567
sVrawstberry
p4568
VRawst Berry
p4569
sVshadowbone
p4570
VShadow Bone
p4571
sVvacuumwave
p4572
VVacuum Wave
p4573
sVillusion
p4574
VIllusion
p4575
sVroleplay
p4576
VRole Play
p4577
sVyacheberry
p4578
VYache Berry
p4579
sVelectriumz
p4580
VElectrium Z
p4581
sVtreecko
p4582
VTreecko
p4583
sVicehammer
p4584
VIce Hammer
p4585
sVbraviary
p4586
VBraviary
p4587
sVvivillon
p4588
VVivillon
p4589
sVnoguard
p4590
VNo Guard
p4591
sVsalamencemega
p4592
VSalamence-Mega
p4593
sVabomasite
p4594
VAbomasite
p4595
sVstarmie
p4596
VStarmie
p4597
sVpersistent
p4598
VPersistent
p4599
sVmagmar
p4600
VMagmar
p4601
sVzangoose
p4602
VZangoose
p4603
sVvivillonfancy
p4604
VVivillon-Fancy
p4605
sVvanilluxe
p4606
VVanilluxe
p4607
s.