(dp1
Velectivire
p2
VElectivire
p3
sVanchorshot
p4
VAnchor Shot
p5
sVheracross
p6
VHeracross
p7
sVcolorchange
p8
VColor Change
p9
sVlucarionite
p10
VLucarionite
p11
sVpalkia
p12
VPalkia
p13
sVchatter
p14
VChatter
p15
sValakazite
p16
VAlakazite
p17
sVtickle
p18
VTickle
p19
sVarceuselectric
p20
VArceus-Electric
p21
sVabra
p22
VAbra
p23
sVexeggutoralola
p24
VExeggutor-Alola
p25
sVrecycle
p26
VRecycle
p27
sVtimerball
p28
VTimer Ball
p29
sVsteeliumz
p30
VSteelium Z
p31
sVsharpbeak
p32
VSharp Beak
p33
sVmewtwonitex
p34
VMewtwonite X
p35
sVmewtwonitey
p36
VMewtwonite Y
p37
sVquickclaw
p38
VQuick Claw
p39
sVoricoriopompom
p40
VOricorio-Pom-Pom
p41
sVneuroforce
p42
VNeuroforce
p43
sVdoubleslap
p44
VDouble Slap
p45
sVlurantis
p46
VLurantis
p47
sVeviolite
p48
VEviolite
p49
sVprotean
p50
VProtean
p51
sVsquirtle
p52
VSquirtle
p53
sVdiglettalola
p54
VDiglett-Alola
p55
sVdarmanitanzen
p56
VDarmanitan-Zen
p57
sVnastyplot
p58
VNasty Plot
p59
sVwormadam
p60
VWormadam
p61
sVmiracleberry
p62
VMiracle Berry
p63
sVaggronmega
p64
VAggron-Mega
p65
sVwhirlwind
p66
VWhirlwind
p67
sVplumefossil
p68
VPlume Fossil
p69
sVcherrim
p70
VCherrim
p71
sVhiddenpowerelectric
p72
VHidden Power Electric
p73
sVhiddenpowerfire
p74
VHidden Power Fire
p75
sVguillotine
p76
VGuillotine
p77
sVlevitate
p78
VLevitate
p79
sVgyaradosite
p80
VGyaradosite
p81
sVpomegberry
p82
VPomeg Berry
p83
sVpokestargiant
p84
VPokestar Giant
p85
sVmasquerain
p86
VMasquerain
p87
sVaccelerock
p88
VAccelerock
p89
sVthunder
p90
VThunder
p91
sVhaze
p92
VHaze
p93
sVdarkgem
p94
VDark Gem
p95
sVpokestarmt2
p96
VPokestar MT2
p97
sVfraxure
p98
VFraxure
p99
sVmoldbreaker
p100
VMold Breaker
p101
sVcrunch
p102
VCrunch
p103
sVrindoberry
p104
VRindo Berry
p105
sVlatiosite
p106
VLatiosite
p107
sVreflecttype
p108
VReflect Type
p109
sVsnivy
p110
VSnivy
p111
sVmefirst
p112
VMe First
p113
sVstarfberry
p114
VStarf Berry
p115
sVscizorite
p116
VScizorite
p117
sVmew
p118
VMew
p119
sVpursuit
p120
VPursuit
p121
sVheadsmash
p122
VHead Smash
p123
sVaftermath
p124
VAftermath
p125
sVmintberry
p126
VMint Berry
p127
sVclawitzer
p128
VClawitzer
p129
sVpixilate
p130
VPixilate
p131
sVtornadustherian
p132
VTornadus-Therian
p133
sVmoonstone
p134
VMoon Stone
p135
sVlunatone
p136
VLunatone
p137
sVpunishment
p138
VPunishment
p139
sVpoisontouch
p140
VPoison Touch
p141
sVfeebas
p142
VFeebas
p143
sVneedlearm
p144
VNeedle Arm
p145
sValtarianite
p146
VAltarianite
p147
sVblastburn
p148
VBlast Burn
p149
sVhonchkrow
p150
VHonchkrow
p151
sVtactite
p152
VTactite
p153
sVschooling
p154
VSchooling
p155
sVtirtouga
p156
VTirtouga
p157
sVampharos
p158
VAmpharos
p159
sVdusclops
p160
VDusclops
p161
sVpoisonbarb
p162
VPoison Barb
p163
sVmorningsun
p164
VMorning Sun
p165
sVfreezedry
p166
VFreeze-Dry
p167
sVmandibuzz
p168
VMandibuzz
p169
sVoverheat
p170
VOverheat
p171
sVwishiwashischool
p172
VWishiwashi-School
p173
sVspiritomb
p174
VSpiritomb
p175
sVvoltabsorb
p176
VVolt Absorb
p177
sVpurugly
p178
VPurugly
p179
sVshiftgear
p180
VShift Gear
p181
sVvenomoth
p182
VVenomoth
p183
sVfirstimpression
p184
VFirst Impression
p185
sVcastformrainy
p186
VCastform-Rainy
p187
sVbigroot
p188
VBig Root
p189
sVcobalion
p190
VCobalion
p191
sVgardevoir
p192
VGardevoir
p193
sVsheerforce
p194
VSheer Force
p195
sVmagnetrise
p196
VMagnet Rise
p197
sVnaive
p198
VNaive
p199
sVreuniclus
p200
VReuniclus
p201
sVbeastboost
p202
VBeast Boost
p203
sVsceptilemega
p204
VSceptile-Mega
p205
sVlunge
p206
VLunge
p207
sVcharjabug
p208
VCharjabug
p209
sVsteelmemory
p210
VSteel Memory
p211
sVbeastball
p212
VBeast Ball
p213
sVkitsunoh
p214
VKitsunoh
p215
sVarceusbug
p216
VArceus-Bug
p217
sVgranbull
p218
VGranbull
p219
sVmeditite
p220
VMeditite
p221
sVgengarmega
p222
VGengar-Mega
p223
sVpidgeot
p224
VPidgeot
p225
sVstakataka
p226
VStakataka
p227
sVsilvallypoison
p228
VSilvally-Poison
p229
sVtangledfeet
p230
VTangled Feet
p231
sVigglybuff
p232
VIgglybuff
p233
sVonix
p234
VOnix
p235
sVgrimer
p236
VGrimer
p237
sVrototiller
p238
VRototiller
p239
sVlucariomega
p240
VLucario-Mega
p241
sVbugbite
p242
VBug Bite
p243
sVpoisongas
p244
VPoison Gas
p245
sVmakuhita
p246
VMakuhita
p247
sVfriendball
p248
VFriend Ball
p249
sVwigglytuff
p250
VWigglytuff
p251
sVattract
p252
VAttract
p253
sVcharizarditey
p254
VCharizardite Y
p255
sVcharizarditex
p256
VCharizardite X
p257
sVhyperspacehole
p258
VHyperspace Hole
p259
sVskydrop
p260
VSky Drop
p261
sVcrabhammer
p262
VCrabhammer
p263
sVtoxic
p264
VToxic
p265
sVcastformsunny
p266
VCastform-Sunny
p267
sVrotomheat
p268
VRotom-Heat
p269
sVsportball
p270
VSport Ball
p271
sVpoisonpowder
p272
VPoison Powder
p273
sVredcard
p274
VRed Card
p275
sVmodest
p276
VModest
p277
sVtynamo
p278
VTynamo
p279
sVliquidvoice
p280
VLiquid Voice
p281
sVcherubi
p282
VCherubi
p283
sVbuzzybuzz
p284
VBuzzy Buzz
p285
sVpokestarufo2
p286
VPokestar UFO-2
p287
sVpoweranklet
p288
VPower Anklet
p289
sVgumshoostotem
p290
VGumshoos-Totem
p291
sVspookyplate
p292
VSpooky Plate
p293
sVhasty
p294
VHasty
p295
sVraichualola
p296
VRaichu-Alola
p297
sVentei
p298
VEntei
p299
sVdecidueye
p300
VDecidueye
p301
sVarceussteel
p302
VArceus-Steel
p303
sVtogedemarutotem
p304
VTogedemaru-Totem
p305
sVcobaberry
p306
VCoba Berry
p307
sVlaggingtail
p308
VLagging Tail
p309
sVfinalgambit
p310
VFinal Gambit
p311
sVrapidash
p312
VRapidash
p313
sVblacephalon
p314
VBlacephalon
p315
sVdoubleteam
p316
VDouble Team
p317
sVlumineon
p318
VLumineon
p319
sVgligar
p320
VGligar
p321
sVshielddust
p322
VShield Dust
p323
sVmagicbounce
p324
VMagic Bounce
p325
sVfakeout
p326
VFake Out
p327
sVsludge
p328
VSludge
p329
sVvenusaur
p330
VVenusaur
p331
sVphione
p332
VPhione
p333
sVmindplate
p334
VMind Plate
p335
sVgrassyseed
p336
VGrassy Seed
p337
sVflameburst
p338
VFlame Burst
p339
sVzapplate
p340
VZap Plate
p341
sVmunna
p342
VMunna
p343
sVdragonscale
p344
VDragon Scale
p345
sVjawfossil
p346
VJaw Fossil
p347
sVnihilego
p348
VNihilego
p349
sVmimikyu
p350
VMimikyu
p351
sVkricketot
p352
VKricketot
p353
sVgroundiumz
p354
VGroundium Z
p355
sVroost
p356
VRoost
p357
sVfurycutter
p358
VFury Cutter
p359
sVirontail
p360
VIron Tail
p361
sVclangingscales
p362
VClanging Scales
p363
sVheatmor
p364
VHeatmor
p365
sVeggbomb
p366
VEgg Bomb
p367
sVluxray
p368
VLuxray
p369
sVpayback
p370
VPayback
p371
sVexcadrill
p372
VExcadrill
p373
sVgloom
p374
VGloom
p375
sVgluttony
p376
VGluttony
p377
sVtapukoko
p378
VTapu Koko
p379
sVvulpix
p380
VVulpix
p381
sVcradily
p382
VCradily
p383
sVwimpod
p384
VWimpod
p385
sVthunderfang
p386
VThunder Fang
p387
sVblastoisemega
p388
VBlastoise-Mega
p389
sVespeon
p390
VEspeon
p391
sVtogedemaru
p392
VTogedemaru
p393
sVmultitype
p394
VMultitype
p395
sVflameorb
p396
VFlame Orb
p397
sVpanpour
p398
VPanpour
p399
sVhiddenpowerdragon
p400
VHidden Power Dragon
p401
sVfairywind
p402
VFairy Wind
p403
sVgothorita
p404
VGothorita
p405
sVomastar
p406
VOmastar
p407
sVwalrein
p408
VWalrein
p409
sVsawsbuck
p410
VSawsbuck
p411
sVtruant
p412
VTruant
p413
sVqualotberry
p414
VQualot Berry
p415
sVflowergift
p416
VFlower Gift
p417
sVsuperluck
p418
VSuper Luck
p419
sVpsychic
p420
VPsychic
p421
sVlifeorb
p422
VLife Orb
p423
sVvulpixalola
p424
VVulpix-Alola
p425
sVwaterstone
p426
VWater Stone
p427
sVkasibberry
p428
VKasib Berry
p429
sVribombee
p430
VRibombee
p431
sVargalis
p432
VArgalis
p433
sVcottonguard
p434
VCotton Guard
p435
sVtornadus
p436
VTornadus
p437
sVshedshell
p438
VShed Shell
p439
sVbarrier
p440
VBarrier
p441
sVleftovers
p442
VLeftovers
p443
sVcoreenforcer
p444
VCore Enforcer
p445
sVsynchronoise
p446
VSynchronoise
p447
sVzippyzap
p448
VZippy Zap
p449
sVbestow
p450
VBestow
p451
sVtrumpcard
p452
VTrump Card
p453
sVsweetveil
p454
VSweet Veil
p455
sViceball
p456
VIce Ball
p457
sVgalladite
p458
VGalladite
p459
sVshiftry
p460
VShiftry
p461
sVfletchinder
p462
VFletchinder
p463
sVbeartic
p464
VBeartic
p465
sVkyuremblack
p466
VKyurem-Black
p467
sVsonicboom
p468
VSonic Boom
p469
sVpikachupartner
p470
VPikachu-Partner
p471
sVfightinggem
p472
VFighting Gem
p473
sVgroudonprimal
p474
VGroudon-Primal
p475
sVlatias
p476
VLatias
p477
sVfilter
p478
VFilter
p479
sVsteelixmega
p480
VSteelix-Mega
p481
sVtapuniumz
p482
VTapunium Z
p483
sVcherishball
p484
VCherish Ball
p485
sVcheriberry
p486
VCheri Berry
p487
sVfightingmemory
p488
VFighting Memory
p489
sVnaughty
p490
VNaughty
p491
sVseedflare
p492
VSeed Flare
p493
sVhydrocannon
p494
VHydro Cannon
p495
sVmagneticflux
p496
VMagnetic Flux
p497
sVdeoxys
p498
VDeoxys
p499
sVursaring
p500
VUrsaring
p501
sVlatiasmega
p502
VLatias-Mega
p503
sVrattataalola
p504
VRattata-Alola
p505
sVinstruct
p506
VInstruct
p507
sVembirch
p508
VEmbirch
p509
sVshieldon
p510
VShieldon
p511
sVslugma
p512
VSlugma
p513
sVheracrossmega
p514
VHeracross-Mega
p515
sVwaveincense
p516
VWave Incense
p517
sVmanectite
p518
VManectite
p519
sVinnardsout
p520
VInnards Out
p521
sVpikachupopstar
p522
VPikachu-Pop-Star
p523
sVmudsdale
p524
VMudsdale
p525
sVaircutter
p526
VAir Cutter
p527
sVgiratinaorigin
p528
VGiratina-Origin
p529
sVgrowlithe
p530
VGrowlithe
p531
sVinferno
p532
VInferno
p533
sVtwister
p534
VTwister
p535
sVarceusdragon
p536
VArceus-Dragon
p537
sVflamethrower
p538
VFlamethrower
p539
sVtoxicorb
p540
VToxic Orb
p541
sVfairylock
p542
VFairy Lock
p543
sVrockclimb
p544
VRock Climb
p545
sVwonderroom
p546
VWonder Room
p547
sVmegakick
p548
VMega Kick
p549
sVdoomdesire
p550
VDoom Desire
p551
sVmirrormove
p552
VMirror Move
p553
sVsandshrew
p554
VSandshrew
p555
sVpolitoed
p556
VPolitoed
p557
sVminun
p558
VMinun
p559
sVbelueberry
p560
VBelue Berry
p561
sVgeodudealola
p562
VGeodude-Alola
p563
sVfloralhealing
p564
VFloral Healing
p565
sVfiriumz
p566
VFirium Z
p567
sVendure
p568
VEndure
p569
sVswiftswim
p570
VSwift Swim
p571
sVshellbell
p572
VShell Bell
p573
sVminus
p574
VMinus
p575
sVmeowth
p576
VMeowth
p577
sVprankster
p578
VPrankster
p579
sVwacanberry
p580
VWacan Berry
p581
sVsylveon
p582
VSylveon
p583
sVpayapaberry
p584
VPayapa Berry
p585
sVclosecombat
p586
VClose Combat
p587
sVsilvallydark
p588
VSilvally-Dark
p589
sVmetalclaw
p590
VMetal Claw
p591
sVseel
p592
VSeel
p593
sVblastoise
p594
VBlastoise
p595
sVstrength
p596
VStrength
p597
sVchingling
p598
VChingling
p599
sVgothita
p600
VGothita
p601
sVyungoos
p602
VYungoos
p603
sVcraftyshield
p604
VCrafty Shield
p605
sVgyroball
p606
VGyro Ball
p607
sVrhyperior
p608
VRhyperior
p609
sVgolbat
p610
VGolbat
p611
sVgrassyterrain
p612
VGrassy Terrain
p613
sVdeoxysspeed
p614
VDeoxys-Speed
p615
sVpikachucosplay
p616
VPikachu-Cosplay
p617
sVshadowforce
p618
VShadow Force
p619
sVcoil
p620
VCoil
p621
sVdrought
p622
VDrought
p623
sVfeint
p624
VFeint
p625
sVcosmicpower
p626
VCosmic Power
p627
sVempoleon
p628
VEmpoleon
p629
sVthousandwaves
p630
VThousand Waves
p631
sVdunsparce
p632
VDunsparce
p633
sVnincada
p634
VNincada
p635
sVconstrict
p636
VConstrict
p637
sVvileplume
p638
VVileplume
p639
sVraticate
p640
VRaticate
p641
sVcinccino
p642
VCinccino
p643
sVjirachi
p644
VJirachi
p645
sVgolduck
p646
VGolduck
p647
sVaurorabeam
p648
VAurora Beam
p649
sVarmorfossil
p650
VArmor Fossil
p651
sVstickyweb
p652
VSticky Web
p653
sVlycanrocdusk
p654
VLycanroc-Dusk
p655
sVtogekiss
p656
VTogekiss
p657
sVhippopotas
p658
VHippopotas
p659
sVdialga
p660
VDialga
p661
sVlastresort
p662
VLast Resort
p663
sVpsychicterrain
p664
VPsychic Terrain
p665
sVbulletpunch
p666
VBullet Punch
p667
sVicegem
p668
VIce Gem
p669
sVspite
p670
VSpite
p671
sVcarbink
p672
VCarbink
p673
sVwaterpulse
p674
VWater Pulse
p675
sVstoutland
p676
VStoutland
p677
sVgenesissupernova
p678
VGenesis Supernova
p679
sVbidoof
p680
VBidoof
p681
sVsyclant
p682
VSyclant
p683
sVhaunter
p684
VHaunter
p685
sVweedle
p686
VWeedle
p687
sVaerilate
p688
VAerilate
p689
sVhoneygather
p690
VHoney Gather
p691
sVmachop
p692
VMachop
p693
sVmetalpowder
p694
VMetal Powder
p695
sVguardianofalola
p696
VGuardian of Alola
p697
sVdusknoir
p698
VDusknoir
p699
sVmeditate
p700
VMeditate
p701
sVreversal
p702
VReversal
p703
sVlunardance
p704
VLunar Dance
p705
sVcaribolt
p706
VCaribolt
p707
sVpumpkaboosmall
p708
VPumpkaboo-Small
p709
sVtentacool
p710
VTentacool
p711
sVpokeball
p712
VPoke Ball
p713
sVsilvally
p714
VSilvally
p715
sVdiancie
p716
VDiancie
p717
sVplasmanta
p718
VPlasmanta
p719
sVnosepass
p720
VNosepass
p721
sVmawilite
p722
VMawilite
p723
sVlaxincense
p724
VLax Incense
p725
sVmagneton
p726
VMagneton
p727
sVstickyhold
p728
VSticky Hold
p729
sVbeatup
p730
VBeat Up
p731
sVleafblade
p732
VLeaf Blade
p733
sVfluffy
p734
VFluffy
p735
sVserperior
p736
VSerperior
p737
sVlopunnite
p738
VLopunnite
p739
sVwooper
p740
VWooper
p741
sVforretress
p742
VForretress
p743
sVmindreader
p744
VMind Reader
p745
sVseaincense
p746
VSea Incense
p747
sVsimisage
p748
VSimisage
p749
sVsolarblade
p750
VSolar Blade
p751
sVarcheops
p752
VArcheops
p753
sVheavymetal
p754
VHeavy Metal
p755
sVwormadamsandy
p756
VWormadam-Sandy
p757
sVpsychiumz
p758
VPsychium Z
p759
sVspiritshackle
p760
VSpirit Shackle
p761
sVcontinentalcrush
p762
VContinental Crush
p763
sVmuscleband
p764
VMuscle Band
p765
sVtwinkletackle
p766
VTwinkle Tackle
p767
sVmatblock
p768
VMat Block
p769
sVmoongeistbeam
p770
VMoongeist Beam
p771
sVdoduo
p772
VDoduo
p773
sVmuk
p774
VMuk
p775
sVnecrozmadawnwings
p776
VNecrozma-Dawn-Wings
p777
sVmotordrive
p778
VMotor Drive
p779
sVconfusion
p780
VConfusion
p781
sVslowpoke
p782
VSlowpoke
p783
sVfrostbreath
p784
VFrost Breath
p785
sVvirizion
p786
VVirizion
p787
sVspinda
p788
VSpinda
p789
sVcosmoem
p790
VCosmoem
p791
sVmeadowplate
p792
VMeadow Plate
p793
sVparasect
p794
VParasect
p795
sVgourgeistsmall
p796
VGourgeist-Small
p797
sVadamantorb
p798
VAdamant Orb
p799
sVprotect
p800
VProtect
p801
sVplaynice
p802
VPlay Nice
p803
sVsamurott
p804
VSamurott
p805
sVmenacingmoonrazemaelstrom
p806
VMenacing Moonraze Maelstrom
p807
sVreceiver
p808
VReceiver
p809
sVmawile
p810
VMawile
p811
sVchimecho
p812
VChimecho
p813
sVpetayaberry
p814
VPetaya Berry
p815
sVdoublade
p816
VDoublade
p817
sVsailfossil
p818
VSail Fossil
p819
sVdeltastream
p820
VDelta Stream
p821
sVluckychant
p822
VLucky Chant
p823
sVleppaberry
p824
VLeppa Berry
p825
sVlick
p826
VLick
p827
sVoblivious
p828
VOblivious
p829
sVfierydance
p830
VFiery Dance
p831
sVfloatzel
p832
VFloatzel
p833
sVsmackdown
p834
VSmack Down
p835
sVcopycat
p836
VCopycat
p837
sVsalamencite
p838
VSalamencite
p839
sVbuneary
p840
VBuneary
p841
sVrevelationdance
p842
VRevelation Dance
p843
sVshockdrive
p844
VShock Drive
p845
sVnightdaze
p846
VNight Daze
p847
sVfriendguard
p848
VFriend Guard
p849
sVscaryface
p850
VScary Face
p851
sVmarowakalolatotem
p852
VMarowak-Alola-Totem
p853
sVsteamroller
p854
VSteamroller
p855
sVsalazzle
p856
VSalazzle
p857
sVwimpout
p858
VWimp Out
p859
sVkakuna
p860
VKakuna
p861
sVpowertrick
p862
VPower Trick
p863
sVyanma
p864
VYanma
p865
sVsilvallyfire
p866
VSilvally-Fire
p867
sVchatot
p868
VChatot
p869
sVaciddownpour
p870
VAcid Downpour
p871
sVmarshtomp
p872
VMarshtomp
p873
sVgurdurr
p874
VGurdurr
p875
sVsoundproof
p876
VSoundproof
p877
sVslam
p878
VSlam
p879
sVthrash
p880
VThrash
p881
sVsandrush
p882
VSand Rush
p883
sVsliggoo
p884
VSliggoo
p885
sVtotodile
p886
VTotodile
p887
sVgarchompite
p888
VGarchompite
p889
sVslowbro
p890
VSlowbro
p891
sVprismaticlaser
p892
VPrismatic Laser
p893
sVnaganadel
p894
VNaganadel
p895
sValakazam
p896
VAlakazam
p897
sVbinacle
p898
VBinacle
p899
sVhitmonlee
p900
VHitmonlee
p901
sVmarowakalola
p902
VMarowak-Alola
p903
sVnevermeltice
p904
VNever-Melt Ice
p905
sVgrowl
p906
VGrowl
p907
sViciumz
p908
VIcium Z
p909
sVaguavberry
p910
VAguav Berry
p911
sVdrilbur
p912
VDrilbur
p913
sVcameruptite
p914
VCameruptite
p915
sVwhippeddream
p916
VWhipped Dream
p917
sVralts
p918
VRalts
p919
sVpupitar
p920
VPupitar
p921
sVkyurem
p922
VKyurem
p923
sVslowking
p924
VSlowking
p925
sVpowerherb
p926
VPower Herb
p927
sVnoivern
p928
VNoivern
p929
sVwaterfall
p930
VWaterfall
p931
sVdewgong
p932
VDewgong
p933
sVflyiniumz
p934
VFlyinium Z
p935
sVkirlia
p936
VKirlia
p937
sVknockoff
p938
VKnock Off
p939
sVoctazooka
p940
VOctazooka
p941
sVcawmodore
p942
VCawmodore
p943
sVpikachubelle
p944
VPikachu-Belle
p945
sVluxuryball
p946
VLuxury Ball
p947
sVhydration
p948
VHydration
p949
sVkrokorok
p950
VKrokorok
p951
sVamoonguss
p952
VAmoonguss
p953
sVsilvallygrass
p954
VSilvally-Grass
p955
sVquilladin
p956
VQuilladin
p957
sVshellarmor
p958
VShell Armor
p959
sVpoliwag
p960
VPoliwag
p961
sVslushrush
p962
VSlush Rush
p963
sVmetalcoat
p964
VMetal Coat
p965
sVthickclub
p966
VThick Club
p967
sVdugtrioalola
p968
VDugtrio-Alola
p969
sVdisguise
p970
VDisguise
p971
sVscizor
p972
VScizor
p973
sVfloetteeternal
p974
VFloette-Eternal
p975
sVkerfluffle
p976
VKerfluffle
p977
sVsilcoon
p978
VSilcoon
p979
sVbuggem
p980
VBug Gem
p981
sVdragonmemory
p982
VDragon Memory
p983
sVoshawott
p984
VOshawott
p985
sVtorterra
p986
VTorterra
p987
sVtogepi
p988
VTogepi
p989
sVdomefossil
p990
VDome Fossil
p991
sVadamant
p992
VAdamant
p993
sVlowkick
p994
VLow Kick
p995
sVhealbell
p996
VHeal Bell
p997
sVmirrorshot
p998
VMirror Shot
p999
sVtapufini
p1000
VTapu Fini
p1001
sVlickitung
p1002
VLickitung
p1003
sVpassimian
p1004
VPassimian
p1005
sVlatiosmega
p1006
VLatios-Mega
p1007
sVdragonrush
p1008
VDragon Rush
p1009
sVredorb
p1010
VRed Orb
p1011
sVspinarak
p1012
VSpinarak
p1013
sVdiggersby
p1014
VDiggersby
p1015
sVsilverwind
p1016
VSilver Wind
p1017
sVpaleowave
p1018
VPaleo Wave
p1019
sVludicolo
p1020
VLudicolo
p1021
sVditto
p1022
VDitto
p1023
sVcirclethrow
p1024
VCircle Throw
p1025
sVfullmetalbody
p1026
VFull Metal Body
p1027
sValloutpummeling
p1028
VAll-Out Pummeling
p1029
sVinfernooverdrive
p1030
VInferno Overdrive
p1031
sVthunderstone
p1032
VThunder Stone
p1033
sVhiddenpowerpoison
p1034
VHidden Power Poison
p1035
sVflatter
p1036
VFlatter
p1037
sVtoxicspikes
p1038
VToxic Spikes
p1039
sVfirepledge
p1040
VFire Pledge
p1041
sVnoctowl
p1042
VNoctowl
p1043
sVcornnberry
p1044
VCornn Berry
p1045
sVskullfossil
p1046
VSkull Fossil
p1047
sVcheekpouch
p1048
VCheek Pouch
p1049
sVuproar
p1050
VUproar
p1051
sVgoldberry
p1052
VGold Berry
p1053
sVferrothorn
p1054
VFerrothorn
p1055
sVexpertbelt
p1056
VExpert Belt
p1057
sVholdhands
p1058
VHold Hands
p1059
sVpikachustarter
p1060
VPikachu-Starter
p1061
sVcrosschop
p1062
VCross Chop
p1063
sVpsyshock
p1064
VPsyshock
p1065
sVicyrock
p1066
VIcy Rock
p1067
sVsoulheart
p1068
VSoul-Heart
p1069
sVtrevenant
p1070
VTrevenant
p1071
sVabsorbbulb
p1072
VAbsorb Bulb
p1073
sVbold
p1074
VBold
p1075
sVgunkshot
p1076
VGunk Shot
p1077
sVmagearna
p1078
VMagearna
p1079
sVarceusfire
p1080
VArceus-Fire
p1081
sVgarchomp
p1082
VGarchomp
p1083
sVgeodude
p1084
VGeodude
p1085
sVlightscreen
p1086
VLight Screen
p1087
sVwhimsicott
p1088
VWhimsicott
p1089
sVlavaplume
p1090
VLava Plume
p1091
sVkeeneye
p1092
VKeen Eye
p1093
sVsimipour
p1094
VSimipour
p1095
sVtrumbeak
p1096
VTrumbeak
p1097
sVautotomize
p1098
VAutotomize
p1099
sVspikecannon
p1100
VSpike Cannon
p1101
sVnecturna
p1102
VNecturna
p1103
sVplus
p1104
VPlus
p1105
sVnidoqueen
p1106
VNidoqueen
p1107
sVsapsipper
p1108
VSap Sipper
p1109
sVpikachulibre
p1110
VPikachu-Libre
p1111
sVthunderpunch
p1112
VThunder Punch
p1113
sVhornleech
p1114
VHorn Leech
p1115
sVbraixen
p1116
VBraixen
p1117
sVdarkvoid
p1118
VDark Void
p1119
sVsupersonicskystrike
p1120
VSupersonic Skystrike
p1121
sVhoundour
p1122
VHoundour
p1123
sVdualchop
p1124
VDual Chop
p1125
sVpinsirmega
p1126
VPinsir-Mega
p1127
sVfoulplay
p1128
VFoul Play
p1129
sVscyther
p1130
VScyther
p1131
sVgalewings
p1132
VGale Wings
p1133
sVstormdrain
p1134
VStorm Drain
p1135
sVseadra
p1136
VSeadra
p1137
sVovergrow
p1138
VOvergrow
p1139
sVprismscale
p1140
VPrism Scale
p1141
sVbronzor
p1142
VBronzor
p1143
sVwrap
p1144
VWrap
p1145
sVrebble
p1146
VRebble
p1147
sVterrainextender
p1148
VTerrain Extender
p1149
sVcorsola
p1150
VCorsola
p1151
sVtransform
p1152
VTransform
p1153
sVklefki
p1154
VKlefki
p1155
sVrowapberry
p1156
VRowap Berry
p1157
sVquirky
p1158
VQuirky
p1159
sVquickattack
p1160
VQuick Attack
p1161
sVsynthesis
p1162
VSynthesis
p1163
sVmultiscale
p1164
VMultiscale
p1165
sVgroundgem
p1166
VGround Gem
p1167
sVreshiram
p1168
VReshiram
p1169
sVrocksmash
p1170
VRock Smash
p1171
sVvolttackle
p1172
VVolt Tackle
p1173
sVghostgem
p1174
VGhost Gem
p1175
sVleafage
p1176
VLeafage
p1177
sVroughskin
p1178
VRough Skin
p1179
sVsafeguard
p1180
VSafeguard
p1181
sVsmoothrock
p1182
VSmooth Rock
p1183
sVcosmog
p1184
VCosmog
p1185
sVgearup
p1186
VGear Up
p1187
sVbide
p1188
VBide
p1189
sVaurabreak
p1190
VAura Break
p1191
sVaurorus
p1192
VAurorus
p1193
sVlightofruin
p1194
VLight of Ruin
p1195
sVstokedsparksurfer
p1196
VStoked Sparksurfer
p1197
sVholdback
p1198
VHold Back
p1199
sVpoweruppunch
p1200
VPower-Up Punch
p1201
sVunnerve
p1202
VUnnerve
p1203
sVparentalbond
p1204
VParental Bond
p1205
sVlunaliumz
p1206
VLunalium Z
p1207
sVferaligatr
p1208
VFeraligatr
p1209
sVpokestarbrycenman
p1210
VPokestar Brycen-Man
p1211
sVoddish
p1212
VOddish
p1213
sVleer
p1214
VLeer
p1215
sVmagby
p1216
VMagby
p1217
sVtypenull
p1218
VType: Null
p1219
sVswadloon
p1220
VSwadloon
p1221
sVvibrava
p1222
VVibrava
p1223
sVuxie
p1224
VUxie
p1225
sVsmoochum
p1226
VSmoochum
p1227
sVlansatberry
p1228
VLansat Berry
p1229
sVbutterfree
p1230
VButterfree
p1231
sVferroseed
p1232
VFerroseed
p1233
sVgoomy
p1234
VGoomy
p1235
sVamaura
p1236
VAmaura
p1237
sVminiormeteor
p1238
VMinior-Meteor
p1239
sVclawfossil
p1240
VClaw Fossil
p1241
sVdischarge
p1242
VDischarge
p1243
sVkyogre
p1244
VKyogre
p1245
sVstrengthsap
p1246
VStrength Sap
p1247
sVpoisonpoint
p1248
VPoison Point
p1249
sVmelmetal
p1250
VMelmetal
p1251
sVhiddenpowerground
p1252
VHidden Power Ground
p1253
sVarceuspoison
p1254
VArceus-Poison
p1255
sVliechiberry
p1256
VLiechi Berry
p1257
sVlillipup
p1258
VLillipup
p1259
sVsilvallyflying
p1260
VSilvally-Flying
p1261
sVspectralthief
p1262
VSpectral Thief
p1263
sVflareboost
p1264
VFlare Boost
p1265
sVmareep
p1266
VMareep
p1267
sVoccaberry
p1268
VOcca Berry
p1269
sVironfist
p1270
VIron Fist
p1271
sVserious
p1272
VSerious
p1273
sVmegadrain
p1274
VMega Drain
p1275
sVsalacberry
p1276
VSalac Berry
p1277
sVpolkadotbow
p1278
VPolkadot Bow
p1279
sVsnubbull
p1280
VSnubbull
p1281
sVsandveil
p1282
VSand Veil
p1283
sVabsolite
p1284
VAbsolite
p1285
sVbonsly
p1286
VBonsly
p1287
sVnecrozma
p1288
VNecrozma
p1289
sVcelebi
p1290
VCelebi
p1291
sVavalanche
p1292
VAvalanche
p1293
sVshadowsneak
p1294
VShadow Sneak
p1295
sVsuctioncups
p1296
VSuction Cups
p1297
sVwaterbubble
p1298
VWater Bubble
p1299
sVsuperpower
p1300
VSuperpower
p1301
sVchinchou
p1302
VChinchou
p1303
sVanticipation
p1304
VAnticipation
p1305
sVweezing
p1306
VWeezing
p1307
sVdragonpulse
p1308
VDragon Pulse
p1309
sVelectroball
p1310
VElectro Ball
p1311
sVflash
p1312
VFlash
p1313
sVnetball
p1314
VNet Ball
p1315
sVcharge
p1316
VCharge
p1317
sVquash
p1318
VQuash
p1319
sVsnorlax
p1320
VSnorlax
p1321
sVblackholeeclipse
p1322
VBlack Hole Eclipse
p1323
sVunburden
p1324
VUnburden
p1325
sVrufflet
p1326
VRufflet
p1327
sVmachamp
p1328
VMachamp
p1329
sVkricketune
p1330
VKricketune
p1331
sVtailslap
p1332
VTail Slap
p1333
sVchilanberry
p1334
VChilan Berry
p1335
sVlopunny
p1336
VLopunny
p1337
sVtoxicplate
p1338
VToxic Plate
p1339
sVtoucannon
p1340
VToucannon
p1341
sVpikachualola
p1342
VPikachu-Alola
p1343
sVsplinteredstormshards
p1344
VSplintered Stormshards
p1345
sVskyuppercut
p1346
VSky Uppercut
p1347
sVmimejr
p1348
VMime Jr.
p1349
sVguzzlord
p1350
VGuzzlord
p1351
sVpoisonsting
p1352
VPoison Sting
p1353
sVdig
p1354
VDig
p1355
sVfocusblast
p1356
VFocus Blast
p1357
sVmesprit
p1358
VMesprit
p1359
sVmagnet
p1360
VMagnet
p1361
sVbanettemega
p1362
VBanette-Mega
p1363
sVround
p1364
VRound
p1365
sVunaware
p1366
VUnaware
p1367
sVduskball
p1368
VDusk Ball
p1369
sVfalseswipe
p1370
VFalse Swipe
p1371
sVtalonflame
p1372
VTalonflame
p1373
sVleafeon
p1374
VLeafeon
p1375
sVpokestarufopropu2
p1376
VPokestar UFO-PropU2
p1377
sVveeveevolley
p1378
VVeevee Volley
p1379
sVminior
p1380
VMinior
p1381
sVzorua
p1382
VZorua
p1383
sVfairymemory
p1384
VFairy Memory
p1385
sVvitalthrow
p1386
VVital Throw
p1387
sVsubstitute
p1388
VSubstitute
p1389
sVcurse
p1390
VCurse
p1391
sVfocusband
p1392
VFocus Band
p1393
sVmoltres
p1394
VMoltres
p1395
sVpasshoberry
p1396
VPassho Berry
p1397
sVtanglinghair
p1398
VTangling Hair
p1399
sVdragondance
p1400
VDragon Dance
p1401
sVaxew
p1402
VAxew
p1403
sVgolemalola
p1404
VGolem-Alola
p1405
sVkecleon
p1406
VKecleon
p1407
sVglameow
p1408
VGlameow
p1409
sVaeroblast
p1410
VAeroblast
p1411
sVwartortle
p1412
VWartortle
p1413
sVexplosion
p1414
VExplosion
p1415
sVmiracleeye
p1416
VMiracle Eye
p1417
sVpumpkaboo
p1418
VPumpkaboo
p1419
sVsimisear
p1420
VSimisear
p1421
sVhoopa
p1422
VHoopa
p1423
sVtropius
p1424
VTropius
p1425
sVgroundmemory
p1426
VGround Memory
p1427
sVmysticwater
p1428
VMystic Water
p1429
sVearthquake
p1430
VEarthquake
p1431
sVgastroacid
p1432
VGastro Acid
p1433
sVejectbutton
p1434
VEject Button
p1435
sVbeedrillmega
p1436
VBeedrill-Mega
p1437
sVexploud
p1438
VExploud
p1439
sVglitzyglow
p1440
VGlitzy Glow
p1441
sVaraquanidtotem
p1442
VAraquanid-Totem
p1443
sVdiveball
p1444
VDive Ball
p1445
sVsawk
p1446
VSawk
p1447
sVsandygast
p1448
VSandygast
p1449
sVdedenne
p1450
VDedenne
p1451
sVdragonite
p1452
VDragonite
p1453
sVbagon
p1454
VBagon
p1455
sVregenerator
p1456
VRegenerator
p1457
sViondeluge
p1458
VIon Deluge
p1459
sVlarvesta
p1460
VLarvesta
p1461
sVmudslap
p1462
VMud-Slap
p1463
sVhawlucha
p1464
VHawlucha
p1465
sVmagicroom
p1466
VMagic Room
p1467
sVampharosite
p1468
VAmpharosite
p1469
sVdesolateland
p1470
VDesolate Land
p1471
sVpinsirite
p1472
VPinsirite
p1473
sVheavyslam
p1474
VHeavy Slam
p1475
sVpinmissile
p1476
VPin Missile
p1477
sVkyogreprimal
p1478
VKyogre-Primal
p1479
sVbanefulbunker
p1480
VBaneful Bunker
p1481
sVtakedown
p1482
VTake Down
p1483
sVcaptivate
p1484
VCaptivate
p1485
sVflamecharge
p1486
VFlame Charge
p1487
sVswagger
p1488
VSwagger
p1489
sVxatu
p1490
VXatu
p1491
sVrockslide
p1492
VRock Slide
p1493
sVcaterpie
p1494
VCaterpie
p1495
sVhypno
p1496
VHypno
p1497
sVscratchet
p1498
VScratchet
p1499
sVelectrike
p1500
VElectrike
p1501
sVfletchling
p1502
VFletchling
p1503
sVseismictoss
p1504
VSeismic Toss
p1505
sVfly
p1506
VFly
p1507
sVuturn
p1508
VU-turn
p1509
sVflygon
p1510
VFlygon
p1511
sVsandstorm
p1512
VSandstorm
p1513
sVswampertite
p1514
VSwampertite
p1515
sVswablu
p1516
VSwablu
p1517
sVcatastropika
p1518
VCatastropika
p1519
sVspikyshield
p1520
VSpiky Shield
p1521
sVscolipede
p1522
VScolipede
p1523
sVdwebble
p1524
VDwebble
p1525
sVpignite
p1526
VPignite
p1527
sVsolarpower
p1528
VSolar Power
p1529
sVvespiquen
p1530
VVespiquen
p1531
sVpalpitoad
p1532
VPalpitoad
p1533
sVchilldrive
p1534
VChill Drive
p1535
sVnormalize
p1536
VNormalize
p1537
sVbanette
p1538
VBanette
p1539
sVtearfullook
p1540
VTearful Look
p1541
sVtailwind
p1542
VTailwind
p1543
sVdianciemega
p1544
VDiancie-Mega
p1545
sVwideguard
p1546
VWide Guard
p1547
sVeelektrik
p1548
VEelektrik
p1549
sVlightthatburnsthesky
p1550
VLight That Burns the Sky
p1551
sVsandforce
p1552
VSand Force
p1553
sVdarkestlariat
p1554
VDarkest Lariat
p1555
sVpowerbelt
p1556
VPower Belt
p1557
sVelectricterrain
p1558
VElectric Terrain
p1559
sVoctillery
p1560
VOctillery
p1561
sVselfdestruct
p1562
VSelf-Destruct
p1563
sVstantler
p1564
VStantler
p1565
sVeeveestarter
p1566
VEevee-Starter
p1567
sVdive
p1568
VDive
p1569
sVarmaldo
p1570
VArmaldo
p1571
sVdarkmemory
p1572
VDark Memory
p1573
sVwiseglasses
p1574
VWise Glasses
p1575
sVmilkdrink
p1576
VMilk Drink
p1577
sVpowerwhip
p1578
VPower Whip
p1579
sVancientpower
p1580
VAncient Power
p1581
sVletssnuggleforever
p1582
VLet's Snuggle Forever
p1583
sVcryogonal
p1584
VCryogonal
p1585
sVsupersonic
p1586
VSupersonic
p1587
sVpsychicfangs
p1588
VPsychic Fangs
p1589
sVdelibird
p1590
VDelibird
p1591
sVelectricsurge
p1592
VElectric Surge
p1593
sVmalamar
p1594
VMalamar
p1595
sVpurify
p1596
VPurify
p1597
sVshinx
p1598
VShinx
p1599
sVclamperl
p1600
VClamperl
p1601
sVlitwick
p1602
VLitwick
p1603
sVslowbronite
p1604
VSlowbronite
p1605
sVriolu
p1606
VRiolu
p1607
sVlugia
p1608
VLugia
p1609
sVbulletseed
p1610
VBullet Seed
p1611
sVbubblebeam
p1612
VBubble Beam
p1613
sVpachirisu
p1614
VPachirisu
p1615
sVpoipole
p1616
VPoipole
p1617
sVtoxicthread
p1618
VToxic Thread
p1619
sVarcanine
p1620
VArcanine
p1621
sVsneasel
p1622
VSneasel
p1623
sVgrassknot
p1624
VGrass Knot
p1625
sVauroraveil
p1626
VAurora Veil
p1627
sVklutz
p1628
VKlutz
p1629
sVpokestarspirit
p1630
VPokestar Spirit
p1631
sVbulldoze
p1632
VBulldoze
p1633
sVfocusenergy
p1634
VFocus Energy
p1635
sVmimikyutotem
p1636
VMimikyu-Totem
p1637
sVprimordialsea
p1638
VPrimordial Sea
p1639
sVsnugglow
p1640
VSnugglow
p1641
sVkabuto
p1642
VKabuto
p1643
sVmail
p1644
VMail
p1645
sVfuryswipes
p1646
VFury Swipes
p1647
sVlonely
p1648
VLonely
p1649
sVfling
p1650
VFling
p1651
sVrattled
p1652
VRattled
p1653
sVinsomnia
p1654
VInsomnia
p1655
sVwatermemory
p1656
VWater Memory
p1657
sVfusionflare
p1658
VFusion Flare
p1659
sVsafariball
p1660
VSafari Ball
p1661
sVeffectspore
p1662
VEffect Spore
p1663
sVboomburst
p1664
VBoomburst
p1665
sVregice
p1666
VRegice
p1667
sVlinoone
p1668
VLinoone
p1669
sValtariamega
p1670
VAltaria-Mega
p1671
sVpowerconstruct
p1672
VPower Construct
p1673
sVsynchronize
p1674
VSynchronize
p1675
sVsilvallyghost
p1676
VSilvally-Ghost
p1677
sVmantine
p1678
VMantine
p1679
sVglalie
p1680
VGlalie
p1681
sVpsyduck
p1682
VPsyduck
p1683
sVmentalherb
p1684
VMental Herb
p1685
sVswalot
p1686
VSwalot
p1687
sVgenesectburn
p1688
VGenesect-Burn
p1689
sVporygonz
p1690
VPorygon-Z
p1691
sVstrugglebug
p1692
VStruggle Bug
p1693
sVpersian
p1694
VPersian
p1695
sVcorkscrewcrash
p1696
VCorkscrew Crash
p1697
sVsilvallybug
p1698
VSilvally-Bug
p1699
sVsinisterarrowraid
p1700
VSinister Arrow Raid
p1701
sVsandslashalola
p1702
VSandslash-Alola
p1703
sVlycanroc
p1704
VLycanroc
p1705
sVshaymin
p1706
VShaymin
p1707
sVpidove
p1708
VPidove
p1709
sVrockiumz
p1710
VRockium Z
p1711
sVskillswap
p1712
VSkill Swap
p1713
sVtorracat
p1714
VTorracat
p1715
sVassurance
p1716
VAssurance
p1717
sVpoochyena
p1718
VPoochyena
p1719
sVpokestarblackdoor
p1720
VPokestar Black Door
p1721
sVporygon2
p1722
VPorygon2
p1723
sVtoxicroak
p1724
VToxicroak
p1725
sVsteelwing
p1726
VSteel Wing
p1727
sVunown
p1728
VUnown
p1729
sVbitterberry
p1730
VBitter Berry
p1731
sVpoliwhirl
p1732
VPoliwhirl
p1733
sVpetilil
p1734
VPetilil
p1735
sVtelepathy
p1736
VTelepathy
p1737
sVstufful
p1738
VStufful
p1739
sVnidorino
p1740
VNidorino
p1741
sVmeloettapirouette
p1742
VMeloetta-Pirouette
p1743
sVnidorina
p1744
VNidorina
p1745
sVhypnosis
p1746
VHypnosis
p1747
sVdurinberry
p1748
VDurin Berry
p1749
sVdragonrage
p1750
VDragon Rage
p1751
sVjolteon
p1752
VJolteon
p1753
sVdefensecurl
p1754
VDefense Curl
p1755
sVnecturine
p1756
VNecturine
p1757
sVrocktomb
p1758
VRock Tomb
p1759
sVchikorita
p1760
VChikorita
p1761
sVrockyhelmet
p1762
VRocky Helmet
p1763
sVspewpa
p1764
VSpewpa
p1765
sVjabocaberry
p1766
VJaboca Berry
p1767
sVhoppip
p1768
VHoppip
p1769
sVleafstorm
p1770
VLeaf Storm
p1771
sVpalossand
p1772
VPalossand
p1773
sViceshard
p1774
VIce Shard
p1775
sVgiratina
p1776
VGiratina
p1777
sVteravolt
p1778
VTeravolt
p1779
sVbite
p1780
VBite
p1781
sVduosion
p1782
VDuosion
p1783
sVaromatherapy
p1784
VAromatherapy
p1785
sVsleeptalk
p1786
VSleep Talk
p1787
sVsappyseed
p1788
VSappy Seed
p1789
sVconfuseray
p1790
VConfuse Ray
p1791
sVdrainpunch
p1792
VDrain Punch
p1793
sVgliscor
p1794
VGliscor
p1795
sVseedot
p1796
VSeedot
p1797
sVsnatch
p1798
VSnatch
p1799
sVslakoth
p1800
VSlakoth
p1801
sVbunnelby
p1802
VBunnelby
p1803
sVdrapion
p1804
VDrapion
p1805
sVpeck
p1806
VPeck
p1807
sVchespin
p1808
VChespin
p1809
sVghostmemory
p1810
VGhost Memory
p1811
sVkartana
p1812
VKartana
p1813
sVearthplate
p1814
VEarth Plate
p1815
sVfloatyfall
p1816
VFloaty Fall
p1817
sVsalazzletotem
p1818
VSalazzle-Totem
p1819
sVgarbodor
p1820
VGarbodor
p1821
sVtrickortreat
p1822
VTrick-or-Treat
p1823
sVcubone
p1824
VCubone
p1825
sVhiddenpowerrock
p1826
VHidden Power Rock
p1827
sVrazzberry
p1828
VRazz Berry
p1829
sVchlorophyll
p1830
VChlorophyll
p1831
sVpluffle
p1832
VPluffle
p1833
sVsilvallyrock
p1834
VSilvally-Rock
p1835
sViceberry
p1836
VIce Berry
p1837
sVsandstream
p1838
VSand Stream
p1839
sVledyba
p1840
VLedyba
p1841
sVaquatail
p1842
VAqua Tail
p1843
sVarceusdark
p1844
VArceus-Dark
p1845
sVkrilowatt
p1846
VKrilowatt
p1847
sVrecover
p1848
VRecover
p1849
sVflyingmemory
p1850
VFlying Memory
p1851
sVconversion
p1852
VConversion
p1853
sVelectrode
p1854
VElectrode
p1855
sVreckless
p1856
VReckless
p1857
sVhiddenpowerdark
p1858
VHidden Power Dark
p1859
sVmetalsound
p1860
VMetal Sound
p1861
sVarghonaut
p1862
VArghonaut
p1863
sVbeedrill
p1864
VBeedrill
p1865
sVsurf
p1866
VSurf
p1867
sVgriseousorb
p1868
VGriseous Orb
p1869
sVneverendingnightmare
p1870
VNever-Ending Nightmare
p1871
sVmountaineer
p1872
VMountaineer
p1873
sVstunky
p1874
VStunky
p1875
sVtrace
p1876
VTrace
p1877
sVquagsire
p1878
VQuagsire
p1879
sVgeargrind
p1880
VGear Grind
p1881
sVdarkrai
p1882
VDarkrai
p1883
sVbarrage
p1884
VBarrage
p1885
sVbonemerang
p1886
VBonemerang
p1887
sVultranecroziumz
p1888
VUltranecrozium Z
p1889
sVstunfisk
p1890
VStunfisk
p1891
sVadaptability
p1892
VAdaptability
p1893
sVespurr
p1894
VEspurr
p1895
sVleaftornado
p1896
VLeaf Tornado
p1897
sVhyperfang
p1898
VHyper Fang
p1899
sVdracoplate
p1900
VDraco Plate
p1901
sVhyperspacefury
p1902
VHyperspace Fury
p1903
sVelectirizer
p1904
VElectirizer
p1905
sVmollux
p1906
VMollux
p1907
sVmuddywater
p1908
VMuddy Water
p1909
sVmothim
p1910
VMothim
p1911
sVcompoundeyes
p1912
VCompound Eyes
p1913
sVdelphox
p1914
VDelphox
p1915
sVbrattler
p1916
VBrattler
p1917
sVhakamoo
p1918
VHakamo-o
p1919
sVtintedlens
p1920
VTinted Lens
p1921
sVgolurk
p1922
VGolurk
p1923
sVfigyberry
p1924
VFigy Berry
p1925
sVgoodra
p1926
VGoodra
p1927
sVrevenankh
p1928
VRevenankh
p1929
sVvolbeat
p1930
VVolbeat
p1931
sVpulverizingpancake
p1932
VPulverizing Pancake
p1933
sVemergencyexit
p1934
VEmergency Exit
p1935
sVupgrade
p1936
VUp-Grade
p1937
sVburndrive
p1938
VBurn Drive
p1939
sVpartingshot
p1940
VParting Shot
p1941
sVpatrat
p1942
VPatrat
p1943
sVacupressure
p1944
VAcupressure
p1945
sVanalytic
p1946
VAnalytic
p1947
sVsilvallysteel
p1948
VSilvally-Steel
p1949
sVprobopass
p1950
VProbopass
p1951
sVoutrage
p1952
VOutrage
p1953
sVleavanny
p1954
VLeavanny
p1955
sVlycanrocmidnight
p1956
VLycanroc-Midnight
p1957
sVkinesis
p1958
VKinesis
p1959
sVweaknesspolicy
p1960
VWeakness Policy
p1961
sVstomp
p1962
VStomp
p1963
sVpersianalola
p1964
VPersian-Alola
p1965
sVmimikiumz
p1966
VMimikium Z
p1967
sVboneclub
p1968
VBone Club
p1969
sVtelekinesis
p1970
VTelekinesis
p1971
sVmoxie
p1972
VMoxie
p1973
sVcelebrate
p1974
VCelebrate
p1975
sVshuppet
p1976
VShuppet
p1977
sVparkball
p1978
VPark Ball
p1979
sVzeraora
p1980
VZeraora
p1981
sVcupra
p1982
VCupra
p1983
sVlatiasite
p1984
VLatiasite
p1985
sVcrucibelle
p1986
VCrucibelle
p1987
sVwonderskin
p1988
VWonder Skin
p1989
sVhiddenpowerfighting
p1990
VHidden Power Fighting
p1991
sVimposter
p1992
VImposter
p1993
sVspore
p1994
VSpore
p1995
sVnecrozmaultra
p1996
VNecrozma-Ultra
p1997
sVkommoniumz
p1998
VKommonium Z
p1999
sVforesight
p2000
VForesight
p2001
sVfirestone
p2002
VFire Stone
p2003
sVdetect
p2004
VDetect
p2005
sVsteadfast
p2006
VSteadfast
p2007
sVlimber
p2008
VLimber
p2009
sVbatonpass
p2010
VBaton Pass
p2011
sVbeakblast
p2012
VBeak Blast
p2013
sVforecast
p2014
VForecast
p2015
sVwhiscash
p2016
VWhiscash
p2017
sVsnowwarning
p2018
VSnow Warning
p2019
sVjustified
p2020
VJustified
p2021
sVghostiumz
p2022
VGhostium Z
p2023
sVdamprock
p2024
VDamp Rock
p2025
sVhariyama
p2026
VHariyama
p2027
sVcrawdaunt
p2028
VCrawdaunt
p2029
sVpluck
p2030
VPluck
p2031
sVfuryattack
p2032
VFury Attack
p2033
sVroseincense
p2034
VRose Incense
p2035
sVspiderweb
p2036
VSpider Web
p2037
sVbrutalswing
p2038
VBrutal Swing
p2039
sVdestinyknot
p2040
VDestiny Knot
p2041
sVluminousmoss
p2042
VLuminous Moss
p2043
sVvivillonpokeball
p2044
VVivillon-Pokeball
p2045
sVpoisonmemory
p2046
VPoison Memory
p2047
sVsteelix
p2048
VSteelix
p2049
sVnestball
p2050
VNest Ball
p2051
sVberry
p2052
VBerry
p2053
sVcellbattery
p2054
VCell Battery
p2055
sVpheromosa
p2056
VPheromosa
p2057
sVwingattack
p2058
VWing Attack
p2059
sVnormalgem
p2060
VNormal Gem
p2061
sVsmartstrike
p2062
VSmart Strike
p2063
sVhiddenpowersteel
p2064
VHidden Power Steel
p2065
sVtyranitarite
p2066
VTyranitarite
p2067
sVdodrio
p2068
VDodrio
p2069
sVtapubulu
p2070
VTapu Bulu
p2071
sVstancechange
p2072
VStance Change
p2073
sVzapdos
p2074
VZapdos
p2075
sVendeavor
p2076
VEndeavor
p2077
sVechoedvoice
p2078
VEchoed Voice
p2079
sVrunaway
p2080
VRun Away
p2081
sVlandswrath
p2082
VLand's Wrath
p2083
sVmawilemega
p2084
VMawile-Mega
p2085
sVdewpider
p2086
VDewpider
p2087
sVlightmetal
p2088
VLight Metal
p2089
sVburntberry
p2090
VBurnt Berry
p2091
sVstunspore
p2092
VStun Spore
p2093
sVxerneas
p2094
VXerneas
p2095
sVchopleberry
p2096
VChople Berry
p2097
sVhighjumpkick
p2098
VHigh Jump Kick
p2099
sVpokestarsmeargle
p2100
VPokestar Smeargle
p2101
sVheatrock
p2102
VHeat Rock
p2103
sVlopunnymega
p2104
VLopunny-Mega
p2105
sVwhirlipede
p2106
VWhirlipede
p2107
sVflamebody
p2108
VFlame Body
p2109
sVhelioptile
p2110
VHelioptile
p2111
sVcresselia
p2112
VCresselia
p2113
sVvictreebel
p2114
VVictreebel
p2115
sVomanyte
p2116
VOmanyte
p2117
sVbreloom
p2118
VBreloom
p2119
sVstormthrow
p2120
VStorm Throw
p2121
sVhealblock
p2122
VHeal Block
p2123
sVswanna
p2124
VSwanna
p2125
sVskiddo
p2126
VSkiddo
p2127
sVcareful
p2128
VCareful
p2129
sVmudshot
p2130
VMud Shot
p2131
sVclangoroussoulblaze
p2132
VClangorous Soulblaze
p2133
sVdryskin
p2134
VDry Skin
p2135
sVsteelworker
p2136
VSteelworker
p2137
sVdefeatist
p2138
VDefeatist
p2139
sVbugmemory
p2140
VBug Memory
p2141
sVtrick
p2142
VTrick
p2143
sVlandorus
p2144
VLandorus
p2145
sVgroudon
p2146
VGroudon
p2147
sVspotlight
p2148
VSpotlight
p2149
sVrhyhorn
p2150
VRhyhorn
p2151
sVquiet
p2152
VQuiet
p2153
sVshadowclaw
p2154
VShadow Claw
p2155
sVsacredfire
p2156
VSacred Fire
p2157
sVmonferno
p2158
VMonferno
p2159
sVvicegrip
p2160
VVice Grip
p2161
sVgourgeistlarge
p2162
VGourgeist-Large
p2163
sVcubchoo
p2164
VCubchoo
p2165
sVprimariumz
p2166
VPrimarium Z
p2167
sVhiddenpowerice
p2168
VHidden Power Ice
p2169
sVextremespeed
p2170
VExtreme Speed
p2171
sVangerpoint
p2172
VAnger Point
p2173
sVphantomforce
p2174
VPhantom Force
p2175
sVstrongjaw
p2176
VStrong Jaw
p2177
sVbrionne
p2178
VBrionne
p2179
sVkrookodile
p2180
VKrookodile
p2181
sVnuzzle
p2182
VNuzzle
p2183
sVmistysurge
p2184
VMisty Surge
p2185
sVgenesectshock
p2186
VGenesect-Shock
p2187
sVmagnetbomb
p2188
VMagnet Bomb
p2189
sVassist
p2190
VAssist
p2191
sVblaziken
p2192
VBlaziken
p2193
sVbulletproof
p2194
VBulletproof
p2195
sVsteelgem
p2196
VSteel Gem
p2197
sVpangoro
p2198
VPangoro
p2199
sVhypervoice
p2200
VHyper Voice
p2201
sVminimize
p2202
VMinimize
p2203
sVdoublehit
p2204
VDouble Hit
p2205
sVmedicham
p2206
VMedicham
p2207
sVmrmime
p2208
VMr. Mime
p2209
sVmasterball
p2210
VMaster Ball
p2211
sVspark
p2212
VSpark
p2213
sVdrampa
p2214
VDrampa
p2215
sVrazorwind
p2216
VRazor Wind
p2217
sVfurcoat
p2218
VFur Coat
p2219
sVhealingwish
p2220
VHealing Wish
p2221
sVquickguard
p2222
VQuick Guard
p2223
sVpowerband
p2224
VPower Band
p2225
sVwingull
p2226
VWingull
p2227
sVsnorliumz
p2228
VSnorlium Z
p2229
sVfurfrou
p2230
VFurfrou
p2231
sVchimchar
p2232
VChimchar
p2233
sVdarkaura
p2234
VDark Aura
p2235
sVrazorclaw
p2236
VRazor Claw
p2237
sVdragonbreath
p2238
VDragon Breath
p2239
sVsearingsunrazesmash
p2240
VSearing Sunraze Smash
p2241
sVelgyem
p2242
VElgyem
p2243
sVduskull
p2244
VDuskull
p2245
sVcometpunch
p2246
VComet Punch
p2247
sVaerialace
p2248
VAerial Ace
p2249
sVparas
p2250
VParas
p2251
sVrayquazamega
p2252
VRayquaza-Mega
p2253
sVflareblitz
p2254
VFlare Blitz
p2255
sVxurkitree
p2256
VXurkitree
p2257
sVtrubbish
p2258
VTrubbish
p2259
sVsnarl
p2260
VSnarl
p2261
sVmachpunch
p2262
VMach Punch
p2263
sVvolkraken
p2264
VVolkraken
p2265
sVsunkern
p2266
VSunkern
p2267
sVbreakneckblitz
p2268
VBreakneck Blitz
p2269
sVcolossoil
p2270
VColossoil
p2271
sVdreamball
p2272
VDream Ball
p2273
sVsnore
p2274
VSnore
p2275
sVfloatstone
p2276
VFloat Stone
p2277
sVskiploom
p2278
VSkiploom
p2279
sVregigigas
p2280
VRegigigas
p2281
sVzingzap
p2282
VZing Zap
p2283
sVvoltswitch
p2284
VVolt Switch
p2285
sVmeltan
p2286
VMeltan
p2287
sVarceusrock
p2288
VArceus-Rock
p2289
sVbrightpowder
p2290
VBright Powder
p2291
sVhypercutter
p2292
VHyper Cutter
p2293
sVvanillite
p2294
VVanillite
p2295
sVchoiceband
p2296
VChoice Band
p2297
sVheartswap
p2298
VHeart Swap
p2299
sVsubzeroslammer
p2300
VSubzero Slammer
p2301
sVheatcrash
p2302
VHeat Crash
p2303
sVpinapberry
p2304
VPinap Berry
p2305
sVminccino
p2306
VMinccino
p2307
sVbellsprout
p2308
VBellsprout
p2309
sVprinplup
p2310
VPrinplup
p2311
sVaudinomega
p2312
VAudino-Mega
p2313
sVmachoke
p2314
VMachoke
p2315
sVultraball
p2316
VUltra Ball
p2317
sVcrustle
p2318
VCrustle
p2319
sVpowergem
p2320
VPower Gem
p2321
sViceburn
p2322
VIce Burn
p2323
sVbattlearmor
p2324
VBattle Armor
p2325
sVvolcanion
p2326
VVolcanion
p2327
sVcastformsnowy
p2328
VCastform-Snowy
p2329
sVraticatealolatotem
p2330
VRaticate-Alola-Totem
p2331
sVhustle
p2332
VHustle
p2333
sVthroh
p2334
VThroh
p2335
sVmusharna
p2336
VMusharna
p2337
sVinnerfocus
p2338
VInner Focus
p2339
sVbasculinbluestriped
p2340
VBasculin-Blue-Striped
p2341
sVdragonhammer
p2342
VDragon Hammer
p2343
sVhornattack
p2344
VHorn Attack
p2345
sVcomfey
p2346
VComfey
p2347
sVzapcannon
p2348
VZap Cannon
p2349
sVroar
p2350
VRoar
p2351
sVlockon
p2352
VLock-On
p2353
sVfloette
p2354
VFloette
p2355
sVgengar
p2356
VGengar
p2357
sVroserade
p2358
VRoserade
p2359
sVaudino
p2360
VAudino
p2361
sVquilava
p2362
VQuilava
p2363
sVcustapberry
p2364
VCustap Berry
p2365
sVsearingshot
p2366
VSearing Shot
p2367
sVstratagem
p2368
VStratagem
p2369
sVpyroar
p2370
VPyroar
p2371
sVfennekin
p2372
VFennekin
p2373
sVshadowpunch
p2374
VShadow Punch
p2375
sVfocuspunch
p2376
VFocus Punch
p2377
sVbindingband
p2378
VBinding Band
p2379
sVtoughclaws
p2380
VTough Claws
p2381
sVforewarn
p2382
VForewarn
p2383
sViciclespear
p2384
VIcicle Spear
p2385
sVpyroak
p2386
VPyroak
p2387
sVgigalith
p2388
VGigalith
p2389
sVsurgesurfer
p2390
VSurge Surfer
p2391
sVhex
p2392
VHex
p2393
sVmarill
p2394
VMarill
p2395
sVprimarina
p2396
VPrimarina
p2397
sVsymbiosis
p2398
VSymbiosis
p2399
sVgalvanize
p2400
VGalvanize
p2401
sVwillowisp
p2402
VWill-O-Wisp
p2403
sVbubble
p2404
VBubble
p2405
sVfastball
p2406
VFast Ball
p2407
sVglaciate
p2408
VGlaciate
p2409
sVnightshade
p2410
VNight Shade
p2411
sVsizzlyslide
p2412
VSizzly Slide
p2413
sVfrogadier
p2414
VFrogadier
p2415
sVporygon
p2416
VPorygon
p2417
sVgripclaw
p2418
VGrip Claw
p2419
sVvitalspirit
p2420
VVital Spirit
p2421
sVcrabominable
p2422
VCrabominable
p2423
sVrage
p2424
VRage
p2425
sVsandshrewalola
p2426
VSandshrew-Alola
p2427
sVvictorystar
p2428
VVictory Star
p2429
sVvinewhip
p2430
VVine Whip
p2431
sVstoneplate
p2432
VStone Plate
p2433
sVember
p2434
VEmber
p2435
sVsplashplate
p2436
VSplash Plate
p2437
sVpowdersnow
p2438
VPowder Snow
p2439
sVrockruff
p2440
VRockruff
p2441
sVchesnaught
p2442
VChesnaught
p2443
sVgrepaberry
p2444
VGrepa Berry
p2445
sVrhydon
p2446
VRhydon
p2447
sVsmokescreen
p2448
VSmokescreen
p2449
sVmoonblast
p2450
VMoonblast
p2451
sVcolburberry
p2452
VColbur Berry
p2453
sVsilvallydragon
p2454
VSilvally-Dragon
p2455
sVhydrovortex
p2456
VHydro Vortex
p2457
sVsoulstealing7starstrike
p2458
VSoul-Stealing 7-Star Strike
p2459
sVimmunity
p2460
VImmunity
p2461
sVtangela
p2462
VTangela
p2463
sVcharizard
p2464
VCharizard
p2465
sVgolem
p2466
VGolem
p2467
sVstompingtantrum
p2468
VStomping Tantrum
p2469
sVmirrorcoat
p2470
VMirror Coat
p2471
sVemboar
p2472
VEmboar
p2473
sVdustox
p2474
VDustox
p2475
sVrootfossil
p2476
VRoot Fossil
p2477
sVzigzagoon
p2478
VZigzagoon
p2479
sVtackle
p2480
VTackle
p2481
sVpopplio
p2482
VPopplio
p2483
sVrotomwash
p2484
VRotom-Wash
p2485
sVgrudge
p2486
VGrudge
p2487
sVcyndaquil
p2488
VCyndaquil
p2489
sVblueflare
p2490
VBlue Flare
p2491
sVdefog
p2492
VDefog
p2493
sVberserkgene
p2494
VBerserk Gene
p2495
sVskyattack
p2496
VSky Attack
p2497
sVmoonlight
p2498
VMoonlight
p2499
sVmimic
p2500
VMimic
p2501
sVstockpile
p2502
VStockpile
p2503
sVoddincense
p2504
VOdd Incense
p2505
sVmeloetta
p2506
VMeloetta
p2507
sVgardevoirmega
p2508
VGardevoir-Mega
p2509
sVlairon
p2510
VLairon
p2511
sVeerieimpulse
p2512
VEerie Impulse
p2513
sVscrappy
p2514
VScrappy
p2515
sVtogetic
p2516
VTogetic
p2517
sVfirepunch
p2518
VFire Punch
p2519
sVunfezant
p2520
VUnfezant
p2521
sVmicleberry
p2522
VMicle Berry
p2523
sVjolly
p2524
VJolly
p2525
sVsalandit
p2526
VSalandit
p2527
sVbewear
p2528
VBewear
p2529
sVlightningrod
p2530
VLightning Rod
p2531
sVgigadrain
p2532
VGiga Drain
p2533
sVsilverpowder
p2534
VSilverPowder
p2535
sVvanillish
p2536
VVanillish
p2537
sVvenomdrench
p2538
VVenom Drench
p2539
sVbayleef
p2540
VBayleef
p2541
sVhondewberry
p2542
VHondew Berry
p2543
sVbloomdoom
p2544
VBloom Doom
p2545
sVtympole
p2546
VTympole
p2547
sVplasmafists
p2548
VPlasma Fists
p2549
sVtyranitarmega
p2550
VTyranitar-Mega
p2551
sVicepunch
p2552
VIce Punch
p2553
sVgalvantula
p2554
VGalvantula
p2555
sVshinystone
p2556
VShiny Stone
p2557
sVcombusken
p2558
VCombusken
p2559
sVcloudnine
p2560
VCloud Nine
p2561
sVmienshao
p2562
VMienshao
p2563
sVkeeberry
p2564
VKee Berry
p2565
sVsteameruption
p2566
VSteam Eruption
p2567
sVmild
p2568
VMild
p2569
sVscrafty
p2570
VScrafty
p2571
sVnoability
p2572
VNo Ability
p2573
sVsecretpower
p2574
VSecret Power
p2575
sVshadowtag
p2576
VShadow Tag
p2577
sVpidgeotmega
p2578
VPidgeot-Mega
p2579
sVmagearnaoriginal
p2580
VMagearna-Original
p2581
sVdoublekick
p2582
VDouble Kick
p2583
sVsandtomb
p2584
VSand Tomb
p2585
sVflorges
p2586
VFlorges
p2587
sVgourgeistsuper
p2588
VGourgeist-Super
p2589
sVironbarbs
p2590
VIron Barbs
p2591
sValtaria
p2592
VAltaria
p2593
sVcrushgrip
p2594
VCrush Grip
p2595
sVmagikarp
p2596
VMagikarp
p2597
sVseedbomb
p2598
VSeed Bomb
p2599
sVmeganium
p2600
VMeganium
p2601
sVchipaway
p2602
VChip Away
p2603
sVhealer
p2604
VHealer
p2605
sVfeatherdance
p2606
VFeather Dance
p2607
sVshockwave
p2608
VShock Wave
p2609
sVironplate
p2610
VIron Plate
p2611
sVgreatball
p2612
VGreat Ball
p2613
sVfellstinger
p2614
VFell Stinger
p2615
sVwateriumz
p2616
VWaterium Z
p2617
sVfightiniumz
p2618
VFightinium Z
p2619
sVheartstamp
p2620
VHeart Stamp
p2621
sVboldore
p2622
VBoldore
p2623
sVcombee
p2624
VCombee
p2625
sVdragonfang
p2626
VDragon Fang
p2627
sVgastly
p2628
VGastly
p2629
sVrevenge
p2630
VRevenge
p2631
sVclearsmog
p2632
VClear Smog
p2633
sVsteenee
p2634
VSteenee
p2635
sVvenusaurmega
p2636
VVenusaur-Mega
p2637
sVinfernape
p2638
VInfernape
p2639
sVdecidiumz
p2640
VDecidium Z
p2641
sVaromatisse
p2642
VAromatisse
p2643
sVbattlebond
p2644
VBattle Bond
p2645
sVkyuremwhite
p2646
VKyurem-White
p2647
sVpokestarhumanoid
p2648
VPokestar Humanoid
p2649
sVacidspray
p2650
VAcid Spray
p2651
sVcursedbody
p2652
VCursed Body
p2653
sVpowerbracer
p2654
VPower Bracer
p2655
sVwringout
p2656
VWring Out
p2657
sVstarly
p2658
VStarly
p2659
sVstruggle
p2660
VStruggle
p2661
sVgolett
p2662
VGolett
p2663
sVinciniumz
p2664
VIncinium Z
p2665
sVgyaradosmega
p2666
VGyarados-Mega
p2667
sVgallade
p2668
VGallade
p2669
sVoranguru
p2670
VOranguru
p2671
sVledian
p2672
VLedian
p2673
sVcutiefly
p2674
VCutiefly
p2675
sVscraggy
p2676
VScraggy
p2677
sVelectricseed
p2678
VElectric Seed
p2679
sVluvdisc
p2680
VLuvdisc
p2681
sVhelixfossil
p2682
VHelix Fossil
p2683
sVsavagespinout
p2684
VSavage Spin-Out
p2685
sVsplash
p2686
VSplash
p2687
sVillumise
p2688
VIllumise
p2689
sVcawdet
p2690
VCawdet
p2691
sVanorith
p2692
VAnorith
p2693
sVfairiumz
p2694
VFairium Z
p2695
sVdizzypunch
p2696
VDizzy Punch
p2697
sVflyingpress
p2698
VFlying Press
p2699
sVbounsweet
p2700
VBounsweet
p2701
sVpumpkaboosuper
p2702
VPumpkaboo-Super
p2703
sVhorsea
p2704
VHorsea
p2705
sVstick
p2706
VStick
p2707
sVrazorfang
p2708
VRazor Fang
p2709
sVwatergem
p2710
VWater Gem
p2711
sVturboblaze
p2712
VTurboblaze
p2713
sVaegislashblade
p2714
VAegislash-Blade
p2715
sVnaturalgift
p2716
VNatural Gift
p2717
sVenergypowder
p2718
VEnergy Powder
p2719
sVchartiberry
p2720
VCharti Berry
p2721
sVlumberry
p2722
VLum Berry
p2723
sVvoltorb
p2724
VVoltorb
p2725
sVshadowshield
p2726
VShadow Shield
p2727
sVskyplate
p2728
VSky Plate
p2729
sVsableye
p2730
VSableye
p2731
sVseviper
p2732
VSeviper
p2733
sVmarvelscale
p2734
VMarvel Scale
p2735
sVaurumoth
p2736
VAurumoth
p2737
sVflowerveil
p2738
VFlower Veil
p2739
sVstaryu
p2740
VStaryu
p2741
sVwishiwashi
p2742
VWishiwashi
p2743
sVshelltrap
p2744
VShell Trap
p2745
sVwikiberry
p2746
VWiki Berry
p2747
sVwobbuffet
p2748
VWobbuffet
p2749
sVteleport
p2750
VTeleport
p2751
sVshelmet
p2752
VShelmet
p2753
sVkommoototem
p2754
VKommo-o-Totem
p2755
sVglalitite
p2756
VGlalitite
p2757
sVflyinggem
p2758
VFlying Gem
p2759
sVbulkup
p2760
VBulk Up
p2761
sVglaceon
p2762
VGlaceon
p2763
sVwonderguard
p2764
VWonder Guard
p2765
sVprismarmor
p2766
VPrism Armor
p2767
sVelectricgem
p2768
VElectric Gem
p2769
sVrotomfan
p2770
VRotom-Fan
p2771
sVsignalbeam
p2772
VSignal Beam
p2773
sVshuckle
p2774
VShuckle
p2775
sVjynx
p2776
VJynx
p2777
sVreflect
p2778
VReflect
p2779
sVdisable
p2780
VDisable
p2781
sVliquidooze
p2782
VLiquid Ooze
p2783
sVmistyterrain
p2784
VMisty Terrain
p2785
sVfairygem
p2786
VFairy Gem
p2787
sVmedichammega
p2788
VMedicham-Mega
p2789
sVtwistedspoon
p2790
VTwisted Spoon
p2791
sVlanturn
p2792
VLanturn
p2793
sVpineco
p2794
VPineco
p2795
sVcomatose
p2796
VComatose
p2797
sVretaliate
p2798
VRetaliate
p2799
sVphantump
p2800
VPhantump
p2801
sVgolisopod
p2802
VGolisopod
p2803
sVqueenlymajesty
p2804
VQueenly Majesty
p2805
sVcorphish
p2806
VCorphish
p2807
sVbastiodon
p2808
VBastiodon
p2809
sVwatmelberry
p2810
VWatmel Berry
p2811
sVarticuno
p2812
VArticuno
p2813
sVfissure
p2814
VFissure
p2815
sVvolcarona
p2816
VVolcarona
p2817
sVblackglasses
p2818
VBlack Glasses
p2819
sVplayrough
p2820
VPlay Rough
p2821
sVhealorder
p2822
VHeal Order
p2823
sVjigglypuff
p2824
VJigglypuff
p2825
sVsandslash
p2826
VSandslash
p2827
sVastonish
p2828
VAstonish
p2829
sVenergyball
p2830
VEnergy Ball
p2831
sVaggron
p2832
VAggron
p2833
sVlampent
p2834
VLampent
p2835
sVfistplate
p2836
VFist Plate
p2837
sVreturn
p2838
VReturn
p2839
sVmanectricmega
p2840
VManectric-Mega
p2841
sVsnowball
p2842
VSnowball
p2843
sVsolarbeam
p2844
VSolar Beam
p2845
sVcharizardmegax
p2846
VCharizard-Mega-X
p2847
sVcharizardmegay
p2848
VCharizard-Mega-Y
p2849
sVclefable
p2850
VClefable
p2851
sVpokestarmt
p2852
VPokestar MT
p2853
sVskuntank
p2854
VSkuntank
p2855
sVprimeape
p2856
VPrimeape
p2857
sVgabite
p2858
VGabite
p2859
sVgrubbin
p2860
VGrubbin
p2861
sVmanaphy
p2862
VManaphy
p2863
sVmissingno
p2864
VMissingno.
p2865
sVhooh
p2866
VHo-Oh
p2867
sVrefresh
p2868
VRefresh
p2869
sVspoink
p2870
VSpoink
p2871
sVlovelykiss
p2872
VLovely Kiss
p2873
sVmeanlook
p2874
VMean Look
p2875
sVgumshoos
p2876
VGumshoos
p2877
sVclamp
p2878
VClamp
p2879
sVtopsyturvy
p2880
VTopsy-Turvy
p2881
sVquickfeet
p2882
VQuick Feet
p2883
sVsilvallyelectric
p2884
VSilvally-Electric
p2885
sVwatershuriken
p2886
VWater Shuriken
p2887
sVtsareena
p2888
VTsareena
p2889
sVthunderbolt
p2890
VThunderbolt
p2891
sVmagnezone
p2892
VMagnezone
p2893
sVtrickroom
p2894
VTrick Room
p2895
sVmist
p2896
VMist
p2897
sVwatercompaction
p2898
VWater Compaction
p2899
sVhiddenpowerpsychic
p2900
VHidden Power Psychic
p2901
sVelectroweb
p2902
VElectroweb
p2903
sVkangaskhanmega
p2904
VKangaskhan-Mega
p2905
sVsalamence
p2906
VSalamence
p2907
sVarceuswater
p2908
VArceus-Water
p2909
sVarceusice
p2910
VArceus-Ice
p2911
sVsuperfang
p2912
VSuper Fang
p2913
sVsilvallyground
p2914
VSilvally-Ground
p2915
sVchoicescarf
p2916
VChoice Scarf
p2917
sVroggenrola
p2918
VRoggenrola
p2919
sVflashcannon
p2920
VFlash Cannon
p2921
sVironhead
p2922
VIron Head
p2923
sVsentret
p2924
VSentret
p2925
sVpichuspikyeared
p2926
VPichu-Spiky-eared
p2927
sVtyrogue
p2928
VTyrogue
p2929
sVcleffa
p2930
VCleffa
p2931
sVwaterabsorb
p2932
VWater Absorb
p2933
sVtoxicboost
p2934
VToxic Boost
p2935
sVninetales
p2936
VNinetales
p2937
sVnidoranf
p2938
VNidoran-F
p2939
sVcottonspore
p2940
VCotton Spore
p2941
sVnidoranm
p2942
VNidoran-M
p2943
sVparaboliccharge
p2944
VParabolic Charge
p2945
sVscopelens
p2946
VScope Lens
p2947
sVhydreigon
p2948
VHydreigon
p2949
sVrockpolish
p2950
VRock Polish
p2951
sVmightyena
p2952
VMightyena
p2953
sVabomasnowmega
p2954
VAbomasnow-Mega
p2955
sVsolganiumz
p2956
VSolganium Z
p2957
sVbrave
p2958
VBrave
p2959
sVstoredpower
p2960
VStored Power
p2961
sVapicotberry
p2962
VApicot Berry
p2963
sVpetaldance
p2964
VPetal Dance
p2965
sVmeowstic
p2966
VMeowstic
p2967
sVboltstrike
p2968
VBolt Strike
p2969
sVraikou
p2970
VRaikou
p2971
sVswarm
p2972
VSwarm
p2973
sVbibarel
p2974
VBibarel
p2975
sVpsncureberry
p2976
VPSN Cure Berry
p2977
sVdazzlinggleam
p2978
VDazzling Gleam
p2979
sVlandorustherian
p2980
VLandorus-Therian
p2981
sVshedinja
p2982
VShedinja
p2983
sVpikashuniumz
p2984
VPikashunium Z
p2985
sVpsybeam
p2986
VPsybeam
p2987
sVsuckerpunch
p2988
VSucker Punch
p2989
sVaspearberry
p2990
VAspear Berry
p2991
sVdragonascent
p2992
VDragon Ascent
p2993
sVfreezeshock
p2994
VFreeze Shock
p2995
sVpsywave
p2996
VPsywave
p2997
sVdrillrun
p2998
VDrill Run
p2999
sVwhiteherb
p3000
VWhite Herb
p3001
sVringtarget
p3002
VRing Target
p3003
sVvenipede
p3004
VVenipede
p3005
sVdarkpulse
p3006
VDark Pulse
p3007
sVyamask
p3008
VYamask
p3009
sVstall
p3010
VStall
p3011
sVsharpedonite
p3012
VSharpedonite
p3013
sVmerciless
p3014
VMerciless
p3015
sVdoubleedge
p3016
VDouble-Edge
p3017
sVremoraid
p3018
VRemoraid
p3019
sVclefairy
p3020
VClefairy
p3021
sVklink
p3022
VKlink
p3023
sVfirespin
p3024
VFire Spin
p3025
sVgenesectchill
p3026
VGenesect-Chill
p3027
sVsuicune
p3028
VSuicune
p3029
sVthundurustherian
p3030
VThundurus-Therian
p3031
sVpamtreberry
p3032
VPamtre Berry
p3033
sVmegahorn
p3034
VMegahorn
p3035
sVslowbromega
p3036
VSlowbro-Mega
p3037
sVzenmode
p3038
VZen Mode
p3039
sVsunflora
p3040
VSunflora
p3041
sVariados
p3042
VAriados
p3043
sVgourgeist
p3044
VGourgeist
p3045
sVbarbaracle
p3046
VBarbaracle
p3047
sVairballoon
p3048
VAir Balloon
p3049
sVswirlix
p3050
VSwirlix
p3051
sVlitleo
p3052
VLitleo
p3053
sVcamouflage
p3054
VCamouflage
p3055
sVfrillish
p3056
VFrillish
p3057
sVroselia
p3058
VRoselia
p3059
sVkangaskhan
p3060
VKangaskhan
p3061
sVregirock
p3062
VRegirock
p3063
sVpansage
p3064
VPansage
p3065
sVswitcheroo
p3066
VSwitcheroo
p3067
sValakazammega
p3068
VAlakazam-Mega
p3069
sVrockgem
p3070
VRock Gem
p3071
sVeruption
p3072
VEruption
p3073
sVyawn
p3074
VYawn
p3075
sVcharm
p3076
VCharm
p3077
sVdiglett
p3078
VDiglett
p3079
sVbeldum
p3080
VBeldum
p3081
sVhabanberry
p3082
VHaban Berry
p3083
sVcrosspoison
p3084
VCross Poison
p3085
sVcarvanha
p3086
VCarvanha
p3087
sVrefrigerate
p3088
VRefrigerate
p3089
sVlowsweep
p3090
VLow Sweep
p3091
sVsturdy
p3092
VSturdy
p3093
sVcovet
p3094
VCovet
p3095
sVlax
p3096
VLax
p3097
sVlunala
p3098
VLunala
p3099
sVmarshadiumz
p3100
VMarshadium Z
p3101
sVgenesectdouse
p3102
VGenesect-Douse
p3103
sVkaratechop
p3104
VKarate Chop
p3105
sVworryseed
p3106
VWorry Seed
p3107
sVazumarill
p3108
VAzumarill
p3109
sVmetalburst
p3110
VMetal Burst
p3111
sVherdier
p3112
VHerdier
p3113
sVguardsplit
p3114
VGuard Split
p3115
sVnanabberry
p3116
VNanab Berry
p3117
sVzoomlens
p3118
VZoom Lens
p3119
sVblackbelt
p3120
VBlack Belt
p3121
sVhammerarm
p3122
VHammer Arm
p3123
sVmagmaarmor
p3124
VMagma Armor
p3125
sVcrabrawler
p3126
VCrabrawler
p3127
sVpayday
p3128
VPay Day
p3129
sVgooey
p3130
VGooey
p3131
sVoblivionwing
p3132
VOblivion Wing
p3133
sVtyrantrum
p3134
VTyrantrum
p3135
sVhealpulse
p3136
VHeal Pulse
p3137
sVheadcharge
p3138
VHead Charge
p3139
sVpawniard
p3140
VPawniard
p3141
sVpoisontail
p3142
VPoison Tail
p3143
sVrest
p3144
VRest
p3145
sVdocile
p3146
VDocile
p3147
sVfireblast
p3148
VFire Blast
p3149
sVmaliciousmoonsault
p3150
VMalicious Moonsault
p3151
sVshroomish
p3152
VShroomish
p3153
sVlitten
p3154
VLitten
p3155
sVwhismur
p3156
VWhismur
p3157
sVspikes
p3158
VSpikes
p3159
sVshadowstrike
p3160
VShadow Strike
p3161
sVlongreach
p3162
VLong Reach
p3163
sVskorupi
p3164
VSkorupi
p3165
sVgengarite
p3166
VGengarite
p3167
sVpokestartransport
p3168
VPokestar Transport
p3169
sVpinkbow
p3170
VPink Bow
p3171
sVblitzle
p3172
VBlitzle
p3173
sVsparklyswirl
p3174
VSparkly Swirl
p3175
sVspeedswap
p3176
VSpeed Swap
p3177
sVlustrousorb
p3178
VLustrous Orb
p3179
sVflarelm
p3180
VFlarelm
p3181
sVtamatoberry
p3182
VTamato Berry
p3183
sVblazikenite
p3184
VBlazikenite
p3185
sVfarfetchd
p3186
VFarfetch'd
p3187
sVinkay
p3188
VInkay
p3189
sVnecrozmaduskmane
p3190
VNecrozma-Dusk-Mane
p3191
sVpickup
p3192
VPickup
p3193
sVcontrary
p3194
VContrary
p3195
sVkarrablast
p3196
VKarrablast
p3197
sVberserk
p3198
VBerserk
p3199
sVmarowak
p3200
VMarowak
p3201
sVmachobrace
p3202
VMacho Brace
p3203
sVsilvallywater
p3204
VSilvally-Water
p3205
sVelekid
p3206
VElekid
p3207
sVmagmortar
p3208
VMagmortar
p3209
sVchansey
p3210
VChansey
p3211
sVroaroftime
p3212
VRoar of Time
p3213
sVwildcharge
p3214
VWild Charge
p3215
sVgraveleralola
p3216
VGraveler-Alola
p3217
sVhoundoommega
p3218
VHoundoom-Mega
p3219
sVclaydol
p3220
VClaydol
p3221
sVrelicanth
p3222
VRelicanth
p3223
sVtorchic
p3224
VTorchic
p3225
sVlapras
p3226
VLapras
p3227
sVmankey
p3228
VMankey
p3229
sVsweetscent
p3230
VSweet Scent
p3231
sVraticatealola
p3232
VRaticate-Alola
p3233
sVshayminsky
p3234
VShaymin-Sky
p3235
sVsludgebomb
p3236
VSludge Bomb
p3237
sVsandile
p3238
VSandile
p3239
sVtyphlosion
p3240
VTyphlosion
p3241
sVsimple
p3242
VSimple
p3243
sVdrillpeck
p3244
VDrill Peck
p3245
sVicebody
p3246
VIce Body
p3247
sVdancer
p3248
VDancer
p3249
sVfearow
p3250
VFearow
p3251
sVxscissor
p3252
VX-Scissor
p3253
sVbellossom
p3254
VBellossom
p3255
sVquiverdance
p3256
VQuiver Dance
p3257
sVblastoisinite
p3258
VBlastoisinite
p3259
sVmegapunch
p3260
VMega Punch
p3261
sVdamp
p3262
VDamp
p3263
sVskitty
p3264
VSkitty
p3265
sVmienfoo
p3266
VMienfoo
p3267
sVpollenpuff
p3268
VPollen Puff
p3269
sVliepard
p3270
VLiepard
p3271
sVamnesia
p3272
VAmnesia
p3273
sVdestinybond
p3274
VDestiny Bond
p3275
sVcastform
p3276
VCastform
p3277
sVmeowthalola
p3278
VMeowth-Alola
p3279
sVdruddigon
p3280
VDruddigon
p3281
sVtaillow
p3282
VTaillow
p3283
sVbashful
p3284
VBashful
p3285
sVdragontail
p3286
VDragon Tail
p3287
sVswellow
p3288
VSwellow
p3289
sVstringshot
p3290
VString Shot
p3291
sValomomola
p3292
VAlomomola
p3293
sVwatergun
p3294
VWater Gun
p3295
sVvcreate
p3296
VV-create
p3297
sVnomelberry
p3298
VNomel Berry
p3299
sVdrainingkiss
p3300
VDraining Kiss
p3301
sVbasculin
p3302
VBasculin
p3303
sVgrassiumz
p3304
VGrassium Z
p3305
sVescavalier
p3306
VEscavalier
p3307
sVpsychoshift
p3308
VPsycho Shift
p3309
sVbisharp
p3310
VBisharp
p3311
sVhoundoom
p3312
VHoundoom
p3313
sVgulpin
p3314
VGulpin
p3315
sVpancham
p3316
VPancham
p3317
sVmantyke
p3318
VMantyke
p3319
sVpound
p3320
VPound
p3321
sVmedichamite
p3322
VMedichamite
p3323
sVrotommow
p3324
VRotom-Mow
p3325
sVdefendorder
p3326
VDefend Order
p3327
sVsurskit
p3328
VSurskit
p3329
sVmegalauncher
p3330
VMega Launcher
p3331
sVicebeam
p3332
VIce Beam
p3333
sVfacade
p3334
VFacade
p3335
sVzubat
p3336
VZubat
p3337
sVmagikarpsrevenge
p3338
VMagikarp's Revenge
p3339
sVingrain
p3340
VIngrain
p3341
sVcottonee
p3342
VCottonee
p3343
sVpikachuphd
p3344
VPikachu-PhD
p3345
sVpowerlens
p3346
VPower Lens
p3347
sVzweilous
p3348
VZweilous
p3349
sVpoisonjab
p3350
VPoison Jab
p3351
sVcameruptmega
p3352
VCamerupt-Mega
p3353
sVprotectivepads
p3354
VProtective Pads
p3355
sVcrucibellemega
p3356
VCrucibelle-Mega
p3357
sVadrenalineorb
p3358
VAdrenaline Orb
p3359
sVleechseed
p3360
VLeech Seed
p3361
sVgorebyss
p3362
VGorebyss
p3363
sVgrotle
p3364
VGrotle
p3365
sVpikachu
p3366
VPikachu
p3367
sVrayquaza
p3368
VRayquaza
p3369
sVfroakie
p3370
VFroakie
p3371
sVloveball
p3372
VLove Ball
p3373
sVjumpluff
p3374
VJumpluff
p3375
sVkomala
p3376
VKomala
p3377
sVtimid
p3378
VTimid
p3379
sVmismagius
p3380
VMismagius
p3381
sVhiddenpowerbug
p3382
VHidden Power Bug
p3383
sVinfiltrator
p3384
VInfiltrator
p3385
sVpsychup
p3386
VPsych Up
p3387
sVsunstone
p3388
VSun Stone
p3389
sVtangrowth
p3390
VTangrowth
p3391
sVfiregem
p3392
VFire Gem
p3393
sVshellder
p3394
VShellder
p3395
sVwithdraw
p3396
VWithdraw
p3397
sVmoonball
p3398
VMoon Ball
p3399
sVpainsplit
p3400
VPain Split
p3401
sVstoneedge
p3402
VStone Edge
p3403
sVhowl
p3404
VHowl
p3405
sVeeviumz
p3406
VEevium Z
p3407
sVwaterpledge
p3408
VWater Pledge
p3409
sVspearow
p3410
VSpearow
p3411
sVdarmanitan
p3412
VDarmanitan
p3413
sVrockwrecker
p3414
VRock Wrecker
p3415
sVoriginpulse
p3416
VOrigin Pulse
p3417
sVcompetitive
p3418
VCompetitive
p3419
sVzygarde
p3420
VZygarde
p3421
sVsolrock
p3422
VSolrock
p3423
sVthousandarrows
p3424
VThousand Arrows
p3425
sVsmokomodo
p3426
VSmokomodo
p3427
sVcut
p3428
VCut
p3429
sVincineroar
p3430
VIncineroar
p3431
sVcloyster
p3432
VCloyster
p3433
sVshoreup
p3434
VShore Up
p3435
sVmetapod
p3436
VMetapod
p3437
sVairslash
p3438
VAir Slash
p3439
sVmagiccoat
p3440
VMagic Coat
p3441
sVacrobatics
p3442
VAcrobatics
p3443
sVspheal
p3444
VSpheal
p3445
sVlatios
p3446
VLatios
p3447
sVchoicespecs
p3448
VChoice Specs
p3449
sVrebound
p3450
VRebound
p3451
sVlusterpurge
p3452
VLuster Purge
p3453
sVkeldeoresolute
p3454
VKeldeo-Resolute
p3455
sVzygardecomplete
p3456
VZygarde-Complete
p3457
sVmoody
p3458
VMoody
p3459
sVglaliemega
p3460
VGlalie-Mega
p3461
sVgothitelle
p3462
VGothitelle
p3463
sVskilllink
p3464
VSkill Link
p3465
sVponyta
p3466
VPonyta
p3467
sVsunnyday
p3468
VSunny Day
p3469
sVsubmission
p3470
VSubmission
p3471
sVstaravia
p3472
VStaravia
p3473
sVtailglow
p3474
VTail Glow
p3475
sVnoibat
p3476
VNoibat
p3477
sVstealthrock
p3478
VStealth Rock
p3479
sVtechnoblast
p3480
VTechno Blast
p3481
sVbaltoy
p3482
VBaltoy
p3483
sVflamewheel
p3484
VFlame Wheel
p3485
sVsketch
p3486
VSketch
p3487
sVfrisk
p3488
VFrisk
p3489
sVmagmarizer
p3490
VMagmarizer
p3491
sVbounce
p3492
VBounce
p3493
sVphotongeyser
p3494
VPhoton Geyser
p3495
sVsouldew
p3496
VSoul Dew
p3497
sVgigaimpact
p3498
VGiga Impact
p3499
sVsewaddle
p3500
VSewaddle
p3501
sVkommoo
p3502
VKommo-o
p3503
sVscald
p3504
VScald
p3505
sVominouswind
p3506
VOminous Wind
p3507
sVdeepseascale
p3508
VDeep Sea Scale
p3509
sVmummy
p3510
VMummy
p3511
sVhuntail
p3512
VHuntail
p3513
sVswordsdance
p3514
VSwords Dance
p3515
sVearlybird
p3516
VEarly Bird
p3517
sVslash
p3518
VSlash
p3519
sVhiddenpowergrass
p3520
VHidden Power Grass
p3521
sVpidgeotite
p3522
VPidgeotite
p3523
sVgarchompmega
p3524
VGarchomp-Mega
p3525
sV10000000voltthunderbolt
p3526
V10,000,000 Volt Thunderbolt
p3527
sVoricoriopau
p3528
VOricorio-Pa'u
p3529
sVseismitoad
p3530
VSeismitoad
p3531
sVodorsleuth
p3532
VOdor Sleuth
p3533
sVmewtwomegax
p3534
VMewtwo-Mega-X
p3535
sVmewtwomegay
p3536
VMewtwo-Mega-Y
p3537
sVfocussash
p3538
VFocus Sash
p3539
sVjellicent
p3540
VJellicent
p3541
sVspelonberry
p3542
VSpelon Berry
p3543
sVnobleroar
p3544
VNoble Roar
p3545
sVkangaskhanite
p3546
VKangaskhanite
p3547
sVblazekick
p3548
VBlaze Kick
p3549
sViapapaberry
p3550
VIapapa Berry
p3551
sVmudkip
p3552
VMudkip
p3553
sVbouffalant
p3554
VBouffalant
p3555
sVarceusghost
p3556
VArceus-Ghost
p3557
sVblock
p3558
VBlock
p3559
sVsharpedo
p3560
VSharpedo
p3561
sVarmthrust
p3562
VArm Thrust
p3563
sVchargebeam
p3564
VCharge Beam
p3565
sVshellos
p3566
VShellos
p3567
sVnidoking
p3568
VNidoking
p3569
sVliquidation
p3570
VLiquidation
p3571
sVextremeevoboost
p3572
VExtreme Evoboost
p3573
sVsablenite
p3574
VSablenite
p3575
sVbarboach
p3576
VBarboach
p3577
sVstench
p3578
VStench
p3579
sViciclecrash
p3580
VIcicle Crash
p3581
sVcacnea
p3582
VCacnea
p3583
sVdevastatingdrake
p3584
VDevastating Drake
p3585
sVswampertmega
p3586
VSwampert-Mega
p3587
sVpajantom
p3588
VPajantom
p3589
sVpokestarmonster
p3590
VPokestar Monster
p3591
sVsyclar
p3592
VSyclar
p3593
sVmimikyubusted
p3594
VMimikyu-Busted
p3595
sVsnorunt
p3596
VSnorunt
p3597
sVrelaxed
p3598
VRelaxed
p3599
sVeevee
p3600
VEevee
p3601
sVpsychocut
p3602
VPsycho Cut
p3603
sVtranquill
p3604
VTranquill
p3605
sVragepowder
p3606
VRage Powder
p3607
sVbuizel
p3608
VBuizel
p3609
sVsharpen
p3610
VSharpen
p3611
sVgrasspledge
p3612
VGrass Pledge
p3613
sVbuzzwole
p3614
VBuzzwole
p3615
sVabsolmega
p3616
VAbsol-Mega
p3617
sVwatchog
p3618
VWatchog
p3619
sVpokestarwhitedoor
p3620
VPokestar White Door
p3621
sVspacialrend
p3622
VSpacial Rend
p3623
sVbaddreams
p3624
VBad Dreams
p3625
sVgrowth
p3626
VGrowth
p3627
sVpoliwrath
p3628
VPoliwrath
p3629
sVhappyhour
p3630
VHappy Hour
p3631
sVmurkrow
p3632
VMurkrow
p3633
sVpechaberry
p3634
VPecha Berry
p3635
sVpikachusinnoh
p3636
VPikachu-Sinnoh
p3637
sVarceusfairy
p3638
VArceus-Fairy
p3639
sVovalstone
p3640
VOval Stone
p3641
sVmiracleseed
p3642
VMiracle Seed
p3643
sVnaturesmadness
p3644
VNature's Madness
p3645
sVrockhead
p3646
VRock Head
p3647
sVcalm
p3648
VCalm
p3649
sVstickybarb
p3650
VSticky Barb
p3651
sVganlonberry
p3652
VGanlon Berry
p3653
sVbulbasaur
p3654
VBulbasaur
p3655
sVpichu
p3656
VPichu
p3657
sVheatwave
p3658
VHeat Wave
p3659
sVpokestarf00
p3660
VPokestar F-00
p3661
sVdrifloon
p3662
VDrifloon
p3663
sVsnowcloak
p3664
VSnow Cloak
p3665
sVrazorshell
p3666
VRazor Shell
p3667
sVmetagross
p3668
VMetagross
p3669
sVsparklingaria
p3670
VSparkling Aria
p3671
sVpokestarufo
p3672
VPokestar UFO
p3673
sVmeowsticf
p3674
VMeowstic-F
p3675
sVlickilicky
p3676
VLickilicky
p3677
sVaccelgor
p3678
VAccelgor
p3679
sVmysteryberry
p3680
VMystery Berry
p3681
sVmudbray
p3682
VMudbray
p3683
sVprecipiceblades
p3684
VPrecipice Blades
p3685
sVslaking
p3686
VSlaking
p3687
sVavalugg
p3688
VAvalugg
p3689
sVscratch
p3690
VScratch
p3691
sVcharmeleon
p3692
VCharmeleon
p3693
sVhighhorsepower
p3694
VHigh Horsepower
p3695
sVshiinotic
p3696
VShiinotic
p3697
sVnormaliumz
p3698
VNormalium Z
p3699
sVcharmander
p3700
VCharmander
p3701
sVspeedboost
p3702
VSpeed Boost
p3703
sVwakeupslap
p3704
VWake-Up Slap
p3705
sVpsychicgem
p3706
VPsychic Gem
p3707
sVharvest
p3708
VHarvest
p3709
sVperishsong
p3710
VPerish Song
p3711
sVcutecharm
p3712
VCute Charm
p3713
sVblaze
p3714
VBlaze
p3715
sVsniper
p3716
VSniper
p3717
sVtriplekick
p3718
VTriple Kick
p3719
sVdarumaka
p3720
VDarumaka
p3721
sVnightslash
p3722
VNight Slash
p3723
sVextrasensory
p3724
VExtrasensory
p3725
sVteddiursa
p3726
VTeddiursa
p3727
sVthundershock
p3728
VThunder Shock
p3729
sVazurill
p3730
VAzurill
p3731
sVbigpecks
p3732
VBig Pecks
p3733
sVlureball
p3734
VLure Ball
p3735
sVqwilfish
p3736
VQwilfish
p3737
sVhyperbeam
p3738
VHyper Beam
p3739
sVdynamicpunch
p3740
VDynamic Punch
p3741
sVlurantistotem
p3742
VLurantis-Totem
p3743
sVmagnemite
p3744
VMagnemite
p3745
sVtyrunt
p3746
VTyrunt
p3747
sVmultiattack
p3748
VMulti-Attack
p3749
sVirondefense
p3750
VIron Defense
p3751
sVmisdreavus
p3752
VMisdreavus
p3753
sVfidgit
p3754
VFidgit
p3755
sVdousedrive
p3756
VDouse Drive
p3757
sVribombeetotem
p3758
VRibombee-Totem
p3759
sVcrushclaw
p3760
VCrush Claw
p3761
sVsoftboiled
p3762
VSoft-Boiled
p3763
sVpoisongem
p3764
VPoison Gem
p3765
sVtectonicrage
p3766
VTectonic Rage
p3767
sVdownload
p3768
VDownload
p3769
sVacid
p3770
VAcid
p3771
sVvigoroth
p3772
VVigoroth
p3773
sVjumbao
p3774
VJumbao
p3775
sVlombre
p3776
VLombre
p3777
sVbaddybad
p3778
VBaddy Bad
p3779
sVdelcatty
p3780
VDelcatty
p3781
sVhoundoominite
p3782
VHoundoominite
p3783
sVturtonator
p3784
VTurtonator
p3785
sVtriattack
p3786
VTri Attack
p3787
sVtyranitar
p3788
VTyranitar
p3789
sVturtwig
p3790
VTurtwig
p3791
sVbruxish
p3792
VBruxish
p3793
sVmagmastorm
p3794
VMagma Storm
p3795
sVpansear
p3796
VPansear
p3797
sVdeerling
p3798
VDeerling
p3799
sVswinub
p3800
VSwinub
p3801
sVgigavolthavoc
p3802
VGigavolt Havoc
p3803
sVsplishysplash
p3804
VSplishy Splash
p3805
sVabomasnow
p3806
VAbomasnow
p3807
sVrowlet
p3808
VRowlet
p3809
sVsing
p3810
VSing
p3811
sVtriage
p3812
VTriage
p3813
sVpowersplit
p3814
VPower Split
p3815
sVincinerate
p3816
VIncinerate
p3817
sVmarangaberry
p3818
VMaranga Berry
p3819
sVrampardos
p3820
VRampardos
p3821
sVscreech
p3822
VScreech
p3823
sVtentacruel
p3824
VTentacruel
p3825
sVnaturalcure
p3826
VNatural Cure
p3827
sVforestscurse
p3828
VForest's Curse
p3829
sVblizzard
p3830
VBlizzard
p3831
sVteeterdance
p3832
VTeeter Dance
p3833
sVshieldsdown
p3834
VShields Down
p3835
sVfoongus
p3836
VFoongus
p3837
sVfirememory
p3838
VFire Memory
p3839
sVaquaring
p3840
VAqua Ring
p3841
sVprzcureberry
p3842
VPRZ Cure Berry
p3843
sVhardy
p3844
VHardy
p3845
sVarceusground
p3846
VArceus-Ground
p3847
sVpumpkaboolarge
p3848
VPumpkaboo-Large
p3849
sVkingdra
p3850
VKingdra
p3851
sVaerodactylite
p3852
VAerodactylite
p3853
sVstakeout
p3854
VStakeout
p3855
sVbanettite
p3856
VBanettite
p3857
sVdragongem
p3858
VDragon Gem
p3859
sVheatran
p3860
VHeatran
p3861
sVsteelixite
p3862
VSteelixite
p3863
sVheavyball
p3864
VHeavy Ball
p3865
sVcharcoal
p3866
VCharcoal
p3867
sVdubiousdisc
p3868
VDubious Disc
p3869
sVmistyseed
p3870
VMisty Seed
p3871
sVcranidos
p3872
VCranidos
p3873
sVabsol
p3874
VAbsol
p3875
sVcelesteela
p3876
VCelesteela
p3877
sVplusle
p3878
VPlusle
p3879
sVaerodactylmega
p3880
VAerodactyl-Mega
p3881
sVrivalry
p3882
VRivalry
p3883
sVwatersport
p3884
VWater Sport
p3885
sVpikaniumz
p3886
VPikanium Z
p3887
sVicicleplate
p3888
VIcicle Plate
p3889
sVmimikyubustedtotem
p3890
VMimikyu-Busted-Totem
p3891
sVfuturesight
p3892
VFuture Sight
p3893
sVfirelash
p3894
VFire Lash
p3895
sVsmellingsalts
p3896
VSmelling Salts
p3897
sVarchen
p3898
VArchen
p3899
sVexeggcute
p3900
VExeggcute
p3901
sVlucario
p3902
VLucario
p3903
sVthundurus
p3904
VThundurus
p3905
sVburnup
p3906
VBurn Up
p3907
sVdonphan
p3908
VDonphan
p3909
sVterrakion
p3910
VTerrakion
p3911
sVblacksludge
p3912
VBlack Sludge
p3913
sVsilvallypsychic
p3914
VSilvally-Psychic
p3915
sVrelicsong
p3916
VRelic Song
p3917
sVsnaelstrom
p3918
VSnaelstrom
p3919
sVheliolisk
p3920
VHeliolisk
p3921
sVblazikenmega
p3922
VBlaziken-Mega
p3923
sVgastrodon
p3924
VGastrodon
p3925
sVbronzong
p3926
VBronzong
p3927
sVweavile
p3928
VWeavile
p3929
sVdewott
p3930
VDewott
p3931
sVchandelure
p3932
VChandelure
p3933
sVhaxorus
p3934
VHaxorus
p3935
sVsecretsword
p3936
VSecret Sword
p3937
sVowntempo
p3938
VOwn Tempo
p3939
sVhiddenpower
p3940
VHidden Power
p3941
sVrazorleaf
p3942
VRazor Leaf
p3943
sVpowerswap
p3944
VPower Swap
p3945
sVdragalge
p3946
VDragalge
p3947
sVgrasswhistle
p3948
VGrass Whistle
p3949
sVswampert
p3950
VSwampert
p3951
sVwynaut
p3952
VWynaut
p3953
sVpidgey
p3954
VPidgey
p3955
sVpoisoniumz
p3956
VPoisonium Z
p3957
sVaggronite
p3958
VAggronite
p3959
sVgenesect
p3960
VGenesect
p3961
sVlotad
p3962
VLotad
p3963
sVrkssystem
p3964
VRKS System
p3965
sVsilvallyice
p3966
VSilvally-Ice
p3967
sVvikavolttotem
p3968
VVikavolt-Totem
p3969
sVbind
p3970
VBind
p3971
sVcounter
p3972
VCounter
p3973
sVvikavolt
p3974
VVikavolt
p3975
sVfullincense
p3976
VFull Incense
p3977
sVfloatoy
p3978
VFloatoy
p3979
sVweepinbell
p3980
VWeepinbell
p3981
sVhitmonchan
p3982
VHitmonchan
p3983
sVfreezyfrost
p3984
VFreezy Frost
p3985
sVwoobat
p3986
VWoobat
p3987
sVaquajet
p3988
VAqua Jet
p3989
sVkrabby
p3990
VKrabby
p3991
sVumbreon
p3992
VUmbreon
p3993
sVdragonair
p3994
VDragonair
p3995
sVhitmontop
p3996
VHitmontop
p3997
sVheatproof
p3998
VHeatproof
p3999
sVmukalola
p4000
VMuk-Alola
p4001
sVguardswap
p4002
VGuard Swap
p4003
sVassaultvest
p4004
VAssault Vest
p4005
sVpetalblizzard
p4006
VPetal Blizzard
p4007
sVkadabra
p4008
VKadabra
p4009
sVpurepower
p4010
VPure Power
p4011
sVironball
p4012
VIron Ball
p4013
sVdreameater
p4014
VDream Eater
p4015
sVhelpinghand
p4016
VHelping Hand
p4017
sVmunchlax
p4018
VMunchlax
p4019
sVzenheadbutt
p4020
VZen Headbutt
p4021
sVdoubleironbash
p4022
VDouble Iron Bash
p4023
sVpowertrip
p4024
VPower Trip
p4025
sVberryjuice
p4026
VBerry Juice
p4027
sVhiddenpowerflying
p4028
VHidden Power Flying
p4029
sVmilotic
p4030
VMilotic
p4031
sVpikachuoriginal
p4032
VPikachu-Original
p4033
sVpsychicsurge
p4034
VPsychic Surge
p4035
sVflail
p4036
VFlail
p4037
sVkabutops
p4038
VKabutops
p4039
sVhoothoot
p4040
VHoothoot
p4041
sVkoffing
p4042
VKoffing
p4043
sVtoxapex
p4044
VToxapex
p4045
sVarbok
p4046
VArbok
p4047
sVmagnitude
p4048
VMagnitude
p4049
sVarceusfighting
p4050
VArceus-Fighting
p4051
sVrapidspin
p4052
VRapid Spin
p4053
sVskullbash
p4054
VSkull Bash
p4055
sVdratini
p4056
VDratini
p4057
sVafteryou
p4058
VAfter You
p4059
sVmaractus
p4060
VMaractus
p4061
sVcrucibellite
p4062
VCrucibellite
p4063
sVmareanie
p4064
VMareanie
p4065
sVilluminate
p4066
VIlluminate
p4067
sVgallademega
p4068
VGallade-Mega
p4069
sVmagnetpull
p4070
VMagnet Pull
p4071
sVtepig
p4072
VTepig
p4073
sVkelpsyberry
p4074
VKelpsy Berry
p4075
sVstatic
p4076
VStatic
p4077
sVflameplate
p4078
VFlame Plate
p4079
sVicememory
p4080
VIce Memory
p4081
sVicefang
p4082
VIce Fang
p4083
sVvenonat
p4084
VVenonat
p4085
sVsilvallyfighting
p4086
VSilvally-Fighting
p4087
sVjoltik
p4088
VJoltik
p4089
sVrollingkick
p4090
VRolling Kick
p4091
sVoricorio
p4092
VOricorio
p4093
sVweatherball
p4094
VWeather Ball
p4095
sVshatteredpsyche
p4096
VShattered Psyche
p4097
sVmewniumz
p4098
VMewnium Z
p4099
sVmanectric
p4100
VManectric
p4101
sVnaturepower
p4102
VNature Power
p4103
sVregisteel
p4104
VRegisteel
p4105
sVsmog
p4106
VSmog
p4107
sVbabydolleyes
p4108
VBaby-Doll Eyes
p4109
sVleafguard
p4110
VLeaf Guard
p4111
sVicywind
p4112
VIcy Wind
p4113
sVemolga
p4114
VEmolga
p4115
sVmamoswine
p4116
VMamoswine
p4117
sVconkeldurr
p4118
VConkeldurr
p4119
sVduskstone
p4120
VDusk Stone
p4121
sVworkup
p4122
VWork Up
p4123
sVmetagrossite
p4124
VMetagrossite
p4125
sVhippowdon
p4126
VHippowdon
p4127
sVenigmaberry
p4128
VEnigma Berry
p4129
sVscatterbug
p4130
VScatterbug
p4131
sVaromaveil
p4132
VAroma Veil
p4133
sVcorrosion
p4134
VCorrosion
p4135
sVtropkick
p4136
VTrop Kick
p4137
sVsudowoodo
p4138
VSudowoodo
p4139
sVlarvitar
p4140
VLarvitar
p4141
sVheadbutt
p4142
VHeadbutt
p4143
sVsacredsword
p4144
VSacred Sword
p4145
sVbodyslam
p4146
VBody Slam
p4147
sVbugbuzz
p4148
VBug Buzz
p4149
sVfirefang
p4150
VFire Fang
p4151
sVdiancite
p4152
VDiancite
p4153
sVampharosmega
p4154
VAmpharos-Mega
p4155
sVmistball
p4156
VMist Ball
p4157
sVskrelp
p4158
VSkrelp
p4159
sVjumpkick
p4160
VJump Kick
p4161
sVninetalesalola
p4162
VNinetales-Alola
p4163
sVwaterspout
p4164
VWater Spout
p4165
sVpsychicmemory
p4166
VPsychic Memory
p4167
sVloudred
p4168
VLoudred
p4169
sVearthpower
p4170
VEarth Power
p4171
sVblissey
p4172
VBlissey
p4173
sVpikachukalos
p4174
VPikachu-Kalos
p4175
sVpremierball
p4176
VPremier Ball
p4177
sVrotomfrost
p4178
VRotom-Frost
p4179
sVsolidrock
p4180
VSolid Rock
p4181
sVhonedge
p4182
VHonedge
p4183
sVrabutaberry
p4184
VRabuta Berry
p4185
sVagility
p4186
VAgility
p4187
sVelectabuzz
p4188
VElectabuzz
p4189
sVhoopaunbound
p4190
VHoopa-Unbound
p4191
sVfomantis
p4192
VFomantis
p4193
sVsachet
p4194
VSachet
p4195
sVcrobat
p4196
VCrobat
p4197
sVrockblast
p4198
VRock Blast
p4199
sVslackoff
p4200
VSlack Off
p4201
sVprivatyke
p4202
VPrivatyke
p4203
sVsoftsand
p4204
VSoft Sand
p4205
sVsigilyph
p4206
VSigilyph
p4207
sVdeepseatooth
p4208
VDeep Sea Tooth
p4209
sVtorkoal
p4210
VTorkoal
p4211
sVwurmple
p4212
VWurmple
p4213
sVtapulele
p4214
VTapu Lele
p4215
sVsunsteelstrike
p4216
VSunsteel Strike
p4217
sVgrimeralola
p4218
VGrimer-Alola
p4219
sVtimburr
p4220
VTimburr
p4221
sVsealeo
p4222
VSealeo
p4223
sVpoisonfang
p4224
VPoison Fang
p4225
sVinsectplate
p4226
VInsect Plate
p4227
sVtorrent
p4228
VTorrent
p4229
sVencore
p4230
VEncore
p4231
sVquickball
p4232
VQuick Ball
p4233
sVtrapinch
p4234
VTrapinch
p4235
sVbonerush
p4236
VBone Rush
p4237
sVgentle
p4238
VGentle
p4239
sVtorment
p4240
VTorment
p4241
sVarceusflying
p4242
VArceus-Flying
p4243
sVzebstrika
p4244
VZebstrika
p4245
sVwhitesmoke
p4246
VWhite Smoke
p4247
sVlevelball
p4248
VLevel Ball
p4249
sVsoak
p4250
VSoak
p4251
sVfusionbolt
p4252
VFusion Bolt
p4253
sVflareon
p4254
VFlareon
p4255
sVcalmmind
p4256
VCalm Mind
p4257
sVdiamondstorm
p4258
VDiamond Storm
p4259
sVgravity
p4260
VGravity
p4261
sVcarnivine
p4262
VCarnivine
p4263
sVgrassgem
p4264
VGrass Gem
p4265
sVfleurcannon
p4266
VFleur Cannon
p4267
sVpsychoboost
p4268
VPsycho Boost
p4269
sVnuzleaf
p4270
VNuzleaf
p4271
sVwidelens
p4272
VWide Lens
p4273
sVshadowball
p4274
VShadow Ball
p4275
sVdrifblim
p4276
VDrifblim
p4277
sVgoldeen
p4278
VGoldeen
p4279
sVmewtwo
p4280
VMewtwo
p4281
sVrollout
p4282
VRollout
p4283
sVslurpuff
p4284
VSlurpuff
p4285
sVdracometeor
p4286
VDraco Meteor
p4287
sVsludgewave
p4288
VSludge Wave
p4289
sVsceptile
p4290
VSceptile
p4291
sVaraquanid
p4292
VAraquanid
p4293
sVgardevoirite
p4294
VGardevoirite
p4295
sVexeggutor
p4296
VExeggutor
p4297
sVshedskin
p4298
VShed Skin
p4299
sVcherrimsunshine
p4300
VCherrim-Sunshine
p4301
sVarceus
p4302
VArceus
p4303
sVimpish
p4304
VImpish
p4305
sVservine
p4306
VServine
p4307
sVwailmer
p4308
VWailmer
p4309
sVbrine
p4310
VBrine
p4311
sVdawnstone
p4312
VDawn Stone
p4313
sVsleeppowder
p4314
VSleep Powder
p4315
sVoldamber
p4316
VOld Amber
p4317
sVsnover
p4318
VSnover
p4319
sVmumbao
p4320
VMumbao
p4321
sVdurant
p4322
VDurant
p4323
sVdarkiniumz
p4324
VDarkinium Z
p4325
sVsimplebeam
p4326
VSimple Beam
p4327
sVyveltal
p4328
VYveltal
p4329
sVbrickbreak
p4330
VBrick Break
p4331
sVrash
p4332
VRash
p4333
sVpiplup
p4334
VPiplup
p4335
sVflashfire
p4336
VFlash Fire
p4337
sVelectricmemory
p4338
VElectric Memory
p4339
sValoraichiumz
p4340
VAloraichium Z
p4341
sVpikipek
p4342
VPikipek
p4343
sVdeino
p4344
VDeino
p4345
sVcamerupt
p4346
VCamerupt
p4347
sVluckypunch
p4348
VLucky Punch
p4349
sVpurrloin
p4350
VPurrloin
p4351
sVrarebone
p4352
VRare Bone
p4353
sVsolosis
p4354
VSolosis
p4355
sVtangaberry
p4356
VTanga Berry
p4357
sVbellydrum
p4358
VBelly Drum
p4359
sVsassy
p4360
VSassy
p4361
sVdeoxysattack
p4362
VDeoxys-Attack
p4363
sVcroagunk
p4364
VCroagunk
p4365
sVbravebird
p4366
VBrave Bird
p4367
sVgust
p4368
VGust
p4369
sVmagicguard
p4370
VMagic Guard
p4371
sVpikapapow
p4372
VPika Papow
p4373
sVsandattack
p4374
VSand Attack
p4375
sVkingler
p4376
VKingler
p4377
sVhugepower
p4378
VHuge Power
p4379
sVmudbomb
p4380
VMud Bomb
p4381
sVdartrix
p4382
VDartrix
p4383
sVsheercold
p4384
VSheer Cold
p4385
sVgeomancy
p4386
VGeomancy
p4387
sVleafstone
p4388
VLeaf Stone
p4389
sVcacturne
p4390
VCacturne
p4391
sVpowder
p4392
VPowder
p4393
sVvictini
p4394
VVictini
p4395
sVfinneon
p4396
VFinneon
p4397
sVtwineedle
p4398
VTwineedle
p4399
sVchestoberry
p4400
VChesto Berry
p4401
sVgrumpig
p4402
VGrumpig
p4403
sVbuginiumz
p4404
VBuginium Z
p4405
sVnightmare
p4406
VNightmare
p4407
sVgyarados
p4408
VGyarados
p4409
sVlycaniumz
p4410
VLycanium Z
p4411
sVvaporeon
p4412
VVaporeon
p4413
sVthunderwave
p4414
VThunder Wave
p4415
sVrockincense
p4416
VRock Incense
p4417
sVfroslass
p4418
VFroslass
p4419
sVaron
p4420
VAron
p4421
sVconversion2
p4422
VConversion 2
p4423
sVmysticalfire
p4424
VMystical Fire
p4425
sVzoroark
p4426
VZoroark
p4427
sVshellsmash
p4428
VShell Smash
p4429
sVhydropump
p4430
VHydro Pump
p4431
sVswift
p4432
VSwift
p4433
sVmemento
p4434
VMemento
p4435
sVmetang
p4436
VMetang
p4437
sVklinklang
p4438
VKlinklang
p4439
sVaerodactyl
p4440
VAerodactyl
p4441
sVtailwhip
p4442
VTail Whip
p4443
sVsceptilite
p4444
VSceptilite
p4445
sVsafetygoggles
p4446
VSafety Goggles
p4447
sVklang
p4448
VKlang
p4449
sVgreninjaash
p4450
VGreninja-Ash
p4451
sVswallow
p4452
VSwallow
p4453
sVspritzee
p4454
VSpritzee
p4455
sVflabebe
p4456
VFlabe\u0301be\u0301
p4457
sVnumel
p4458
VNumel
p4459
sVwoodhammer
p4460
VWood Hammer
p4461
sVhiddenpowerwater
p4462
VHidden Power Water
p4463
sVmalaconda
p4464
VMalaconda
p4465
sVgible
p4466
VGible
p4467
sVovercoat
p4468
VOvercoat
p4469
sVekans
p4470
VEkans
p4471
sVsharpedomega
p4472
VSharpedo-Mega
p4473
sVpixieplate
p4474
VPixie Plate
p4475
sVvolkritter
p4476
VVolkritter
p4477
sVdugtrio
p4478
VDugtrio
p4479
sVdisarmingvoice
p4480
VDisarming Voice
p4481
sVwailord
p4482
VWailord
p4483
sVswoobat
p4484
VSwoobat
p4485
sVelectrify
p4486
VElectrify
p4487
sVdazzling
p4488
VDazzling
p4489
sVoricoriosensu
p4490
VOricorio-Sensu
p4491
sVkeldeo
p4492
VKeldeo
p4493
sVrattata
p4494
VRattata
p4495
sVgirafarig
p4496
VGirafarig
p4497
sVtomohawk
p4498
VTomohawk
p4499
sVivysaur
p4500
VIvysaur
p4501
sVhorndrill
p4502
VHorn Drill
p4503
sVcoverfossil
p4504
VCover Fossil
p4505
sVgraveler
p4506
VGraveler
p4507
sVsmeargle
p4508
VSmeargle
p4509
sVmetagrossmega
p4510
VMetagross-Mega
p4511
sVraindance
p4512
VRain Dance
p4513
sVbreezi
p4514
VBreezi
p4515
sVinfestation
p4516
VInfestation
p4517
sVvoodoll
p4518
VVoodoll
p4519
sVpresent
p4520
VPresent
p4521
sVgrovyle
p4522
VGrovyle
p4523
sVpokestarf002
p4524
VPokestar F-002
p4525
sVintimidate
p4526
VIntimidate
p4527
sVharden
p4528
VHarden
p4529
sVpowerweight
p4530
VPower Weight
p4531
sVflaaffy
p4532
VFlaaffy
p4533
sVbeheeyem
p4534
VBeheeyem
p4535
sVwhirlpool
p4536
VWhirlpool
p4537
sVpelipper
p4538
VPelipper
p4539
sVthickfat
p4540
VThick Fat
p4541
sVcarracosta
p4542
VCarracosta
p4543
sVluxio
p4544
VLuxio
p4545
sVvullaby
p4546
VVullaby
p4547
sVhiddenpowerghost
p4548
VHidden Power Ghost
p4549
sVlightball
p4550
VLight Ball
p4551
sVwaterveil
p4552
VWater Veil
p4553
sVspelltag
p4554
VSpell Tag
p4555
sVdeoxysdefense
p4556
VDeoxys-Defense
p4557
sVzekrom
p4558
VZekrom
p4559
sVaipom
p4560
VAipom
p4561
sVdefiant
p4562
VDefiant
p4563
sVhardstone
p4564
VHard Stone
p4565
sVkebiaberry
p4566
VKebia Berry
p4567
sVbergmite
p4568
VBergmite
p4569
sVcascoon
p4570
VCascoon
p4571
sVbelch
p4572
VBelch
p4573
sVmindblown
p4574
VMind Blown
p4575
sVmagcargo
p4576
VMagcargo
p4577
sVabsorb
p4578
VAbsorb
p4579
sVpikachuhoenn
p4580
VPikachu-Hoenn
p4581
sVraindish
p4582
VRain Dish
p4583
sVseaking
p4584
VSeaking
p4585
sVmagician
p4586
VMagician
p4587
sVdragoniumz
p4588
VDragonium Z
p4589
sVairlock
p4590
VAir Lock
p4591
sVbabiriberry
p4592
VBabiri Berry
p4593
sVprotector
p4594
VProtector
p4595
sVeelektross
p4596
VEelektross
p4597
sVpickpocket
p4598
VPickpocket
p4599
sVsitrusberry
p4600
VSitrus Berry
p4601
sVarceuspsychic
p4602
VArceus-Psychic
p4603
sVbeautifly
p4604
VBeautifly
p4605
sVwormadamtrash
p4606
VWormadam-Trash
p4607
sVvenoshock
p4608
VVenoshock
p4609
sVsilvallyfairy
p4610
VSilvally-Fairy
p4611
sVbouncybubble
p4612
VBouncy Bubble
p4613
sVmudsport
p4614
VMud Sport
p4615
sVazelf
p4616
VAzelf
p4617
sVyanmega
p4618
VYanmega
p4619
sVnaviathan
p4620
VNaviathan
p4621
sVfairyaura
p4622
VFairy Aura
p4623
sVpsychicseed
p4624
VPsychic Seed
p4625
sVpinsir
p4626
VPinsir
p4627
sVrotom
p4628
VRotom
p4629
sVguts
p4630
VGuts
p4631
sVtauros
p4632
VTauros
p4633
sVnatu
p4634
VNatu
p4635
sVfaketears
p4636
VFake Tears
p4637
sVbattery
p4638
VBattery
p4639
sVaromaticmist
p4640
VAromatic Mist
p4641
sVbeedrillite
p4642
VBeedrillite
p4643
sVconfide
p4644
VConfide
p4645
sVleechlife
p4646
VLeech Life
p4647
sVaegislash
p4648
VAegislash
p4649
sVkingsshield
p4650
VKing's Shield
p4651
sVkingsrock
p4652
VKing's Rock
p4653
sVblukberry
p4654
VBluk Berry
p4655
sVflowershield
p4656
VFlower Shield
p4657
sVarenatrap
p4658
VArena Trap
p4659
sVtaunt
p4660
VTaunt
p4661
sVlaserfocus
p4662
VLaser Focus
p4663
sVducklett
p4664
VDucklett
p4665
sVgreninja
p4666
VGreninja
p4667
sVreapercloth
p4668
VReaper Cloth
p4669
sVdhelmise
p4670
VDhelmise
p4671
sVbudew
p4672
VBudew
p4673
sVgogoat
p4674
VGogoat
p4675
sVlilligant
p4676
VLilligant
p4677
sVhealball
p4678
VHeal Ball
p4679
sVphanpy
p4680
VPhanpy
p4681
sVaudinite
p4682
VAudinite
p4683
sVimprison
p4684
VImprison
p4685
sVrepeatball
p4686
VRepeat Ball
p4687
sVglare
p4688
VGlare
p4689
sVjangmoo
p4690
VJangmo-o
p4691
sVthief
p4692
VThief
p4693
sVhail
p4694
VHail
p4695
sVcofagrigus
p4696
VCofagrigus
p4697
sVwepearberry
p4698
VWepear Berry
p4699
sVskarmory
p4700
VSkarmory
p4701
sVpersimberry
p4702
VPersim Berry
p4703
sVdragonclaw
p4704
VDragon Claw
p4705
sVdrizzle
p4706
VDrizzle
p4707
sVzygarde10
p4708
VZygarde-10%
p4709
sVstaraptor
p4710
VStaraptor
p4711
sVmagicalleaf
p4712
VMagical Leaf
p4713
sVforcepalm
p4714
VForce Palm
p4715
sVhurricane
p4716
VHurricane
p4717
sVlileep
p4718
VLileep
p4719
sVpiloswine
p4720
VPiloswine
p4721
sVjudgment
p4722
VJudgment
p4723
sVvenusaurite
p4724
VVenusaurite
p4725
sVraichu
p4726
VRaichu
p4727
sVcyclohm
p4728
VCyclohm
p4729
sVhappiny
p4730
VHappiny
p4731
sVpressure
p4732
VPressure
p4733
sVsilkscarf
p4734
VSilk Scarf
p4735
sVpidgeotto
p4736
VPidgeotto
p4737
sVdreadplate
p4738
VDread Plate
p4739
sVsableyemega
p4740
VSableye-Mega
p4741
sVfurret
p4742
VFurret
p4743
sVpsystrike
p4744
VPsystrike
p4745
sVmiltank
p4746
VMiltank
p4747
sVmeteormash
p4748
VMeteor Mash
p4749
sVshucaberry
p4750
VShuca Berry
p4751
sVrockmemory
p4752
VRock Memory
p4753
sVsweetkiss
p4754
VSweet Kiss
p4755
sVacidarmor
p4756
VAcid Armor
p4757
sVlightclay
p4758
VLight Clay
p4759
sVvoodoom
p4760
VVoodoom
p4761
sVblueorb
p4762
VBlue Orb
p4763
sVfeintattack
p4764
VFeint Attack
p4765
sVburmy
p4766
VBurmy
p4767
sVgrassysurge
p4768
VGrassy Surge
p4769
sVcaimanoe
p4770
VCaimanoe
p4771
sVmagostberry
p4772
VMagost Berry
p4773
sVgrasspelt
p4774
VGrass Pelt
p4775
sVicestone
p4776
VIce Stone
p4777
sVspitup
p4778
VSpit Up
p4779
sVstamina
p4780
VStamina
p4781
sVrockthrow
p4782
VRock Throw
p4783
sVroseliberry
p4784
VRoseli Berry
p4785
sVfrustration
p4786
VFrustration
p4787
sVambipom
p4788
VAmbipom
p4789
sVsolgaleo
p4790
VSolgaleo
p4791
sVfollowme
p4792
VFollow Me
p4793
sVclauncher
p4794
VClauncher
p4795
sVquickpowder
p4796
VQuick Powder
p4797
sVfrenzyplant
p4798
VFrenzy Plant
p4799
sVclearbody
p4800
VClear Body
p4801
sVpowerofalchemy
p4802
VPower of Alchemy
p4803
sVmagoberry
p4804
VMago Berry
p4805
sVcroconaw
p4806
VCroconaw
p4807
sVdrowzee
p4808
VDrowzee
p4809
sVserenegrace
p4810
VSerene Grace
p4811
sVoceanicoperetta
p4812
VOceanic Operetta
p4813
sVheracronite
p4814
VHeracronite
p4815
sVtechnician
p4816
VTechnician
p4817
sVarceusgrass
p4818
VArceus-Grass
p4819
sVmorelull
p4820
VMorelull
p4821
sVembargo
p4822
VEmbargo
p4823
sVpikachuunova
p4824
VPikachu-Unova
p4825
sVmetronome
p4826
VMetronome
p4827
sVattackorder
p4828
VAttack Order
p4829
sVallyswitch
p4830
VAlly Switch
p4831
sVwish
p4832
VWish
p4833
sVentrainment
p4834
VEntrainment
p4835
sVpoisonheal
p4836
VPoison Heal
p4837
sVpyukumuku
p4838
VPyukumuku
p4839
sVscizormega
p4840
VScizor-Mega
p4841
sVthroatchop
p4842
VThroat Chop
p4843
sVhoneclaws
p4844
VHone Claws
p4845
sVgrassmemory
p4846
VGrass Memory
p4847
sVpikachurockstar
p4848
VPikachu-Rock-Star
p4849
sVoranberry
p4850
VOran Berry
p4851
sVmarshadow
p4852
VMarshadow
p4853
sVninjask
p4854
VNinjask
p4855
sVslowstart
p4856
VSlow Start
p4857
sVweakarmor
p4858
VWeak Armor
p4859
sVaurasphere
p4860
VAura Sphere
p4861
sVshelgon
p4862
VShelgon
p4863
sVrawstberry
p4864
VRawst Berry
p4865
sVshadowbone
p4866
VShadow Bone
p4867
sVpokestarblackbelt
p4868
VPokestar Black Belt
p4869
sVvacuumwave
p4870
VVacuum Wave
p4871
sVillusion
p4872
VIllusion
p4873
sVroleplay
p4874
VRole Play
p4875
sVyacheberry
p4876
VYache Berry
p4877
sVelectriumz
p4878
VElectrium Z
p4879
sVtreecko
p4880
VTreecko
p4881
sVicehammer
p4882
VIce Hammer
p4883
sVbraviary
p4884
VBraviary
p4885
sVvivillon
p4886
VVivillon
p4887
sVnoguard
p4888
VNo Guard
p4889
sVsalamencemega
p4890
VSalamence-Mega
p4891
sVabomasite
p4892
VAbomasite
p4893
sVstarmie
p4894
VStarmie
p4895
sVpersistent
p4896
VPersistent
p4897
sVmagmar
p4898
VMagmar
p4899
sVzangoose
p4900
VZangoose
p4901
sVvivillonfancy
p4902
VVivillon-Fancy
p4903
sVvanilluxe
p4904
VVanilluxe
p4905
s.