(dp1
Velectivire
p2
VElectivire
p3
sVarceusice
p4
VArceus-Ice
p5
sVcolorchange
p6
VColor Change
p7
sVpersimberry
p8
VPersim Berry
p9
sVlucarionite
p10
VLucarionite
p11
sVpalkia
p12
VPalkia
p13
sVchatter
p14
VChatter
p15
sValakazite
p16
VAlakazite
p17
sVtickle
p18
VTickle
p19
sVarceuselectric
p20
VArceus-Electric
p21
sVabra
p22
VAbra
p23
sVreuniclus
p24
VReuniclus
p25
sVrecycle
p26
VRecycle
p27
sVtimerball
p28
VTimer Ball
p29
sVmeditite
p30
VMeditite
p31
sVsharpbeak
p32
VSharp Beak
p33
sVmewtwonitex
p34
VMewtwonite X
p35
sVmewtwonitey
p36
VMewtwonite Y
p37
sVquickclaw
p38
VQuick Claw
p39
sVdoubleslap
p40
VDoubleSlap
p41
sVplayaround
p42
VPlay Around
p43
sVeviolite
p44
VEviolite
p45
sVprotean
p46
S'Protean'
p47
sVsquirtle
p48
VSquirtle
p49
sVdarmanitanzen
p50
VDarmanitan-Zen
p51
sVnastyplot
p52
VNasty Plot
p53
sVwormadam
p54
VWormadam
p55
sVaggronmega
p56
VAggron-Mega
p57
sVwhirlwind
p58
VWhirlwind
p59
sVplumefossil
p60
VPlume Fossil
p61
sVcherrim
p62
VCherrim
p63
sVhiddenpowerelectric
p64
VHidden Power Electric
p65
sVhiddenpowerfire
p66
VHidden Power Fire
p67
sVguillotine
p68
VGuillotine
p69
sVlevitate
p70
VLevitate
p71
sVgyaradosite
p72
VGyaradosite
p73
sVpomegberry
p74
VPomeg Berry
p75
sVmasquerain
p76
VMasquerain
p77
sVthunder
p78
VThunder
p79
sVwaterpulse
p80
VWater Pulse
p81
sVdarkgem
p82
VDark Gem
p83
sVsteelwing
p84
VSteel Wing
p85
sVfraxure
p86
VFraxure
p87
sVmoldbreaker
p88
VMold Breaker
p89
sVcrunch
p90
VCrunch
p91
sVrindoberry
p92
VRindo Berry
p93
sVreflecttype
p94
VReflect Type
p95
sVsnivy
p96
VSnivy
p97
sVmefirst
p98
VMe First
p99
sVmothim
p100
VMothim
p101
sVscizorite
p102
VScizorite
p103
sVmew
p104
VMew
p105
sVpursuit
p106
VPursuit
p107
sVheadsmash
p108
VHead Smash
p109
sVaftermath
p110
VAftermath
p111
sVclawitzer
p112
VClawitzer
p113
sVpixilate
p114
S'Pixilate'
p115
sVtornadustherian
p116
VTornadus-Therian
p117
sVlunatone
p118
VLunatone
p119
sVpunishment
p120
VPunishment
p121
sVpoisontouch
p122
VPoison Touch
p123
sVfeebas
p124
VFeebas
p125
sVneedlearm
p126
VNeedle Arm
p127
sVblastburn
p128
VBlast Burn
p129
sVhonchkrow
p130
VHonchkrow
p131
sVtirtouga
p132
VTirtouga
p133
sVampharos
p134
VAmpharos
p135
sVdusclops
p136
VDusclops
p137
sVpoisonbarb
p138
VPoison Barb
p139
sVmorningsun
p140
VMorning Sun
p141
sVfreezedry
p142
VFreeze Dry
p143
sVmandibuzz
p144
VMandibuzz
p145
sVoverheat
p146
VOverheat
p147
sVspiritomb
p148
VSpiritomb
p149
sVvoltabsorb
p150
VVolt Absorb
p151
sVpurugly
p152
VPurugly
p153
sVshiftgear
p154
VShift Gear
p155
sS'calm'
p156
S'Calm'
p157
sVcastformrainy
p158
VCastform-Rainy
p159
sVbigroot
p160
VBig Root
p161
sVtorment
p162
VTorment
p163
sS'aromaveil'
p164
S'Aroma Veil'
p165
sVgardevoir
p166
VGardevoir
p167
sVvenomdrench
p168
VVenom Drench
p169
sVmagnetrise
p170
VMagnet Rise
p171
sS'naive'
p172
S'Naive'
p173
sVkyogre
p174
VKyogre
p175
sS'adamant'
p176
S'Adamant'
p177
sVkitsunoh
p178
VKitsunoh
p179
sVarceusbug
p180
VArceus-Bug
p181
sVnoibat
p182
VNoibat
p183
sVpidgeot
p184
VPidgeot
p185
sVtangledfeet
p186
VTangled Feet
p187
sValakazam
p188
VAlakazam
p189
sVonix
p190
VOnix
p191
sVgrimer
p192
VGrimer
p193
sVrototiller
p194
VRototiller
p195
sVlucariomega
p196
VLucario-Mega
p197
sVbugbite
p198
VBug Bite
p199
sVpoisongas
p200
VPoison Gas
p201
sVmakuhita
p202
VMakuhita
p203
sVattract
p204
VAttract
p205
sVcharizarditey
p206
VCharizardite Y
p207
sVcharizarditex
p208
VCharizardite X
p209
sVpowerwhip
p210
VPower Whip
p211
sVskydrop
p212
VSky Drop
p213
sVcrabhammer
p214
VCrabhammer
p215
sVtoxic
p216
VToxic
p217
sVcastformsunny
p218
VCastform-Sunny
p219
sVrotomheat
p220
VRotom-Heat
p221
sVsportball
p222
VSport Ball
p223
sVpoisonpowder
p224
VPoisonPowder
p225
sVredcard
p226
VRed Card
p227
sS'modest'
p228
S'Modest'
p229
sS'lax'
p230
S'Lax'
p231
sVrocktomb
p232
VRock Tomb
p233
sVcherubi
p234
VCherubi
p235
sVleafstorm
p236
VLeaf Storm
p237
sVspookyplate
p238
VSpooky Plate
p239
sS'hasty'
p240
S'Hasty'
p241
sVentei
p242
VEntei
p243
sVmemento
p244
VMemento
p245
sVarceussteel
p246
VArceus-Steel
p247
sVcobaberry
p248
VCoba Berry
p249
sVlaggingtail
p250
VLagging Tail
p251
sVfinalgambit
p252
VFinal Gambit
p253
sVrapidash
p254
VRapidash
p255
sVdoubleteam
p256
VDouble Team
p257
sVlumineon
p258
VLumineon
p259
sVshielddust
p260
VShield Dust
p261
sVmagicbounce
p262
VMagic Bounce
p263
sVfakeout
p264
VFake Out
p265
sVsludge
p266
VSludge
p267
sVvenusaur
p268
VVenusaur
p269
sVphione
p270
VPhione
p271
sVflameburst
p272
VFlame Burst
p273
sVzapplate
p274
VZap Plate
p275
sVfletchinder
p276
VFletchinder
p277
sVmunna
p278
VMunna
p279
sVhitmonlee
p280
VHitmonlee
p281
sVdryskin
p282
VDry Skin
p283
sVkricketot
p284
VKricketot
p285
sVroost
p286
VRoost
p287
sVfurycutter
p288
VFury Cutter
p289
sVirontail
p290
VIron Tail
p291
sVpoliwhirl
p292
VPoliwhirl
p293
sVeggbomb
p294
VEgg Bomb
p295
sVluxray
p296
VLuxray
p297
sVpayback
p298
VPayback
p299
sVexcadrill
p300
VExcadrill
p301
sVgloom
p302
VGloom
p303
sVgluttony
p304
VGluttony
p305
sVvulpix
p306
VVulpix
p307
sVcradily
p308
VCradily
p309
sVthunderfang
p310
VThunder Fang
p311
sVblastoisemega
p312
VBlastoise-Mega
p313
sVespeon
p314
VEspeon
p315
sVmultitype
p316
VMultitype
p317
sVflameorb
p318
VFlame Orb
p319
sVhiddenpowerdragon
p320
VHidden Power Dragon
p321
sVfairywind
p322
VFairy Wind
p323
sVgothorita
p324
VGothorita
p325
sVshadowtag
p326
VShadow Tag
p327
sVomastar
p328
VOmastar
p329
sVwalrein
p330
VWalrein
p331
sVtruant
p332
VTruant
p333
sVqualotberry
p334
VQualot Berry
p335
sVflowergift
p336
VFlower Gift
p337
sVpsychic
p338
VPsychic
p339
sVlifeorb
p340
VLife Orb
p341
sVkasibberry
p342
VKasib Berry
p343
sVseedbomb
p344
VSeed Bomb
p345
sVtornadus
p346
VTornadus
p347
sVshedshell
p348
VShed Shell
p349
sVbarrier
p350
VBarrier
p351
sVleftovers
p352
VLeftovers
p353
sVrevenge
p354
VRevenge
p355
sVsynchronoise
p356
VSynchronoise
p357
sVbestow
p358
VBestow
p359
sVtrumpcard
p360
VTrump Card
p361
sVstruggle
p362
VStruggle
p363
sVshiftry
p364
VShiftry
p365
sVhonedge
p366
VHonedge
p367
sVbeartic
p368
VBeartic
p369
sVkyuremblack
p370
VKyurem-Black
p371
sVsonicboom
p372
VSonicBoom
p373
sVfightinggem
p374
VFighting Gem
p375
sVlatias
p376
VLatias
p377
sVfilter
p378
VFilter
p379
sVcherishball
p380
VCherish Ball
p381
sVcheriberry
p382
VCheri Berry
p383
sS'naughty'
p384
S'Naughty'
p385
sVseedflare
p386
VSeed Flare
p387
sVhydrocannon
p388
VHydro Cannon
p389
sVmagneticflux
p390
VMagnetic Flux
p391
sVdeoxys
p392
VDeoxys
p393
sVhooh
p394
VHo-Oh
p395
sVshieldon
p396
VShieldon
p397
sVslugma
p398
VSlugma
p399
sVheracrossmega
p400
VHeracross-Mega
p401
sVwaveincense
p402
VWave Incense
p403
sVmanectite
p404
VManectite
p405
sVaircutter
p406
VAir Cutter
p407
sVgiratinaorigin
p408
VGiratina-Origin
p409
sVgrowlithe
p410
VGrowlithe
p411
sVinferno
p412
VInferno
p413
sVtwister
p414
VTwister
p415
sVyamask
p416
VYamask
p417
sVflamethrower
p418
VFlamethrower
p419
sVtoxicorb
p420
VToxic Orb
p421
sVfairylock
p422
VFairy Lock
p423
sVrockclimb
p424
VRock Climb
p425
sVwonderroom
p426
VWonder Room
p427
sVmachoke
p428
VMachoke
p429
sVdoomdesire
p430
VDoom Desire
p431
sVmirrormove
p432
VMirror Move
p433
sVsandshrew
p434
VSandshrew
p435
sVpolitoed
p436
VPolitoed
p437
sVminun
p438
VMinun
p439
sVbelueberry
p440
VBelue Berry
p441
sVendure
p442
VEndure
p443
sVswiftswim
p444
VSwift Swim
p445
sVshellbell
p446
VShell Bell
p447
sVminus
p448
VMinus
p449
sVmeowth
p450
VMeowth
p451
sVsweetscent
p452
VSweet Scent
p453
sVsludgebomb
p454
VSludge Bomb
p455
sVpayapaberry
p456
VPayapa Berry
p457
sVclosecombat
p458
VClose Combat
p459
sVmetalclaw
p460
VMetal Claw
p461
sVseel
p462
VSeel
p463
sVblastoise
p464
VBlastoise
p465
sVstrength
p466
VStrength
p467
sVchingling
p468
VChingling
p469
sVgothita
p470
VGothita
p471
sVdarmanitan
p472
VDarmanitan
p473
sVcraftyshield
p474
VCrafty Shield
p475
sVgyroball
p476
VGyro Ball
p477
sVursaring
p478
VUrsaring
p479
sVamoonguss
p480
VAmoonguss
p481
sVgrassyterrain
p482
VGrassy Terrain
p483
sVdeoxysspeed
p484
VDeoxys-Speed
p485
sVshadowforce
p486
VShadow Force
p487
sVcoil
p488
VCoil
p489
sVdrought
p490
VDrought
p491
sVferrothorn
p492
VFerrothorn
p493
sVcosmicpower
p494
VCosmic Power
p495
sVdunsparce
p496
VDunsparce
p497
sVconstrict
p498
VConstrict
p499
sVvileplume
p500
VVileplume
p501
sVraticate
p502
VRaticate
p503
sVslaking
p504
VSlaking
p505
sVjirachi
p506
VJirachi
p507
sVgolduck
p508
VGolduck
p509
sVarmorfossil
p510
VArmor Fossil
p511
sVstickyweb
p512
VSticky Web
p513
sVtogekiss
p514
VTogekiss
p515
sVhippopotas
p516
VHippopotas
p517
sVdialga
p518
VDialga
p519
sVlastresort
p520
VLast Resort
p521
sVbulletpunch
p522
VBullet Punch
p523
sVicegem
p524
VIce Gem
p525
sVspite
p526
VSpite
p527
sVcarbink
p528
VCarbink
p529
sVhaze
p530
VHaze
p531
sVstoutland
p532
VStoutland
p533
sVbidoof
p534
VBidoof
p535
sVsyclant
p536
VSyclant
p537
sVhaunter
p538
VHaunter
p539
sVweedle
p540
VWeedle
p541
sVaerilate
p542
S'Aerilate'
p543
sVhoneygather
p544
VHoney Gather
p545
sVmachop
p546
VMachop
p547
sVmetalpowder
p548
VMetal Powder
p549
sVdusknoir
p550
VDusknoir
p551
sVmeditate
p552
VMeditate
p553
sVreversal
p554
VReversal
p555
sVlunardance
p556
VLunar Dance
p557
sVpumpkaboosmall
p558
VPumpkaboo-Small
p559
sVtentacool
p560
VTentacool
p561
sVmilotic
p562
VMilotic
p563
sVscizor
p564
VScizor
p565
sVwailmer
p566
VWailmer
p567
sVnosepass
p568
VNosepass
p569
sVearthplate
p570
VEarth Plate
p571
sVlaxincense
p572
VLax Incense
p573
sVmagneton
p574
VMagneton
p575
sVstickyhold
p576
VSticky Hold
p577
sVbeatup
p578
VBeat Up
p579
sVleafblade
p580
VLeaf Blade
p581
sVserperior
p582
VSerperior
p583
sVempoleon
p584
VEmpoleon
p585
sVwooper
p586
VWooper
p587
sVforretress
p588
VForretress
p589
sVmindreader
p590
VMind Reader
p591
sVseaincense
p592
VSea Incense
p593
sVsimisage
p594
VSimisage
p595
sVarcheops
p596
VArcheops
p597
sVheavymetal
p598
VHeavy Metal
p599
sVwormadamsandy
p600
VWormadam-Sandy
p601
sVmuscleband
p602
VMuscle Band
p603
sVmatblock
p604
VMat Block
p605
sVpurrloin
p606
VPurrloin
p607
sVdoduo
p608
VDoduo
p609
sVmuk
p610
VMuk
p611
sVmotordrive
p612
VMotor Drive
p613
sVstarfberry
p614
VStarf Berry
p615
sVslowpoke
p616
VSlowpoke
p617
sVfrostbreath
p618
VFrost Breath
p619
sVcubone
p620
VCubone
p621
sVcut
p622
VCut
p623
sVmeadowplate
p624
VMeadow Plate
p625
sVparasect
p626
VParasect
p627
sVgourgeistsmall
p628
VGourgeist-Small
p629
sVclearsmog
p630
VClear Smog
p631
sVprotect
p632
VProtect
p633
sVplaynice
p634
VPlay Nice
p635
sVsamurott
p636
VSamurott
p637
sVmawile
p638
VMawile
p639
sVchimecho
p640
VChimecho
p641
sVpetayaberry
p642
VPetaya Berry
p643
sVdoublade
p644
VDoublade
p645
sVconfide
p646
VConfide
p647
sVluckychant
p648
VLucky Chant
p649
sVleppaberry
p650
VLeppa Berry
p651
sVlick
p652
VLick
p653
sVhitmontop
p654
VHitmontop
p655
sVfierydance
p656
VFiery Dance
p657
sVfloatzel
p658
VFloatzel
p659
sVsmackdown
p660
VSmack Down
p661
sVcyclohm
p662
VCyclohm
p663
sVbuneary
p664
VBuneary
p665
sVshockdrive
p666
VShock Drive
p667
sVnightdaze
p668
VNight Daze
p669
sVfriendguard
p670
VFriend Guard
p671
sVfrisk
p672
VFrisk
p673
sVsteamroller
p674
VSteamroller
p675
sVkakuna
p676
VKakuna
p677
sVpowertrick
p678
VPower Trick
p679
sVyanma
p680
VYanma
p681
sVmagiccoat
p682
VMagic Coat
p683
sVmarshtomp
p684
VMarshtomp
p685
sVgurdurr
p686
VGurdurr
p687
sVsoundproof
p688
VSoundproof
p689
sVthrash
p690
VThrash
p691
sVchespin
p692
VChespin
p693
sVsliggoo
p694
VSliggoo
p695
sVtotodile
p696
VTotodile
p697
sVgarchompite
p698
VGarchompite
p699
sVslowbro
p700
VSlowbro
p701
sVigglybuff
p702
VIgglybuff
p703
sVbinacle
p704
VBinacle
p705
sVnevermeltice
p706
VNeverMeltIce
p707
sVgrowl
p708
VGrowl
p709
sVaguavberry
p710
VAguav Berry
p711
sVdrilbur
p712
VDrilbur
p713
sVheracross
p714
VHeracross
p715
sVralts
p716
VRalts
p717
sVpupitar
p718
VPupitar
p719
sVslowking
p720
VSlowking
p721
sVpowerherb
p722
VPower Herb
p723
sVnoivern
p724
VNoivern
p725
sVwaterfall
p726
VWaterfall
p727
sVdewgong
p728
VDewgong
p729
sVkirlia
p730
VKirlia
p731
sVknockoff
p732
VKnock Off
p733
sVoctazooka
p734
VOctazooka
p735
sS'cawmodore'
p736
S'Cawmodore'
p737
sVsylveon
p738
VSylveon
p739
sVluxuryball
p740
VLuxury Ball
p741
sVhydration
p742
VHydration
p743
sVkrokorok
p744
VKrokorok
p745
sVgolbat
p746
VGolbat
p747
sVquilladin
p748
VQuilladin
p749
sVshellarmor
p750
VShell Armor
p751
sVpoliwag
p752
VPoliwag
p753
sVmetalcoat
p754
VMetal Coat
p755
sVthickclub
p756
VThick Club
p757
sVsweetveil
p758
VSweet Veil
p759
sVgoomy
p760
VGoomy
p761
sVsilcoon
p762
VSilcoon
p763
sVbuggem
p764
VBug Gem
p765
sVoshawott
p766
VOshawott
p767
sVtorterra
p768
VTorterra
p769
sVtogepi
p770
VTogepi
p771
sVdomefossil
p772
VDome Fossil
p773
sVlowkick
p774
VLow Kick
p775
sVhealbell
p776
VHeal Bell
p777
sVmirrorshot
p778
VMirror Shot
p779
sVlickitung
p780
VLickitung
p781
sVdragonrush
p782
VDragon Rush
p783
sVspinarak
p784
VSpinarak
p785
sVdiggersby
p786
VDiggersby
p787
sVsilverwind
p788
VSilver Wind
p789
sVthundurustherian
p790
VThundurus-Therian
p791
sVludicolo
p792
VLudicolo
p793
sVditto
p794
VDitto
p795
sVcirclethrow
p796
VCircle Throw
p797
sVrotom
p798
VRotom
p799
sVnidoqueen
p800
VNidoqueen
p801
sVpinsirmega
p802
VPinsir-Mega
p803
sVhiddenpowerpoison
p804
VHidden Power Poison
p805
sVflatter
p806
VFlatter
p807
sVtoxicspikes
p808
VToxic Spikes
p809
sVfirepledge
p810
VFire Pledge
p811
sVnoctowl
p812
VNoctowl
p813
sVcornnberry
p814
VCornn Berry
p815
sVskullfossil
p816
VSkull Fossil
p817
sVcheekpouch
p818
S'Cheek Pouch'
p819
sVuproar
p820
VUproar
p821
sVrhyperior
p822
VRhyperior
p823
sVtynamo
p824
VTynamo
p825
sVrufflet
p826
VRufflet
p827
sVpsyshock
p828
VPsyshock
p829
sVicyrock
p830
VIcy Rock
p831
sVwynaut
p832
VWynaut
p833
sVtrevenant
p834
VTrevenant
p835
sVabsorbbulb
p836
VAbsorb Bulb
p837
sS'bold'
p838
S'Bold'
p839
sVgunkshot
p840
VGunk Shot
p841
sVgarchomp
p842
VGarchomp
p843
sVgeodude
p844
VGeodude
p845
sVlightscreen
p846
VLight Screen
p847
sVwhimsicott
p848
VWhimsicott
p849
sVlavaplume
p850
VLava Plume
p851
sVkeeneye
p852
VKeen Eye
p853
sVsimipour
p854
VSimipour
p855
sVautotomize
p856
VAutotomize
p857
sVspikecannon
p858
VSpike Cannon
p859
sVnecturna
p860
VNecturna
p861
sVplus
p862
VPlus
p863
sVsapsipper
p864
VSap Sipper
p865
sVthunderpunch
p866
VThunder Punch
p867
sVhornleech
p868
VHorn Leech
p869
sVbraixen
p870
VBraixen
p871
sVdarkvoid
p872
VDark Void
p873
sVhoundour
p874
VHoundour
p875
sVdualchop
p876
VDual Chop
p877
sVfoulplay
p878
VFoul Play
p879
sVscyther
p880
VScyther
p881
sVgalewings
p882
S'Gale Wings'
p883
sVstormdrain
p884
VStorm Drain
p885
sVseadra
p886
VSeadra
p887
sVovergrow
p888
VOvergrow
p889
sVbonemerang
p890
VBonemerang
p891
sVshellos
p892
VShellos
p893
sVwrap
p894
VWrap
p895
sVcorsola
p896
VCorsola
p897
sVtransform
p898
VTransform
p899
sVklefki
p900
VKlefki
p901
sVrowapberry
p902
VRowap Berry
p903
sS'quirky'
p904
S'Quirky'
p905
sVgarbodor
p906
VGarbodor
p907
sVsynthesis
p908
VSynthesis
p909
sVmultiscale
p910
VMultiscale
p911
sVgroundgem
p912
VGround Gem
p913
sVreshiram
p914
VReshiram
p915
sVrocksmash
p916
VRock Smash
p917
sVvolttackle
p918
VVolt Tackle
p919
sVghostgem
p920
VGhost Gem
p921
sVroughskin
p922
VRough Skin
p923
sVsafeguard
p924
VSafeguard
p925
sVsmoothrock
p926
VSmooth Rock
p927
sVbide
p928
VBide
p929
sVaurabreak
p930
S'Aura Break'
p931
sVaurorus
p932
VAurorus
p933
sVchopleberry
p934
VChople Berry
p935
sVunnerve
p936
VUnnerve
p937
sVpaleowave
p938
VPaleo Wave
p939
sVparentalbond
p940
S'Parental Bond'
p941
sVferaligatr
p942
VFeraligatr
p943
sVoddish
p944
VOddish
p945
sVleer
p946
VLeer
p947
sVmagby
p948
VMagby
p949
sVswadloon
p950
VSwadloon
p951
sVvibrava
p952
VVibrava
p953
sVuxie
p954
VUxie
p955
sVsmoochum
p956
VSmoochum
p957
sVlansatberry
p958
VLansat Berry
p959
sVbutterfree
p960
VButterfree
p961
sVferroseed
p962
VFerroseed
p963
sVamaura
p964
VAmaura
p965
sVfennekin
p966
VFennekin
p967
sVclawfossil
p968
VClaw Fossil
p969
sVdischarge
p970
VDischarge
p971
sVpoisonpoint
p972
VPoison Point
p973
sVhiddenpowerground
p974
VHidden Power Ground
p975
sVarceuspoison
p976
VArceus-Poison
p977
sVliechiberry
p978
VLiechi Berry
p979
sVlillipup
p980
VLillipup
p981
sVflareboost
p982
VFlare Boost
p983
sVmummy
p984
VMummy
p985
sVoccaberry
p986
VOcca Berry
p987
sVironfist
p988
VIron Fist
p989
sS'serious'
p990
S'Serious'
p991
sVmegadrain
p992
VMega Drain
p993
sVsalacberry
p994
VSalac Berry
p995
sVsnubbull
p996
VSnubbull
p997
sVsandveil
p998
VSand Veil
p999
sVabsolite
p1000
VAbsolite
p1001
sVbonsly
p1002
VBonsly
p1003
sVcelebi
p1004
VCelebi
p1005
sVavalanche
p1006
VAvalanche
p1007
sVshadowsneak
p1008
VShadow Sneak
p1009
sVsuctioncups
p1010
VSuction Cups
p1011
sVsuperpower
p1012
VSuperpower
p1013
sVanticipation
p1014
VAnticipation
p1015
sVpanpour
p1016
VPanpour
p1017
sVdragonpulse
p1018
VDragon Pulse
p1019
sVelectroball
p1020
VElectro Ball
p1021
sVflash
p1022
VFlash
p1023
sVnetball
p1024
VNet Ball
p1025
sVcharge
p1026
VCharge
p1027
sVquash
p1028
VQuash
p1029
sVsnorlax
p1030
VSnorlax
p1031
sVunburden
p1032
VUnburden
p1033
sVcrosschop
p1034
VCross Chop
p1035
sVmachamp
p1036
VMachamp
p1037
sVkricketune
p1038
VKricketune
p1039
sVtailslap
p1040
VTail Slap
p1041
sVjynx
p1042
VJynx
p1043
sVlopunny
p1044
VLopunny
p1045
sVtoxicplate
p1046
VToxic Plate
p1047
sVskyuppercut
p1048
VSky Uppercut
p1049
sVpoisonsting
p1050
VPoison Sting
p1051
sVarceusfire
p1052
VArceus-Fire
p1053
sVfocusblast
p1054
VFocus Blast
p1055
sVmesprit
p1056
VMesprit
p1057
sVmagnet
p1058
VMagnet
p1059
sVbanettemega
p1060
VBanette-Mega
p1061
sVround
p1062
VRound
p1063
sVunaware
p1064
VUnaware
p1065
sVduskball
p1066
VDusk Ball
p1067
sVfalseswipe
p1068
VFalse Swipe
p1069
sVtalonflame
p1070
VTalonflame
p1071
sVleafeon
p1072
VLeafeon
p1073
sVzorua
p1074
VZorua
p1075
sVzenmode
p1076
VZen Mode
p1077
sVvitalthrow
p1078
VVital Throw
p1079
sVsubstitute
p1080
VSubstitute
p1081
sVcurse
p1082
VCurse
p1083
sVfocusband
p1084
VFocus Band
p1085
sVmoltres
p1086
VMoltres
p1087
sVpasshoberry
p1088
VPassho Berry
p1089
sVdragondance
p1090
VDragon Dance
p1091
sVaxew
p1092
VAxew
p1093
sVkecleon
p1094
VKecleon
p1095
sVglameow
p1096
VGlameow
p1097
sVaeroblast
p1098
VAeroblast
p1099
sVwartortle
p1100
VWartortle
p1101
sVexplosion
p1102
VExplosion
p1103
sVmiracleeye
p1104
VMiracle Eye
p1105
sVpumpkaboo
p1106
VPumpkaboo
p1107
sVsimisear
p1108
VSimisear
p1109
sS'hoopa'
p1110
S'Hoopa'
p1111
sVtropius
p1112
VTropius
p1113
sVmysticwater
p1114
VMystic Water
p1115
sVearthquake
p1116
VEarthquake
p1117
sVgastroacid
p1118
VGastro Acid
p1119
sVejectbutton
p1120
VEject Button
p1121
sVexploud
p1122
VExploud
p1123
sVdiveball
p1124
VDive Ball
p1125
sVsawk
p1126
VSawk
p1127
sVscraggy
p1128
VScraggy
p1129
sVdedenne
p1130
VDedenne
p1131
sVbrickbreak
p1132
VBrick Break
p1133
sVbagon
p1134
VBagon
p1135
sVregenerator
p1136
VRegenerator
p1137
sViondeluge
p1138
VIon Deluge
p1139
sVburndrive
p1140
VBurn Drive
p1141
sVmudslap
p1142
VMud-Slap
p1143
sVflaaffy
p1144
VFlaaffy
p1145
sVmagicroom
p1146
VMagic Room
p1147
sVsouldew
p1148
VSoul Dew
p1149
sVpinsirite
p1150
VPinsirite
p1151
sVheavyslam
p1152
VHeavy Slam
p1153
sVpinmissile
p1154
VPin Missile
p1155
sVsmellingsalts
p1156
VSmelling Salts
p1157
sVcaptivate
p1158
VCaptivate
p1159
sVsharpen
p1160
VSharpen
p1161
sVswagger
p1162
VSwagger
p1163
sVxatu
p1164
VXatu
p1165
sVrockslide
p1166
VRock Slide
p1167
sVcaterpie
p1168
VCaterpie
p1169
sVhypno
p1170
VHypno
p1171
sVblazekick
p1172
VBlaze Kick
p1173
sVfletchling
p1174
VFletchling
p1175
sVseismictoss
p1176
VSeismic Toss
p1177
sVdarumaka
p1178
VDarumaka
p1179
sVuturn
p1180
VU-turn
p1181
sVflygon
p1182
VFlygon
p1183
sVsandstorm
p1184
VSandstorm
p1185
sVswablu
p1186
VSwablu
p1187
sVspikyshield
p1188
VSpiky Shield
p1189
sVscolipede
p1190
VScolipede
p1191
sVdwebble
p1192
VDwebble
p1193
sVpignite
p1194
VPignite
p1195
sVsolarpower
p1196
VSolar Power
p1197
sVdonphan
p1198
VDonphan
p1199
sVpalpitoad
p1200
VPalpitoad
p1201
sVchilldrive
p1202
VChill Drive
p1203
sVnormalize
p1204
VNormalize
p1205
sVbanette
p1206
VBanette
p1207
sVtailwind
p1208
VTailwind
p1209
sVwideguard
p1210
VWide Guard
p1211
sVwikiberry
p1212
VWiki Berry
p1213
sVarbok
p1214
VArbok
p1215
sVelectricterrain
p1216
VElectric Terrain
p1217
sVoctillery
p1218
VOctillery
p1219
sVvenonat
p1220
VVenonat
p1221
sVteleport
p1222
VTeleport
p1223
sVdive
p1224
VDive
p1225
sVmamoswine
p1226
VMamoswine
p1227
sVwiseglasses
p1228
VWise Glasses
p1229
sVmilkdrink
p1230
VMilk Drink
p1231
sVancientpower
p1232
VAncient Power
p1233
sVblissey
p1234
VBlissey
p1235
sVcryogonal
p1236
VCryogonal
p1237
sVsupersonic
p1238
VSupersonic
p1239
sVdelibird
p1240
VDelibird
p1241
sVmalamar
p1242
VMalamar
p1243
sVshinx
p1244
VShinx
p1245
sVlitwick
p1246
VLitwick
p1247
sVriolu
p1248
VRiolu
p1249
sVlugia
p1250
VLugia
p1251
sVbulletseed
p1252
VBullet Seed
p1253
sVbubblebeam
p1254
VBubbleBeam
p1255
sVpachirisu
p1256
VPachirisu
p1257
sVarcanine
p1258
VArcanine
p1259
sVsneasel
p1260
VSneasel
p1261
sVgrassknot
p1262
VGrass Knot
p1263
sVklutz
p1264
VKlutz
p1265
sVbulldoze
p1266
VBulldoze
p1267
sVfocusenergy
p1268
VFocus Energy
p1269
sVkabuto
p1270
VKabuto
p1271
sVmail
p1272
VMail
p1273
sVgarchompmega
p1274
VGarchomp-Mega
p1275
sS'lonely'
p1276
S'Lonely'
p1277
sVfling
p1278
VFling
p1279
sVrattled
p1280
VRattled
p1281
sS'bashful'
p1282
S'Bashful'
p1283
sVfusionflare
p1284
VFusion Flare
p1285
sVsafariball
p1286
VSafari Ball
p1287
sVeffectspore
p1288
VEffect Spore
p1289
sVboomburst
p1290
VBoomburst
p1291
sVlinoone
p1292
VLinoone
p1293
sVsynchronize
p1294
VSynchronize
p1295
sVmantine
p1296
VMantine
p1297
sVglalie
p1298
VGlalie
p1299
sVpsyduck
p1300
VPsyduck
p1301
sVrockthrow
p1302
VRock Throw
p1303
sVswalot
p1304
VSwalot
p1305
sVgenesectburn
p1306
VGenesect-Burn
p1307
sVporygonz
p1308
VPorygon-Z
p1309
sVstrugglebug
p1310
VStruggle Bug
p1311
sVpersian
p1312
VPersian
p1313
sVshaymin
p1314
VShaymin
p1315
sVpidove
p1316
VPidove
p1317
sVskillswap
p1318
VSkill Swap
p1319
sVassurance
p1320
VAssurance
p1321
sVpoochyena
p1322
VPoochyena
p1323
sVporygon2
p1324
VPorygon2
p1325
sVtoxicroak
p1326
VToxicroak
p1327
sVmiltank
p1328
VMiltank
p1329
sVdig
p1330
VDig
p1331
sVpetilil
p1332
VPetilil
p1333
sVtelepathy
p1334
VTelepathy
p1335
sVnidorino
p1336
VNidorino
p1337
sVmeloettapirouette
p1338
VMeloetta-Pirouette
p1339
sVnidorina
p1340
VNidorina
p1341
sVhypnosis
p1342
VHypnosis
p1343
sVdurinberry
p1344
VDurin Berry
p1345
sVdragonrage
p1346
VDragon Rage
p1347
sVjolteon
p1348
VJolteon
p1349
sVdefensecurl
p1350
VDefense Curl
p1351
sVchikorita
p1352
VChikorita
p1353
sVrockyhelmet
p1354
VRocky Helmet
p1355
sVwatergem
p1356
VWater Gem
p1357
sVjabocaberry
p1358
VJaboca Berry
p1359
sVhoppip
p1360
VHoppip
p1361
sViceshard
p1362
VIce Shard
p1363
sVgiratina
p1364
VGiratina
p1365
sVteravolt
p1366
VTeravolt
p1367
sVbite
p1368
VBite
p1369
sVduosion
p1370
VDuosion
p1371
sVaromatherapy
p1372
VAromatherapy
p1373
sVsleeptalk
p1374
VSleep Talk
p1375
sVconfuseray
p1376
VConfuse Ray
p1377
sVgliscor
p1378
VGliscor
p1379
sVseedot
p1380
VSeedot
p1381
sVsnatch
p1382
VSnatch
p1383
sVbunnelby
p1384
VBunnelby
p1385
sVdrapion
p1386
VDrapion
p1387
sVpeck
p1388
VPeck
p1389
sVwormadamtrash
p1390
VWormadam-Trash
p1391
sVflashcannon
p1392
VFlash Cannon
p1393
sVquickattack
p1394
VQuick Attack
p1395
sVtrickortreat
p1396
VTrick-or-Treat
p1397
sVvirizion
p1398
VVirizion
p1399
sVhiddenpowerrock
p1400
VHidden Power Rock
p1401
sVrazzberry
p1402
VRazz Berry
p1403
sVchlorophyll
p1404
VChlorophyll
p1405
sVslam
p1406
VSlam
p1407
sVsandstream
p1408
VSand Stream
p1409
sVledyba
p1410
VLedyba
p1411
sVaquatail
p1412
VAqua Tail
p1413
sVkrilowatt
p1414
VKrilowatt
p1415
sVrecover
p1416
VRecover
p1417
sVconversion
p1418
VConversion
p1419
sVelectrode
p1420
VElectrode
p1421
sVhiddenpowerdark
p1422
VHidden Power Dark
p1423
sVmetalsound
p1424
VMetal Sound
p1425
sVarghonaut
p1426
VArghonaut
p1427
sVbeedrill
p1428
VBeedrill
p1429
sVsurf
p1430
VSurf
p1431
sVgriseousorb
p1432
VGriseous Orb
p1433
sVmountaineer
p1434
VMountaineer
p1435
sVstunky
p1436
VStunky
p1437
sVtrace
p1438
VTrace
p1439
sVgeargrind
p1440
VGear Grind
p1441
sVdarkrai
p1442
VDarkrai
p1443
sVbarrage
p1444
VBarrage
p1445
sVgengarmega
p1446
VGengar-Mega
p1447
sVstunfisk
p1448
VStunfisk
p1449
sVadaptability
p1450
VAdaptability
p1451
sVespurr
p1452
VEspurr
p1453
sVleaftornado
p1454
VLeaf Tornado
p1455
sVhyperfang
p1456
VHyper Fang
p1457
sVdracoplate
p1458
VDraco Plate
p1459
sVelectirizer
p1460
VElectirizer
p1461
sVmollux
p1462
VMollux
p1463
sVmuddywater
p1464
VMuddy Water
p1465
sVcompoundeyes
p1466
VCompound Eyes
p1467
sVdelphox
p1468
VDelphox
p1469
sVtintedlens
p1470
VTinted Lens
p1471
sVgolurk
p1472
VGolurk
p1473
sVfigyberry
p1474
VFigy Berry
p1475
sVgoodra
p1476
VGoodra
p1477
sVrevenankh
p1478
VRevenankh
p1479
sVvolbeat
p1480
VVolbeat
p1481
sVlarvesta
p1482
VLarvesta
p1483
sVthunderwave
p1484
VThunder Wave
p1485
sVpatrat
p1486
VPatrat
p1487
sVacupressure
p1488
VAcupressure
p1489
sVanalytic
p1490
VAnalytic
p1491
sVprobopass
p1492
VProbopass
p1493
sVoutrage
p1494
VOutrage
p1495
sVleavanny
p1496
VLeavanny
p1497
sVkinesis
p1498
VKinesis
p1499
sVweaknesspolicy
p1500
VWeakness Policy
p1501
sVstomp
p1502
VStomp
p1503
sVboneclub
p1504
VBone Club
p1505
sVtelekinesis
p1506
VTelekinesis
p1507
sVmoxie
p1508
VMoxie
p1509
sVabsolmega
p1510
VAbsol-Mega
p1511
sVparkball
p1512
VPark Ball
p1513
sVspewpa
p1514
VSpewpa
p1515
sVwonderskin
p1516
VWonder Skin
p1517
sVhiddenpowerfighting
p1518
VHidden Power Fighting
p1519
sVimposter
p1520
VImposter
p1521
sVspore
p1522
VSpore
p1523
sVquagsire
p1524
VQuagsire
p1525
sVdetect
p1526
VDetect
p1527
sVsteadfast
p1528
VSteadfast
p1529
sVlimber
p1530
VLimber
p1531
sVbatonpass
p1532
VBaton Pass
p1533
sVforecast
p1534
VForecast
p1535
sVwhiscash
p1536
VWhiscash
p1537
sVsnowwarning
p1538
VSnow Warning
p1539
sVjustified
p1540
VJustified
p1541
sVdamprock
p1542
VDamp Rock
p1543
sVhariyama
p1544
VHariyama
p1545
sVcrawdaunt
p1546
VCrawdaunt
p1547
sVpluck
p1548
VPluck
p1549
sVspark
p1550
VSpark
p1551
sVxerneas
p1552
VXerneas
p1553
sVspoink
p1554
VSpoink
p1555
sVvictreebel
p1556
VVictreebel
p1557
sVdestinyknot
p1558
VDestiny Knot
p1559
sVskiddo
p1560
VSkiddo
p1561
sVrhyhorn
p1562
VRhyhorn
p1563
sVsteelix
p1564
VSteelix
p1565
sVnestball
p1566
VNest Ball
p1567
sVkrookodile
p1568
VKrookodile
p1569
sVcellbattery
p1570
VCell Battery
p1571
sVwingattack
p1572
VWing Attack
p1573
sVnormalgem
p1574
VNormal Gem
p1575
sVhiddenpowersteel
p1576
VHidden Power Steel
p1577
sVtyranitarite
p1578
VTyranitarite
p1579
sVdodrio
p1580
VDodrio
p1581
sVstancechange
p1582
VStance Change
p1583
sVzapdos
p1584
VZapdos
p1585
sVendeavor
p1586
VEndeavor
p1587
sVechoedvoice
p1588
VEchoed Voice
p1589
sVrunaway
p1590
VRun Away
p1591
sVlandswrath
p1592
VLand's Wrath
p1593
sVmawilemega
p1594
VMawile-Mega
p1595
sVlightmetal
p1596
VLight Metal
p1597
sVstunspore
p1598
VStun Spore
p1599
sVroseincense
p1600
VRose Incense
p1601
sVgigalith
p1602
VGigalith
p1603
sVspiderweb
p1604
VSpider Web
p1605
sVstantler
p1606
VStantler
p1607
sVflamebody
p1608
VFlame Body
p1609
sVhelioptile
p1610
VHelioptile
p1611
sVcresselia
p1612
VCresselia
p1613
sVomanyte
p1614
VOmanyte
p1615
sVbreloom
p1616
VBreloom
p1617
sVtangela
p1618
VTangela
p1619
sVhealblock
p1620
VHeal Block
p1621
sVswanna
p1622
VSwanna
p1623
sVluminousmoss
p1624
VLuminous Moss
p1625
sS'careful'
p1626
S'Careful'
p1627
sVmudshot
p1628
VMud Shot
p1629
sVdefeatist
p1630
VDefeatist
p1631
sVtrick
p1632
VTrick
p1633
sVlandorus
p1634
VLandorus
p1635
sVgroudon
p1636
VGroudon
p1637
sS'quiet'
p1638
S'Quiet'
p1639
sVenergypowder
p1640
VEnergyPowder
p1641
sVsacredfire
p1642
VSacred Fire
p1643
sVstaryu
p1644
VStaryu
p1645
sVvicegrip
p1646
VViceGrip
p1647
sVgourgeistlarge
p1648
VGourgeist-Large
p1649
sVcubchoo
p1650
VCubchoo
p1651
sVhiddenpowerice
p1652
VHidden Power Ice
p1653
sVextremespeed
p1654
VExtreme Speed
p1655
sVangerpoint
p1656
VAnger Point
p1657
sVphantomforce
p1658
VPhantom Force
p1659
sVstrongjaw
p1660
VStrong Jaw
p1661
sVnuzzle
p1662
VNuzzle
p1663
sVthunderbolt
p1664
VThunderbolt
p1665
sVgenesectshock
p1666
VGenesect-Shock
p1667
sVmagnetbomb
p1668
VMagnet Bomb
p1669
sVassist
p1670
VAssist
p1671
sVblaziken
p1672
VBlaziken
p1673
sS'bulletproof'
p1674
S'Bulletproof'
p1675
sVgligar
p1676
VGligar
p1677
sVrockhead
p1678
VRock Head
p1679
sVhypervoice
p1680
VHyper Voice
p1681
sVminimize
p1682
VMinimize
p1683
sVdoublehit
p1684
VDouble Hit
p1685
sVmedicham
p1686
VMedicham
p1687
sVheatmor
p1688
VHeatmor
p1689
sVrockgem
p1690
VRock Gem
p1691
sVrazorwind
p1692
VRazor Wind
p1693
sVfurcoat
p1694
S'Fur Coat'
p1695
sVhealingwish
p1696
VHealing Wish
p1697
sVquickguard
p1698
VQuick Guard
p1699
sVwingull
p1700
VWingull
p1701
sVrest
p1702
VRest
p1703
sVfurfrou
p1704
VFurfrou
p1705
sVchimchar
p1706
VChimchar
p1707
sVdarkaura
p1708
S'Dark Aura'
p1709
sVrazorclaw
p1710
VRazor Claw
p1711
sVdragonbreath
p1712
VDragon Breath
p1713
sVelgyem
p1714
VElgyem
p1715
sVduskull
p1716
VDuskull
p1717
sVcometpunch
p1718
VComet Punch
p1719
sVaerialace
p1720
VAerial Ace
p1721
sVparas
p1722
VParas
p1723
sVskitty
p1724
VSkitty
p1725
sVflareblitz
p1726
VFlare Blitz
p1727
sVtrubbish
p1728
VTrubbish
p1729
sVsnarl
p1730
VSnarl
p1731
sVmachpunch
p1732
VMach Punch
p1733
sS'volkraken'
p1734
S'Volkraken'
p1735
sVsunkern
p1736
VSunkern
p1737
sVcolossoil
p1738
VColossoil
p1739
sVdreamball
p1740
VDream Ball
p1741
sVsnore
p1742
VSnore
p1743
sVfloatstone
p1744
VFloat Stone
p1745
sVskiploom
p1746
VSkiploom
p1747
sVregigigas
p1748
VRegigigas
p1749
sVvoltswitch
p1750
VVolt Switch
p1751
sVarceusrock
p1752
VArceus-Rock
p1753
sVbrightpowder
p1754
VBrightPowder
p1755
sVhypercutter
p1756
VHyper Cutter
p1757
sVvanillite
p1758
VVanillite
p1759
sVchoiceband
p1760
VChoice Band
p1761
sVheartswap
p1762
VHeart Swap
p1763
sVpinapberry
p1764
VPinap Berry
p1765
sVminccino
p1766
VMinccino
p1767
sVrefresh
p1768
VRefresh
p1769
sVprinplup
p1770
VPrinplup
p1771
sVultraball
p1772
VUltra Ball
p1773
sVheadcharge
p1774
VHead Charge
p1775
sVcrustle
p1776
VCrustle
p1777
sVpowergem
p1778
VPower Gem
p1779
sViceburn
p1780
VIce Burn
p1781
sVbattlearmor
p1782
VBattle Armor
p1783
sS'volcanion'
p1784
S'Volcanion'
p1785
sVcastformsnowy
p1786
VCastform-Snowy
p1787
sVhustle
p1788
VHustle
p1789
sVthroh
p1790
VThroh
p1791
sVmusharna
p1792
VMusharna
p1793
sVinnerfocus
p1794
VInner Focus
p1795
sVbasculinbluestriped
p1796
VBasculin-Blue-Striped
p1797
sVhornattack
p1798
VHorn Attack
p1799
sVzapcannon
p1800
VZap Cannon
p1801
sVroar
p1802
VRoar
p1803
sVlockon
p1804
VLock-On
p1805
sVfloette
p1806
VFloette
p1807
sVgengar
p1808
VGengar
p1809
sVswampert
p1810
VSwampert
p1811
sVgolem
p1812
VGolem
p1813
sVquilava
p1814
VQuilava
p1815
sVcustapberry
p1816
VCustap Berry
p1817
sVsearingshot
p1818
VSearing Shot
p1819
sVstratagem
p1820
VStratagem
p1821
sVpyroar
p1822
VPyroar
p1823
sVshadowpunch
p1824
VShadow Punch
p1825
sVfocuspunch
p1826
VFocus Punch
p1827
sVtoughclaws
p1828
VTough Claws
p1829
sVforewarn
p1830
VForewarn
p1831
sViciclespear
p1832
VIcicle Spear
p1833
sVpyroak
p1834
VPyroak
p1835
sVsacredsword
p1836
VSacred Sword
p1837
sVhex
p1838
VHex
p1839
sVmarill
p1840
VMarill
p1841
sVsymbiosis
p1842
VSymbiosis
p1843
sVwillowisp
p1844
VWill-O-Wisp
p1845
sVbubble
p1846
VBubble
p1847
sVsealeo
p1848
VSealeo
p1849
sVglaciate
p1850
VGlaciate
p1851
sVnightshade
p1852
VNight Shade
p1853
sVfrogadier
p1854
VFrogadier
p1855
sVporygon
p1856
VPorygon
p1857
sVheatrock
p1858
VHeat Rock
p1859
sVvitalspirit
p1860
VVital Spirit
p1861
sVsnover
p1862
VSnover
p1863
sVrage
p1864
VRage
p1865
sVvictorystar
p1866
VVictory Star
p1867
sVvinewhip
p1868
VVine Whip
p1869
sVstoneplate
p1870
VStone Plate
p1871
sVsheercold
p1872
VSheer Cold
p1873
sVsplashplate
p1874
VSplash Plate
p1875
sVpowdersnow
p1876
VPowder Snow
p1877
sVclamperl
p1878
VClamperl
p1879
sVchesnaught
p1880
VChesnaught
p1881
sVdugtrio
p1882
VDugtrio
p1883
sVsmokescreen
p1884
VSmokeScreen
p1885
sVmoonblast
p1886
VMoonblast
p1887
sVcolburberry
p1888
VColbur Berry
p1889
sVaegislash
p1890
VAegislash
p1891
sVimmunity
p1892
VImmunity
p1893
sVstormthrow
p1894
VStorm Throw
p1895
sVcharizard
p1896
VCharizard
p1897
sVnincada
p1898
VNincada
p1899
sVaccelgor
p1900
VAccelgor
p1901
sVmirrorcoat
p1902
VMirror Coat
p1903
sVemboar
p1904
VEmboar
p1905
sVmawilite
p1906
VMawilite
p1907
sVdustox
p1908
VDustox
p1909
sVrootfossil
p1910
VRoot Fossil
p1911
sVtackle
p1912
VTackle
p1913
sVrotomwash
p1914
VRotom-Wash
p1915
sVgrudge
p1916
VGrudge
p1917
sVcyndaquil
p1918
VCyndaquil
p1919
sVblueflare
p1920
VBlue Flare
p1921
sVdefog
p1922
VDefog
p1923
sVskyattack
p1924
VSky Attack
p1925
sVmoonlight
p1926
VMoonlight
p1927
sVmimic
p1928
VMimic
p1929
sVstockpile
p1930
VStockpile
p1931
sVoddincense
p1932
VOdd Incense
p1933
sVgardevoirmega
p1934
VGardevoir-Mega
p1935
sVlairon
p1936
VLairon
p1937
sVeerieimpulse
p1938
VEerie Impulse
p1939
sVscrappy
p1940
VScrappy
p1941
sVtogetic
p1942
VTogetic
p1943
sVfirepunch
p1944
VFire Punch
p1945
sVunfezant
p1946
VUnfezant
p1947
sVmicleberry
p1948
VMicle Berry
p1949
sVlightningrod
p1950
VLightningrod
p1951
sVgigadrain
p1952
VGiga Drain
p1953
sVsilverpowder
p1954
VSilverPowder
p1955
sVvanillish
p1956
VVanillish
p1957
sVsheerforce
p1958
VSheer Force
p1959
sVbayleef
p1960
VBayleef
p1961
sVhondewberry
p1962
VHondew Berry
p1963
sVtympole
p1964
VTympole
p1965
sVwigglytuff
p1966
VWigglytuff
p1967
sVtyranitarmega
p1968
VTyranitar-Mega
p1969
sVicepunch
p1970
VIce Punch
p1971
sVgalvantula
p1972
VGalvantula
p1973
sVcombusken
p1974
VCombusken
p1975
sVcloudnine
p1976
VCloud Nine
p1977
sVmienshao
p1978
VMienshao
p1979
sVkeeberry
p1980
VKee Berry
p1981
sVscrafty
p1982
VScrafty
p1983
sVsecretpower
p1984
VSecret Power
p1985
sS'mild'
p1986
S'Mild'
p1987
sVsawsbuck
p1988
VSawsbuck
p1989
sVdoublekick
p1990
VDouble Kick
p1991
sViceball
p1992
VIce Ball
p1993
sVflorges
p1994
VFlorges
p1995
sVgourgeistsuper
p1996
VGourgeist-Super
p1997
sVironbarbs
p1998
VIron Barbs
p1999
sValtaria
p2000
VAltaria
p2001
sVcrushgrip
p2002
VCrush Grip
p2003
sVcottonguard
p2004
VCotton Guard
p2005
sVmeganium
p2006
VMeganium
p2007
sVchipaway
p2008
VChip Away
p2009
sVhealer
p2010
VHealer
p2011
sVfeatherdance
p2012
VFeatherDance
p2013
sVshockwave
p2014
VShock Wave
p2015
sVironplate
p2016
VIron Plate
p2017
sVgreatball
p2018
VGreat Ball
p2019
sVfellstinger
p2020
VFell Stinger
p2021
sVaurorabeam
p2022
VAurora Beam
p2023
sVheartstamp
p2024
VHeart Stamp
p2025
sVboldore
p2026
VBoldore
p2027
sVchoicescarf
p2028
VChoice Scarf
p2029
sVdragonfang
p2030
VDragon Fang
p2031
sVgastly
p2032
VGastly
p2033
sVrhydon
p2034
VRhydon
p2035
sVvenusaurmega
p2036
VVenusaur-Mega
p2037
sVinfernape
p2038
VInfernape
p2039
sVweezing
p2040
VWeezing
p2041
sVaromatisse
p2042
VAromatisse
p2043
sVkyuremwhite
p2044
VKyurem-White
p2045
sVacidspray
p2046
VAcid Spray
p2047
sVarmaldo
p2048
VArmaldo
p2049
sVkyurem
p2050
VKyurem
p2051
sVwringout
p2052
VWring Out
p2053
sVstarly
p2054
VStarly
p2055
sVhawlucha
p2056
VHawlucha
p2057
sVgolett
p2058
VGolett
p2059
sVgyaradosmega
p2060
VGyarados-Mega
p2061
sVgallade
p2062
VGallade
p2063
sVledian
p2064
VLedian
p2065
sVfeint
p2066
VFeint
p2067
sVluvdisc
p2068
VLuvdisc
p2069
sVhelixfossil
p2070
VHelix Fossil
p2071
sVsplash
p2072
VSplash
p2073
sVillumise
p2074
VIllumise
p2075
sVgirafarig
p2076
VGirafarig
p2077
sVanorith
p2078
VAnorith
p2079
sVdizzypunch
p2080
VDizzy Punch
p2081
sVflyingpress
p2082
VFlying Press
p2083
sVpumpkaboosuper
p2084
VPumpkaboo-Super
p2085
sVhorsea
p2086
VHorsea
p2087
sVstick
p2088
VStick
p2089
sVrazorfang
p2090
VRazor Fang
p2091
sVchilanberry
p2092
VChilan Berry
p2093
sVturboblaze
p2094
VTurboblaze
p2095
sVaegislashblade
p2096
VAegislash-Blade
p2097
sVnaturalgift
p2098
VNatural Gift
p2099
sVshadowclaw
p2100
VShadow Claw
p2101
sVchartiberry
p2102
VCharti Berry
p2103
sVlumberry
p2104
VLum Berry
p2105
sVvoltorb
p2106
VVoltorb
p2107
sVskyplate
p2108
VSky Plate
p2109
sVsableye
p2110
VSableye
p2111
sVseviper
p2112
VSeviper
p2113
sVmarvelscale
p2114
VMarvel Scale
p2115
sVaurumoth
p2116
VAurumoth
p2117
sVslakoth
p2118
VSlakoth
p2119
sVmonferno
p2120
VMonferno
p2121
sVeelektrik
p2122
VEelektrik
p2123
sVwobbuffet
p2124
VWobbuffet
p2125
sVdrainpunch
p2126
VDrain Punch
p2127
sVshelmet
p2128
VShelmet
p2129
sVflyinggem
p2130
VFlying Gem
p2131
sVbulkup
p2132
VBulk Up
p2133
sVglaceon
p2134
VGlaceon
p2135
sVwonderguard
p2136
VWonder Guard
p2137
sVelectricgem
p2138
VElectric Gem
p2139
sVrotomfan
p2140
VRotom-Fan
p2141
sVsignalbeam
p2142
VSignal Beam
p2143
sVshuckle
p2144
VShuckle
p2145
sVreflect
p2146
VReflect
p2147
sVdisable
p2148
VDisable
p2149
sVliquidooze
p2150
VLiquid Ooze
p2151
sVmedichammega
p2152
VMedicham-Mega
p2153
sVtwistedspoon
p2154
VTwistedSpoon
p2155
sVlanturn
p2156
VLanturn
p2157
sVparaboliccharge
p2158
VParabolic Charge
p2159
sVretaliate
p2160
VRetaliate
p2161
sVphantump
p2162
VPhantump
p2163
sVcorphish
p2164
VCorphish
p2165
sVbastiodon
p2166
VBastiodon
p2167
sVmudbomb
p2168
VMud Bomb
p2169
sVarticuno
p2170
VArticuno
p2171
sVfissure
p2172
VFissure
p2173
sVvolcarona
p2174
VVolcarona
p2175
sVblackglasses
p2176
VBlackGlasses
p2177
sVplayrough
p2178
VPlay Rough
p2179
sVhealorder
p2180
VHeal Order
p2181
sVjigglypuff
p2182
VJigglypuff
p2183
sVsandslash
p2184
VSandslash
p2185
sVastonish
p2186
VAstonish
p2187
sVenergyball
p2188
VEnergy Ball
p2189
sVaggron
p2190
VAggron
p2191
sVlampent
p2192
VLampent
p2193
sVfistplate
p2194
VFist Plate
p2195
sVreturn
p2196
VReturn
p2197
sVmanectricmega
p2198
VManectric-Mega
p2199
sVsnowball
p2200
VSnowball
p2201
sVmrmime
p2202
VMr. Mime
p2203
sVcharizardmegax
p2204
VCharizard-Mega-X
p2205
sVcharizardmegay
p2206
VCharizard-Mega-Y
p2207
sVclefable
p2208
VClefable
p2209
sVskuntank
p2210
VSkuntank
p2211
sVprimeape
p2212
VPrimeape
p2213
sVgabite
p2214
VGabite
p2215
sVmissingno
p2216
VMissingno.
p2217
sVbellsprout
p2218
VBellsprout
p2219
sVlovelykiss
p2220
VLovely Kiss
p2221
sVmeanlook
p2222
VMean Look
p2223
sVclamp
p2224
VClamp
p2225
sVtopsyturvy
p2226
VTopsy-turvy
p2227
sVquickfeet
p2228
VQuick Feet
p2229
sVirondefense
p2230
VIron Defense
p2231
sVraichu
p2232
VRaichu
p2233
sVmagnezone
p2234
VMagnezone
p2235
sVtrickroom
p2236
VTrick Room
p2237
sVmist
p2238
VMist
p2239
sVhiddenpowerpsychic
p2240
VHidden Power Psychic
p2241
sVelectroweb
p2242
VElectroweb
p2243
sS'jolly'
p2244
S'Jolly'
p2245
sVsalamence
p2246
VSalamence
p2247
sVabsorb
p2248
VAbsorb
p2249
sVwhirlpool
p2250
VWhirlpool
p2251
sVsuperfang
p2252
VSuper Fang
p2253
sVcombee
p2254
VCombee
p2255
sVroggenrola
p2256
VRoggenrola
p2257
sVironhead
p2258
VIron Head
p2259
sVsentret
p2260
VSentret
p2261
sVpichuspikyeared
p2262
VPichu-Spiky-eared
p2263
sVtyrogue
p2264
VTyrogue
p2265
sVcleffa
p2266
VCleffa
p2267
sVguardsplit
p2268
VGuard Split
p2269
sVwaterabsorb
p2270
VWater Absorb
p2271
sVtoxicboost
p2272
VToxic Boost
p2273
sVninetales
p2274
VNinetales
p2275
sVnidoranf
p2276
S'NidoranF'
p2277
sVcottonspore
p2278
VCotton Spore
p2279
sVnidoranm
p2280
S'NidoranM'
p2281
sVpineco
p2282
VPineco
p2283
sVscopelens
p2284
VScope Lens
p2285
sVhydreigon
p2286
VHydreigon
p2287
sVrockpolish
p2288
VRock Polish
p2289
sVmightyena
p2290
VMightyena
p2291
sVabomasnowmega
p2292
VAbomasnow-Mega
p2293
sVmanaphy
p2294
VManaphy
p2295
sS'brave'
p2296
S'Brave'
p2297
sVstoredpower
p2298
VStored Power
p2299
sVkangaskhanmega
p2300
VKangaskhan-Mega
p2301
sVpetaldance
p2302
VPetal Dance
p2303
sVmeowstic
p2304
VMeowstic
p2305
sVboltstrike
p2306
VBolt Strike
p2307
sVswarm
p2308
VSwarm
p2309
sVbibarel
p2310
VBibarel
p2311
sVklinklang
p2312
VKlinklang
p2313
sVlandorustherian
p2314
VLandorus-Therian
p2315
sVpoisongem
p2316
VPoison Gem
p2317
sVpsybeam
p2318
VPsybeam
p2319
sVsuckerpunch
p2320
VSucker Punch
p2321
sVfreezeshock
p2322
VFreeze Shock
p2323
sVpsywave
p2324
VPsywave
p2325
sVdrillrun
p2326
VDrill Run
p2327
sVwhiteherb
p2328
VWhite Herb
p2329
sVringtarget
p2330
VRing Target
p2331
sVvenipede
p2332
VVenipede
p2333
sVdarkpulse
p2334
VDark Pulse
p2335
sVarceusdragon
p2336
VArceus-Dragon
p2337
sVstall
p2338
VStall
p2339
sVcontrary
p2340
VContrary
p2341
sVdazzlinggleam
p2342
VDazzling Gleam
p2343
sVdoubleedge
p2344
VDouble-Edge
p2345
sVremoraid
p2346
VRemoraid
p2347
sVclefairy
p2348
VClefairy
p2349
sVklink
p2350
VKlink
p2351
sVclearbody
p2352
VClear Body
p2353
sVfirespin
p2354
VFire Spin
p2355
sVgenesectchill
p2356
VGenesect-Chill
p2357
sVsuicune
p2358
VSuicune
p2359
sVpamtreberry
p2360
VPamtre Berry
p2361
sVmegahorn
p2362
VMegahorn
p2363
sVsunflora
p2364
VSunflora
p2365
sVgourgeist
p2366
VGourgeist
p2367
sVbarbaracle
p2368
VBarbaracle
p2369
sVairballoon
p2370
VAir Balloon
p2371
sVswirlix
p2372
VSwirlix
p2373
sVlitleo
p2374
VLitleo
p2375
sVcamouflage
p2376
VCamouflage
p2377
sVfrillish
p2378
VFrillish
p2379
sVspheal
p2380
VSpheal
p2381
sVkangaskhan
p2382
VKangaskhan
p2383
sVregirock
p2384
VRegirock
p2385
sVpansage
p2386
VPansage
p2387
sVswitcheroo
p2388
VSwitcheroo
p2389
sValakazammega
p2390
VAlakazam-Mega
p2391
sVmasterball
p2392
VMaster Ball
p2393
sVeruption
p2394
VEruption
p2395
sVyawn
p2396
VYawn
p2397
sVcharm
p2398
VCharm
p2399
sVdiglett
p2400
VDiglett
p2401
sVbeldum
p2402
VBeldum
p2403
sVbarboach
p2404
VBarboach
p2405
sVcrosspoison
p2406
VCross Poison
p2407
sVcarvanha
p2408
VCarvanha
p2409
sVrefrigerate
p2410
S'Refrigerate'
p2411
sVlowsweep
p2412
VLow Sweep
p2413
sVsturdy
p2414
VSturdy
p2415
sVcovet
p2416
VCovet
p2417
sVgenesectdouse
p2418
VGenesect-Douse
p2419
sVkaratechop
p2420
VKarate Chop
p2421
sVhoundoominite
p2422
VHoundoominite
p2423
sVazumarill
p2424
VAzumarill
p2425
sVmetalburst
p2426
VMetal Burst
p2427
sVcharmeleon
p2428
VCharmeleon
p2429
sVmeloetta
p2430
VMeloetta
p2431
sVnanabberry
p2432
VNanab Berry
p2433
sVzoomlens
p2434
VZoom Lens
p2435
sVblackbelt
p2436
VBlack Belt
p2437
sVhammerarm
p2438
VHammer Arm
p2439
sVmagmaarmor
p2440
VMagma Armor
p2441
sVpayday
p2442
VPay Day
p2443
sVgooey
p2444
S'Gooey'
p2445
sVoblivionwing
p2446
VOblivion Wing
p2447
sVtyrantrum
p2448
VTyrantrum
p2449
sVhealpulse
p2450
VHeal Pulse
p2451
sVmagikarp
p2452
VMagikarp
p2453
sVpawniard
p2454
VPawniard
p2455
sVpoisontail
p2456
VPoison Tail
p2457
sVhitmonchan
p2458
VHitmonchan
p2459
sS'docile'
p2460
S'Docile'
p2461
sVfireblast
p2462
VFire Blast
p2463
sVshroomish
p2464
VShroomish
p2465
sVwhismur
p2466
VWhismur
p2467
sVspikes
p2468
VSpikes
p2469
sVshadowstrike
p2470
VShadowStrike
p2471
sVheatcrash
p2472
VHeat Crash
p2473
sVskorupi
p2474
VSkorupi
p2475
sVgengarite
p2476
VGengarite
p2477
sVblitzle
p2478
VBlitzle
p2479
sVtamatoberry
p2480
VTamato Berry
p2481
sVblazikenite
p2482
VBlazikenite
p2483
sVfarfetchd
p2484
VFarfetch'd
p2485
sVinkay
p2486
VInkay
p2487
sVpickup
p2488
VPickup
p2489
sVtangaberry
p2490
VTanga Berry
p2491
sVarceusdark
p2492
VArceus-Dark
p2493
sVmarowak
p2494
VMarowak
p2495
sVmachobrace
p2496
VMacho Brace
p2497
sVelekid
p2498
VElekid
p2499
sVmagmortar
p2500
VMagmortar
p2501
sVchansey
p2502
VChansey
p2503
sVroaroftime
p2504
VRoar of Time
p2505
sVwildcharge
p2506
VWild Charge
p2507
sVrattata
p2508
VRattata
p2509
sVhoundoommega
p2510
VHoundoom-Mega
p2511
sVclaydol
p2512
VClaydol
p2513
sVrelicanth
p2514
VRelicanth
p2515
sVtorchic
p2516
VTorchic
p2517
sVlapras
p2518
VLapras
p2519
sVmankey
p2520
VMankey
p2521
sVfuryattack
p2522
VFury Attack
p2523
sVprankster
p2524
VPrankster
p2525
sVshayminsky
p2526
VShaymin-Sky
p2527
sVwacanberry
p2528
VWacan Berry
p2529
sVsandile
p2530
VSandile
p2531
sVtyphlosion
p2532
VTyphlosion
p2533
sVariados
p2534
VAriados
p2535
sVdrillpeck
p2536
VDrill Peck
p2537
sVicebody
p2538
VIce Body
p2539
sVbronzor
p2540
VBronzor
p2541
sVnatu
p2542
VNatu
p2543
sVxscissor
p2544
VX-Scissor
p2545
sVsing
p2546
VSing
p2547
sVquiverdance
p2548
VQuiver Dance
p2549
sVblastoisinite
p2550
VBlastoisinite
p2551
sVmegapunch
p2552
VMega Punch
p2553
sVdamp
p2554
VDamp
p2555
sVmienfoo
p2556
VMienfoo
p2557
sVliepard
p2558
VLiepard
p2559
sVamnesia
p2560
VAmnesia
p2561
sVdestinybond
p2562
VDestiny Bond
p2563
sVcastform
p2564
VCastform
p2565
sVdruddigon
p2566
VDruddigon
p2567
sVaromaticmist
p2568
VAromatic Mist
p2569
sVdragontail
p2570
VDragon Tail
p2571
sVstringshot
p2572
VString Shot
p2573
sVdragonair
p2574
VDragonair
p2575
sVwatergun
p2576
VWater Gun
p2577
sVvanilluxe
p2578
VVanilluxe
p2579
sVnomelberry
p2580
VNomel Berry
p2581
sVdrainingkiss
p2582
VDraining Kiss
p2583
sVbasculin
p2584
VBasculin
p2585
sVescavalier
p2586
VEscavalier
p2587
sVpsychoshift
p2588
VPsycho Shift
p2589
sVbisharp
p2590
VBisharp
p2591
sVhoundoom
p2592
VHoundoom
p2593
sVgulpin
p2594
VGulpin
p2595
sVpancham
p2596
VPancham
p2597
sVmantyke
p2598
VMantyke
p2599
sVpound
p2600
VPound
p2601
sVmedichamite
p2602
VMedichamite
p2603
sVrotommow
p2604
VRotom-Mow
p2605
sVdefendorder
p2606
VDefend Order
p2607
sVsurskit
p2608
VSurskit
p2609
sVmegalauncher
p2610
S'Mega Launcher'
p2611
sVicebeam
p2612
VIce Beam
p2613
sVfacade
p2614
VFacade
p2615
sVzubat
p2616
VZubat
p2617
sVmagikarpsrevenge
p2618
VMagikarp's Revenge
p2619
sVingrain
p2620
VIngrain
p2621
sVcottonee
p2622
VCottonee
p2623
sVpoisonjab
p2624
VPoison Jab
p2625
sVleechseed
p2626
VLeech Seed
p2627
sVgorebyss
p2628
VGorebyss
p2629
sVgrotle
p2630
VGrotle
p2631
sVpikachu
p2632
VPikachu
p2633
sVrayquaza
p2634
VRayquaza
p2635
sVfroakie
p2636
VFroakie
p2637
sVloveball
p2638
VLove Ball
p2639
sVjumpluff
p2640
VJumpluff
p2641
sS'timid'
p2642
S'Timid'
p2643
sVmismagius
p2644
VMismagius
p2645
sVhiddenpowerbug
p2646
VHidden Power Bug
p2647
sVinfiltrator
p2648
VInfiltrator
p2649
sVpsychup
p2650
VPsych Up
p2651
sVregice
p2652
VRegice
p2653
sVfiregem
p2654
VFire Gem
p2655
sVshellder
p2656
VShellder
p2657
sVwithdraw
p2658
VWithdraw
p2659
sVmoonball
p2660
VMoon Ball
p2661
sVpainsplit
p2662
VPain Split
p2663
sVstoneedge
p2664
VStone Edge
p2665
sVhowl
p2666
VHowl
p2667
sVwaterpledge
p2668
VWater Pledge
p2669
sVspearow
p2670
VSpearow
p2671
sVmagneticfield
p2672
VMagnetic Field
p2673
sVrockwrecker
p2674
VRock Wrecker
p2675
sVcompetitive
p2676
S'Competitive'
p2677
sVsteelgem
p2678
VSteel Gem
p2679
sVzygarde
p2680
VZygarde
p2681
sVsolrock
p2682
VSolrock
p2683
sVspinda
p2684
VSpinda
p2685
sVcloyster
p2686
VCloyster
p2687
sVmetapod
p2688
VMetapod
p2689
sVairslash
p2690
VAir Slash
p2691
sVchatot
p2692
VChatot
p2693
sVacrobatics
p2694
VAcrobatics
p2695
sVchoicespecs
p2696
VChoice Specs
p2697
sVrebound
p2698
VRebound
p2699
sVsolarbeam
p2700
VSolarBeam
p2701
sVlusterpurge
p2702
VLuster Purge
p2703
sVkeldeoresolute
p2704
VKeldeo-Resolute
p2705
sVmoody
p2706
VMoody
p2707
sVgothitelle
p2708
VGothitelle
p2709
sVskilllink
p2710
VSkill Link
p2711
sVponyta
p2712
VPonyta
p2713
sVsunnyday
p2714
VSunny Day
p2715
sVsubmission
p2716
VSubmission
p2717
sVstaravia
p2718
VStaravia
p2719
sVtailglow
p2720
VTail Glow
p2721
sVstealthrock
p2722
VStealth Rock
p2723
sVtechnoblast
p2724
VTechno Blast
p2725
sVlilligant
p2726
VLilligant
p2727
sVflamewheel
p2728
VFlame Wheel
p2729
sVsketch
p2730
VSketch
p2731
sVwhirlipede
p2732
VWhirlipede
p2733
sVbounce
p2734
VBounce
p2735
sVampharosite
p2736
VAmpharosite
p2737
sVgigaimpact
p2738
VGiga Impact
p2739
sVsewaddle
p2740
VSewaddle
p2741
sVscald
p2742
VScald
p2743
sVominouswind
p2744
VOminous Wind
p2745
sVdeepseascale
p2746
VDeepSeaScale
p2747
sVmareep
p2748
VMareep
p2749
sVhuntail
p2750
VHuntail
p2751
sVswordsdance
p2752
VSwords Dance
p2753
sVearlybird
p2754
VEarly Bird
p2755
sVslash
p2756
VSlash
p2757
sVhiddenpowergrass
p2758
VHidden Power Grass
p2759
sVmimejr
p2760
VMime Jr.
p2761
sVimprison
p2762
VImprison
p2763
sVseismitoad
p2764
VSeismitoad
p2765
sVodorsleuth
p2766
VOdor Sleuth
p2767
sVmewtwomegax
p2768
VMewtwo-Mega-X
p2769
sVmewtwomegay
p2770
VMewtwo-Mega-Y
p2771
sVfocussash
p2772
VFocus Sash
p2773
sVjellicent
p2774
VJellicent
p2775
sVspelonberry
p2776
VSpelon Berry
p2777
sVnobleroar
p2778
VNoble Roar
p2779
sVkangaskhanite
p2780
VKangaskhanite
p2781
sVelectrike
p2782
VElectrike
p2783
sViapapaberry
p2784
VIapapa Berry
p2785
sVmudkip
p2786
VMudkip
p2787
sVbouffalant
p2788
VBouffalant
p2789
sVarceusghost
p2790
VArceus-Ghost
p2791
sVmurkrow
p2792
VMurkrow
p2793
sVsharpedo
p2794
VSharpedo
p2795
sVarmthrust
p2796
VArm Thrust
p2797
sVchargebeam
p2798
VCharge Beam
p2799
sVnidoking
p2800
VNidoking
p2801
sVhabanberry
p2802
VHaban Berry
p2803
sVstench
p2804
VStench
p2805
sViciclecrash
p2806
VIcicle Crash
p2807
sVunown
p2808
VUnown
p2809
sVsnorunt
p2810
VSnorunt
p2811
sS'relaxed'
p2812
S'Relaxed'
p2813
sVeevee
p2814
VEevee
p2815
sVpsychocut
p2816
VPsycho Cut
p2817
sVtranquill
p2818
VTranquill
p2819
sVragepowder
p2820
VRage Powder
p2821
sVbuizel
p2822
VBuizel
p2823
sVflamecharge
p2824
VFlame Charge
p2825
sVgrasspledge
p2826
VGrass Pledge
p2827
sVshuppet
p2828
VShuppet
p2829
sVspacialrend
p2830
VSpacial Rend
p2831
sVforesight
p2832
VForesight
p2833
sVwepearberry
p2834
VWepear Berry
p2835
sVheavyball
p2836
VHeavy Ball
p2837
sVpechaberry
p2838
VPecha Berry
p2839
sVarceusfairy
p2840
VArceus-Fairy
p2841
sVmiracleseed
p2842
VMiracle Seed
p2843
sVtakedown
p2844
VTake Down
p2845
sVpangoro
p2846
VPangoro
p2847
sVstickybarb
p2848
VSticky Barb
p2849
sVganlonberry
p2850
VGanlon Berry
p2851
sVbulbasaur
p2852
VBulbasaur
p2853
sVpichu
p2854
VPichu
p2855
sVheatwave
p2856
VHeat Wave
p2857
sVaudino
p2858
VAudino
p2859
sVdrifloon
p2860
VDrifloon
p2861
sVsnowcloak
p2862
VSnow Cloak
p2863
sVrazorshell
p2864
VRazor Shell
p2865
sVmetagross
p2866
VMetagross
p2867
sVforcepalm
p2868
VForce Palm
p2869
sVlickilicky
p2870
VLickilicky
p2871
sVzigzagoon
p2872
VZigzagoon
p2873
sVcinccino
p2874
VCinccino
p2875
sVavalugg
p2876
VAvalugg
p2877
sVscratch
p2878
VScratch
p2879
sVherdier
p2880
VHerdier
p2881
sVsandtomb
p2882
VSand Tomb
p2883
sVcharmander
p2884
VCharmander
p2885
sVspeedboost
p2886
VSpeed Boost
p2887
sVwakeupslap
p2888
VWake-Up Slap
p2889
sVcursedbody
p2890
VCursed Body
p2891
sVharvest
p2892
VHarvest
p2893
sVperishsong
p2894
VPerish Song
p2895
sVpoweruppunch
p2896
VPower-Up Punch
p2897
sVcutecharm
p2898
VCute Charm
p2899
sVblaze
p2900
VBlaze
p2901
sVsniper
p2902
VSniper
p2903
sVtriplekick
p2904
VTriple Kick
p2905
sVfly
p2906
VFly
p2907
sVnightslash
p2908
VNight Slash
p2909
sVextrasensory
p2910
VExtrasensory
p2911
sVteddiursa
p2912
VTeddiursa
p2913
sVthundershock
p2914
VThunder Shock
p2915
sVazurill
p2916
VAzurill
p2917
sVbigpecks
p2918
VBig Pecks
p2919
sVlureball
p2920
VLure Ball
p2921
sVqwilfish
p2922
VQwilfish
p2923
sVhyperbeam
p2924
VHyper Beam
p2925
sVdynamicpunch
p2926
VDynamic Punch
p2927
sVmagnemite
p2928
VMagnemite
p2929
sVtyrunt
p2930
VTyrunt
p2931
sVwatershuriken
p2932
VWater Shuriken
p2933
sVmisdreavus
p2934
VMisdreavus
p2935
sVfidgit
p2936
VFidgit
p2937
sVdousedrive
p2938
VDouse Drive
p2939
sVcrushclaw
p2940
VCrush Claw
p2941
sVsoftboiled
p2942
VSoftboiled
p2943
sVshedinja
p2944
VShedinja
p2945
sVdownload
p2946
VDownload
p2947
sVacid
p2948
VAcid
p2949
sVvigoroth
p2950
VVigoroth
p2951
sVlombre
p2952
VLombre
p2953
sVdelcatty
p2954
VDelcatty
p2955
sVworryseed
p2956
VWorry Seed
p2957
sVtriattack
p2958
VTri Attack
p2959
sVtyranitar
p2960
VTyranitar
p2961
sVturtwig
p2962
VTurtwig
p2963
sVmagmastorm
p2964
VMagma Storm
p2965
sVpansear
p2966
VPansear
p2967
sVdeerling
p2968
VDeerling
p2969
sVswinub
p2970
VSwinub
p2971
sVabomasnow
p2972
VAbomasnow
p2973
sVbellossom
p2974
VBellossom
p2975
sVpowersplit
p2976
VPower Split
p2977
sVincinerate
p2978
VIncinerate
p2979
sVmarangaberry
p2980
VMaranga Berry
p2981
sVrampardos
p2982
VRampardos
p2983
sVscreech
p2984
VScreech
p2985
sVtentacruel
p2986
VTentacruel
p2987
sVnaturalcure
p2988
VNatural Cure
p2989
sVforestscurse
p2990
VForest's Curse
p2991
sVblizzard
p2992
VBlizzard
p2993
sVteeterdance
p2994
VTeeter Dance
p2995
sVfoongus
p2996
VFoongus
p2997
sVaquaring
p2998
VAqua Ring
p2999
sS'hardy'
p3000
S'Hardy'
p3001
sVarceusground
p3002
VArceus-Ground
p3003
sVpumpkaboolarge
p3004
VPumpkaboo-Large
p3005
sVkingdra
p3006
VKingdra
p3007
sVaerodactylite
p3008
VAerodactylite
p3009
sVbanettite
p3010
VBanettite
p3011
sVdragongem
p3012
VDragon Gem
p3013
sVheatran
p3014
VHeatran
p3015
sVwatchog
p3016
VWatchog
p3017
sVpoliwrath
p3018
VPoliwrath
p3019
sVinsomnia
p3020
VInsomnia
p3021
sVcharcoal
p3022
VCharcoal
p3023
sVcranidos
p3024
VCranidos
p3025
sVabsol
p3026
VAbsol
p3027
sVplusle
p3028
VPlusle
p3029
sVaerodactylmega
p3030
VAerodactyl-Mega
p3031
sVrivalry
p3032
VRivalry
p3033
sVwatersport
p3034
VWater Sport
p3035
sVicicleplate
p3036
VIcicle Plate
p3037
sVfuturesight
p3038
VFuture Sight
p3039
sVlustrousorb
p3040
VLustrous Orb
p3041
sVarchen
p3042
VArchen
p3043
sVexeggcute
p3044
VExeggcute
p3045
sVlucario
p3046
VLucario
p3047
sVthundurus
p3048
VThundurus
p3049
sVtangrowth
p3050
VTangrowth
p3051
sVvespiquen
p3052
VVespiquen
p3053
sVterrakion
p3054
VTerrakion
p3055
sVblacksludge
p3056
VBlack Sludge
p3057
sVadamantorb
p3058
VAdamant Orb
p3059
sVrelicsong
p3060
VRelic Song
p3061
sVheliolisk
p3062
VHeliolisk
p3063
sVblazikenmega
p3064
VBlaziken-Mega
p3065
sVgastrodon
p3066
VGastrodon
p3067
sVbronzong
p3068
VBronzong
p3069
sVweavile
p3070
VWeavile
p3071
sVdewott
p3072
VDewott
p3073
sVchandelure
p3074
VChandelure
p3075
sVhaxorus
p3076
VHaxorus
p3077
sVsecretsword
p3078
VSecret Sword
p3079
sVowntempo
p3080
VOwn Tempo
p3081
sVhiddenpower
p3082
VHidden Power
p3083
sVrazorleaf
p3084
VRazor Leaf
p3085
sVpowerswap
p3086
VPower Swap
p3087
sVdragalge
p3088
VDragalge
p3089
sVgrasswhistle
p3090
VGrassWhistle
p3091
sVroserade
p3092
VRoserade
p3093
sVpidgey
p3094
VPidgey
p3095
sVaggronite
p3096
VAggronite
p3097
sVgenesect
p3098
VGenesect
p3099
sVlotad
p3100
VLotad
p3101
sVbind
p3102
VBind
p3103
sVcounter
p3104
VCounter
p3105
sVfullincense
p3106
VFull Incense
p3107
sVweepinbell
p3108
VWeepinbell
p3109
sVwoobat
p3110
VWoobat
p3111
sVaquajet
p3112
VAqua Jet
p3113
sVkrabby
p3114
VKrabby
p3115
sVumbreon
p3116
VUmbreon
p3117
sVheatproof
p3118
VHeatproof
p3119
sVguardswap
p3120
VGuard Swap
p3121
sVassaultvest
p3122
VAssault Vest
p3123
sVpetalblizzard
p3124
VPetal Blizzard
p3125
sVkadabra
p3126
VKadabra
p3127
sVpurepower
p3128
VPure Power
p3129
sVironball
p3130
VIron Ball
p3131
sVdreameater
p3132
VDream Eater
p3133
sVhelpinghand
p3134
VHelping Hand
p3135
sVmunchlax
p3136
VMunchlax
p3137
sVdeoxysdefense
p3138
VDeoxys-Defense
p3139
sVbelch
p3140
VBelch
p3141
sVsuperluck
p3142
VSuper Luck
p3143
sVberryjuice
p3144
VBerry Juice
p3145
sVhiddenpowerflying
p3146
VHidden Power Flying
p3147
sVflowerveil
p3148
S'Flower Veil'
p3149
sVpokeball
p3150
VPoke Ball
p3151
sVsandforce
p3152
VSand Force
p3153
sVflail
p3154
VFlail
p3155
sVkabutops
p3156
VKabutops
p3157
sVgreninja
p3158
VGreninja
p3159
sVchinchou
p3160
VChinchou
p3161
sVmagnitude
p3162
VMagnitude
p3163
sVarceusfighting
p3164
VArceus-Fighting
p3165
sVrapidspin
p3166
VRapid Spin
p3167
sVskullbash
p3168
VSkull Bash
p3169
sVdratini
p3170
VDratini
p3171
sVafteryou
p3172
VAfter You
p3173
sVmaractus
p3174
VMaractus
p3175
sVilluminate
p3176
VIlluminate
p3177
sVmagnetpull
p3178
VMagnet Pull
p3179
sVtepig
p3180
VTepig
p3181
sVkelpsyberry
p3182
VKelpsy Berry
p3183
sVstatic
p3184
VStatic
p3185
sS'diancie'
p3186
S'Diancie'
p3187
sVicefang
p3188
VIce Fang
p3189
sVninjask
p3190
VNinjask
p3191
sVjoltik
p3192
VJoltik
p3193
sVrollingkick
p3194
VRolling Kick
p3195
sVweatherball
p3196
VWeather Ball
p3197
sVmanectric
p3198
VManectric
p3199
sVnaturepower
p3200
VNature Power
p3201
sVregisteel
p3202
VRegisteel
p3203
sVsmog
p3204
VSmog
p3205
sVbabydolleyes
p3206
VBaby-Doll Eyes
p3207
sVleafguard
p3208
VLeaf Guard
p3209
sVicywind
p3210
VIcy Wind
p3211
sVemolga
p3212
VEmolga
p3213
sVconkeldurr
p3214
VConkeldurr
p3215
sVworkup
p3216
VWork Up
p3217
sVhippowdon
p3218
VHippowdon
p3219
sVenigmaberry
p3220
VEnigma Berry
p3221
sVscatterbug
p3222
VScatterbug
p3223
sVcobalion
p3224
VCobalion
p3225
sVbergmite
p3226
VBergmite
p3227
sVsudowoodo
p3228
VSudowoodo
p3229
sVlarvitar
p3230
VLarvitar
p3231
sVheadbutt
p3232
VHeadbutt
p3233
sVbodyslam
p3234
VBody Slam
p3235
sVexpertbelt
p3236
VExpert Belt
p3237
sVbugbuzz
p3238
VBug Buzz
p3239
sVfirefang
p3240
VFire Fang
p3241
sVmindplate
p3242
VMind Plate
p3243
sVampharosmega
p3244
VAmpharos-Mega
p3245
sVmistball
p3246
VMist Ball
p3247
sVskrelp
p3248
VSkrelp
p3249
sVjumpkick
p3250
VJump Kick
p3251
sVwaterspout
p3252
VWater Spout
p3253
sVloudred
p3254
VLoudred
p3255
sVearthpower
p3256
VEarth Power
p3257
sVpremierball
p3258
VPremier Ball
p3259
sVrotomfrost
p3260
VRotom-Frost
p3261
sVsolidrock
p3262
VSolid Rock
p3263
sVrabutaberry
p3264
VRabuta Berry
p3265
sVagility
p3266
VAgility
p3267
sVelectabuzz
p3268
VElectabuzz
p3269
sVcrobat
p3270
VCrobat
p3271
sVrockblast
p3272
VRock Blast
p3273
sVslackoff
p3274
VSlack Off
p3275
sVsoftsand
p3276
VSoft Sand
p3277
sVsigilyph
p3278
VSigilyph
p3279
sVdeepseatooth
p3280
VDeepSeaTooth
p3281
sVtorkoal
p3282
VTorkoal
p3283
sVwurmple
p3284
VWurmple
p3285
sVtimburr
p3286
VTimburr
p3287
sVfastball
p3288
VFast Ball
p3289
sVpoisonfang
p3290
VPoison Fang
p3291
sVinsectplate
p3292
VInsect Plate
p3293
sVtorrent
p3294
VTorrent
p3295
sVencore
p3296
VEncore
p3297
sVquickball
p3298
VQuick Ball
p3299
sVtrapinch
p3300
VTrapinch
p3301
sVbonerush
p3302
VBone Rush
p3303
sS'gentle'
p3304
S'Gentle'
p3305
sVsandrush
p3306
VSand Rush
p3307
sVarceusflying
p3308
VArceus-Flying
p3309
sVzebstrika
p3310
VZebstrika
p3311
sVwhitesmoke
p3312
VWhite Smoke
p3313
sVlevelball
p3314
VLevel Ball
p3315
sVsoak
p3316
VSoak
p3317
sVfusionbolt
p3318
VFusion Bolt
p3319
sVflareon
p3320
VFlareon
p3321
sVcalmmind
p3322
VCalm Mind
p3323
sVgravity
p3324
VGravity
p3325
sVcarnivine
p3326
VCarnivine
p3327
sVmistyterrain
p3328
VMisty Terrain
p3329
sVpsychoboost
p3330
VPsycho Boost
p3331
sVnuzleaf
p3332
VNuzleaf
p3333
sVwidelens
p3334
VWide Lens
p3335
sVshadowball
p3336
VShadow Ball
p3337
sVdrifblim
p3338
VDrifblim
p3339
sVmewtwo
p3340
VMewtwo
p3341
sVrollout
p3342
VRollout
p3343
sVslurpuff
p3344
VSlurpuff
p3345
sVgrassgem
p3346
VGrass Gem
p3347
sVdracometeor
p3348
VDraco Meteor
p3349
sVsludgewave
p3350
VSludge Wave
p3351
sVsceptile
p3352
VSceptile
p3353
sVgardevoirite
p3354
VGardevoirite
p3355
sVexeggutor
p3356
VExeggutor
p3357
sVshedskin
p3358
VShed Skin
p3359
sVcherrimsunshine
p3360
VCherrim-Sunshine
p3361
sVarceus
p3362
VArceus
p3363
sS'impish'
p3364
S'Impish'
p3365
sVservine
p3366
VServine
p3367
sVroselia
p3368
VRoselia
p3369
sVbrine
p3370
VBrine
p3371
sVzweilous
p3372
VZweilous
p3373
sVsleeppowder
p3374
VSleep Powder
p3375
sVoldamber
p3376
VOld Amber
p3377
sVdurant
p3378
VDurant
p3379
sVsimplebeam
p3380
VSimple Beam
p3381
sVyveltal
p3382
VYveltal
p3383
sVdragonite
p3384
VDragonite
p3385
sS'rash'
p3386
S'Rash'
p3387
sVpiplup
p3388
VPiplup
p3389
sVflashfire
p3390
VFlash Fire
p3391
sVdeino
p3392
VDeino
p3393
sVcamerupt
p3394
VCamerupt
p3395
sVluckypunch
p3396
VLucky Punch
p3397
sVpsychicgem
p3398
VPsychic Gem
p3399
sVrarebone
p3400
VRare Bone
p3401
sVsolosis
p3402
VSolosis
p3403
sVbellydrum
p3404
VBelly Drum
p3405
sS'sassy'
p3406
S'Sassy'
p3407
sVdeoxysattack
p3408
VDeoxys-Attack
p3409
sVcroagunk
p3410
VCroagunk
p3411
sVbravebird
p3412
VBrave Bird
p3413
sVgust
p3414
VGust
p3415
sVmagicguard
p3416
VMagic Guard
p3417
sVsandattack
p3418
VSand Attack
p3419
sVkingler
p3420
VKingler
p3421
sVwish
p3422
VWish
p3423
sVwatmelberry
p3424
VWatmel Berry
p3425
sVember
p3426
VEmber
p3427
sVgeomancy
p3428
VGeomancy
p3429
sVcacturne
p3430
VCacturne
p3431
sVpowder
p3432
VPowder
p3433
sVvictini
p3434
VVictini
p3435
sVfinneon
p3436
VFinneon
p3437
sVtwineedle
p3438
VTwineedle
p3439
sVchestoberry
p3440
VChesto Berry
p3441
sVgrumpig
p3442
VGrumpig
p3443
sVnightmare
p3444
VNightmare
p3445
sVgyarados
p3446
VGyarados
p3447
sVvaporeon
p3448
VVaporeon
p3449
sVpartingshot
p3450
VParting Shot
p3451
sVrockincense
p3452
VRock Incense
p3453
sVfroslass
p3454
VFroslass
p3455
sVconfusion
p3456
VConfusion
p3457
sVaron
p3458
VAron
p3459
sVconversion2
p3460
VConversion 2
p3461
sVmysticalfire
p3462
VMystical Fire
p3463
sVcacnea
p3464
VCacnea
p3465
sVzoroark
p3466
VZoroark
p3467
sVshellsmash
p3468
VShell Smash
p3469
sVhydropump
p3470
VHydro Pump
p3471
sVswift
p3472
VSwift
p3473
sVhighjumpkick
p3474
VHigh Jump Kick
p3475
sVmetang
p3476
VMetang
p3477
sVbaddreams
p3478
VBad Dreams
p3479
sVaerodactyl
p3480
VAerodactyl
p3481
sVtailwhip
p3482
VTail Whip
p3483
sVsafetygoggles
p3484
VSafety Goggles
p3485
sVklang
p3486
VKlang
p3487
sVswallow
p3488
VSwallow
p3489
sVspritzee
p3490
VSpritzee
p3491
sVflabebe
p3492
VFlabebe
p3493
sVapicotberry
p3494
VApicot Berry
p3495
sVnumel
p3496
VNumel
p3497
sVwoodhammer
p3498
VWood Hammer
p3499
sVhiddenpowerwater
p3500
VHidden Power Water
p3501
sVmalaconda
p3502
VMalaconda
p3503
sVgible
p3504
VGible
p3505
sVovercoat
p3506
VOvercoat
p3507
sVekans
p3508
VEkans
p3509
sVpixieplate
p3510
VPixie Plate
p3511
sVgrepaberry
p3512
VGrepa Berry
p3513
sVdisarmingvoice
p3514
VDisarming Voice
p3515
sVwailord
p3516
VWailord
p3517
sVswoobat
p3518
VSwoobat
p3519
sVelectrify
p3520
VElectrify
p3521
sVbindingband
p3522
VBinding Band
p3523
sVkeldeo
p3524
VKeldeo
p3525
sVtomohawk
p3526
VTomohawk
p3527
sVivysaur
p3528
VIvysaur
p3529
sVgripclaw
p3530
VGrip Claw
p3531
sVhorndrill
p3532
VHorn Drill
p3533
sVcoverfossil
p3534
VCover Fossil
p3535
sVgraveler
p3536
VGraveler
p3537
sVsmeargle
p3538
VSmeargle
p3539
sVraindance
p3540
VRain Dance
p3541
sVinfestation
p3542
VInfestation
p3543
sVpresent
p3544
VPresent
p3545
sVgrovyle
p3546
VGrovyle
p3547
sVintimidate
p3548
VIntimidate
p3549
sVharden
p3550
VHarden
p3551
sVbeheeyem
p3552
VBeheeyem
p3553
sVfuryswipes
p3554
VFury Swipes
p3555
sVpelipper
p3556
VPelipper
p3557
sVthickfat
p3558
VThick Fat
p3559
sVcarracosta
p3560
VCarracosta
p3561
sVluxio
p3562
VLuxio
p3563
sVvullaby
p3564
VVullaby
p3565
sVhiddenpowerghost
p3566
VHidden Power Ghost
p3567
sVlightball
p3568
VLight Ball
p3569
sVwaterveil
p3570
VWater Veil
p3571
sVspelltag
p3572
VSpell Tag
p3573
sVzenheadbutt
p3574
VZen Headbutt
p3575
sVzekrom
p3576
VZekrom
p3577
sVaipom
p3578
VAipom
p3579
sVdefiant
p3580
VDefiant
p3581
sVhardstone
p3582
VHard Stone
p3583
sVkebiaberry
p3584
VKebia Berry
p3585
sVcascoon
p3586
VCascoon
p3587
sVmagcargo
p3588
VMagcargo
p3589
sVarceuswater
p3590
VArceus-Water
p3591
sVraindish
p3592
VRain Dish
p3593
sVseaking
p3594
VSeaking
p3595
sVmagician
p3596
S'Magician'
p3597
sVjudgment
p3598
VJudgment
p3599
sVairlock
p3600
VAir Lock
p3601
sVbabiriberry
p3602
VBabiri Berry
p3603
sVaspearberry
p3604
VAspear Berry
p3605
sVeelektross
p3606
VEelektross
p3607
sVpickpocket
p3608
VPickpocket
p3609
sVsitrusberry
p3610
VSitrus Berry
p3611
sVarceuspsychic
p3612
VArceus-Psychic
p3613
sVbeautifly
p3614
VBeautifly
p3615
sVvenoshock
p3616
VVenoshock
p3617
sVmudsport
p3618
VMud Sport
p3619
sVazelf
p3620
VAzelf
p3621
sVyanmega
p3622
VYanmega
p3623
sVfairyaura
p3624
S'Fairy Aura'
p3625
sVkarrablast
p3626
VKarrablast
p3627
sVpinsir
p3628
VPinsir
p3629
sVguts
p3630
VGuts
p3631
sVtauros
p3632
VTauros
p3633
sVfearow
p3634
VFearow
p3635
sVfaketears
p3636
VFake Tears
p3637
sVsimple
p3638
VSimple
p3639
sVraikou
p3640
VRaikou
p3641
sVswellow
p3642
VSwellow
p3643
sVleechlife
p3644
VLeech Life
p3645
sVkingsshield
p3646
VKing's Shield
p3647
sVkingsrock
p3648
VKing's Rock
p3649
sVblukberry
p3650
VBluk Berry
p3651
sVflowershield
p3652
VFlower Shield
p3653
sVarenatrap
p3654
VArena Trap
p3655
sVtaunt
p3656
VTaunt
p3657
sVselfdestruct
p3658
VSelfdestruct
p3659
sVgoldeen
p3660
VGoldeen
p3661
sVducklett
p3662
VDucklett
p3663
sVglowpunch
p3664
VGlow Punch
p3665
sVhoothoot
p3666
VHoothoot
p3667
sVlatios
p3668
VLatios
p3669
sVbudew
p3670
VBudew
p3671
sVgogoat
p3672
VGogoat
p3673
sVbaltoy
p3674
VBaltoy
p3675
sVhealball
p3676
VHeal Ball
p3677
sVphanpy
p3678
VPhanpy
p3679
sVroleplay
p3680
VRole Play
p3681
sVkoffing
p3682
VKoffing
p3683
sVrepeatball
p3684
VRepeat Ball
p3685
sVglare
p3686
VGlare
p3687
sVthief
p3688
VThief
p3689
sVhail
p3690
VHail
p3691
sVcofagrigus
p3692
VCofagrigus
p3693
sVgrowth
p3694
VGrowth
p3695
sVskarmory
p3696
VSkarmory
p3697
sVoblivious
p3698
VOblivious
p3699
sVdragonclaw
p3700
VDragon Claw
p3701
sVdrizzle
p3702
VDrizzle
p3703
sVstaraptor
p3704
VStaraptor
p3705
sVmagicalleaf
p3706
VMagical Leaf
p3707
sVmeowsticf
p3708
VMeowstic-F
p3709
sVhurricane
p3710
VHurricane
p3711
sVlileep
p3712
VLileep
p3713
sVpiloswine
p3714
VPiloswine
p3715
sVvenusaurite
p3716
VVenusaurite
p3717
sVcopycat
p3718
VCopycat
p3719
sVhappiny
p3720
VHappiny
p3721
sVpressure
p3722
VPressure
p3723
sVsilkscarf
p3724
VSilk Scarf
p3725
sVpidgeotto
p3726
VPidgeotto
p3727
sVdreadplate
p3728
VDread Plate
p3729
sVvenomoth
p3730
VVenomoth
p3731
sVfurret
p3732
VFurret
p3733
sVpsystrike
p3734
VPsystrike
p3735
sVmeteormash
p3736
VMeteor Mash
p3737
sVshucaberry
p3738
VShuca Berry
p3739
sVsweetkiss
p3740
VSweet Kiss
p3741
sVacidarmor
p3742
VAcid Armor
p3743
sVlightclay
p3744
VLight Clay
p3745
sVvoodoom
p3746
VVoodoom
p3747
sVfeintattack
p3748
VFeint Attack
p3749
sVburmy
p3750
VBurmy
p3751
sVmagostberry
p3752
VMagost Berry
p3753
sVgrasspelt
p3754
S'Grass Pelt'
p3755
sVspitup
p3756
VSpit Up
p3757
sVmentalherb
p3758
VMental Herb
p3759
sVroseliberry
p3760
VRoseli Berry
p3761
sVfrustration
p3762
VFrustration
p3763
sVambipom
p3764
VAmbipom
p3765
sVfollowme
p3766
VFollow Me
p3767
sVclauncher
p3768
VClauncher
p3769
sVquickpowder
p3770
VQuick Powder
p3771
sVfrenzyplant
p3772
VFrenzy Plant
p3773
sVscaryface
p3774
VScary Face
p3775
sVmagoberry
p3776
VMago Berry
p3777
sVcroconaw
p3778
VCroconaw
p3779
sVdrowzee
p3780
VDrowzee
p3781
sVserenegrace
p3782
VSerene Grace
p3783
sVheracronite
p3784
VHeracronite
p3785
sVtechnician
p3786
VTechnician
p3787
sVarceusgrass
p3788
VArceus-Grass
p3789
sVembargo
p3790
VEmbargo
p3791
sVmetronome
p3792
VMetronome
p3793
sVattackorder
p3794
VAttack Order
p3795
sVallyswitch
p3796
VAlly Switch
p3797
sVhugepower
p3798
VHuge Power
p3799
sVmegakick
p3800
VMega Kick
p3801
sVentrainment
p3802
VEntrainment
p3803
sVtaillow
p3804
VTaillow
p3805
sVpoisonheal
p3806
VPoison Heal
p3807
sVflameplate
p3808
VFlame Plate
p3809
sVblock
p3810
VBlock
p3811
sVscizormega
p3812
VScizor-Mega
p3813
sVhoneclaws
p3814
VHone Claws
p3815
sVoranberry
p3816
VOran Berry
p3817
sVslowstart
p3818
VSlow Start
p3819
sVgranbull
p3820
VGranbull
p3821
sVweakarmor
p3822
VWeak Armor
p3823
sVaurasphere
p3824
VAura Sphere
p3825
sVshelgon
p3826
VShelgon
p3827
sVrawstberry
p3828
VRawst Berry
p3829
sVvacuumwave
p3830
VVacuum Wave
p3831
sVillusion
p3832
VIllusion
p3833
sVreckless
p3834
VReckless
p3835
sVyacheberry
p3836
VYache Berry
p3837
sVtreecko
p3838
VTreecko
p3839
sValomomola
p3840
VAlomomola
p3841
sVbraviary
p3842
VBraviary
p3843
sVvivillon
p3844
VVivillon
p3845
sVnoguard
p3846
VNo Guard
p3847
sVabomasite
p3848
VAbomasite
p3849
sVstarmie
p3850
VStarmie
p3851
sVpersistent
p3852
VPersistent
p3853
sVmagmar
p3854
VMagmar
p3855
sVzangoose
p3856
VZangoose
p3857
sVvcreate
p3858
VV-create
p3859
s.