(dp1
Velectivire
p2
VElectivire
p3
sVpsystrike
p4
VPsystrike
p5
sVcherrim
p6
VCherrim
p7
sVcolorchange
p8
VColor Change
p9
sVpersimberry
p10
VPersim Berry
p11
sVlucarionite
p12
VLucarionite
p13
sVpalkia
p14
VPalkia
p15
sVchatter
p16
VChatter
p17
sValakazite
p18
VAlakazite
p19
sVtickle
p20
VTickle
p21
sVarceuselectric
p22
VArceus-Electric
p23
sVabra
p24
VAbra
p25
sVreuniclus
p26
VReuniclus
p27
sVrecycle
p28
VRecycle
p29
sVtimerball
p30
VTimer Ball
p31
sVmeditite
p32
VMeditite
p33
sVsharpbeak
p34
VSharp Beak
p35
sVmewtwonitex
p36
VMewtwonite X
p37
sVmewtwonitey
p38
VMewtwonite Y
p39
sVquickclaw
p40
VQuick Claw
p41
sVdoubleslap
p42
VDouble Slap
p43
sVeviolite
p44
VEviolite
p45
sVprotean
p46
VProtean
p47
sVsquirtle
p48
VSquirtle
p49
sVdarmanitanzen
p50
VDarmanitan-Zen
p51
sVnastyplot
p52
VNasty Plot
p53
sVwormadam
p54
VWormadam
p55
sVaggronmega
p56
VAggron-Mega
p57
sVwhirlwind
p58
VWhirlwind
p59
sVplumefossil
p60
VPlume Fossil
p61
sVheracross
p62
VHeracross
p63
sS'hiddenpowerelectric'
p64
S'Hidden Power Electric'
p65
sS'hiddenpowerfire'
p66
S'Hidden Power Fire'
p67
sVguillotine
p68
VGuillotine
p69
sVlevitate
p70
VLevitate
p71
sVgyaradosite
p72
VGyaradosite
p73
sVpomegberry
p74
VPomeg Berry
p75
sVmasquerain
p76
VMasquerain
p77
sVthunder
p78
VThunder
p79
sVwaterpulse
p80
VWater Pulse
p81
sVdarkgem
p82
VDark Gem
p83
sVsteelwing
p84
VSteel Wing
p85
sVfraxure
p86
VFraxure
p87
sVmoldbreaker
p88
VMold Breaker
p89
sVcrunch
p90
VCrunch
p91
sVrindoberry
p92
VRindo Berry
p93
sVlatiosite
p94
VLatiosite
p95
sVreflecttype
p96
VReflect Type
p97
sVsnivy
p98
VSnivy
p99
sVmefirst
p100
VMe First
p101
sVstarfberry
p102
VStarf Berry
p103
sVscizorite
p104
VScizorite
p105
sVmew
p106
VMew
p107
sVpursuit
p108
VPursuit
p109
sVheadsmash
p110
VHead Smash
p111
sVaftermath
p112
VAftermath
p113
sVclawitzer
p114
VClawitzer
p115
sVpixilate
p116
VPixilate
p117
sVsilverpowder
p118
VSilverPowder
p119
sVlunatone
p120
VLunatone
p121
sVpunishment
p122
VPunishment
p123
sVpoisontouch
p124
VPoison Touch
p125
sVfeebas
p126
VFeebas
p127
sVneedlearm
p128
VNeedle Arm
p129
sValtarianite
p130
VAltarianite
p131
sVblastburn
p132
VBlast Burn
p133
sVhonchkrow
p134
VHonchkrow
p135
sVtirtouga
p136
VTirtouga
p137
sVampharos
p138
VAmpharos
p139
sVdusclops
p140
VDusclops
p141
sVpoisonbarb
p142
VPoison Barb
p143
sVmorningsun
p144
VMorning Sun
p145
sVfreezedry
p146
VFreeze-Dry
p147
sVmandibuzz
p148
VMandibuzz
p149
sVoverheat
p150
VOverheat
p151
sVspiritomb
p152
VSpiritomb
p153
sVvoltabsorb
p154
VVolt Absorb
p155
sVpurugly
p156
VPurugly
p157
sVshiftgear
p158
VShift Gear
p159
sS'calm'
p160
S'Calm'
p161
sVcastformrainy
p162
VCastform-Rainy
p163
sVbigroot
p164
VBig Root
p165
sVtorment
p166
VTorment
p167
sVcobalion
p168
VCobalion
p169
sVgardevoir
p170
VGardevoir
p171
sVvenomdrench
p172
VVenom Drench
p173
sVmagnetrise
p174
VMagnet Rise
p175
sS'naive'
p176
S'Naive'
p177
sVsceptilemega
p178
VSceptile-Mega
p179
sS'adamant'
p180
S'Adamant'
p181
sVkitsunoh
p182
VKitsunoh
p183
sVarceusbug
p184
VArceus-Bug
p185
sVgranbull
p186
VGranbull
p187
sVpidgeot
p188
VPidgeot
p189
sVtangledfeet
p190
VTangled Feet
p191
sVigglybuff
p192
VIgglybuff
p193
sVonix
p194
VOnix
p195
sVgrimer
p196
VGrimer
p197
sVrototiller
p198
VRototiller
p199
sVlucariomega
p200
VLucario-Mega
p201
sVbugbite
p202
VBug Bite
p203
sVpoisongas
p204
VPoison Gas
p205
sVmakuhita
p206
VMakuhita
p207
sVfriendball
p208
VFriend Ball
p209
sVattract
p210
VAttract
p211
sVcharizarditey
p212
VCharizardite Y
p213
sVcharizarditex
p214
VCharizardite X
p215
sVhyperspacehole
p216
VHyperspace Hole
p217
sVskydrop
p218
VSky Drop
p219
sVcrabhammer
p220
VCrabhammer
p221
sVtoxic
p222
VToxic
p223
sVcastformsunny
p224
VCastform-Sunny
p225
sVrotomheat
p226
VRotom-Heat
p227
sVsportball
p228
VSport Ball
p229
sVpoisonpowder
p230
VPoison Powder
p231
sVredcard
p232
VRed Card
p233
sS'modest'
p234
S'Modest'
p235
sS'lax'
p236
S'Lax'
p237
sVrocktomb
p238
VRock Tomb
p239
sVcherubi
p240
VCherubi
p241
sVleafstorm
p242
VLeaf Storm
p243
sVspookyplate
p244
VSpooky Plate
p245
sS'hasty'
p246
S'Hasty'
p247
sVentei
p248
VEntei
p249
sVmemento
p250
VMemento
p251
sVarceussteel
p252
VArceus-Steel
p253
sVcobaberry
p254
VCoba Berry
p255
sVlaggingtail
p256
VLagging Tail
p257
sVfinalgambit
p258
VFinal Gambit
p259
sVrapidash
p260
VRapidash
p261
sVdoubleteam
p262
VDouble Team
p263
sVlumineon
p264
VLumineon
p265
sVshielddust
p266
VShield Dust
p267
sVmagicbounce
p268
VMagic Bounce
p269
sVfakeout
p270
VFake Out
p271
sVsludge
p272
VSludge
p273
sVvenusaur
p274
VVenusaur
p275
sVphione
p276
VPhione
p277
sVmindplate
p278
VMind Plate
p279
sVflameburst
p280
VFlame Burst
p281
sVaromaticmist
p282
VAromatic Mist
p283
sVzapplate
p284
VZap Plate
p285
sVmunna
p286
VMunna
p287
sVhitmonlee
p288
VHitmonlee
p289
sVdryskin
p290
VDry Skin
p291
sVkricketot
p292
VKricketot
p293
sVroost
p294
VRoost
p295
sVfurycutter
p296
VFury Cutter
p297
sVirontail
p298
VIron Tail
p299
sVpoliwhirl
p300
VPoliwhirl
p301
sVeggbomb
p302
VEgg Bomb
p303
sVluxray
p304
VLuxray
p305
sVpayback
p306
VPayback
p307
sVexcadrill
p308
VExcadrill
p309
sVgloom
p310
VGloom
p311
sVgluttony
p312
VGluttony
p313
sVvulpix
p314
VVulpix
p315
sVcradily
p316
VCradily
p317
sVthunderfang
p318
VThunder Fang
p319
sVblastoisemega
p320
VBlastoise-Mega
p321
sVespeon
p322
VEspeon
p323
sVmultitype
p324
VMultitype
p325
sVflameorb
p326
VFlame Orb
p327
sS'hiddenpowerdragon'
p328
S'Hidden Power Dragon'
p329
sVfairywind
p330
VFairy Wind
p331
sVgothorita
p332
VGothorita
p333
sVshadowtag
p334
VShadow Tag
p335
sVomastar
p336
VOmastar
p337
sVwalrein
p338
VWalrein
p339
sVpidgeotmega
p340
VPidgeot-Mega
p341
sVtruant
p342
VTruant
p343
sVqualotberry
p344
VQualot Berry
p345
sVflowergift
p346
VFlower Gift
p347
sVpsychic
p348
VPsychic
p349
sVkasibberry
p350
VKasib Berry
p351
sVseedbomb
p352
VSeed Bomb
p353
sVtornadus
p354
VTornadus
p355
sVshedshell
p356
VShed Shell
p357
sVbarrier
p358
VBarrier
p359
sVleftovers
p360
VLeftovers
p361
sVrevenge
p362
VRevenge
p363
sVsynchronoise
p364
VSynchronoise
p365
sVbestow
p366
VBestow
p367
sVtrumpcard
p368
VTrump Card
p369
sVstruggle
p370
VStruggle
p371
sVgalladite
p372
VGalladite
p373
sVshiftry
p374
VShiftry
p375
sVgirafarig
p376
VGirafarig
p377
sVbeartic
p378
VBeartic
p379
sVkyuremblack
p380
VKyurem-Black
p381
sVsonicboom
p382
VSonic Boom
p383
sVfightinggem
p384
VFighting Gem
p385
sVgroudonprimal
p386
VGroudon-Primal
p387
sVlatias
p388
VLatias
p389
sVdrainpunch
p390
VDrain Punch
p391
sVsteelixmega
p392
VSteelix-Mega
p393
sVcherishball
p394
VCherish Ball
p395
sVcheriberry
p396
VCheri Berry
p397
sS'naughty'
p398
S'Naughty'
p399
sVseedflare
p400
VSeed Flare
p401
sVhydrocannon
p402
VHydro Cannon
p403
sVmagneticflux
p404
VMagnetic Flux
p405
sVdeoxys
p406
VDeoxys
p407
sVlatiasmega
p408
VLatias-Mega
p409
sVhooh
p410
VHo-Oh
p411
sVshieldon
p412
VShieldon
p413
sVslugma
p414
VSlugma
p415
sVheracrossmega
p416
VHeracross-Mega
p417
sVwaveincense
p418
VWave Incense
p419
sVmanectite
p420
VManectite
p421
sVpikachupopstar
p422
VPikachu-Pop-Star
p423
sVaircutter
p424
VAir Cutter
p425
sVmightyena
p426
VMightyena
p427
sVgrowlithe
p428
VGrowlithe
p429
sVinferno
p430
VInferno
p431
sVtwister
p432
VTwister
p433
sVarceusdragon
p434
VArceus-Dragon
p435
sVflamethrower
p436
VFlamethrower
p437
sVtoxicorb
p438
VToxic Orb
p439
sVfairylock
p440
VFairy Lock
p441
sVrockclimb
p442
VRock Climb
p443
sVwonderroom
p444
VWonder Room
p445
sVmachoke
p446
VMachoke
p447
sVdoomdesire
p448
VDoom Desire
p449
sVmirrormove
p450
VMirror Move
p451
sVsandshrew
p452
VSandshrew
p453
sVpolitoed
p454
VPolitoed
p455
sVminun
p456
VMinun
p457
sVbelueberry
p458
VBelue Berry
p459
sVendure
p460
VEndure
p461
sVswiftswim
p462
VSwift Swim
p463
sVshellbell
p464
VShell Bell
p465
sVminus
p466
VMinus
p467
sVmeowth
p468
VMeowth
p469
sVprankster
p470
VPrankster
p471
sVsludgebomb
p472
VSludge Bomb
p473
sVpayapaberry
p474
VPayapa Berry
p475
sVclosecombat
p476
VClose Combat
p477
sVmetalclaw
p478
VMetal Claw
p479
sVseel
p480
VSeel
p481
sVblastoise
p482
VBlastoise
p483
sVstrength
p484
VStrength
p485
sVchingling
p486
VChingling
p487
sVgothita
p488
VGothita
p489
sVdarmanitan
p490
VDarmanitan
p491
sVcraftyshield
p492
VCrafty Shield
p493
sVgyroball
p494
VGyro Ball
p495
sVursaring
p496
VUrsaring
p497
sVgolbat
p498
VGolbat
p499
sVgrassyterrain
p500
VGrassy Terrain
p501
sVdeoxysspeed
p502
VDeoxys-Speed
p503
sVshadowforce
p504
VShadow Force
p505
sVcoil
p506
VCoil
p507
sVdrought
p508
VDrought
p509
sVslackoff
p510
VSlack Off
p511
sVcosmicpower
p512
VCosmic Power
p513
sVthousandwaves
p514
VThousand Waves
p515
sVdunsparce
p516
VDunsparce
p517
sVconstrict
p518
VConstrict
p519
sVvileplume
p520
VVileplume
p521
sVraticate
p522
VRaticate
p523
sVslaking
p524
VSlaking
p525
sVjirachi
p526
VJirachi
p527
sVgolduck
p528
VGolduck
p529
sVarmorfossil
p530
VArmor Fossil
p531
sVstickyweb
p532
VSticky Web
p533
sVtogekiss
p534
VTogekiss
p535
sVhippopotas
p536
VHippopotas
p537
sVdialga
p538
VDialga
p539
sVlastresort
p540
VLast Resort
p541
sVbulletpunch
p542
VBullet Punch
p543
sVicegem
p544
VIce Gem
p545
sVspite
p546
VSpite
p547
sVcarbink
p548
VCarbink
p549
sVhaze
p550
VHaze
p551
sVstoutland
p552
VStoutland
p553
sVbidoof
p554
VBidoof
p555
sVsyclant
p556
VSyclant
p557
sVhaunter
p558
VHaunter
p559
sVweedle
p560
VWeedle
p561
sVaerilate
p562
VAerilate
p563
sVhoneygather
p564
VHoney Gather
p565
sVmachop
p566
VMachop
p567
sVmetalpowder
p568
VMetal Powder
p569
sVdusknoir
p570
VDusknoir
p571
sVmeditate
p572
VMeditate
p573
sVreversal
p574
VReversal
p575
sVlunardance
p576
VLunar Dance
p577
sVpumpkaboosmall
p578
VPumpkaboo-Small
p579
sVtentacool
p580
VTentacool
p581
sVpokeball
p582
VPoke Ball
p583
sVscizor
p584
VScizor
p585
sVdiancie
p586
VDiancie
p587
sVplasmanta
p588
VPlasmanta
p589
sVnosepass
p590
VNosepass
p591
sVearthplate
p592
VEarth Plate
p593
sVlaxincense
p594
VLax Incense
p595
sVmagneton
p596
VMagneton
p597
sVstickyhold
p598
VSticky Hold
p599
sVbeatup
p600
VBeat Up
p601
sVleafblade
p602
VLeaf Blade
p603
sVserperior
p604
VSerperior
p605
sVlopunnite
p606
VLopunnite
p607
sVwooper
p608
VWooper
p609
sVforretress
p610
VForretress
p611
sVmindreader
p612
VMind Reader
p613
sVseaincense
p614
VSea Incense
p615
sVsimisage
p616
VSimisage
p617
sVarcheops
p618
VArcheops
p619
sVheavymetal
p620
VHeavy Metal
p621
sVwormadamsandy
p622
VWormadam-Sandy
p623
sVmuscleband
p624
VMuscle Band
p625
sVmatblock
p626
VMat Block
p627
sVpurrloin
p628
VPurrloin
p629
sVdoduo
p630
VDoduo
p631
sVmuk
p632
VMuk
p633
sVmotordrive
p634
VMotor Drive
p635
sVmothim
p636
VMothim
p637
sVslowpoke
p638
VSlowpoke
p639
sVfrostbreath
p640
VFrost Breath
p641
sVcubone
p642
VCubone
p643
sVcut
p644
VCut
p645
sVmeadowplate
p646
VMeadow Plate
p647
sVparasect
p648
VParasect
p649
sVgourgeistsmall
p650
VGourgeist-Small
p651
sVclearsmog
p652
VClear Smog
p653
sVprotect
p654
VProtect
p655
sVplaynice
p656
VPlay Nice
p657
sVsamurott
p658
VSamurott
p659
sVmawile
p660
VMawile
p661
sVchimecho
p662
VChimecho
p663
sVpetayaberry
p664
VPetaya Berry
p665
sVdoublade
p666
VDoublade
p667
sVdeltastream
p668
VDelta Stream
p669
sVluckychant
p670
VLucky Chant
p671
sVleppaberry
p672
VLeppa Berry
p673
sVlick
p674
VLick
p675
sVoblivious
p676
VOblivious
p677
sVfierydance
p678
VFiery Dance
p679
sVfloatzel
p680
VFloatzel
p681
sVsmackdown
p682
VSmack Down
p683
sVcopycat
p684
VCopycat
p685
sVsalamencite
p686
VSalamencite
p687
sVbuneary
p688
VBuneary
p689
sVshockdrive
p690
VShock Drive
p691
sVnightdaze
p692
VNight Daze
p693
sVfriendguard
p694
VFriend Guard
p695
sVscaryface
p696
VScary Face
p697
sVsteamroller
p698
VSteamroller
p699
sVkakuna
p700
VKakuna
p701
sVpowertrick
p702
VPower Trick
p703
sVyanma
p704
VYanma
p705
sVmagiccoat
p706
VMagic Coat
p707
sVbonerush
p708
VBone Rush
p709
sVgurdurr
p710
VGurdurr
p711
sVthrash
p712
VThrash
p713
sVchespin
p714
VChespin
p715
sVsliggoo
p716
VSliggoo
p717
sVtotodile
p718
VTotodile
p719
sVgarchompite
p720
VGarchompite
p721
sVslowbro
p722
VSlowbro
p723
sValakazam
p724
VAlakazam
p725
sVbinacle
p726
VBinacle
p727
sVnevermeltice
p728
VNever-Melt Ice
p729
sVgrowl
p730
VGrowl
p731
sVaguavberry
p732
VAguav Berry
p733
sVdrilbur
p734
VDrilbur
p735
sVcameruptite
p736
VCameruptite
p737
sVralts
p738
VRalts
p739
sVpupitar
p740
VPupitar
p741
sVslowking
p742
VSlowking
p743
sVpowerherb
p744
VPower Herb
p745
sVnoivern
p746
VNoivern
p747
sVwaterfall
p748
VWaterfall
p749
sVdewgong
p750
VDewgong
p751
sVkirlia
p752
VKirlia
p753
sVknockoff
p754
VKnock Off
p755
sVoctazooka
p756
VOctazooka
p757
sVcawmodore
p758
VCawmodore
p759
sVsylveon
p760
VSylveon
p761
sVluxuryball
p762
VLuxury Ball
p763
sVhydration
p764
VHydration
p765
sVkrokorok
p766
VKrokorok
p767
sVamoonguss
p768
VAmoonguss
p769
sVquilladin
p770
VQuilladin
p771
sVshellarmor
p772
VShell Armor
p773
sVpoliwag
p774
VPoliwag
p775
sVmetalcoat
p776
VMetal Coat
p777
sVthickclub
p778
VThick Club
p779
sVsweetveil
p780
VSweet Veil
p781
sVgoomy
p782
VGoomy
p783
sVsilcoon
p784
VSilcoon
p785
sVbuggem
p786
VBug Gem
p787
sVoshawott
p788
VOshawott
p789
sVkeldeoresolute
p790
VKeldeo-Resolute
p791
sVtogepi
p792
VTogepi
p793
sVdomefossil
p794
VDome Fossil
p795
sVlowkick
p796
VLow Kick
p797
sVhealbell
p798
VHeal Bell
p799
sVmirrorshot
p800
VMirror Shot
p801
sVlickitung
p802
VLickitung
p803
sVlatiosmega
p804
VLatios-Mega
p805
sVdragonrush
p806
VDragon Rush
p807
sVredorb
p808
VRed Orb
p809
sVspinarak
p810
VSpinarak
p811
sVdiggersby
p812
VDiggersby
p813
sVsilverwind
p814
VSilver Wind
p815
sVpaleowave
p816
VPaleo Wave
p817
sVludicolo
p818
VLudicolo
p819
sVditto
p820
VDitto
p821
sVcirclethrow
p822
VCircle Throw
p823
sVpsychoboost
p824
VPsycho Boost
p825
sVnidoqueen
p826
VNidoqueen
p827
sVpinsirmega
p828
VPinsir-Mega
p829
sS'hiddenpowerpoison'
p830
S'Hidden Power Poison'
p831
sVflatter
p832
VFlatter
p833
sVtoxicspikes
p834
VToxic Spikes
p835
sVfirepledge
p836
VFire Pledge
p837
sVnoctowl
p838
VNoctowl
p839
sVcornnberry
p840
VCornn Berry
p841
sVskullfossil
p842
VSkull Fossil
p843
sVcheekpouch
p844
VCheek Pouch
p845
sVstealthrock
p846
VStealth Rock
p847
sVrhyperior
p848
VRhyperior
p849
sVtynamo
p850
VTynamo
p851
sVholdhands
p852
VHold Hands
p853
sVrufflet
p854
VRufflet
p855
sVpsyshock
p856
VPsyshock
p857
sVicyrock
p858
VIcy Rock
p859
sVwynaut
p860
VWynaut
p861
sVtrevenant
p862
VTrevenant
p863
sVabsorbbulb
p864
VAbsorb Bulb
p865
sS'bold'
p866
S'Bold'
p867
sVgunkshot
p868
VGunk Shot
p869
sVgarchomp
p870
VGarchomp
p871
sVgeodude
p872
VGeodude
p873
sVlightscreen
p874
VLight Screen
p875
sVwhimsicott
p876
VWhimsicott
p877
sVlavaplume
p878
VLava Plume
p879
sVkeeneye
p880
VKeen Eye
p881
sVsimipour
p882
VSimipour
p883
sVautotomize
p884
VAutotomize
p885
sVspikecannon
p886
VSpike Cannon
p887
sVnecturna
p888
VNecturna
p889
sVplus
p890
VPlus
p891
sVsapsipper
p892
VSap Sipper
p893
sVpikachulibre
p894
VPikachu-Libre
p895
sVthunderpunch
p896
VThunder Punch
p897
sVhornleech
p898
VHorn Leech
p899
sVbraixen
p900
VBraixen
p901
sVdarkvoid
p902
VDark Void
p903
sVhoundour
p904
VHoundour
p905
sVdualchop
p906
VDual Chop
p907
sVfoulplay
p908
VFoul Play
p909
sVscyther
p910
VScyther
p911
sVgalewings
p912
VGale Wings
p913
sVstormdrain
p914
VStorm Drain
p915
sVseadra
p916
VSeadra
p917
sVovergrow
p918
VOvergrow
p919
sVbonemerang
p920
VBonemerang
p921
sVbronzor
p922
VBronzor
p923
sVwrap
p924
VWrap
p925
sVcorsola
p926
VCorsola
p927
sVtransform
p928
VTransform
p929
sVklefki
p930
VKlefki
p931
sVrowapberry
p932
VRowap Berry
p933
sS'quirky'
p934
S'Quirky'
p935
sVgarbodor
p936
VGarbodor
p937
sVsynthesis
p938
VSynthesis
p939
sVmultiscale
p940
VMultiscale
p941
sVgroundgem
p942
VGround Gem
p943
sVreshiram
p944
VReshiram
p945
sVrocksmash
p946
VRock Smash
p947
sVvolttackle
p948
VVolt Tackle
p949
sVghostgem
p950
VGhost Gem
p951
sVroughskin
p952
VRough Skin
p953
sVsafeguard
p954
VSafeguard
p955
sVsmoothrock
p956
VSmooth Rock
p957
sVbide
p958
VBide
p959
sVaurabreak
p960
VAura Break
p961
sVaurorus
p962
VAurorus
p963
sVlightofruin
p964
VLight of Ruin
p965
sVholdback
p966
VHold Back
p967
sVchopleberry
p968
VChople Berry
p969
sVunnerve
p970
VUnnerve
p971
sVparentalbond
p972
VParental Bond
p973
sVferaligatr
p974
VFeraligatr
p975
sVoddish
p976
VOddish
p977
sVleer
p978
VLeer
p979
sVmagby
p980
VMagby
p981
sVswadloon
p982
VSwadloon
p983
sVvibrava
p984
VVibrava
p985
sVuxie
p986
VUxie
p987
sVsmoochum
p988
VSmoochum
p989
sVlansatberry
p990
VLansat Berry
p991
sVbutterfree
p992
VButterfree
p993
sVferroseed
p994
VFerroseed
p995
sVamaura
p996
VAmaura
p997
sVfennekin
p998
VFennekin
p999
sVclawfossil
p1000
VClaw Fossil
p1001
sVdischarge
p1002
VDischarge
p1003
sVkyogre
p1004
VKyogre
p1005
sVpoisonpoint
p1006
VPoison Point
p1007
sS'hiddenpowerground'
p1008
S'Hidden Power Ground'
p1009
sVarceuspoison
p1010
VArceus-Poison
p1011
sVliechiberry
p1012
VLiechi Berry
p1013
sVlillipup
p1014
VLillipup
p1015
sVflareboost
p1016
VFlare Boost
p1017
sVmummy
p1018
VMummy
p1019
sVoccaberry
p1020
VOcca Berry
p1021
sVironfist
p1022
VIron Fist
p1023
sS'serious'
p1024
S'Serious'
p1025
sVmegadrain
p1026
VMega Drain
p1027
sVsalacberry
p1028
VSalac Berry
p1029
sVsnubbull
p1030
VSnubbull
p1031
sVsandveil
p1032
VSand Veil
p1033
sVabsolite
p1034
VAbsolite
p1035
sVbonsly
p1036
VBonsly
p1037
sVcelebi
p1038
VCelebi
p1039
sVavalanche
p1040
VAvalanche
p1041
sVshadowsneak
p1042
VShadow Sneak
p1043
sVsuctioncups
p1044
VSuction Cups
p1045
sVsuperpower
p1046
VSuperpower
p1047
sVvenusaurmega
p1048
VVenusaur-Mega
p1049
sVpanpour
p1050
VPanpour
p1051
sVdragonpulse
p1052
VDragon Pulse
p1053
sVelectroball
p1054
VElectro Ball
p1055
sVflash
p1056
VFlash
p1057
sVnetball
p1058
VNet Ball
p1059
sVcharge
p1060
VCharge
p1061
sVquash
p1062
VQuash
p1063
sVsnorlax
p1064
VSnorlax
p1065
sVunburden
p1066
VUnburden
p1067
sVcrosschop
p1068
VCross Chop
p1069
sVmachamp
p1070
VMachamp
p1071
sVkricketune
p1072
VKricketune
p1073
sVtailslap
p1074
VTail Slap
p1075
sVjynx
p1076
VJynx
p1077
sVlopunny
p1078
VLopunny
p1079
sVtwistedspoon
p1080
VTwistedSpoon
p1081
sVskyuppercut
p1082
VSky Uppercut
p1083
sVpoisonsting
p1084
VPoison Sting
p1085
sVarceusfire
p1086
VArceus-Fire
p1087
sVfocusblast
p1088
VFocus Blast
p1089
sVmesprit
p1090
VMesprit
p1091
sVmagnet
p1092
VMagnet
p1093
sVbanettemega
p1094
VBanette-Mega
p1095
sVround
p1096
VRound
p1097
sVunaware
p1098
VUnaware
p1099
sVduskball
p1100
VDusk Ball
p1101
sVfalseswipe
p1102
VFalse Swipe
p1103
sVtalonflame
p1104
VTalonflame
p1105
sVleafeon
p1106
VLeafeon
p1107
sVzorua
p1108
VZorua
p1109
sVzenmode
p1110
VZen Mode
p1111
sVvitalthrow
p1112
VVital Throw
p1113
sVsubstitute
p1114
VSubstitute
p1115
sVcurse
p1116
VCurse
p1117
sVfocusband
p1118
VFocus Band
p1119
sVmoltres
p1120
VMoltres
p1121
sVpasshoberry
p1122
VPassho Berry
p1123
sVdragondance
p1124
VDragon Dance
p1125
sVaxew
p1126
VAxew
p1127
sVkecleon
p1128
VKecleon
p1129
sVglameow
p1130
VGlameow
p1131
sVaeroblast
p1132
VAeroblast
p1133
sVwartortle
p1134
VWartortle
p1135
sVexplosion
p1136
VExplosion
p1137
sVmiracleeye
p1138
VMiracle Eye
p1139
sVpumpkaboo
p1140
VPumpkaboo
p1141
sVsimisear
p1142
VSimisear
p1143
sVhoopa
p1144
VHoopa
p1145
sVtropius
p1146
VTropius
p1147
sVmysticwater
p1148
VMystic Water
p1149
sVearthquake
p1150
VEarthquake
p1151
sVgastroacid
p1152
VGastro Acid
p1153
sVejectbutton
p1154
VEject Button
p1155
sVbeedrillmega
p1156
VBeedrill-Mega
p1157
sVexploud
p1158
VExploud
p1159
sVdiveball
p1160
VDive Ball
p1161
sVsawk
p1162
VSawk
p1163
sVodorsleuth
p1164
VOdor Sleuth
p1165
sVdedenne
p1166
VDedenne
p1167
sVbrickbreak
p1168
VBrick Break
p1169
sVbagon
p1170
VBagon
p1171
sVregenerator
p1172
VRegenerator
p1173
sViondeluge
p1174
VIon Deluge
p1175
sVlarvesta
p1176
VLarvesta
p1177
sVmudslap
p1178
VMud-Slap
p1179
sVflaaffy
p1180
VFlaaffy
p1181
sVmagicroom
p1182
VMagic Room
p1183
sVampharosite
p1184
VAmpharosite
p1185
sVdesolateland
p1186
VDesolate Land
p1187
sVpinsirite
p1188
VPinsirite
p1189
sVheavyslam
p1190
VHeavy Slam
p1191
sVpinmissile
p1192
VPin Missile
p1193
sVkyogreprimal
p1194
VKyogre-Primal
p1195
sVcaptivate
p1196
VCaptivate
p1197
sVflamecharge
p1198
VFlame Charge
p1199
sVswagger
p1200
VSwagger
p1201
sVxatu
p1202
VXatu
p1203
sVrockslide
p1204
VRock Slide
p1205
sVcaterpie
p1206
VCaterpie
p1207
sVhypno
p1208
VHypno
p1209
sVblazekick
p1210
VBlaze Kick
p1211
sVfletchling
p1212
VFletchling
p1213
sVseismictoss
p1214
VSeismic Toss
p1215
sVdarumaka
p1216
VDarumaka
p1217
sVuturn
p1218
VU-turn
p1219
sVflygon
p1220
VFlygon
p1221
sVsandstorm
p1222
VSandstorm
p1223
sVswampertite
p1224
VSwampertite
p1225
sVswablu
p1226
VSwablu
p1227
sVspikyshield
p1228
VSpiky Shield
p1229
sVscolipede
p1230
VScolipede
p1231
sVdwebble
p1232
VDwebble
p1233
sVpignite
p1234
VPignite
p1235
sVsolarpower
p1236
VSolar Power
p1237
sVdonphan
p1238
VDonphan
p1239
sVpalpitoad
p1240
VPalpitoad
p1241
sVchilldrive
p1242
VChill Drive
p1243
sVnormalize
p1244
VNormalize
p1245
sVbanette
p1246
VBanette
p1247
sVtailwind
p1248
VTailwind
p1249
sVdianciemega
p1250
VDiancie-Mega
p1251
sVwideguard
p1252
VWide Guard
p1253
sVwikiberry
p1254
VWiki Berry
p1255
sVsandforce
p1256
VSand Force
p1257
sVelectricterrain
p1258
VElectric Terrain
p1259
sVoctillery
p1260
VOctillery
p1261
sVselfdestruct
p1262
VSelf-Destruct
p1263
sVteleport
p1264
VTeleport
p1265
sVdive
p1266
VDive
p1267
sVmamoswine
p1268
VMamoswine
p1269
sVwiseglasses
p1270
VWise Glasses
p1271
sVmilkdrink
p1272
VMilk Drink
p1273
sVpowerwhip
p1274
VPower Whip
p1275
sVancientpower
p1276
VAncient Power
p1277
sVblissey
p1278
VBlissey
p1279
sVcryogonal
p1280
VCryogonal
p1281
sVsupersonic
p1282
VSupersonic
p1283
sVdelibird
p1284
VDelibird
p1285
sVmalamar
p1286
VMalamar
p1287
sVarceusghost
p1288
VArceus-Ghost
p1289
sVlitwick
p1290
VLitwick
p1291
sVslowbronite
p1292
VSlowbronite
p1293
sVriolu
p1294
VRiolu
p1295
sVlugia
p1296
VLugia
p1297
sVbulletseed
p1298
VBullet Seed
p1299
sVbubblebeam
p1300
VBubble Beam
p1301
sVpachirisu
p1302
VPachirisu
p1303
sVchilanberry
p1304
VChilan Berry
p1305
sVarcanine
p1306
VArcanine
p1307
sVsneasel
p1308
VSneasel
p1309
sVgrassknot
p1310
VGrass Knot
p1311
sVklutz
p1312
VKlutz
p1313
sVbulldoze
p1314
VBulldoze
p1315
sVfocusenergy
p1316
VFocus Energy
p1317
sVprimordialsea
p1318
VPrimordial Sea
p1319
sVkabuto
p1320
VKabuto
p1321
sVmail
p1322
VMail
p1323
sVfuryswipes
p1324
VFury Swipes
p1325
sS'lonely'
p1326
S'Lonely'
p1327
sVfling
p1328
VFling
p1329
sVrattled
p1330
VRattled
p1331
sS'bashful'
p1332
S'Bashful'
p1333
sVfusionflare
p1334
VFusion Flare
p1335
sVsafariball
p1336
VSafari Ball
p1337
sVeffectspore
p1338
VEffect Spore
p1339
sVboomburst
p1340
VBoomburst
p1341
sVlinoone
p1342
VLinoone
p1343
sValtariamega
p1344
VAltaria-Mega
p1345
sVsynchronize
p1346
VSynchronize
p1347
sVmantine
p1348
VMantine
p1349
sVglalie
p1350
VGlalie
p1351
sVpsyduck
p1352
VPsyduck
p1353
sVmentalherb
p1354
VMental Herb
p1355
sVswalot
p1356
VSwalot
p1357
sVgenesectburn
p1358
VGenesect-Burn
p1359
sVporygonz
p1360
VPorygon-Z
p1361
sVstrugglebug
p1362
VStruggle Bug
p1363
sVpersian
p1364
VPersian
p1365
sVshaymin
p1366
VShaymin
p1367
sVpidove
p1368
VPidove
p1369
sVskillswap
p1370
VSkill Swap
p1371
sVassurance
p1372
VAssurance
p1373
sVpoochyena
p1374
VPoochyena
p1375
sVporygon2
p1376
VPorygon2
p1377
sViciclecrash
p1378
VIcicle Crash
p1379
sVmiltank
p1380
VMiltank
p1381
sVdig
p1382
VDig
p1383
sVpetilil
p1384
VPetilil
p1385
sVtelepathy
p1386
VTelepathy
p1387
sVnidorino
p1388
VNidorino
p1389
sVmeloettapirouette
p1390
VMeloetta-Pirouette
p1391
sVnidorina
p1392
VNidorina
p1393
sVhypnosis
p1394
VHypnosis
p1395
sVdurinberry
p1396
VDurin Berry
p1397
sVdragonrage
p1398
VDragon Rage
p1399
sVjolteon
p1400
VJolteon
p1401
sVdefensecurl
p1402
VDefense Curl
p1403
sVchikorita
p1404
VChikorita
p1405
sVrockyhelmet
p1406
VRocky Helmet
p1407
sS'crucibelle'
p1408
S'Crucibelle'
p1409
sVjabocaberry
p1410
VJaboca Berry
p1411
sVhoppip
p1412
VHoppip
p1413
sViceshard
p1414
VIce Shard
p1415
sVgiratina
p1416
VGiratina
p1417
sVteravolt
p1418
VTeravolt
p1419
sVbite
p1420
VBite
p1421
sVduosion
p1422
VDuosion
p1423
sVaromatherapy
p1424
VAromatherapy
p1425
sVsleeptalk
p1426
VSleep Talk
p1427
sVconfuseray
p1428
VConfuse Ray
p1429
sVgliscor
p1430
VGliscor
p1431
sVseedot
p1432
VSeedot
p1433
sVsnatch
p1434
VSnatch
p1435
sVbunnelby
p1436
VBunnelby
p1437
sVdrapion
p1438
VDrapion
p1439
sVpeck
p1440
VPeck
p1441
sVwormadamtrash
p1442
VWormadam-Trash
p1443
sVmawilite
p1444
VMawilite
p1445
sVquickattack
p1446
VQuick Attack
p1447
sVtrickortreat
p1448
VTrick-or-Treat
p1449
sVvirizion
p1450
VVirizion
p1451
sS'hiddenpowerrock'
p1452
S'Hidden Power Rock'
p1453
sVrazzberry
p1454
VRazz Berry
p1455
sVchlorophyll
p1456
VChlorophyll
p1457
sVslam
p1458
VSlam
p1459
sVsandstream
p1460
VSand Stream
p1461
sVledyba
p1462
VLedyba
p1463
sVaquatail
p1464
VAqua Tail
p1465
sVkrilowatt
p1466
VKrilowatt
p1467
sVrecover
p1468
VRecover
p1469
sVconversion
p1470
VConversion
p1471
sVtwineedle
p1472
VTwineedle
p1473
sS'hiddenpowerdark'
p1474
S'Hidden Power Dark'
p1475
sVmetalsound
p1476
VMetal Sound
p1477
sVarghonaut
p1478
VArghonaut
p1479
sVbeedrill
p1480
VBeedrill
p1481
sVsurf
p1482
VSurf
p1483
sVgriseousorb
p1484
VGriseous Orb
p1485
sVmountaineer
p1486
VMountaineer
p1487
sVstunky
p1488
VStunky
p1489
sVtrace
p1490
VTrace
p1491
sVgeargrind
p1492
VGear Grind
p1493
sVdarkrai
p1494
VDarkrai
p1495
sVbarrage
p1496
VBarrage
p1497
sVgengarmega
p1498
VGengar-Mega
p1499
sVstunfisk
p1500
VStunfisk
p1501
sVadaptability
p1502
VAdaptability
p1503
sVespurr
p1504
VEspurr
p1505
sVleaftornado
p1506
VLeaf Tornado
p1507
sVhyperfang
p1508
VHyper Fang
p1509
sVdracoplate
p1510
VDraco Plate
p1511
sVhyperspacefury
p1512
VHyperspace Fury
p1513
sVelectirizer
p1514
VElectirizer
p1515
sVmollux
p1516
VMollux
p1517
sVmuddywater
p1518
VMuddy Water
p1519
sVcompoundeyes
p1520
VCompound Eyes
p1521
sVdelphox
p1522
VDelphox
p1523
sVtintedlens
p1524
VTinted Lens
p1525
sVgolurk
p1526
VGolurk
p1527
sVfigyberry
p1528
VFigy Berry
p1529
sVgoodra
p1530
VGoodra
p1531
sVrevenankh
p1532
VRevenankh
p1533
sVvolbeat
p1534
VVolbeat
p1535
sVburndrive
p1536
VBurn Drive
p1537
sVthunderwave
p1538
VThunder Wave
p1539
sVpatrat
p1540
VPatrat
p1541
sVacupressure
p1542
VAcupressure
p1543
sVanalytic
p1544
VAnalytic
p1545
sVgrasspledge
p1546
VGrass Pledge
p1547
sVoutrage
p1548
VOutrage
p1549
sVleavanny
p1550
VLeavanny
p1551
sVkinesis
p1552
VKinesis
p1553
sVweaknesspolicy
p1554
VWeakness Policy
p1555
sVstomp
p1556
VStomp
p1557
sVboneclub
p1558
VBone Club
p1559
sVtelekinesis
p1560
VTelekinesis
p1561
sVmoxie
p1562
VMoxie
p1563
sVcelebrate
p1564
VCelebrate
p1565
sVabsolmega
p1566
VAbsol-Mega
p1567
sVparkball
p1568
VPark Ball
p1569
sVlatiasite
p1570
VLatiasite
p1571
sVspewpa
p1572
VSpewpa
p1573
sVwonderskin
p1574
VWonder Skin
p1575
sS'hiddenpowerfighting'
p1576
S'Hidden Power Fighting'
p1577
sVimposter
p1578
VImposter
p1579
sVspore
p1580
VSpore
p1581
sVquagsire
p1582
VQuagsire
p1583
sVdetect
p1584
VDetect
p1585
sVsteadfast
p1586
VSteadfast
p1587
sVlimber
p1588
VLimber
p1589
sVbatonpass
p1590
VBaton Pass
p1591
sVforecast
p1592
VForecast
p1593
sVmysticalfire
p1594
VMystical Fire
p1595
sVsnowwarning
p1596
VSnow Warning
p1597
sVjustified
p1598
VJustified
p1599
sVdamprock
p1600
VDamp Rock
p1601
sVhariyama
p1602
VHariyama
p1603
sVcrawdaunt
p1604
VCrawdaunt
p1605
sVpluck
p1606
VPluck
p1607
sVspark
p1608
VSpark
p1609
sVxerneas
p1610
VXerneas
p1611
sVspoink
p1612
VSpoink
p1613
sVvictreebel
p1614
VVictreebel
p1615
sVdestinyknot
p1616
VDestiny Knot
p1617
sVluminousmoss
p1618
VLuminous Moss
p1619
sVrhyhorn
p1620
VRhyhorn
p1621
sVsteelix
p1622
VSteelix
p1623
sVnestball
p1624
VNest Ball
p1625
sVkrookodile
p1626
VKrookodile
p1627
sVcellbattery
p1628
VCell Battery
p1629
sVwingattack
p1630
VWing Attack
p1631
sVnormalgem
p1632
VNormal Gem
p1633
sS'hiddenpowersteel'
p1634
S'Hidden Power Steel'
p1635
sVtyranitarite
p1636
VTyranitarite
p1637
sVdodrio
p1638
VDodrio
p1639
sVstancechange
p1640
VStance Change
p1641
sVzapdos
p1642
VZapdos
p1643
sVendeavor
p1644
VEndeavor
p1645
sViceburn
p1646
VIce Burn
p1647
sVrunaway
p1648
VRun Away
p1649
sVlandswrath
p1650
VLand's Wrath
p1651
sVmawilemega
p1652
VMawile-Mega
p1653
sVlightmetal
p1654
VLight Metal
p1655
sVstunspore
p1656
VStun Spore
p1657
sVroseincense
p1658
VRose Incense
p1659
sVgigalith
p1660
VGigalith
p1661
sVspiderweb
p1662
VSpider Web
p1663
sVstantler
p1664
VStantler
p1665
sVlopunnymega
p1666
VLopunny-Mega
p1667
sVflamebody
p1668
VFlame Body
p1669
sVhelioptile
p1670
VHelioptile
p1671
sVcresselia
p1672
VCresselia
p1673
sVomanyte
p1674
VOmanyte
p1675
sVbreloom
p1676
VBreloom
p1677
sVtangela
p1678
VTangela
p1679
sVhealblock
p1680
VHeal Block
p1681
sVswanna
p1682
VSwanna
p1683
sVskiddo
p1684
VSkiddo
p1685
sS'careful'
p1686
S'Careful'
p1687
sVmudshot
p1688
VMud Shot
p1689
sVdefeatist
p1690
VDefeatist
p1691
sVshockwave
p1692
VShock Wave
p1693
sVlandorus
p1694
VLandorus
p1695
sVgroudon
p1696
VGroudon
p1697
sS'quiet'
p1698
S'Quiet'
p1699
sVenergypowder
p1700
VEnergyPowder
p1701
sVsacredfire
p1702
VSacred Fire
p1703
sVstaryu
p1704
VStaryu
p1705
sVvicegrip
p1706
VVice Grip
p1707
sVgourgeistlarge
p1708
VGourgeist-Large
p1709
sVcubchoo
p1710
VCubchoo
p1711
sS'hiddenpowerice'
p1712
S'Hidden Power Ice'
p1713
sVextremespeed
p1714
VExtreme Speed
p1715
sVangerpoint
p1716
VAnger Point
p1717
sVphantomforce
p1718
VPhantom Force
p1719
sVstrongjaw
p1720
VStrong Jaw
p1721
sVnuzzle
p1722
VNuzzle
p1723
sVthunderbolt
p1724
VThunderbolt
p1725
sVgenesectshock
p1726
VGenesect-Shock
p1727
sVmagnetbomb
p1728
VMagnet Bomb
p1729
sVassist
p1730
VAssist
p1731
sVblaziken
p1732
VBlaziken
p1733
sVbulletproof
p1734
VBulletproof
p1735
sVgligar
p1736
VGligar
p1737
sVnightmare
p1738
VNightmare
p1739
sVrockhead
p1740
VRock Head
p1741
sVhypervoice
p1742
VHyper Voice
p1743
sVminimize
p1744
VMinimize
p1745
sVdoublehit
p1746
VDouble Hit
p1747
sVmedicham
p1748
VMedicham
p1749
sVheatmor
p1750
VHeatmor
p1751
sVrockgem
p1752
VRock Gem
p1753
sVmetalburst
p1754
VMetal Burst
p1755
sVfurcoat
p1756
VFur Coat
p1757
sVhealingwish
p1758
VHealing Wish
p1759
sVquickguard
p1760
VQuick Guard
p1761
sVwingull
p1762
VWingull
p1763
sVrest
p1764
VRest
p1765
sVfurfrou
p1766
VFurfrou
p1767
sVdarkaura
p1768
VDark Aura
p1769
sVrazorclaw
p1770
VRazor Claw
p1771
sVdragonbreath
p1772
VDragon Breath
p1773
sVelgyem
p1774
VElgyem
p1775
sVduskull
p1776
VDuskull
p1777
sVcometpunch
p1778
VComet Punch
p1779
sVaerialace
p1780
VAerial Ace
p1781
sVparas
p1782
VParas
p1783
sVrayquazamega
p1784
VRayquaza-Mega
p1785
sVflareblitz
p1786
VFlare Blitz
p1787
sVtrubbish
p1788
VTrubbish
p1789
sVsnarl
p1790
VSnarl
p1791
sVmachpunch
p1792
VMach Punch
p1793
sVvolkraken
p1794
VVolkraken
p1795
sVsunkern
p1796
VSunkern
p1797
sVcolossoil
p1798
VColossoil
p1799
sVdreamball
p1800
VDream Ball
p1801
sVsnore
p1802
VSnore
p1803
sVfloatstone
p1804
VFloat Stone
p1805
sVskiploom
p1806
VSkiploom
p1807
sVregigigas
p1808
VRegigigas
p1809
sVvoltswitch
p1810
VVolt Switch
p1811
sVarceusrock
p1812
VArceus-Rock
p1813
sVbrightpowder
p1814
VBrightPowder
p1815
sVhypercutter
p1816
VHyper Cutter
p1817
sVvanillite
p1818
VVanillite
p1819
sVchoiceband
p1820
VChoice Band
p1821
sVheartswap
p1822
VHeart Swap
p1823
sVpinapberry
p1824
VPinap Berry
p1825
sVminccino
p1826
VMinccino
p1827
sVrefresh
p1828
VRefresh
p1829
sVprinplup
p1830
VPrinplup
p1831
sVaudinomega
p1832
VAudino-Mega
p1833
sVultraball
p1834
VUltra Ball
p1835
sVheadcharge
p1836
VHead Charge
p1837
sVcrustle
p1838
VCrustle
p1839
sVpowergem
p1840
VPower Gem
p1841
sVechoedvoice
p1842
VEchoed Voice
p1843
sVbattlearmor
p1844
VBattle Armor
p1845
sVvolcanion
p1846
VVolcanion
p1847
sVcastformsnowy
p1848
VCastform-Snowy
p1849
sVhustle
p1850
VHustle
p1851
sVthroh
p1852
VThroh
p1853
sVmusharna
p1854
VMusharna
p1855
sVinnerfocus
p1856
VInner Focus
p1857
sVbasculinbluestriped
p1858
VBasculin-Blue-Striped
p1859
sVpumpkaboolarge
p1860
VPumpkaboo-Large
p1861
sVzapcannon
p1862
VZap Cannon
p1863
sVroar
p1864
VRoar
p1865
sVlockon
p1866
VLock-On
p1867
sVfloette
p1868
VFloette
p1869
sVgengar
p1870
VGengar
p1871
sVroserade
p1872
VRoserade
p1873
sVgolem
p1874
VGolem
p1875
sVquilava
p1876
VQuilava
p1877
sVcustapberry
p1878
VCustap Berry
p1879
sVsearingshot
p1880
VSearing Shot
p1881
sVstratagem
p1882
VStratagem
p1883
sVpyroar
p1884
VPyroar
p1885
sVshadowpunch
p1886
VShadow Punch
p1887
sVfocuspunch
p1888
VFocus Punch
p1889
sVtoughclaws
p1890
VTough Claws
p1891
sVforewarn
p1892
VForewarn
p1893
sViciclespear
p1894
VIcicle Spear
p1895
sVpyroak
p1896
VPyroak
p1897
sVsacredsword
p1898
VSacred Sword
p1899
sVhex
p1900
VHex
p1901
sVmarill
p1902
VMarill
p1903
sVsymbiosis
p1904
VSymbiosis
p1905
sVhoopaunbound
p1906
VHoopa-Unbound
p1907
sVwillowisp
p1908
VWill-O-Wisp
p1909
sVbubble
p1910
VBubble
p1911
sVfastball
p1912
VFast Ball
p1913
sVglaciate
p1914
VGlaciate
p1915
sVnightshade
p1916
VNight Shade
p1917
sVfrogadier
p1918
VFrogadier
p1919
sVporygon
p1920
VPorygon
p1921
sVheatrock
p1922
VHeat Rock
p1923
sVvitalspirit
p1924
VVital Spirit
p1925
sVsolosis
p1926
VSolosis
p1927
sVrage
p1928
VRage
p1929
sVvictorystar
p1930
VVictory Star
p1931
sVvinewhip
p1932
VVine Whip
p1933
sVstoneplate
p1934
VStone Plate
p1935
sVember
p1936
VEmber
p1937
sVsplashplate
p1938
VSplash Plate
p1939
sVpowdersnow
p1940
VPowder Snow
p1941
sVclamperl
p1942
VClamperl
p1943
sVchesnaught
p1944
VChesnaught
p1945
sVgrepaberry
p1946
VGrepa Berry
p1947
sVsmokescreen
p1948
VSmokescreen
p1949
sVmoonblast
p1950
VMoonblast
p1951
sVcolburberry
p1952
VColbur Berry
p1953
sVaegislash
p1954
VAegislash
p1955
sVimmunity
p1956
VImmunity
p1957
sVstormthrow
p1958
VStorm Throw
p1959
sVcharizard
p1960
VCharizard
p1961
sVnincada
p1962
VNincada
p1963
sVgraveler
p1964
VGraveler
p1965
sVmirrorcoat
p1966
VMirror Coat
p1967
sVemboar
p1968
VEmboar
p1969
sVdustox
p1970
VDustox
p1971
sVrootfossil
p1972
VRoot Fossil
p1973
sVtackle
p1974
VTackle
p1975
sVrotomwash
p1976
VRotom-Wash
p1977
sVgrudge
p1978
VGrudge
p1979
sVcyndaquil
p1980
VCyndaquil
p1981
sVblueflare
p1982
VBlue Flare
p1983
sVdefog
p1984
VDefog
p1985
sVskyattack
p1986
VSky Attack
p1987
sVmoonlight
p1988
VMoonlight
p1989
sVmimic
p1990
VMimic
p1991
sVstockpile
p1992
VStockpile
p1993
sVoddincense
p1994
VOdd Incense
p1995
sVgardevoirmega
p1996
VGardevoir-Mega
p1997
sVlairon
p1998
VLairon
p1999
sVeerieimpulse
p2000
VEerie Impulse
p2001
sVscrappy
p2002
VScrappy
p2003
sVtogetic
p2004
VTogetic
p2005
sVfirepunch
p2006
VFire Punch
p2007
sVunfezant
p2008
VUnfezant
p2009
sVvenomoth
p2010
VVenomoth
p2011
sVmicleberry
p2012
VMicle Berry
p2013
sVlightningrod
p2014
VLightning Rod
p2015
sVgigadrain
p2016
VGiga Drain
p2017
sVtornadustherian
p2018
VTornadus-Therian
p2019
sVvanillish
p2020
VVanillish
p2021
sVsheerforce
p2022
VSheer Force
p2023
sVbayleef
p2024
VBayleef
p2025
sVhondewberry
p2026
VHondew Berry
p2027
sVtympole
p2028
VTympole
p2029
sVwigglytuff
p2030
VWigglytuff
p2031
sVtyranitarmega
p2032
VTyranitar-Mega
p2033
sVicepunch
p2034
VIce Punch
p2035
sVgalvantula
p2036
VGalvantula
p2037
sVcombusken
p2038
VCombusken
p2039
sVcloudnine
p2040
VCloud Nine
p2041
sVmienshao
p2042
VMienshao
p2043
sVkeeberry
p2044
VKee Berry
p2045
sVsteameruption
p2046
VSteam Eruption
p2047
sVscrafty
p2048
VScrafty
p2049
sVsecretpower
p2050
VSecret Power
p2051
sS'mild'
p2052
S'Mild'
p2053
sVsawsbuck
p2054
VSawsbuck
p2055
sVdoublekick
p2056
VDouble Kick
p2057
sViceball
p2058
VIce Ball
p2059
sVflorges
p2060
VFlorges
p2061
sVgourgeistsuper
p2062
VGourgeist-Super
p2063
sVironbarbs
p2064
VIron Barbs
p2065
sValtaria
p2066
VAltaria
p2067
sVcrushgrip
p2068
VCrush Grip
p2069
sVcottonguard
p2070
VCotton Guard
p2071
sVmeganium
p2072
VMeganium
p2073
sVchipaway
p2074
VChip Away
p2075
sVhealer
p2076
VHealer
p2077
sVfeatherdance
p2078
VFeather Dance
p2079
sVtrick
p2080
VTrick
p2081
sVironplate
p2082
VIron Plate
p2083
sVgreatball
p2084
VGreat Ball
p2085
sVfellstinger
p2086
VFell Stinger
p2087
sVaurorabeam
p2088
VAurora Beam
p2089
sVheartstamp
p2090
VHeart Stamp
p2091
sVboldore
p2092
VBoldore
p2093
sVchoicescarf
p2094
VChoice Scarf
p2095
sVdragonfang
p2096
VDragon Fang
p2097
sVgastly
p2098
VGastly
p2099
sVrhydon
p2100
VRhydon
p2101
sVanticipation
p2102
VAnticipation
p2103
sVinfernape
p2104
VInfernape
p2105
sVweezing
p2106
VWeezing
p2107
sVaromatisse
p2108
VAromatisse
p2109
sVkyuremwhite
p2110
VKyurem-White
p2111
sVacidspray
p2112
VAcid Spray
p2113
sVarmaldo
p2114
VArmaldo
p2115
sVkyurem
p2116
VKyurem
p2117
sVwringout
p2118
VWring Out
p2119
sVstarly
p2120
VStarly
p2121
sVhawlucha
p2122
VHawlucha
p2123
sVgolett
p2124
VGolett
p2125
sVgyaradosmega
p2126
VGyarados-Mega
p2127
sVgallade
p2128
VGallade
p2129
sVledian
p2130
VLedian
p2131
sVfeint
p2132
VFeint
p2133
sVluvdisc
p2134
VLuvdisc
p2135
sVhelixfossil
p2136
VHelix Fossil
p2137
sVsplash
p2138
VSplash
p2139
sVillumise
p2140
VIllumise
p2141
sVhonedge
p2142
VHonedge
p2143
sVanorith
p2144
VAnorith
p2145
sVdizzypunch
p2146
VDizzy Punch
p2147
sVflyingpress
p2148
VFlying Press
p2149
sVpumpkaboosuper
p2150
VPumpkaboo-Super
p2151
sVhorsea
p2152
VHorsea
p2153
sVstick
p2154
VStick
p2155
sVrazorfang
p2156
VRazor Fang
p2157
sVwatergem
p2158
VWater Gem
p2159
sVturboblaze
p2160
VTurboblaze
p2161
sVaegislashblade
p2162
VAegislash-Blade
p2163
sVnaturalgift
p2164
VNatural Gift
p2165
sVshadowclaw
p2166
VShadow Claw
p2167
sVchartiberry
p2168
VCharti Berry
p2169
sVlumberry
p2170
VLum Berry
p2171
sVvoltorb
p2172
VVoltorb
p2173
sVskyplate
p2174
VSky Plate
p2175
sVsableye
p2176
VSableye
p2177
sVseviper
p2178
VSeviper
p2179
sVmarvelscale
p2180
VMarvel Scale
p2181
sVaurumoth
p2182
VAurumoth
p2183
sVslakoth
p2184
VSlakoth
p2185
sVmonferno
p2186
VMonferno
p2187
sVnightslash
p2188
VNight Slash
p2189
sVeelektrik
p2190
VEelektrik
p2191
sVextrasensory
p2192
VExtrasensory
p2193
sVfilter
p2194
VFilter
p2195
sVshelmet
p2196
VShelmet
p2197
sVglalitite
p2198
VGlalitite
p2199
sVflyinggem
p2200
VFlying Gem
p2201
sVbulkup
p2202
VBulk Up
p2203
sVglaceon
p2204
VGlaceon
p2205
sVwonderguard
p2206
VWonder Guard
p2207
sVelectricgem
p2208
VElectric Gem
p2209
sVrotomfan
p2210
VRotom-Fan
p2211
sVsignalbeam
p2212
VSignal Beam
p2213
sVshuckle
p2214
VShuckle
p2215
sVreflect
p2216
VReflect
p2217
sVdisable
p2218
VDisable
p2219
sVliquidooze
p2220
VLiquid Ooze
p2221
sVfairygem
p2222
VFairy Gem
p2223
sVmedichammega
p2224
VMedicham-Mega
p2225
sVtoxicplate
p2226
VToxic Plate
p2227
sVlanturn
p2228
VLanturn
p2229
sVparaboliccharge
p2230
VParabolic Charge
p2231
sVretaliate
p2232
VRetaliate
p2233
sVcorphish
p2234
VCorphish
p2235
sVbigpecks
p2236
VBig Pecks
p2237
sVmudbomb
p2238
VMud Bomb
p2239
sVarticuno
p2240
VArticuno
p2241
sVfissure
p2242
VFissure
p2243
sVvolcarona
p2244
VVolcarona
p2245
sVblackglasses
p2246
VBlack Glasses
p2247
sVplayrough
p2248
VPlay Rough
p2249
sVhealorder
p2250
VHeal Order
p2251
sVjigglypuff
p2252
VJigglypuff
p2253
sVsandslash
p2254
VSandslash
p2255
sVastonish
p2256
VAstonish
p2257
sVenergyball
p2258
VEnergy Ball
p2259
sVaggron
p2260
VAggron
p2261
sVlampent
p2262
VLampent
p2263
sVfistplate
p2264
VFist Plate
p2265
sVreturn
p2266
VReturn
p2267
sVmanectricmega
p2268
VManectric-Mega
p2269
sVsnowball
p2270
VSnowball
p2271
sVmrmime
p2272
VMr. Mime
p2273
sVcharizardmegax
p2274
VCharizard-Mega-X
p2275
sVcharizardmegay
p2276
VCharizard-Mega-Y
p2277
sVclefable
p2278
VClefable
p2279
sVskuntank
p2280
VSkuntank
p2281
sVprimeape
p2282
VPrimeape
p2283
sVgabite
p2284
VGabite
p2285
sVmissingno
p2286
VMissingno.
p2287
sVbellsprout
p2288
VBellsprout
p2289
sVlovelykiss
p2290
VLovely Kiss
p2291
sVmeanlook
p2292
VMean Look
p2293
sVclamp
p2294
VClamp
p2295
sVtopsyturvy
p2296
VTopsy-Turvy
p2297
sVquickfeet
p2298
VQuick Feet
p2299
sVirondefense
p2300
VIron Defense
p2301
sVraichu
p2302
VRaichu
p2303
sVmagnezone
p2304
VMagnezone
p2305
sVtrickroom
p2306
VTrick Room
p2307
sVstoredpower
p2308
VStored Power
p2309
sS'hiddenpowerpsychic'
p2310
S'Hidden Power Psychic'
p2311
sVelectroweb
p2312
VElectroweb
p2313
sS'jolly'
p2314
S'Jolly'
p2315
sVsalamence
p2316
VSalamence
p2317
sVabsorb
p2318
VAbsorb
p2319
sVarceusice
p2320
VArceus-Ice
p2321
sVwhirlpool
p2322
VWhirlpool
p2323
sVsuperfang
p2324
VSuper Fang
p2325
sVcombee
p2326
VCombee
p2327
sVroggenrola
p2328
VRoggenrola
p2329
sVflashcannon
p2330
VFlash Cannon
p2331
sVironhead
p2332
VIron Head
p2333
sVsentret
p2334
VSentret
p2335
sVpichuspikyeared
p2336
VPichu-Spiky-eared
p2337
sVtyrogue
p2338
VTyrogue
p2339
sVcleffa
p2340
VCleffa
p2341
sVwaterabsorb
p2342
VWater Absorb
p2343
sVtoxicboost
p2344
VToxic Boost
p2345
sVninetales
p2346
VNinetales
p2347
sVnidoranf
p2348
VNidoran-F
p2349
sVcottonspore
p2350
VCotton Spore
p2351
sVnidoranm
p2352
VNidoran-M
p2353
sVpineco
p2354
VPineco
p2355
sVscopelens
p2356
VScope Lens
p2357
sVhydreigon
p2358
VHydreigon
p2359
sVrockpolish
p2360
VRock Polish
p2361
sVgiratinaorigin
p2362
VGiratina-Origin
p2363
sVabomasnowmega
p2364
VAbomasnow-Mega
p2365
sVmanaphy
p2366
VManaphy
p2367
sS'brave'
p2368
S'Brave'
p2369
sVmist
p2370
VMist
p2371
sVkangaskhanmega
p2372
VKangaskhan-Mega
p2373
sVpetaldance
p2374
VPetal Dance
p2375
sVmeowstic
p2376
VMeowstic
p2377
sVboltstrike
p2378
VBolt Strike
p2379
sVswarm
p2380
VSwarm
p2381
sVairlock
p2382
VAir Lock
p2383
sVklinklang
p2384
VKlinklang
p2385
sVlandorustherian
p2386
VLandorus-Therian
p2387
sVpoisongem
p2388
VPoison Gem
p2389
sVpsybeam
p2390
VPsybeam
p2391
sVpikachubelle
p2392
VPikachu-Belle
p2393
sVsuckerpunch
p2394
VSucker Punch
p2395
sVdragonascent
p2396
VDragon Ascent
p2397
sVfreezeshock
p2398
VFreeze Shock
p2399
sVpsywave
p2400
VPsywave
p2401
sVdrillrun
p2402
VDrill Run
p2403
sVwhiteherb
p2404
VWhite Herb
p2405
sVringtarget
p2406
VRing Target
p2407
sVvenipede
p2408
VVenipede
p2409
sVdarkpulse
p2410
VDark Pulse
p2411
sVyamask
p2412
VYamask
p2413
sVstall
p2414
VStall
p2415
sVsharpedonite
p2416
VSharpedonite
p2417
sVdazzlinggleam
p2418
VDazzling Gleam
p2419
sVdoubleedge
p2420
VDouble-Edge
p2421
sVremoraid
p2422
VRemoraid
p2423
sVclefairy
p2424
VClefairy
p2425
sVklink
p2426
VKlink
p2427
sVfirespin
p2428
VFire Spin
p2429
sVgenesectchill
p2430
VGenesect-Chill
p2431
sVdeepseatooth
p2432
VDeepSeaTooth
p2433
sVsuicune
p2434
VSuicune
p2435
sVpamtreberry
p2436
VPamtre Berry
p2437
sVmegahorn
p2438
VMegahorn
p2439
sVslowbromega
p2440
VSlowbro-Mega
p2441
sVsunflora
p2442
VSunflora
p2443
sVgourgeist
p2444
VGourgeist
p2445
sVbarbaracle
p2446
VBarbaracle
p2447
sVairballoon
p2448
VAir Balloon
p2449
sVswirlix
p2450
VSwirlix
p2451
sVlitleo
p2452
VLitleo
p2453
sVcamouflage
p2454
VCamouflage
p2455
sVfrillish
p2456
VFrillish
p2457
sVroselia
p2458
VRoselia
p2459
sVkangaskhan
p2460
VKangaskhan
p2461
sVregirock
p2462
VRegirock
p2463
sVpansage
p2464
VPansage
p2465
sVswitcheroo
p2466
VSwitcheroo
p2467
sValakazammega
p2468
VAlakazam-Mega
p2469
sVsoundproof
p2470
VSoundproof
p2471
sVeruption
p2472
VEruption
p2473
sVyawn
p2474
VYawn
p2475
sVcharm
p2476
VCharm
p2477
sVdiglett
p2478
VDiglett
p2479
sVbeldum
p2480
VBeldum
p2481
sVhabanberry
p2482
VHaban Berry
p2483
sVcrosspoison
p2484
VCross Poison
p2485
sVcarvanha
p2486
VCarvanha
p2487
sVrefrigerate
p2488
VRefrigerate
p2489
sVlowsweep
p2490
VLow Sweep
p2491
sVsturdy
p2492
VSturdy
p2493
sVcovet
p2494
VCovet
p2495
sVgenesectdouse
p2496
VGenesect-Douse
p2497
sVkaratechop
p2498
VKarate Chop
p2499
sVhoundoominite
p2500
VHoundoominite
p2501
sVazumarill
p2502
VAzumarill
p2503
sVrazorwind
p2504
VRazor Wind
p2505
sVherdier
p2506
VHerdier
p2507
sVmeloetta
p2508
VMeloetta
p2509
sVnanabberry
p2510
VNanab Berry
p2511
sVzoomlens
p2512
VZoom Lens
p2513
sVblackbelt
p2514
VBlack Belt
p2515
sVhammerarm
p2516
VHammer Arm
p2517
sVmagmaarmor
p2518
VMagma Armor
p2519
sVtriattack
p2520
VTri Attack
p2521
sVgooey
p2522
VGooey
p2523
sVoblivionwing
p2524
VOblivion Wing
p2525
sVtyrantrum
p2526
VTyrantrum
p2527
sVhealpulse
p2528
VHeal Pulse
p2529
sVmagikarp
p2530
VMagikarp
p2531
sVpawniard
p2532
VPawniard
p2533
sVpoisontail
p2534
VPoison Tail
p2535
sVhitmonchan
p2536
VHitmonchan
p2537
sS'docile'
p2538
S'Docile'
p2539
sVfireblast
p2540
VFire Blast
p2541
sVshroomish
p2542
VShroomish
p2543
sVwhismur
p2544
VWhismur
p2545
sVspikes
p2546
VSpikes
p2547
sVshadowstrike
p2548
VShadow Strike
p2549
sVheatcrash
p2550
VHeat Crash
p2551
sVskorupi
p2552
VSkorupi
p2553
sVgengarite
p2554
VGengarite
p2555
sVblitzle
p2556
VBlitzle
p2557
sVtamatoberry
p2558
VTamato Berry
p2559
sVblazikenite
p2560
VBlazikenite
p2561
sVfarfetchd
p2562
VFarfetch'd
p2563
sVinkay
p2564
VInkay
p2565
sVpickup
p2566
VPickup
p2567
sVcontrary
p2568
VContrary
p2569
sVkarrablast
p2570
VKarrablast
p2571
sVmarowak
p2572
VMarowak
p2573
sVmachobrace
p2574
VMacho Brace
p2575
sVelekid
p2576
VElekid
p2577
sVmagmortar
p2578
VMagmortar
p2579
sVchansey
p2580
VChansey
p2581
sVroaroftime
p2582
VRoar of Time
p2583
sVwildcharge
p2584
VWild Charge
p2585
sVrattata
p2586
VRattata
p2587
sVhoundoommega
p2588
VHoundoom-Mega
p2589
sVclaydol
p2590
VClaydol
p2591
sVrelicanth
p2592
VRelicanth
p2593
sVtorchic
p2594
VTorchic
p2595
sVlapras
p2596
VLapras
p2597
sVmankey
p2598
VMankey
p2599
sVfuryattack
p2600
VFury Attack
p2601
sVsweetscent
p2602
VSweet Scent
p2603
sVshayminsky
p2604
VShaymin-Sky
p2605
sVwacanberry
p2606
VWacan Berry
p2607
sVsandile
p2608
VSandile
p2609
sVtyphlosion
p2610
VTyphlosion
p2611
sVsimple
p2612
VSimple
p2613
sVdrillpeck
p2614
VDrill Peck
p2615
sVicebody
p2616
VIce Body
p2617
sVnatu
p2618
VNatu
p2619
sVxscissor
p2620
VX-Scissor
p2621
sVsing
p2622
VSing
p2623
sVquiverdance
p2624
VQuiver Dance
p2625
sVblastoisinite
p2626
VBlastoisinite
p2627
sVmegapunch
p2628
VMega Punch
p2629
sVdamp
p2630
VDamp
p2631
sVskitty
p2632
VSkitty
p2633
sVmienfoo
p2634
VMienfoo
p2635
sVliepard
p2636
VLiepard
p2637
sVamnesia
p2638
VAmnesia
p2639
sVdestinybond
p2640
VDestiny Bond
p2641
sVpowersplit
p2642
VPower Split
p2643
sVdruddigon
p2644
VDruddigon
p2645
sVtaillow
p2646
VTaillow
p2647
sVdragontail
p2648
VDragon Tail
p2649
sVbeedrillite
p2650
VBeedrillite
p2651
sVstringshot
p2652
VString Shot
p2653
sValomomola
p2654
VAlomomola
p2655
sVwatergun
p2656
VWater Gun
p2657
sVvcreate
p2658
VV-create
p2659
sVnomelberry
p2660
VNomel Berry
p2661
sVdrainingkiss
p2662
VDraining Kiss
p2663
sVbasculin
p2664
VBasculin
p2665
sVescavalier
p2666
VEscavalier
p2667
sVpsychoshift
p2668
VPsycho Shift
p2669
sVbisharp
p2670
VBisharp
p2671
sVhoundoom
p2672
VHoundoom
p2673
sVgulpin
p2674
VGulpin
p2675
sVpancham
p2676
VPancham
p2677
sVmantyke
p2678
VMantyke
p2679
sVpound
p2680
VPound
p2681
sVmedichamite
p2682
VMedichamite
p2683
sVrotommow
p2684
VRotom-Mow
p2685
sVdefendorder
p2686
VDefend Order
p2687
sVsurskit
p2688
VSurskit
p2689
sVmegalauncher
p2690
VMega Launcher
p2691
sVicebeam
p2692
VIce Beam
p2693
sVfacade
p2694
VFacade
p2695
sVzubat
p2696
VZubat
p2697
sVmagikarpsrevenge
p2698
VMagikarp's Revenge
p2699
sVingrain
p2700
VIngrain
p2701
sVcottonee
p2702
VCottonee
p2703
sVpikachuphd
p2704
VPikachu-PhD
p2705
sVpoisonjab
p2706
VPoison Jab
p2707
sVcameruptmega
p2708
VCamerupt-Mega
p2709
sS'crucibellemega'
p2710
S'Crucibelle-Mega'
p2711
sVleechseed
p2712
VLeech Seed
p2713
sVgorebyss
p2714
VGorebyss
p2715
sVgrotle
p2716
VGrotle
p2717
sVpikachu
p2718
VPikachu
p2719
sVrayquaza
p2720
VRayquaza
p2721
sVfroakie
p2722
VFroakie
p2723
sVloveball
p2724
VLove Ball
p2725
sVjumpluff
p2726
VJumpluff
p2727
sS'timid'
p2728
S'Timid'
p2729
sVmismagius
p2730
VMismagius
p2731
sS'hiddenpowerbug'
p2732
S'Hidden Power Bug'
p2733
sVinfiltrator
p2734
VInfiltrator
p2735
sVpsychup
p2736
VPsych Up
p2737
sVregice
p2738
VRegice
p2739
sVfiregem
p2740
VFire Gem
p2741
sVshellder
p2742
VShellder
p2743
sVwithdraw
p2744
VWithdraw
p2745
sVmoonball
p2746
VMoon Ball
p2747
sVpainsplit
p2748
VPain Split
p2749
sVstoneedge
p2750
VStone Edge
p2751
sVhowl
p2752
VHowl
p2753
sVwaterpledge
p2754
VWater Pledge
p2755
sVspearow
p2756
VSpearow
p2757
sVwhirlipede
p2758
VWhirlipede
p2759
sVrockwrecker
p2760
VRock Wrecker
p2761
sVoriginpulse
p2762
VOrigin Pulse
p2763
sVcompetitive
p2764
VCompetitive
p2765
sVsteelgem
p2766
VSteel Gem
p2767
sVzygarde
p2768
VZygarde
p2769
sVsolrock
p2770
VSolrock
p2771
sVthousandarrows
p2772
VThousand Arrows
p2773
sVspinda
p2774
VSpinda
p2775
sVcloyster
p2776
VCloyster
p2777
sVmetapod
p2778
VMetapod
p2779
sVairslash
p2780
VAir Slash
p2781
sVchatot
p2782
VChatot
p2783
sVacrobatics
p2784
VAcrobatics
p2785
sVspheal
p2786
VSpheal
p2787
sVchoicespecs
p2788
VChoice Specs
p2789
sVrebound
p2790
VRebound
p2791
sVsolarbeam
p2792
VSolar Beam
p2793
sVlusterpurge
p2794
VLuster Purge
p2795
sVtorterra
p2796
VTorterra
p2797
sVmoody
p2798
VMoody
p2799
sVglaliemega
p2800
VGlalie-Mega
p2801
sVgothitelle
p2802
VGothitelle
p2803
sVskilllink
p2804
VSkill Link
p2805
sVponyta
p2806
VPonyta
p2807
sVthundurustherian
p2808
VThundurus-Therian
p2809
sVsubmission
p2810
VSubmission
p2811
sVstaravia
p2812
VStaravia
p2813
sVtailglow
p2814
VTail Glow
p2815
sVnoibat
p2816
VNoibat
p2817
sVuproar
p2818
VUproar
p2819
sVtechnoblast
p2820
VTechno Blast
p2821
sVlilligant
p2822
VLilligant
p2823
sVflamewheel
p2824
VFlame Wheel
p2825
sVsketch
p2826
VSketch
p2827
sVchimchar
p2828
VChimchar
p2829
sVbounce
p2830
VBounce
p2831
sVsunnyday
p2832
VSunny Day
p2833
sVsouldew
p2834
VSoul Dew
p2835
sVgigaimpact
p2836
VGiga Impact
p2837
sVsewaddle
p2838
VSewaddle
p2839
sVscald
p2840
VScald
p2841
sVominouswind
p2842
VOminous Wind
p2843
sVdeepseascale
p2844
VDeepSeaScale
p2845
sVmareep
p2846
VMareep
p2847
sVhuntail
p2848
VHuntail
p2849
sVswordsdance
p2850
VSwords Dance
p2851
sVearlybird
p2852
VEarly Bird
p2853
sVslash
p2854
VSlash
p2855
sS'hiddenpowergrass'
p2856
S'Hidden Power Grass'
p2857
sVpidgeotite
p2858
VPidgeotite
p2859
sVmimejr
p2860
VMime Jr.
p2861
sVimprison
p2862
VImprison
p2863
sVseismitoad
p2864
VSeismitoad
p2865
sVscraggy
p2866
VScraggy
p2867
sVmewtwomegax
p2868
VMewtwo-Mega-X
p2869
sVmewtwomegay
p2870
VMewtwo-Mega-Y
p2871
sVfocussash
p2872
VFocus Sash
p2873
sVjellicent
p2874
VJellicent
p2875
sVspelonberry
p2876
VSpelon Berry
p2877
sVnobleroar
p2878
VNoble Roar
p2879
sVkangaskhanite
p2880
VKangaskhanite
p2881
sVelectrike
p2882
VElectrike
p2883
sViapapaberry
p2884
VIapapa Berry
p2885
sVmudkip
p2886
VMudkip
p2887
sVbouffalant
p2888
VBouffalant
p2889
sVshinx
p2890
VShinx
p2891
sVblock
p2892
VBlock
p2893
sVsharpedo
p2894
VSharpedo
p2895
sVarmthrust
p2896
VArm Thrust
p2897
sVchargebeam
p2898
VCharge Beam
p2899
sVshellos
p2900
VShellos
p2901
sVnidoking
p2902
VNidoking
p2903
sVsablenite
p2904
VSablenite
p2905
sVbarboach
p2906
VBarboach
p2907
sVstench
p2908
VStench
p2909
sVtoxicroak
p2910
VToxicroak
p2911
sVunown
p2912
VUnown
p2913
sVferrothorn
p2914
VFerrothorn
p2915
sVswampertmega
p2916
VSwampert-Mega
p2917
sVearthpower
p2918
VEarth Power
p2919
sVsnorunt
p2920
VSnorunt
p2921
sS'relaxed'
p2922
S'Relaxed'
p2923
sVdragongem
p2924
VDragon Gem
p2925
sVpsychocut
p2926
VPsycho Cut
p2927
sVtranquill
p2928
VTranquill
p2929
sVragepowder
p2930
VRage Powder
p2931
sVbuizel
p2932
VBuizel
p2933
sVsharpen
p2934
VSharpen
p2935
sVprobopass
p2936
VProbopass
p2937
sVshuppet
p2938
VShuppet
p2939
sVsteelixite
p2940
VSteelixite
p2941
sVspacialrend
p2942
VSpacial Rend
p2943
sVforesight
p2944
VForesight
p2945
sVwepearberry
p2946
VWepear Berry
p2947
sVheavyball
p2948
VHeavy Ball
p2949
sVhappyhour
p2950
VHappy Hour
p2951
sVmurkrow
p2952
VMurkrow
p2953
sVpechaberry
p2954
VPecha Berry
p2955
sVarceusfairy
p2956
VArceus-Fairy
p2957
sVmiracleseed
p2958
VMiracle Seed
p2959
sVtakedown
p2960
VTake Down
p2961
sVpangoro
p2962
VPangoro
p2963
sVstickybarb
p2964
VSticky Barb
p2965
sVganlonberry
p2966
VGanlon Berry
p2967
sVbulbasaur
p2968
VBulbasaur
p2969
sVpichu
p2970
VPichu
p2971
sVheatwave
p2972
VHeat Wave
p2973
sVaudino
p2974
VAudino
p2975
sVdrifloon
p2976
VDrifloon
p2977
sVsnowcloak
p2978
VSnow Cloak
p2979
sVrazorshell
p2980
VRazor Shell
p2981
sVmetagross
p2982
VMetagross
p2983
sVmeowsticf
p2984
VMeowstic-F
p2985
sVlickilicky
p2986
VLickilicky
p2987
sVzigzagoon
p2988
VZigzagoon
p2989
sVprecipiceblades
p2990
VPrecipice Blades
p2991
sVcinccino
p2992
VCinccino
p2993
sVavalugg
p2994
VAvalugg
p2995
sVscratch
p2996
VScratch
p2997
sVcharmeleon
p2998
VCharmeleon
p2999
sVsandtomb
p3000
VSand Tomb
p3001
sVcharmander
p3002
VCharmander
p3003
sVspeedboost
p3004
VSpeed Boost
p3005
sVwakeupslap
p3006
VWake-Up Slap
p3007
sVcursedbody
p3008
VCursed Body
p3009
sVharvest
p3010
VHarvest
p3011
sVperishsong
p3012
VPerish Song
p3013
sVpoweruppunch
p3014
VPower-Up Punch
p3015
sVcutecharm
p3016
VCute Charm
p3017
sVblaze
p3018
VBlaze
p3019
sVsniper
p3020
VSniper
p3021
sVtriplekick
p3022
VTriple Kick
p3023
sVfly
p3024
VFly
p3025
sVguardsplit
p3026
VGuard Split
p3027
sVwobbuffet
p3028
VWobbuffet
p3029
sVroleplay
p3030
VRole Play
p3031
sVteddiursa
p3032
VTeddiursa
p3033
sVthundershock
p3034
VThunder Shock
p3035
sVazurill
p3036
VAzurill
p3037
sVbastiodon
p3038
VBastiodon
p3039
sVlureball
p3040
VLure Ball
p3041
sVqwilfish
p3042
VQwilfish
p3043
sVhyperbeam
p3044
VHyper Beam
p3045
sVdynamicpunch
p3046
VDynamic Punch
p3047
sVmagnemite
p3048
VMagnemite
p3049
sVtyrunt
p3050
VTyrunt
p3051
sVwatershuriken
p3052
VWater Shuriken
p3053
sVmisdreavus
p3054
VMisdreavus
p3055
sVfidgit
p3056
VFidgit
p3057
sVdousedrive
p3058
VDouse Drive
p3059
sVcrushclaw
p3060
VCrush Claw
p3061
sVsoftboiled
p3062
VSoft-Boiled
p3063
sVshedinja
p3064
VShedinja
p3065
sVdownload
p3066
VDownload
p3067
sVacid
p3068
VAcid
p3069
sVvigoroth
p3070
VVigoroth
p3071
sVlombre
p3072
VLombre
p3073
sVdelcatty
p3074
VDelcatty
p3075
sVworryseed
p3076
VWorry Seed
p3077
sVpayday
p3078
VPay Day
p3079
sVtyranitar
p3080
VTyranitar
p3081
sVturtwig
p3082
VTurtwig
p3083
sVmagmastorm
p3084
VMagma Storm
p3085
sVpansear
p3086
VPansear
p3087
sVdeerling
p3088
VDeerling
p3089
sVswinub
p3090
VSwinub
p3091
sVabomasnow
p3092
VAbomasnow
p3093
sVbellossom
p3094
VBellossom
p3095
sVpikachucosplay
p3096
VPikachu-Cosplay
p3097
sVcastform
p3098
VCastform
p3099
sVincinerate
p3100
VIncinerate
p3101
sVmarangaberry
p3102
VMaranga Berry
p3103
sVrampardos
p3104
VRampardos
p3105
sVscreech
p3106
VScreech
p3107
sVtentacruel
p3108
VTentacruel
p3109
sVnaturalcure
p3110
VNatural Cure
p3111
sVforestscurse
p3112
VForest's Curse
p3113
sVblizzard
p3114
VBlizzard
p3115
sVteeterdance
p3116
VTeeter Dance
p3117
sVfoongus
p3118
VFoongus
p3119
sVaquaring
p3120
VAqua Ring
p3121
sS'hardy'
p3122
S'Hardy'
p3123
sVarceusground
p3124
VArceus-Ground
p3125
sVhornattack
p3126
VHorn Attack
p3127
sVkingdra
p3128
VKingdra
p3129
sVaerodactylite
p3130
VAerodactylite
p3131
sVbanettite
p3132
VBanettite
p3133
sVeevee
p3134
VEevee
p3135
sVheatran
p3136
VHeatran
p3137
sVwatchog
p3138
VWatchog
p3139
sVpoliwrath
p3140
VPoliwrath
p3141
sVinsomnia
p3142
VInsomnia
p3143
sVcharcoal
p3144
VCharcoal
p3145
sVcranidos
p3146
VCranidos
p3147
sVabsol
p3148
VAbsol
p3149
sVplusle
p3150
VPlusle
p3151
sVaerodactylmega
p3152
VAerodactyl-Mega
p3153
sVrivalry
p3154
VRivalry
p3155
sVwatersport
p3156
VWater Sport
p3157
sVicicleplate
p3158
VIcicle Plate
p3159
sVfuturesight
p3160
VFuture Sight
p3161
sVlustrousorb
p3162
VLustrous Orb
p3163
sVarchen
p3164
VArchen
p3165
sVexeggcute
p3166
VExeggcute
p3167
sVlucario
p3168
VLucario
p3169
sVthundurus
p3170
VThundurus
p3171
sVtangrowth
p3172
VTangrowth
p3173
sVvespiquen
p3174
VVespiquen
p3175
sVterrakion
p3176
VTerrakion
p3177
sVblacksludge
p3178
VBlack Sludge
p3179
sVadamantorb
p3180
VAdamant Orb
p3181
sVrelicsong
p3182
VRelic Song
p3183
sVheliolisk
p3184
VHeliolisk
p3185
sVblazikenmega
p3186
VBlaziken-Mega
p3187
sVgastrodon
p3188
VGastrodon
p3189
sVbronzong
p3190
VBronzong
p3191
sVweavile
p3192
VWeavile
p3193
sVdewott
p3194
VDewott
p3195
sVchandelure
p3196
VChandelure
p3197
sVhaxorus
p3198
VHaxorus
p3199
sVsecretsword
p3200
VSecret Sword
p3201
sVowntempo
p3202
VOwn Tempo
p3203
sVhiddenpower
p3204
S'Hidden Power'
p3205
sVrazorleaf
p3206
VRazor Leaf
p3207
sVpowerswap
p3208
VPower Swap
p3209
sVdragalge
p3210
VDragalge
p3211
sVgrasswhistle
p3212
VGrass Whistle
p3213
sVswampert
p3214
VSwampert
p3215
sVpidgey
p3216
VPidgey
p3217
sVaggronite
p3218
VAggronite
p3219
sVgenesect
p3220
VGenesect
p3221
sVlotad
p3222
VLotad
p3223
sVbind
p3224
VBind
p3225
sVcounter
p3226
VCounter
p3227
sVfullincense
p3228
VFull Incense
p3229
sVweepinbell
p3230
VWeepinbell
p3231
sVwoobat
p3232
VWoobat
p3233
sVaquajet
p3234
VAqua Jet
p3235
sVkrabby
p3236
VKrabby
p3237
sVumbreon
p3238
VUmbreon
p3239
sVheatproof
p3240
VHeatproof
p3241
sVguardswap
p3242
VGuard Swap
p3243
sVassaultvest
p3244
VAssault Vest
p3245
sVpetalblizzard
p3246
VPetal Blizzard
p3247
sVkadabra
p3248
VKadabra
p3249
sVpurepower
p3250
VPure Power
p3251
sVironball
p3252
VIron Ball
p3253
sVdreameater
p3254
VDream Eater
p3255
sVhelpinghand
p3256
VHelping Hand
p3257
sVmunchlax
p3258
VMunchlax
p3259
sVzenheadbutt
p3260
VZen Headbutt
p3261
sVbelch
p3262
VBelch
p3263
sVsuperluck
p3264
VSuper Luck
p3265
sVberryjuice
p3266
VBerry Juice
p3267
sS'hiddenpowerflying'
p3268
S'Hidden Power Flying'
p3269
sVflowerveil
p3270
VFlower Veil
p3271
sVmilotic
p3272
VMilotic
p3273
sVarbok
p3274
VArbok
p3275
sVflail
p3276
VFlail
p3277
sVkabutops
p3278
VKabutops
p3279
sVhoothoot
p3280
VHoothoot
p3281
sVchinchou
p3282
VChinchou
p3283
sVmagnitude
p3284
VMagnitude
p3285
sVarceusfighting
p3286
VArceus-Fighting
p3287
sVrapidspin
p3288
VRapid Spin
p3289
sVskullbash
p3290
VSkull Bash
p3291
sVdratini
p3292
VDratini
p3293
sVafteryou
p3294
VAfter You
p3295
sVmaractus
p3296
VMaractus
p3297
sS'crucibellite'
p3298
S'Crucibellite'
p3299
sVilluminate
p3300
VIlluminate
p3301
sVgallademega
p3302
VGallade-Mega
p3303
sVmagnetpull
p3304
VMagnet Pull
p3305
sVtepig
p3306
VTepig
p3307
sVkelpsyberry
p3308
VKelpsy Berry
p3309
sVstatic
p3310
VStatic
p3311
sVflameplate
p3312
VFlame Plate
p3313
sVicefang
p3314
VIce Fang
p3315
sVvenonat
p3316
VVenonat
p3317
sVjoltik
p3318
VJoltik
p3319
sVrollingkick
p3320
VRolling Kick
p3321
sVweatherball
p3322
VWeather Ball
p3323
sVmanectric
p3324
VManectric
p3325
sVnaturepower
p3326
VNature Power
p3327
sVregisteel
p3328
VRegisteel
p3329
sVsmog
p3330
VSmog
p3331
sVbabydolleyes
p3332
VBaby-Doll Eyes
p3333
sVleafguard
p3334
VLeaf Guard
p3335
sVicywind
p3336
VIcy Wind
p3337
sVemolga
p3338
VEmolga
p3339
sVconkeldurr
p3340
VConkeldurr
p3341
sVworkup
p3342
VWork Up
p3343
sVmetagrossite
p3344
VMetagrossite
p3345
sVhippowdon
p3346
VHippowdon
p3347
sVenigmaberry
p3348
VEnigma Berry
p3349
sVscatterbug
p3350
VScatterbug
p3351
sVaromaveil
p3352
VAroma Veil
p3353
sVbergmite
p3354
VBergmite
p3355
sVsudowoodo
p3356
VSudowoodo
p3357
sVlarvitar
p3358
VLarvitar
p3359
sVheadbutt
p3360
VHeadbutt
p3361
sVbodyslam
p3362
VBody Slam
p3363
sVexpertbelt
p3364
VExpert Belt
p3365
sVbugbuzz
p3366
VBug Buzz
p3367
sVfirefang
p3368
VFire Fang
p3369
sVdiancite
p3370
VDiancite
p3371
sVampharosmega
p3372
VAmpharos-Mega
p3373
sVmistball
p3374
VMist Ball
p3375
sVskrelp
p3376
VSkrelp
p3377
sVjumpkick
p3378
VJump Kick
p3379
sVwaterspout
p3380
VWater Spout
p3381
sVloudred
p3382
VLoudred
p3383
sVfletchinder
p3384
VFletchinder
p3385
sVpremierball
p3386
VPremier Ball
p3387
sVrotomfrost
p3388
VRotom-Frost
p3389
sVsolidrock
p3390
VSolid Rock
p3391
sVrabutaberry
p3392
VRabuta Berry
p3393
sVagility
p3394
VAgility
p3395
sVelectabuzz
p3396
VElectabuzz
p3397
sVcrobat
p3398
VCrobat
p3399
sVrockblast
p3400
VRock Blast
p3401
sVcacnea
p3402
VCacnea
p3403
sVsoftsand
p3404
VSoft Sand
p3405
sVsigilyph
p3406
VSigilyph
p3407
sVempoleon
p3408
VEmpoleon
p3409
sVtorkoal
p3410
VTorkoal
p3411
sVwurmple
p3412
VWurmple
p3413
sVmasterball
p3414
VMaster Ball
p3415
sVtimburr
p3416
VTimburr
p3417
sVsealeo
p3418
VSealeo
p3419
sVpoisonfang
p3420
VPoison Fang
p3421
sVinsectplate
p3422
VInsect Plate
p3423
sVtorrent
p3424
VTorrent
p3425
sVencore
p3426
VEncore
p3427
sVquickball
p3428
VQuick Ball
p3429
sVtrapinch
p3430
VTrapinch
p3431
sVmarshtomp
p3432
VMarshtomp
p3433
sS'gentle'
p3434
S'Gentle'
p3435
sVsandrush
p3436
VSand Rush
p3437
sVarceusflying
p3438
VArceus-Flying
p3439
sVzebstrika
p3440
VZebstrika
p3441
sVwhitesmoke
p3442
VWhite Smoke
p3443
sVlevelball
p3444
VLevel Ball
p3445
sVsoak
p3446
VSoak
p3447
sVfusionbolt
p3448
VFusion Bolt
p3449
sVflareon
p3450
VFlareon
p3451
sVcalmmind
p3452
VCalm Mind
p3453
sVaipom
p3454
VAipom
p3455
sVdiamondstorm
p3456
VDiamond Storm
p3457
sVgravity
p3458
VGravity
p3459
sVcarnivine
p3460
VCarnivine
p3461
sVmistyterrain
p3462
VMisty Terrain
p3463
sVrotom
p3464
VRotom
p3465
sVnuzleaf
p3466
VNuzleaf
p3467
sVwidelens
p3468
VWide Lens
p3469
sVshadowball
p3470
VShadow Ball
p3471
sVdrifblim
p3472
VDrifblim
p3473
sVmewtwo
p3474
VMewtwo
p3475
sVrollout
p3476
VRollout
p3477
sVslurpuff
p3478
VSlurpuff
p3479
sVgrassgem
p3480
VGrass Gem
p3481
sVdracometeor
p3482
VDraco Meteor
p3483
sVsludgewave
p3484
VSludge Wave
p3485
sVsceptile
p3486
VSceptile
p3487
sVgardevoirite
p3488
VGardevoirite
p3489
sVexeggutor
p3490
VExeggutor
p3491
sVshedskin
p3492
VShed Skin
p3493
sVcherrimsunshine
p3494
VCherrim-Sunshine
p3495
sVarceus
p3496
VArceus
p3497
sS'impish'
p3498
S'Impish'
p3499
sVservine
p3500
VServine
p3501
sVwailmer
p3502
VWailmer
p3503
sVbrine
p3504
VBrine
p3505
sVzweilous
p3506
VZweilous
p3507
sVsleeppowder
p3508
VSleep Powder
p3509
sVoldamber
p3510
VOld Amber
p3511
sVdurant
p3512
VDurant
p3513
sVsimplebeam
p3514
VSimple Beam
p3515
sVyveltal
p3516
VYveltal
p3517
sVdragonite
p3518
VDragonite
p3519
sS'rash'
p3520
S'Rash'
p3521
sVpiplup
p3522
VPiplup
p3523
sVflashfire
p3524
VFlash Fire
p3525
sVdeino
p3526
VDeino
p3527
sVcamerupt
p3528
VCamerupt
p3529
sVluckypunch
p3530
VLucky Punch
p3531
sVpsychicgem
p3532
VPsychic Gem
p3533
sVrarebone
p3534
VRare Bone
p3535
sVsnover
p3536
VSnover
p3537
sVtangaberry
p3538
VTanga Berry
p3539
sVbellydrum
p3540
VBelly Drum
p3541
sS'sassy'
p3542
S'Sassy'
p3543
sVdeoxysattack
p3544
VDeoxys-Attack
p3545
sVcroagunk
p3546
VCroagunk
p3547
sVbravebird
p3548
VBrave Bird
p3549
sVgust
p3550
VGust
p3551
sVmagicguard
p3552
VMagic Guard
p3553
sVsandattack
p3554
VSand Attack
p3555
sVkingler
p3556
VKingler
p3557
sVwish
p3558
VWish
p3559
sVwatmelberry
p3560
VWatmel Berry
p3561
sVsheercold
p3562
VSheer Cold
p3563
sVgeomancy
p3564
VGeomancy
p3565
sVcacturne
p3566
VCacturne
p3567
sVpowder
p3568
VPowder
p3569
sVvictini
p3570
VVictini
p3571
sVfinneon
p3572
VFinneon
p3573
sVelectrode
p3574
VElectrode
p3575
sVchestoberry
p3576
VChesto Berry
p3577
sVgrumpig
p3578
VGrumpig
p3579
sVlifeorb
p3580
VLife Orb
p3581
sVgyarados
p3582
VGyarados
p3583
sVvaporeon
p3584
VVaporeon
p3585
sVpartingshot
p3586
VParting Shot
p3587
sVrockincense
p3588
VRock Incense
p3589
sVfroslass
p3590
VFroslass
p3591
sVconfusion
p3592
VConfusion
p3593
sVaron
p3594
VAron
p3595
sVconversion2
p3596
VConversion 2
p3597
sVwhiscash
p3598
VWhiscash
p3599
sVzoroark
p3600
VZoroark
p3601
sVshellsmash
p3602
VShell Smash
p3603
sVhydropump
p3604
VHydro Pump
p3605
sVswift
p3606
VSwift
p3607
sVhighjumpkick
p3608
VHigh Jump Kick
p3609
sVmetang
p3610
VMetang
p3611
sVbaddreams
p3612
VBad Dreams
p3613
sVaerodactyl
p3614
VAerodactyl
p3615
sVpoisonheal
p3616
VPoison Heal
p3617
sVsceptilite
p3618
VSceptilite
p3619
sVsafetygoggles
p3620
VSafety Goggles
p3621
sVklang
p3622
VKlang
p3623
sVswallow
p3624
VSwallow
p3625
sVspritzee
p3626
VSpritzee
p3627
sVflabebe
p3628
VFlabebe
p3629
sVapicotberry
p3630
VApicot Berry
p3631
sVnumel
p3632
VNumel
p3633
sVwoodhammer
p3634
VWood Hammer
p3635
sS'hiddenpowerwater'
p3636
S'Hidden Power Water'
p3637
sVmalaconda
p3638
VMalaconda
p3639
sVgible
p3640
VGible
p3641
sVovercoat
p3642
VOvercoat
p3643
sVekans
p3644
VEkans
p3645
sVsharpedomega
p3646
VSharpedo-Mega
p3647
sVpixieplate
p3648
VPixie Plate
p3649
sVdugtrio
p3650
VDugtrio
p3651
sVdisarmingvoice
p3652
VDisarming Voice
p3653
sVwailord
p3654
VWailord
p3655
sVswoobat
p3656
VSwoobat
p3657
sVelectrify
p3658
VElectrify
p3659
sVbindingband
p3660
VBinding Band
p3661
sVkeldeo
p3662
VKeldeo
p3663
sVtomohawk
p3664
VTomohawk
p3665
sVivysaur
p3666
VIvysaur
p3667
sVgripclaw
p3668
VGrip Claw
p3669
sVhorndrill
p3670
VHorn Drill
p3671
sVcoverfossil
p3672
VCover Fossil
p3673
sVaccelgor
p3674
VAccelgor
p3675
sVsmeargle
p3676
VSmeargle
p3677
sVmetagrossmega
p3678
VMetagross-Mega
p3679
sVraindance
p3680
VRain Dance
p3681
sVinfestation
p3682
VInfestation
p3683
sVpresent
p3684
VPresent
p3685
sVgrovyle
p3686
VGrovyle
p3687
sVintimidate
p3688
VIntimidate
p3689
sVharden
p3690
VHarden
p3691
sVbeheeyem
p3692
VBeheeyem
p3693
sVgarchompmega
p3694
VGarchomp-Mega
p3695
sVpelipper
p3696
VPelipper
p3697
sVthickfat
p3698
VThick Fat
p3699
sVcarracosta
p3700
VCarracosta
p3701
sVluxio
p3702
VLuxio
p3703
sVvullaby
p3704
VVullaby
p3705
sS'hiddenpowerghost'
p3706
S'Hidden Power Ghost'
p3707
sVlightball
p3708
VLight Ball
p3709
sVwaterveil
p3710
VWater Veil
p3711
sVspelltag
p3712
VSpell Tag
p3713
sVdeoxysdefense
p3714
VDeoxys-Defense
p3715
sVzekrom
p3716
VZekrom
p3717
sVphantump
p3718
VPhantump
p3719
sVdefiant
p3720
VDefiant
p3721
sVhardstone
p3722
VHard Stone
p3723
sVkebiaberry
p3724
VKebia Berry
p3725
sVcascoon
p3726
VCascoon
p3727
sVmagcargo
p3728
VMagcargo
p3729
sVarceuswater
p3730
VArceus-Water
p3731
sVraindish
p3732
VRain Dish
p3733
sVseaking
p3734
VSeaking
p3735
sVmagician
p3736
VMagician
p3737
sVjudgment
p3738
VJudgment
p3739
sVbibarel
p3740
VBibarel
p3741
sVbabiriberry
p3742
VBabiri Berry
p3743
sVaspearberry
p3744
VAspear Berry
p3745
sVeelektross
p3746
VEelektross
p3747
sVpickpocket
p3748
VPickpocket
p3749
sVsitrusberry
p3750
VSitrus Berry
p3751
sVarceuspsychic
p3752
VArceus-Psychic
p3753
sVbeautifly
p3754
VBeautifly
p3755
sVvenoshock
p3756
VVenoshock
p3757
sVmudsport
p3758
VMud Sport
p3759
sVazelf
p3760
VAzelf
p3761
sVyanmega
p3762
VYanmega
p3763
sS'naviathan'
p3764
S'Naviathan'
p3765
sVfairyaura
p3766
VFairy Aura
p3767
sVarceusdark
p3768
VArceus-Dark
p3769
sVpinsir
p3770
VPinsir
p3771
sVguts
p3772
VGuts
p3773
sVtauros
p3774
VTauros
p3775
sVfearow
p3776
VFearow
p3777
sVfaketears
p3778
VFake Tears
p3779
sVariados
p3780
VAriados
p3781
sVraikou
p3782
VRaikou
p3783
sVswellow
p3784
VSwellow
p3785
sVconfide
p3786
VConfide
p3787
sVleechlife
p3788
VLeech Life
p3789
sVkingsshield
p3790
VKing's Shield
p3791
sVkingsrock
p3792
VKing's Rock
p3793
sVblukberry
p3794
VBluk Berry
p3795
sVflowershield
p3796
VFlower Shield
p3797
sVarenatrap
p3798
VArena Trap
p3799
sVtaunt
p3800
VTaunt
p3801
sVgoldeen
p3802
VGoldeen
p3803
sVducklett
p3804
VDucklett
p3805
sVgreninja
p3806
VGreninja
p3807
sVlatios
p3808
VLatios
p3809
sVfrisk
p3810
VFrisk
p3811
sVbudew
p3812
VBudew
p3813
sVgogoat
p3814
VGogoat
p3815
sVbaltoy
p3816
VBaltoy
p3817
sVhealball
p3818
VHeal Ball
p3819
sVphanpy
p3820
VPhanpy
p3821
sVaudinite
p3822
VAudinite
p3823
sVkoffing
p3824
VKoffing
p3825
sVrepeatball
p3826
VRepeat Ball
p3827
sVglare
p3828
VGlare
p3829
sVthief
p3830
VThief
p3831
sVhail
p3832
VHail
p3833
sVcofagrigus
p3834
VCofagrigus
p3835
sVgrowth
p3836
VGrowth
p3837
sVskarmory
p3838
VSkarmory
p3839
sVhitmontop
p3840
VHitmontop
p3841
sVdragonclaw
p3842
VDragon Claw
p3843
sVdrizzle
p3844
VDrizzle
p3845
sVstaraptor
p3846
VStaraptor
p3847
sVmagicalleaf
p3848
VMagical Leaf
p3849
sVforcepalm
p3850
VForce Palm
p3851
sVhurricane
p3852
VHurricane
p3853
sVlileep
p3854
VLileep
p3855
sVpiloswine
p3856
VPiloswine
p3857
sVvenusaurite
p3858
VVenusaurite
p3859
sVcyclohm
p3860
VCyclohm
p3861
sVhappiny
p3862
VHappiny
p3863
sVpressure
p3864
VPressure
p3865
sVsilkscarf
p3866
VSilk Scarf
p3867
sVpidgeotto
p3868
VPidgeotto
p3869
sVdreadplate
p3870
VDread Plate
p3871
sVsableyemega
p3872
VSableye-Mega
p3873
sVfurret
p3874
VFurret
p3875
sVsmellingsalts
p3876
VSmelling Salts
p3877
sVmeteormash
p3878
VMeteor Mash
p3879
sVshucaberry
p3880
VShuca Berry
p3881
sVsweetkiss
p3882
VSweet Kiss
p3883
sVacidarmor
p3884
VAcid Armor
p3885
sVlightclay
p3886
VLight Clay
p3887
sVvoodoom
p3888
VVoodoom
p3889
sVblueorb
p3890
VBlue Orb
p3891
sVfeintattack
p3892
VFeint Attack
p3893
sVburmy
p3894
VBurmy
p3895
sVmagostberry
p3896
VMagost Berry
p3897
sVgrasspelt
p3898
VGrass Pelt
p3899
sVspitup
p3900
VSpit Up
p3901
sVrockthrow
p3902
VRock Throw
p3903
sVroseliberry
p3904
VRoseli Berry
p3905
sVfrustration
p3906
VFrustration
p3907
sVambipom
p3908
VAmbipom
p3909
sVfollowme
p3910
VFollow Me
p3911
sVclauncher
p3912
VClauncher
p3913
sVquickpowder
p3914
VQuick Powder
p3915
sVfrenzyplant
p3916
VFrenzy Plant
p3917
sVclearbody
p3918
VClear Body
p3919
sVmagoberry
p3920
VMago Berry
p3921
sVcroconaw
p3922
VCroconaw
p3923
sVdrowzee
p3924
VDrowzee
p3925
sVserenegrace
p3926
VSerene Grace
p3927
sVheracronite
p3928
VHeracronite
p3929
sVtechnician
p3930
VTechnician
p3931
sVarceusgrass
p3932
VArceus-Grass
p3933
sVembargo
p3934
VEmbargo
p3935
sVmetronome
p3936
VMetronome
p3937
sVattackorder
p3938
VAttack Order
p3939
sVallyswitch
p3940
VAlly Switch
p3941
sVhugepower
p3942
VHuge Power
p3943
sVmegakick
p3944
VMega Kick
p3945
sVentrainment
p3946
VEntrainment
p3947
sVtailwhip
p3948
VTail Whip
p3949
sVscizormega
p3950
VScizor-Mega
p3951
sVhoneclaws
p3952
VHone Claws
p3953
sVfloetteeternalflower
p3954
VFloette-Eternal-Flower
p3955
sVpikachurockstar
p3956
VPikachu-Rock-Star
p3957
sVoranberry
p3958
VOran Berry
p3959
sVninjask
p3960
VNinjask
p3961
sVslowstart
p3962
VSlow Start
p3963
sVweakarmor
p3964
VWeak Armor
p3965
sVaurasphere
p3966
VAura Sphere
p3967
sVshelgon
p3968
VShelgon
p3969
sVrawstberry
p3970
VRawst Berry
p3971
sVvacuumwave
p3972
VVacuum Wave
p3973
sVillusion
p3974
VIllusion
p3975
sVreckless
p3976
VReckless
p3977
sVyacheberry
p3978
VYache Berry
p3979
sVtreecko
p3980
VTreecko
p3981
sVdragonair
p3982
VDragonair
p3983
sVbraviary
p3984
VBraviary
p3985
sVvivillon
p3986
VVivillon
p3987
sVnoguard
p3988
VNo Guard
p3989
sVsalamencemega
p3990
VSalamence-Mega
p3991
sVabomasite
p3992
VAbomasite
p3993
sVstarmie
p3994
VStarmie
p3995
sVpersistent
p3996
VPersistent
p3997
sVmagmar
p3998
VMagmar
p3999
sVzangoose
p4000
VZangoose
p4001
sVvanilluxe
p4002
VVanilluxe
p4003
s.