(dp1
Velectivire
p2
VElectivire
p3
sVpsystrike
p4
VPsystrike
p5
sVcherrim
p6
VCherrim
p7
sVcolorchange
p8
VColor Change
p9
sVpersimberry
p10
VPersim Berry
p11
sVlucarionite
p12
VLucarionite
p13
sVpalkia
p14
VPalkia
p15
sVchatter
p16
VChatter
p17
sValakazite
p18
VAlakazite
p19
sVtickle
p20
VTickle
p21
sVarceuselectric
p22
VArceus-Electric
p23
sVabra
p24
VAbra
p25
sVreuniclus
p26
VReuniclus
p27
sVrecycle
p28
VRecycle
p29
sVtimerball
p30
VTimer Ball
p31
sVmeditite
p32
VMeditite
p33
sVsharpbeak
p34
VSharp Beak
p35
sVmewtwonitex
p36
VMewtwonite X
p37
sVmewtwonitey
p38
VMewtwonite Y
p39
sVquickclaw
p40
VQuick Claw
p41
sVdoubleslap
p42
VDouble Slap
p43
sVeviolite
p44
VEviolite
p45
sVprotean
p46
VProtean
p47
sVsquirtle
p48
VSquirtle
p49
sVdarmanitanzen
p50
VDarmanitan-Zen
p51
sVpremierball
p52
VPremier Ball
p53
sVnastyplot
p54
VNasty Plot
p55
sVwormadam
p56
VWormadam
p57
sVaggronmega
p58
VAggron-Mega
p59
sVwhirlwind
p60
VWhirlwind
p61
sVplumefossil
p62
VPlume Fossil
p63
sVheracross
p64
VHeracross
p65
sS'hiddenpowerelectric'
p66
S'Hidden Power Electric'
p67
sS'hiddenpowerfire'
p68
S'Hidden Power Fire'
p69
sVguillotine
p70
VGuillotine
p71
sVlevitate
p72
VLevitate
p73
sVgyaradosite
p74
VGyaradosite
p75
sVpomegberry
p76
VPomeg Berry
p77
sVmasquerain
p78
VMasquerain
p79
sVthunder
p80
VThunder
p81
sVwaterpulse
p82
VWater Pulse
p83
sVdarkgem
p84
VDark Gem
p85
sVsteelwing
p86
VSteel Wing
p87
sVfraxure
p88
VFraxure
p89
sVmoldbreaker
p90
VMold Breaker
p91
sVcrunch
p92
VCrunch
p93
sVrindoberry
p94
VRindo Berry
p95
sVlatiosite
p96
VLatiosite
p97
sVreflecttype
p98
VReflect Type
p99
sVsnivy
p100
VSnivy
p101
sVmefirst
p102
VMe First
p103
sVstarfberry
p104
VStarf Berry
p105
sVscizorite
p106
VScizorite
p107
sVmew
p108
VMew
p109
sVpursuit
p110
VPursuit
p111
sVheadsmash
p112
VHead Smash
p113
sVaftermath
p114
VAftermath
p115
sVclawitzer
p116
VClawitzer
p117
sVpixilate
p118
VPixilate
p119
sVsilverpowder
p120
VSilverPowder
p121
sVlunatone
p122
VLunatone
p123
sVpunishment
p124
VPunishment
p125
sVpoisontouch
p126
VPoison Touch
p127
sVfeebas
p128
VFeebas
p129
sVneedlearm
p130
VNeedle Arm
p131
sValtarianite
p132
VAltarianite
p133
sVblastburn
p134
VBlast Burn
p135
sVhonchkrow
p136
VHonchkrow
p137
sVtirtouga
p138
VTirtouga
p139
sVampharos
p140
VAmpharos
p141
sVdusclops
p142
VDusclops
p143
sVpoisonbarb
p144
VPoison Barb
p145
sVmorningsun
p146
VMorning Sun
p147
sVfreezedry
p148
VFreeze-Dry
p149
sVmandibuzz
p150
VMandibuzz
p151
sVoverheat
p152
VOverheat
p153
sVspiritomb
p154
VSpiritomb
p155
sVvoltabsorb
p156
VVolt Absorb
p157
sVpurugly
p158
VPurugly
p159
sVshiftgear
p160
VShift Gear
p161
sS'calm'
p162
S'Calm'
p163
sVcastformrainy
p164
VCastform-Rainy
p165
sVbigroot
p166
VBig Root
p167
sVtorment
p168
VTorment
p169
sVcobalion
p170
VCobalion
p171
sVgardevoir
p172
VGardevoir
p173
sVvenomdrench
p174
VVenom Drench
p175
sVmagnetrise
p176
VMagnet Rise
p177
sS'naive'
p178
S'Naive'
p179
sVsceptilemega
p180
VSceptile-Mega
p181
sS'adamant'
p182
S'Adamant'
p183
sVkitsunoh
p184
VKitsunoh
p185
sVarceusbug
p186
VArceus-Bug
p187
sVgranbull
p188
VGranbull
p189
sVpidgeot
p190
VPidgeot
p191
sVtangledfeet
p192
VTangled Feet
p193
sVigglybuff
p194
VIgglybuff
p195
sVonix
p196
VOnix
p197
sVgrimer
p198
VGrimer
p199
sVrototiller
p200
VRototiller
p201
sVlucariomega
p202
VLucario-Mega
p203
sVbugbite
p204
VBug Bite
p205
sVpoisongas
p206
VPoison Gas
p207
sVmakuhita
p208
VMakuhita
p209
sVfriendball
p210
VFriend Ball
p211
sVattract
p212
VAttract
p213
sVcharizarditey
p214
VCharizardite Y
p215
sVcharizarditex
p216
VCharizardite X
p217
sVhyperspacehole
p218
VHyperspace Hole
p219
sVskydrop
p220
VSky Drop
p221
sVcrabhammer
p222
VCrabhammer
p223
sVtoxic
p224
VToxic
p225
sVcastformsunny
p226
VCastform-Sunny
p227
sVrotomheat
p228
VRotom-Heat
p229
sVsportball
p230
VSport Ball
p231
sVpoisonpowder
p232
VPoison Powder
p233
sVredcard
p234
VRed Card
p235
sS'modest'
p236
S'Modest'
p237
sS'lax'
p238
S'Lax'
p239
sVrocktomb
p240
VRock Tomb
p241
sVcherubi
p242
VCherubi
p243
sVleafstorm
p244
VLeaf Storm
p245
sVspookyplate
p246
VSpooky Plate
p247
sS'hasty'
p248
S'Hasty'
p249
sVentei
p250
VEntei
p251
sVmemento
p252
VMemento
p253
sVarceussteel
p254
VArceus-Steel
p255
sVcobaberry
p256
VCoba Berry
p257
sVlaggingtail
p258
VLagging Tail
p259
sVfinalgambit
p260
VFinal Gambit
p261
sVrapidash
p262
VRapidash
p263
sVdoubleteam
p264
VDouble Team
p265
sVlumineon
p266
VLumineon
p267
sVshielddust
p268
VShield Dust
p269
sVmagicbounce
p270
VMagic Bounce
p271
sVfakeout
p272
VFake Out
p273
sVsludge
p274
VSludge
p275
sVvenusaur
p276
VVenusaur
p277
sVphione
p278
VPhione
p279
sVmindplate
p280
VMind Plate
p281
sVflameburst
p282
VFlame Burst
p283
sVaromaticmist
p284
VAromatic Mist
p285
sVzapplate
p286
VZap Plate
p287
sVmunna
p288
VMunna
p289
sVhitmonlee
p290
VHitmonlee
p291
sVdryskin
p292
VDry Skin
p293
sVkricketot
p294
VKricketot
p295
sVroost
p296
VRoost
p297
sVfurycutter
p298
VFury Cutter
p299
sVirontail
p300
VIron Tail
p301
sVheatmor
p302
VHeatmor
p303
sVeggbomb
p304
VEgg Bomb
p305
sVluxray
p306
VLuxray
p307
sVpayback
p308
VPayback
p309
sVexcadrill
p310
VExcadrill
p311
sVgloom
p312
VGloom
p313
sVgluttony
p314
VGluttony
p315
sVvulpix
p316
VVulpix
p317
sVcradily
p318
VCradily
p319
sVthunderfang
p320
VThunder Fang
p321
sVblastoisemega
p322
VBlastoise-Mega
p323
sVespeon
p324
VEspeon
p325
sVmultitype
p326
VMultitype
p327
sVflameorb
p328
VFlame Orb
p329
sS'hiddenpowerdragon'
p330
S'Hidden Power Dragon'
p331
sVfairywind
p332
VFairy Wind
p333
sVgothorita
p334
VGothorita
p335
sVshadowtag
p336
VShadow Tag
p337
sVomastar
p338
VOmastar
p339
sVwalrein
p340
VWalrein
p341
sVpidgeotmega
p342
VPidgeot-Mega
p343
sVtruant
p344
VTruant
p345
sVqualotberry
p346
VQualot Berry
p347
sVflowergift
p348
VFlower Gift
p349
sVpsychic
p350
VPsychic
p351
sVkasibberry
p352
VKasib Berry
p353
sVseedbomb
p354
VSeed Bomb
p355
sVtornadus
p356
VTornadus
p357
sVshedshell
p358
VShed Shell
p359
sVbarrier
p360
VBarrier
p361
sVleftovers
p362
VLeftovers
p363
sVrevenge
p364
VRevenge
p365
sVsynchronoise
p366
VSynchronoise
p367
sVbestow
p368
VBestow
p369
sVtrumpcard
p370
VTrump Card
p371
sVstruggle
p372
VStruggle
p373
sVgalladite
p374
VGalladite
p375
sVshiftry
p376
VShiftry
p377
sVgirafarig
p378
VGirafarig
p379
sVbeartic
p380
VBeartic
p381
sVkyuremblack
p382
VKyurem-Black
p383
sVsonicboom
p384
VSonic Boom
p385
sVfightinggem
p386
VFighting Gem
p387
sVgroudonprimal
p388
VGroudon-Primal
p389
sVlatias
p390
VLatias
p391
sVdrainpunch
p392
VDrain Punch
p393
sVsteelixmega
p394
VSteelix-Mega
p395
sVcherishball
p396
VCherish Ball
p397
sVcheriberry
p398
VCheri Berry
p399
sS'naughty'
p400
S'Naughty'
p401
sVseedflare
p402
VSeed Flare
p403
sVhydrocannon
p404
VHydro Cannon
p405
sVmagneticflux
p406
VMagnetic Flux
p407
sVfusionbolt
p408
VFusion Bolt
p409
sVdeoxys
p410
VDeoxys
p411
sVlatiasmega
p412
VLatias-Mega
p413
sVhooh
p414
VHo-Oh
p415
sVshieldon
p416
VShieldon
p417
sVslugma
p418
VSlugma
p419
sVheracrossmega
p420
VHeracross-Mega
p421
sVwaveincense
p422
VWave Incense
p423
sVmanectite
p424
VManectite
p425
sVpikachupopstar
p426
VPikachu-Pop-Star
p427
sVaircutter
p428
VAir Cutter
p429
sVmightyena
p430
VMightyena
p431
sVgrowlithe
p432
VGrowlithe
p433
sVinferno
p434
VInferno
p435
sVtwister
p436
VTwister
p437
sVarceusdragon
p438
VArceus-Dragon
p439
sVflamethrower
p440
VFlamethrower
p441
sVtoxicorb
p442
VToxic Orb
p443
sVfairylock
p444
VFairy Lock
p445
sVrockclimb
p446
VRock Climb
p447
sVwonderroom
p448
VWonder Room
p449
sVmachoke
p450
VMachoke
p451
sVdoomdesire
p452
VDoom Desire
p453
sVmirrormove
p454
VMirror Move
p455
sVsandshrew
p456
VSandshrew
p457
sVpolitoed
p458
VPolitoed
p459
sVminun
p460
VMinun
p461
sVbelueberry
p462
VBelue Berry
p463
sVendure
p464
VEndure
p465
sVswiftswim
p466
VSwift Swim
p467
sVshellbell
p468
VShell Bell
p469
sVminus
p470
VMinus
p471
sVmeowth
p472
VMeowth
p473
sVprankster
p474
VPrankster
p475
sVsludgebomb
p476
VSludge Bomb
p477
sVpayapaberry
p478
VPayapa Berry
p479
sVclosecombat
p480
VClose Combat
p481
sVmetalclaw
p482
VMetal Claw
p483
sVseel
p484
VSeel
p485
sVblastoise
p486
VBlastoise
p487
sVstrength
p488
VStrength
p489
sVchingling
p490
VChingling
p491
sVgothita
p492
VGothita
p493
sVdarmanitan
p494
VDarmanitan
p495
sVcraftyshield
p496
VCrafty Shield
p497
sVgyroball
p498
VGyro Ball
p499
sVursaring
p500
VUrsaring
p501
sVgolbat
p502
VGolbat
p503
sVgrassyterrain
p504
VGrassy Terrain
p505
sVdeoxysspeed
p506
VDeoxys-Speed
p507
sVshadowforce
p508
VShadow Force
p509
sVcoil
p510
VCoil
p511
sVdrought
p512
VDrought
p513
sVcacnea
p514
VCacnea
p515
sVcosmicpower
p516
VCosmic Power
p517
sVthousandwaves
p518
VThousand Waves
p519
sVdunsparce
p520
VDunsparce
p521
sVconstrict
p522
VConstrict
p523
sVvileplume
p524
VVileplume
p525
sVraticate
p526
VRaticate
p527
sVslaking
p528
VSlaking
p529
sVjirachi
p530
VJirachi
p531
sVgolduck
p532
VGolduck
p533
sVarmorfossil
p534
VArmor Fossil
p535
sVstickyweb
p536
VSticky Web
p537
sVtogekiss
p538
VTogekiss
p539
sVhippopotas
p540
VHippopotas
p541
sVdialga
p542
VDialga
p543
sVlastresort
p544
VLast Resort
p545
sVbulletpunch
p546
VBullet Punch
p547
sVicegem
p548
VIce Gem
p549
sVspite
p550
VSpite
p551
sVcarbink
p552
VCarbink
p553
sVhaze
p554
VHaze
p555
sVstoutland
p556
VStoutland
p557
sVbidoof
p558
VBidoof
p559
sVsyclant
p560
VSyclant
p561
sVhaunter
p562
VHaunter
p563
sVweedle
p564
VWeedle
p565
sVaerilate
p566
VAerilate
p567
sVhoneygather
p568
VHoney Gather
p569
sVmachop
p570
VMachop
p571
sVmetalpowder
p572
VMetal Powder
p573
sVdusknoir
p574
VDusknoir
p575
sVmeditate
p576
VMeditate
p577
sVreversal
p578
VReversal
p579
sVlunardance
p580
VLunar Dance
p581
sVpumpkaboosmall
p582
VPumpkaboo-Small
p583
sVtentacool
p584
VTentacool
p585
sVpokeball
p586
VPoke Ball
p587
sVscizor
p588
VScizor
p589
sVdiancie
p590
VDiancie
p591
sVplasmanta
p592
VPlasmanta
p593
sVnosepass
p594
VNosepass
p595
sVflashcannon
p596
VFlash Cannon
p597
sVlaxincense
p598
VLax Incense
p599
sVmagneton
p600
VMagneton
p601
sVstickyhold
p602
VSticky Hold
p603
sVbeatup
p604
VBeat Up
p605
sVleafblade
p606
VLeaf Blade
p607
sVserperior
p608
VSerperior
p609
sVlopunnite
p610
VLopunnite
p611
sVwooper
p612
VWooper
p613
sVforretress
p614
VForretress
p615
sVmindreader
p616
VMind Reader
p617
sVseaincense
p618
VSea Incense
p619
sVsimisage
p620
VSimisage
p621
sVarcheops
p622
VArcheops
p623
sVheavymetal
p624
VHeavy Metal
p625
sVwormadamsandy
p626
VWormadam-Sandy
p627
sVmuscleband
p628
VMuscle Band
p629
sVmatblock
p630
VMat Block
p631
sVpurrloin
p632
VPurrloin
p633
sVdoduo
p634
VDoduo
p635
sVmuk
p636
VMuk
p637
sVmotordrive
p638
VMotor Drive
p639
sVmothim
p640
VMothim
p641
sVslowpoke
p642
VSlowpoke
p643
sVfrostbreath
p644
VFrost Breath
p645
sVcubone
p646
VCubone
p647
sVcut
p648
VCut
p649
sVmeadowplate
p650
VMeadow Plate
p651
sVparasect
p652
VParasect
p653
sVgourgeistsmall
p654
VGourgeist-Small
p655
sVclearsmog
p656
VClear Smog
p657
sVprotect
p658
VProtect
p659
sVplaynice
p660
VPlay Nice
p661
sVsamurott
p662
VSamurott
p663
sVmawile
p664
VMawile
p665
sVchimecho
p666
VChimecho
p667
sVpetayaberry
p668
VPetaya Berry
p669
sVdoublade
p670
VDoublade
p671
sVdeltastream
p672
VDelta Stream
p673
sVluckychant
p674
VLucky Chant
p675
sVleppaberry
p676
VLeppa Berry
p677
sVlick
p678
VLick
p679
sVoblivious
p680
VOblivious
p681
sVfierydance
p682
VFiery Dance
p683
sVfloatzel
p684
VFloatzel
p685
sVsmackdown
p686
VSmack Down
p687
sVcopycat
p688
VCopycat
p689
sVsalamencite
p690
VSalamencite
p691
sVbuneary
p692
VBuneary
p693
sVshockdrive
p694
VShock Drive
p695
sVnightdaze
p696
VNight Daze
p697
sVfriendguard
p698
VFriend Guard
p699
sVscaryface
p700
VScary Face
p701
sVsteamroller
p702
VSteamroller
p703
sVkakuna
p704
VKakuna
p705
sVpowertrick
p706
VPower Trick
p707
sVyanma
p708
VYanma
p709
sVmagiccoat
p710
VMagic Coat
p711
sVbonerush
p712
VBone Rush
p713
sVgurdurr
p714
VGurdurr
p715
sVthrash
p716
VThrash
p717
sVchespin
p718
VChespin
p719
sVsliggoo
p720
VSliggoo
p721
sVtotodile
p722
VTotodile
p723
sVgarchompite
p724
VGarchompite
p725
sVslowbro
p726
VSlowbro
p727
sValakazam
p728
VAlakazam
p729
sVbinacle
p730
VBinacle
p731
sVnevermeltice
p732
VNever-Melt Ice
p733
sVgrowl
p734
VGrowl
p735
sVaguavberry
p736
VAguav Berry
p737
sVdrilbur
p738
VDrilbur
p739
sVcameruptite
p740
VCameruptite
p741
sVralts
p742
VRalts
p743
sVpupitar
p744
VPupitar
p745
sVslowking
p746
VSlowking
p747
sVpowerherb
p748
VPower Herb
p749
sVnoivern
p750
VNoivern
p751
sVwaterfall
p752
VWaterfall
p753
sVdewgong
p754
VDewgong
p755
sVkirlia
p756
VKirlia
p757
sVknockoff
p758
VKnock Off
p759
sVoctazooka
p760
VOctazooka
p761
sVcawmodore
p762
VCawmodore
p763
sVsylveon
p764
VSylveon
p765
sVluxuryball
p766
VLuxury Ball
p767
sVhydration
p768
VHydration
p769
sVkrokorok
p770
VKrokorok
p771
sVamoonguss
p772
VAmoonguss
p773
sVquilladin
p774
VQuilladin
p775
sVshellarmor
p776
VShell Armor
p777
sVpoliwag
p778
VPoliwag
p779
sVmetalcoat
p780
VMetal Coat
p781
sVthickclub
p782
VThick Club
p783
sVsweetveil
p784
VSweet Veil
p785
sVgoomy
p786
VGoomy
p787
sVsilcoon
p788
VSilcoon
p789
sVbuggem
p790
VBug Gem
p791
sVoshawott
p792
VOshawott
p793
sVkeldeoresolute
p794
VKeldeo-Resolute
p795
sVtogepi
p796
VTogepi
p797
sVdomefossil
p798
VDome Fossil
p799
sVlowkick
p800
VLow Kick
p801
sVhealbell
p802
VHeal Bell
p803
sVmirrorshot
p804
VMirror Shot
p805
sVlickitung
p806
VLickitung
p807
sVlatiosmega
p808
VLatios-Mega
p809
sVdragonrush
p810
VDragon Rush
p811
sVredorb
p812
VRed Orb
p813
sVspinarak
p814
VSpinarak
p815
sVdiggersby
p816
VDiggersby
p817
sVsilverwind
p818
VSilver Wind
p819
sVpaleowave
p820
VPaleo Wave
p821
sVludicolo
p822
VLudicolo
p823
sVditto
p824
VDitto
p825
sVcirclethrow
p826
VCircle Throw
p827
sVpsychoboost
p828
VPsycho Boost
p829
sVnidoqueen
p830
VNidoqueen
p831
sVpinsirmega
p832
VPinsir-Mega
p833
sS'hiddenpowerpoison'
p834
S'Hidden Power Poison'
p835
sVflatter
p836
VFlatter
p837
sVtoxicspikes
p838
VToxic Spikes
p839
sVfirepledge
p840
VFire Pledge
p841
sVnoctowl
p842
VNoctowl
p843
sVcornnberry
p844
VCornn Berry
p845
sVskullfossil
p846
VSkull Fossil
p847
sVcheekpouch
p848
VCheek Pouch
p849
sVstealthrock
p850
VStealth Rock
p851
sVrhyperior
p852
VRhyperior
p853
sVtynamo
p854
VTynamo
p855
sVholdhands
p856
VHold Hands
p857
sVrufflet
p858
VRufflet
p859
sVpsyshock
p860
VPsyshock
p861
sVicyrock
p862
VIcy Rock
p863
sVwynaut
p864
VWynaut
p865
sVtrevenant
p866
VTrevenant
p867
sVabsorbbulb
p868
VAbsorb Bulb
p869
sS'bold'
p870
S'Bold'
p871
sVgunkshot
p872
VGunk Shot
p873
sVgarchomp
p874
VGarchomp
p875
sVgeodude
p876
VGeodude
p877
sVlightscreen
p878
VLight Screen
p879
sVwhimsicott
p880
VWhimsicott
p881
sVlavaplume
p882
VLava Plume
p883
sVkeeneye
p884
VKeen Eye
p885
sVsimipour
p886
VSimipour
p887
sVautotomize
p888
VAutotomize
p889
sVspikecannon
p890
VSpike Cannon
p891
sVnecturna
p892
VNecturna
p893
sVplus
p894
VPlus
p895
sVsapsipper
p896
VSap Sipper
p897
sVpikachulibre
p898
VPikachu-Libre
p899
sVthunderpunch
p900
VThunder Punch
p901
sVhornleech
p902
VHorn Leech
p903
sVbraixen
p904
VBraixen
p905
sVdarkvoid
p906
VDark Void
p907
sVhoundour
p908
VHoundour
p909
sVdualchop
p910
VDual Chop
p911
sVfoulplay
p912
VFoul Play
p913
sVscyther
p914
VScyther
p915
sVgalewings
p916
VGale Wings
p917
sVstormdrain
p918
VStorm Drain
p919
sVseadra
p920
VSeadra
p921
sVovergrow
p922
VOvergrow
p923
sVbonemerang
p924
VBonemerang
p925
sVbronzor
p926
VBronzor
p927
sVwrap
p928
VWrap
p929
sVcorsola
p930
VCorsola
p931
sVtransform
p932
VTransform
p933
sVklefki
p934
VKlefki
p935
sVrowapberry
p936
VRowap Berry
p937
sS'quirky'
p938
S'Quirky'
p939
sVgarbodor
p940
VGarbodor
p941
sVsynthesis
p942
VSynthesis
p943
sVmultiscale
p944
VMultiscale
p945
sVgroundgem
p946
VGround Gem
p947
sVreshiram
p948
VReshiram
p949
sVrocksmash
p950
VRock Smash
p951
sVvolttackle
p952
VVolt Tackle
p953
sVghostgem
p954
VGhost Gem
p955
sVroughskin
p956
VRough Skin
p957
sVsafeguard
p958
VSafeguard
p959
sVsmoothrock
p960
VSmooth Rock
p961
sVbide
p962
VBide
p963
sVaurabreak
p964
VAura Break
p965
sVaurorus
p966
VAurorus
p967
sVlightofruin
p968
VLight of Ruin
p969
sVholdback
p970
VHold Back
p971
sVchopleberry
p972
VChople Berry
p973
sVunnerve
p974
VUnnerve
p975
sVparentalbond
p976
VParental Bond
p977
sVferaligatr
p978
VFeraligatr
p979
sVoddish
p980
VOddish
p981
sVleer
p982
VLeer
p983
sVmagby
p984
VMagby
p985
sVswadloon
p986
VSwadloon
p987
sVvibrava
p988
VVibrava
p989
sVuxie
p990
VUxie
p991
sVsmoochum
p992
VSmoochum
p993
sVlansatberry
p994
VLansat Berry
p995
sVbutterfree
p996
VButterfree
p997
sVferroseed
p998
VFerroseed
p999
sVamaura
p1000
VAmaura
p1001
sVfennekin
p1002
VFennekin
p1003
sVclawfossil
p1004
VClaw Fossil
p1005
sVdischarge
p1006
VDischarge
p1007
sVkyogre
p1008
VKyogre
p1009
sVpoisonpoint
p1010
VPoison Point
p1011
sS'hiddenpowerground'
p1012
S'Hidden Power Ground'
p1013
sVarceuspoison
p1014
VArceus-Poison
p1015
sVliechiberry
p1016
VLiechi Berry
p1017
sVlillipup
p1018
VLillipup
p1019
sVflareboost
p1020
VFlare Boost
p1021
sVmummy
p1022
VMummy
p1023
sVoccaberry
p1024
VOcca Berry
p1025
sVironfist
p1026
VIron Fist
p1027
sS'serious'
p1028
S'Serious'
p1029
sVmegadrain
p1030
VMega Drain
p1031
sVsalacberry
p1032
VSalac Berry
p1033
sVsnubbull
p1034
VSnubbull
p1035
sVsandveil
p1036
VSand Veil
p1037
sVabsolite
p1038
VAbsolite
p1039
sVbonsly
p1040
VBonsly
p1041
sVcelebi
p1042
VCelebi
p1043
sVavalanche
p1044
VAvalanche
p1045
sVshadowsneak
p1046
VShadow Sneak
p1047
sVsuctioncups
p1048
VSuction Cups
p1049
sVsuperpower
p1050
VSuperpower
p1051
sVvenusaurmega
p1052
VVenusaur-Mega
p1053
sVpanpour
p1054
VPanpour
p1055
sVdragonpulse
p1056
VDragon Pulse
p1057
sVelectroball
p1058
VElectro Ball
p1059
sVflash
p1060
VFlash
p1061
sVnetball
p1062
VNet Ball
p1063
sVcharge
p1064
VCharge
p1065
sVquash
p1066
VQuash
p1067
sVsnorlax
p1068
VSnorlax
p1069
sVunburden
p1070
VUnburden
p1071
sVcrosschop
p1072
VCross Chop
p1073
sVmachamp
p1074
VMachamp
p1075
sVkricketune
p1076
VKricketune
p1077
sVtailslap
p1078
VTail Slap
p1079
sVjynx
p1080
VJynx
p1081
sVlopunny
p1082
VLopunny
p1083
sVtwistedspoon
p1084
VTwistedSpoon
p1085
sVskyuppercut
p1086
VSky Uppercut
p1087
sVpoisonsting
p1088
VPoison Sting
p1089
sVarceusfire
p1090
VArceus-Fire
p1091
sVfocusblast
p1092
VFocus Blast
p1093
sVmesprit
p1094
VMesprit
p1095
sVmagnet
p1096
VMagnet
p1097
sVbanettemega
p1098
VBanette-Mega
p1099
sVround
p1100
VRound
p1101
sVunaware
p1102
VUnaware
p1103
sVduskball
p1104
VDusk Ball
p1105
sVfalseswipe
p1106
VFalse Swipe
p1107
sVtalonflame
p1108
VTalonflame
p1109
sVleafeon
p1110
VLeafeon
p1111
sVzorua
p1112
VZorua
p1113
sVzenmode
p1114
VZen Mode
p1115
sVvitalthrow
p1116
VVital Throw
p1117
sVsubstitute
p1118
VSubstitute
p1119
sVcurse
p1120
VCurse
p1121
sVfocusband
p1122
VFocus Band
p1123
sVmoltres
p1124
VMoltres
p1125
sVpasshoberry
p1126
VPassho Berry
p1127
sVdragondance
p1128
VDragon Dance
p1129
sVaxew
p1130
VAxew
p1131
sVkecleon
p1132
VKecleon
p1133
sVglameow
p1134
VGlameow
p1135
sVaeroblast
p1136
VAeroblast
p1137
sVwartortle
p1138
VWartortle
p1139
sVexplosion
p1140
VExplosion
p1141
sVmiracleeye
p1142
VMiracle Eye
p1143
sVpumpkaboo
p1144
VPumpkaboo
p1145
sVsimisear
p1146
VSimisear
p1147
sVhoopa
p1148
VHoopa
p1149
sVtropius
p1150
VTropius
p1151
sVmysticwater
p1152
VMystic Water
p1153
sVearthquake
p1154
VEarthquake
p1155
sVgastroacid
p1156
VGastro Acid
p1157
sVejectbutton
p1158
VEject Button
p1159
sVbeedrillmega
p1160
VBeedrill-Mega
p1161
sVexploud
p1162
VExploud
p1163
sVdiveball
p1164
VDive Ball
p1165
sVsawk
p1166
VSawk
p1167
sVodorsleuth
p1168
VOdor Sleuth
p1169
sVdedenne
p1170
VDedenne
p1171
sVbrickbreak
p1172
VBrick Break
p1173
sVbagon
p1174
VBagon
p1175
sVregenerator
p1176
VRegenerator
p1177
sViondeluge
p1178
VIon Deluge
p1179
sVlarvesta
p1180
VLarvesta
p1181
sVmudslap
p1182
VMud-Slap
p1183
sVflaaffy
p1184
VFlaaffy
p1185
sVmagicroom
p1186
VMagic Room
p1187
sVampharosite
p1188
VAmpharosite
p1189
sVdesolateland
p1190
VDesolate Land
p1191
sVpinsirite
p1192
VPinsirite
p1193
sVheavyslam
p1194
VHeavy Slam
p1195
sVpinmissile
p1196
VPin Missile
p1197
sVkyogreprimal
p1198
VKyogre-Primal
p1199
sVcaptivate
p1200
VCaptivate
p1201
sVflamecharge
p1202
VFlame Charge
p1203
sVswagger
p1204
VSwagger
p1205
sVxatu
p1206
VXatu
p1207
sVrockslide
p1208
VRock Slide
p1209
sVcaterpie
p1210
VCaterpie
p1211
sVhypno
p1212
VHypno
p1213
sVblazekick
p1214
VBlaze Kick
p1215
sVfletchling
p1216
VFletchling
p1217
sVseismictoss
p1218
VSeismic Toss
p1219
sVdarumaka
p1220
VDarumaka
p1221
sVuturn
p1222
VU-turn
p1223
sVflygon
p1224
VFlygon
p1225
sVsandstorm
p1226
VSandstorm
p1227
sVswampertite
p1228
VSwampertite
p1229
sVswablu
p1230
VSwablu
p1231
sVspikyshield
p1232
VSpiky Shield
p1233
sVscolipede
p1234
VScolipede
p1235
sVdwebble
p1236
VDwebble
p1237
sVpignite
p1238
VPignite
p1239
sVsolarpower
p1240
VSolar Power
p1241
sVdonphan
p1242
VDonphan
p1243
sVpalpitoad
p1244
VPalpitoad
p1245
sVchilldrive
p1246
VChill Drive
p1247
sVnormalize
p1248
VNormalize
p1249
sVbanette
p1250
VBanette
p1251
sVtailwind
p1252
VTailwind
p1253
sVdianciemega
p1254
VDiancie-Mega
p1255
sVwideguard
p1256
VWide Guard
p1257
sVwikiberry
p1258
VWiki Berry
p1259
sVsandforce
p1260
VSand Force
p1261
sVelectricterrain
p1262
VElectric Terrain
p1263
sVoctillery
p1264
VOctillery
p1265
sVselfdestruct
p1266
VSelf-Destruct
p1267
sVteleport
p1268
VTeleport
p1269
sVdive
p1270
VDive
p1271
sVmamoswine
p1272
VMamoswine
p1273
sVwiseglasses
p1274
VWise Glasses
p1275
sVmilkdrink
p1276
VMilk Drink
p1277
sVpowerwhip
p1278
VPower Whip
p1279
sVancientpower
p1280
VAncient Power
p1281
sVblissey
p1282
VBlissey
p1283
sVcryogonal
p1284
VCryogonal
p1285
sVsupersonic
p1286
VSupersonic
p1287
sVdelibird
p1288
VDelibird
p1289
sVmalamar
p1290
VMalamar
p1291
sVarceusghost
p1292
VArceus-Ghost
p1293
sVlitwick
p1294
VLitwick
p1295
sVslowbronite
p1296
VSlowbronite
p1297
sVriolu
p1298
VRiolu
p1299
sVlugia
p1300
VLugia
p1301
sVbulletseed
p1302
VBullet Seed
p1303
sVbubblebeam
p1304
VBubble Beam
p1305
sVpachirisu
p1306
VPachirisu
p1307
sVchilanberry
p1308
VChilan Berry
p1309
sVarcanine
p1310
VArcanine
p1311
sVsneasel
p1312
VSneasel
p1313
sVgrassknot
p1314
VGrass Knot
p1315
sVklutz
p1316
VKlutz
p1317
sVbulldoze
p1318
VBulldoze
p1319
sVfocusenergy
p1320
VFocus Energy
p1321
sVprimordialsea
p1322
VPrimordial Sea
p1323
sVkabuto
p1324
VKabuto
p1325
sVmail
p1326
VMail
p1327
sVfuryswipes
p1328
VFury Swipes
p1329
sS'lonely'
p1330
S'Lonely'
p1331
sVfling
p1332
VFling
p1333
sVrattled
p1334
VRattled
p1335
sS'bashful'
p1336
S'Bashful'
p1337
sVfusionflare
p1338
VFusion Flare
p1339
sVsafariball
p1340
VSafari Ball
p1341
sVeffectspore
p1342
VEffect Spore
p1343
sVboomburst
p1344
VBoomburst
p1345
sVlinoone
p1346
VLinoone
p1347
sValtariamega
p1348
VAltaria-Mega
p1349
sVsynchronize
p1350
VSynchronize
p1351
sVmantine
p1352
VMantine
p1353
sVglalie
p1354
VGlalie
p1355
sVpsyduck
p1356
VPsyduck
p1357
sVmentalherb
p1358
VMental Herb
p1359
sVswalot
p1360
VSwalot
p1361
sVgenesectburn
p1362
VGenesect-Burn
p1363
sVporygonz
p1364
VPorygon-Z
p1365
sVstrugglebug
p1366
VStruggle Bug
p1367
sVpersian
p1368
VPersian
p1369
sVshaymin
p1370
VShaymin
p1371
sVpidove
p1372
VPidove
p1373
sVskillswap
p1374
VSkill Swap
p1375
sVassurance
p1376
VAssurance
p1377
sVpoochyena
p1378
VPoochyena
p1379
sVporygon2
p1380
VPorygon2
p1381
sViciclecrash
p1382
VIcicle Crash
p1383
sVmiltank
p1384
VMiltank
p1385
sVdig
p1386
VDig
p1387
sVpetilil
p1388
VPetilil
p1389
sVtelepathy
p1390
VTelepathy
p1391
sVnidorino
p1392
VNidorino
p1393
sVmeloettapirouette
p1394
VMeloetta-Pirouette
p1395
sVnidorina
p1396
VNidorina
p1397
sVhypnosis
p1398
VHypnosis
p1399
sVdurinberry
p1400
VDurin Berry
p1401
sVdragonrage
p1402
VDragon Rage
p1403
sVjolteon
p1404
VJolteon
p1405
sVdefensecurl
p1406
VDefense Curl
p1407
sVchikorita
p1408
VChikorita
p1409
sVrockyhelmet
p1410
VRocky Helmet
p1411
sVjabocaberry
p1412
VJaboca Berry
p1413
sVhoppip
p1414
VHoppip
p1415
sViceshard
p1416
VIce Shard
p1417
sVgiratina
p1418
VGiratina
p1419
sVteravolt
p1420
VTeravolt
p1421
sVbite
p1422
VBite
p1423
sVduosion
p1424
VDuosion
p1425
sVaromatherapy
p1426
VAromatherapy
p1427
sVsleeptalk
p1428
VSleep Talk
p1429
sVconfuseray
p1430
VConfuse Ray
p1431
sVgliscor
p1432
VGliscor
p1433
sVseedot
p1434
VSeedot
p1435
sVsnatch
p1436
VSnatch
p1437
sVbunnelby
p1438
VBunnelby
p1439
sVdrapion
p1440
VDrapion
p1441
sVpeck
p1442
VPeck
p1443
sVheatrock
p1444
VHeat Rock
p1445
sVwormadamtrash
p1446
VWormadam-Trash
p1447
sVmawilite
p1448
VMawilite
p1449
sVquickattack
p1450
VQuick Attack
p1451
sVtrickortreat
p1452
VTrick-or-Treat
p1453
sVvirizion
p1454
VVirizion
p1455
sS'hiddenpowerrock'
p1456
S'Hidden Power Rock'
p1457
sVrazzberry
p1458
VRazz Berry
p1459
sVchlorophyll
p1460
VChlorophyll
p1461
sVslam
p1462
VSlam
p1463
sVsandstream
p1464
VSand Stream
p1465
sVledyba
p1466
VLedyba
p1467
sVaquatail
p1468
VAqua Tail
p1469
sVkrilowatt
p1470
VKrilowatt
p1471
sVrecover
p1472
VRecover
p1473
sVconversion
p1474
VConversion
p1475
sVtwineedle
p1476
VTwineedle
p1477
sS'hiddenpowerdark'
p1478
S'Hidden Power Dark'
p1479
sVmetalsound
p1480
VMetal Sound
p1481
sVarghonaut
p1482
VArghonaut
p1483
sVbeedrill
p1484
VBeedrill
p1485
sVsurf
p1486
VSurf
p1487
sVgriseousorb
p1488
VGriseous Orb
p1489
sVmountaineer
p1490
VMountaineer
p1491
sVstunky
p1492
VStunky
p1493
sVtrace
p1494
VTrace
p1495
sVgeargrind
p1496
VGear Grind
p1497
sVearthplate
p1498
VEarth Plate
p1499
sVdarkrai
p1500
VDarkrai
p1501
sVbarrage
p1502
VBarrage
p1503
sViceburn
p1504
VIce Burn
p1505
sVgengarmega
p1506
VGengar-Mega
p1507
sVstunfisk
p1508
VStunfisk
p1509
sVadaptability
p1510
VAdaptability
p1511
sVespurr
p1512
VEspurr
p1513
sVleaftornado
p1514
VLeaf Tornado
p1515
sVhyperfang
p1516
VHyper Fang
p1517
sVdracoplate
p1518
VDraco Plate
p1519
sVhyperspacefury
p1520
VHyperspace Fury
p1521
sVelectirizer
p1522
VElectirizer
p1523
sVmollux
p1524
VMollux
p1525
sVmuddywater
p1526
VMuddy Water
p1527
sVcompoundeyes
p1528
VCompound Eyes
p1529
sVdelphox
p1530
VDelphox
p1531
sVtintedlens
p1532
VTinted Lens
p1533
sVgolurk
p1534
VGolurk
p1535
sVfigyberry
p1536
VFigy Berry
p1537
sVgoodra
p1538
VGoodra
p1539
sVrevenankh
p1540
VRevenankh
p1541
sVvolbeat
p1542
VVolbeat
p1543
sVburndrive
p1544
VBurn Drive
p1545
sVthunderwave
p1546
VThunder Wave
p1547
sVpatrat
p1548
VPatrat
p1549
sVacupressure
p1550
VAcupressure
p1551
sVanalytic
p1552
VAnalytic
p1553
sVgrasspledge
p1554
VGrass Pledge
p1555
sVoutrage
p1556
VOutrage
p1557
sVleavanny
p1558
VLeavanny
p1559
sVkinesis
p1560
VKinesis
p1561
sVweaknesspolicy
p1562
VWeakness Policy
p1563
sVstomp
p1564
VStomp
p1565
sVboneclub
p1566
VBone Club
p1567
sVtelekinesis
p1568
VTelekinesis
p1569
sVmoxie
p1570
VMoxie
p1571
sVcelebrate
p1572
VCelebrate
p1573
sVabsolmega
p1574
VAbsol-Mega
p1575
sVparkball
p1576
VPark Ball
p1577
sVlatiasite
p1578
VLatiasite
p1579
sVspewpa
p1580
VSpewpa
p1581
sVwonderskin
p1582
VWonder Skin
p1583
sS'hiddenpowerfighting'
p1584
S'Hidden Power Fighting'
p1585
sVimposter
p1586
VImposter
p1587
sVspore
p1588
VSpore
p1589
sVquagsire
p1590
VQuagsire
p1591
sVdetect
p1592
VDetect
p1593
sVsteadfast
p1594
VSteadfast
p1595
sVlimber
p1596
VLimber
p1597
sVbatonpass
p1598
VBaton Pass
p1599
sVforecast
p1600
VForecast
p1601
sVmysticalfire
p1602
VMystical Fire
p1603
sVsnowwarning
p1604
VSnow Warning
p1605
sVjustified
p1606
VJustified
p1607
sVdamprock
p1608
VDamp Rock
p1609
sVhariyama
p1610
VHariyama
p1611
sVcrawdaunt
p1612
VCrawdaunt
p1613
sVpluck
p1614
VPluck
p1615
sVspark
p1616
VSpark
p1617
sVxerneas
p1618
VXerneas
p1619
sVspoink
p1620
VSpoink
p1621
sVscatterbug
p1622
VScatterbug
p1623
sVvictreebel
p1624
VVictreebel
p1625
sVdestinyknot
p1626
VDestiny Knot
p1627
sVluminousmoss
p1628
VLuminous Moss
p1629
sVrhyhorn
p1630
VRhyhorn
p1631
sVsteelix
p1632
VSteelix
p1633
sVnestball
p1634
VNest Ball
p1635
sVkrookodile
p1636
VKrookodile
p1637
sVcellbattery
p1638
VCell Battery
p1639
sVwingattack
p1640
VWing Attack
p1641
sVnormalgem
p1642
VNormal Gem
p1643
sS'hiddenpowersteel'
p1644
S'Hidden Power Steel'
p1645
sVtyranitarite
p1646
VTyranitarite
p1647
sVdodrio
p1648
VDodrio
p1649
sVstancechange
p1650
VStance Change
p1651
sVzapdos
p1652
VZapdos
p1653
sVendeavor
p1654
VEndeavor
p1655
sVfuryattack
p1656
VFury Attack
p1657
sVrunaway
p1658
VRun Away
p1659
sVlandswrath
p1660
VLand's Wrath
p1661
sVmawilemega
p1662
VMawile-Mega
p1663
sVlightmetal
p1664
VLight Metal
p1665
sVstunspore
p1666
VStun Spore
p1667
sVroseincense
p1668
VRose Incense
p1669
sVgigalith
p1670
VGigalith
p1671
sVspiderweb
p1672
VSpider Web
p1673
sVstantler
p1674
VStantler
p1675
sVlopunnymega
p1676
VLopunny-Mega
p1677
sVflamebody
p1678
VFlame Body
p1679
sVhelioptile
p1680
VHelioptile
p1681
sVcresselia
p1682
VCresselia
p1683
sVomanyte
p1684
VOmanyte
p1685
sVbreloom
p1686
VBreloom
p1687
sVtangela
p1688
VTangela
p1689
sVhealblock
p1690
VHeal Block
p1691
sVswanna
p1692
VSwanna
p1693
sVskiddo
p1694
VSkiddo
p1695
sS'careful'
p1696
S'Careful'
p1697
sVmudshot
p1698
VMud Shot
p1699
sVdefeatist
p1700
VDefeatist
p1701
sVshockwave
p1702
VShock Wave
p1703
sVlandorus
p1704
VLandorus
p1705
sVgroudon
p1706
VGroudon
p1707
sS'quiet'
p1708
S'Quiet'
p1709
sVenergypowder
p1710
VEnergyPowder
p1711
sVsacredfire
p1712
VSacred Fire
p1713
sVstaryu
p1714
VStaryu
p1715
sVvicegrip
p1716
VVice Grip
p1717
sVgourgeistlarge
p1718
VGourgeist-Large
p1719
sVcubchoo
p1720
VCubchoo
p1721
sS'hiddenpowerice'
p1722
S'Hidden Power Ice'
p1723
sVextremespeed
p1724
VExtreme Speed
p1725
sVangerpoint
p1726
VAnger Point
p1727
sVphantomforce
p1728
VPhantom Force
p1729
sVstrongjaw
p1730
VStrong Jaw
p1731
sVnuzzle
p1732
VNuzzle
p1733
sVthunderbolt
p1734
VThunderbolt
p1735
sVgenesectshock
p1736
VGenesect-Shock
p1737
sVmagnetbomb
p1738
VMagnet Bomb
p1739
sVassist
p1740
VAssist
p1741
sVblaziken
p1742
VBlaziken
p1743
sVbulletproof
p1744
VBulletproof
p1745
sVgligar
p1746
VGligar
p1747
sVnightmare
p1748
VNightmare
p1749
sVrockhead
p1750
VRock Head
p1751
sVhypervoice
p1752
VHyper Voice
p1753
sVminimize
p1754
VMinimize
p1755
sVdoublehit
p1756
VDouble Hit
p1757
sVmedicham
p1758
VMedicham
p1759
sVpoliwhirl
p1760
VPoliwhirl
p1761
sVrockgem
p1762
VRock Gem
p1763
sVmetalburst
p1764
VMetal Burst
p1765
sVfurcoat
p1766
VFur Coat
p1767
sVhealingwish
p1768
VHealing Wish
p1769
sVquickguard
p1770
VQuick Guard
p1771
sVwingull
p1772
VWingull
p1773
sVrest
p1774
VRest
p1775
sVfurfrou
p1776
VFurfrou
p1777
sVdarkaura
p1778
VDark Aura
p1779
sVrazorclaw
p1780
VRazor Claw
p1781
sVdragonbreath
p1782
VDragon Breath
p1783
sVelgyem
p1784
VElgyem
p1785
sVduskull
p1786
VDuskull
p1787
sVcometpunch
p1788
VComet Punch
p1789
sVaerialace
p1790
VAerial Ace
p1791
sVparas
p1792
VParas
p1793
sVrayquazamega
p1794
VRayquaza-Mega
p1795
sVflareblitz
p1796
VFlare Blitz
p1797
sVtrubbish
p1798
VTrubbish
p1799
sVsnarl
p1800
VSnarl
p1801
sVmachpunch
p1802
VMach Punch
p1803
sVvolkraken
p1804
VVolkraken
p1805
sVsunkern
p1806
VSunkern
p1807
sVcolossoil
p1808
VColossoil
p1809
sVdreamball
p1810
VDream Ball
p1811
sVsnore
p1812
VSnore
p1813
sVfloatstone
p1814
VFloat Stone
p1815
sVskiploom
p1816
VSkiploom
p1817
sVregigigas
p1818
VRegigigas
p1819
sVvoltswitch
p1820
VVolt Switch
p1821
sVarceusrock
p1822
VArceus-Rock
p1823
sVbrightpowder
p1824
VBrightPowder
p1825
sVhypercutter
p1826
VHyper Cutter
p1827
sVvanillite
p1828
VVanillite
p1829
sVchoiceband
p1830
VChoice Band
p1831
sVheartswap
p1832
VHeart Swap
p1833
sVpinapberry
p1834
VPinap Berry
p1835
sVminccino
p1836
VMinccino
p1837
sVrefresh
p1838
VRefresh
p1839
sVprinplup
p1840
VPrinplup
p1841
sVaudinomega
p1842
VAudino-Mega
p1843
sVultraball
p1844
VUltra Ball
p1845
sVheadcharge
p1846
VHead Charge
p1847
sVcrustle
p1848
VCrustle
p1849
sVpowergem
p1850
VPower Gem
p1851
sVechoedvoice
p1852
VEchoed Voice
p1853
sVbattlearmor
p1854
VBattle Armor
p1855
sVvolcanion
p1856
VVolcanion
p1857
sVcastformsnowy
p1858
VCastform-Snowy
p1859
sVhustle
p1860
VHustle
p1861
sVthroh
p1862
VThroh
p1863
sVmusharna
p1864
VMusharna
p1865
sVinnerfocus
p1866
VInner Focus
p1867
sVbasculinbluestriped
p1868
VBasculin-Blue-Striped
p1869
sVpumpkaboolarge
p1870
VPumpkaboo-Large
p1871
sVzapcannon
p1872
VZap Cannon
p1873
sVroar
p1874
VRoar
p1875
sVlockon
p1876
VLock-On
p1877
sVfloette
p1878
VFloette
p1879
sVgengar
p1880
VGengar
p1881
sVroserade
p1882
VRoserade
p1883
sVgolem
p1884
VGolem
p1885
sVquilava
p1886
VQuilava
p1887
sVcustapberry
p1888
VCustap Berry
p1889
sVsearingshot
p1890
VSearing Shot
p1891
sVstratagem
p1892
VStratagem
p1893
sVpyroar
p1894
VPyroar
p1895
sVshadowpunch
p1896
VShadow Punch
p1897
sVfocuspunch
p1898
VFocus Punch
p1899
sVtoughclaws
p1900
VTough Claws
p1901
sVforewarn
p1902
VForewarn
p1903
sViciclespear
p1904
VIcicle Spear
p1905
sVpyroak
p1906
VPyroak
p1907
sVsacredsword
p1908
VSacred Sword
p1909
sVhex
p1910
VHex
p1911
sVmarill
p1912
VMarill
p1913
sVsymbiosis
p1914
VSymbiosis
p1915
sVhoopaunbound
p1916
VHoopa-Unbound
p1917
sVwillowisp
p1918
VWill-O-Wisp
p1919
sVbubble
p1920
VBubble
p1921
sVfastball
p1922
VFast Ball
p1923
sVglaciate
p1924
VGlaciate
p1925
sVnightshade
p1926
VNight Shade
p1927
sVfrogadier
p1928
VFrogadier
p1929
sVporygon
p1930
VPorygon
p1931
sVgripclaw
p1932
VGrip Claw
p1933
sVvitalspirit
p1934
VVital Spirit
p1935
sVsolosis
p1936
VSolosis
p1937
sVrage
p1938
VRage
p1939
sVvictorystar
p1940
VVictory Star
p1941
sVvinewhip
p1942
VVine Whip
p1943
sVstoneplate
p1944
VStone Plate
p1945
sVember
p1946
VEmber
p1947
sVsplashplate
p1948
VSplash Plate
p1949
sVpowdersnow
p1950
VPowder Snow
p1951
sVclamperl
p1952
VClamperl
p1953
sVchesnaught
p1954
VChesnaught
p1955
sVgrepaberry
p1956
VGrepa Berry
p1957
sVsmokescreen
p1958
VSmokescreen
p1959
sVmoonblast
p1960
VMoonblast
p1961
sVcolburberry
p1962
VColbur Berry
p1963
sVaegislash
p1964
VAegislash
p1965
sVimmunity
p1966
VImmunity
p1967
sVstormthrow
p1968
VStorm Throw
p1969
sVcharizard
p1970
VCharizard
p1971
sVnincada
p1972
VNincada
p1973
sVgraveler
p1974
VGraveler
p1975
sVmirrorcoat
p1976
VMirror Coat
p1977
sVemboar
p1978
VEmboar
p1979
sVdustox
p1980
VDustox
p1981
sVrootfossil
p1982
VRoot Fossil
p1983
sVtackle
p1984
VTackle
p1985
sVrotomwash
p1986
VRotom-Wash
p1987
sVgrudge
p1988
VGrudge
p1989
sVcyndaquil
p1990
VCyndaquil
p1991
sVblueflare
p1992
VBlue Flare
p1993
sVdefog
p1994
VDefog
p1995
sVskyattack
p1996
VSky Attack
p1997
sVmoonlight
p1998
VMoonlight
p1999
sVmimic
p2000
VMimic
p2001
sVstockpile
p2002
VStockpile
p2003
sVoddincense
p2004
VOdd Incense
p2005
sVgardevoirmega
p2006
VGardevoir-Mega
p2007
sVlairon
p2008
VLairon
p2009
sVeerieimpulse
p2010
VEerie Impulse
p2011
sVscrappy
p2012
VScrappy
p2013
sVtogetic
p2014
VTogetic
p2015
sVfirepunch
p2016
VFire Punch
p2017
sVunfezant
p2018
VUnfezant
p2019
sVmicleberry
p2020
VMicle Berry
p2021
sVlightningrod
p2022
VLightning Rod
p2023
sVgigadrain
p2024
VGiga Drain
p2025
sVtornadustherian
p2026
VTornadus-Therian
p2027
sVvanillish
p2028
VVanillish
p2029
sVsheerforce
p2030
VSheer Force
p2031
sVbayleef
p2032
VBayleef
p2033
sVhondewberry
p2034
VHondew Berry
p2035
sVtympole
p2036
VTympole
p2037
sVwigglytuff
p2038
VWigglytuff
p2039
sVtyranitarmega
p2040
VTyranitar-Mega
p2041
sVicepunch
p2042
VIce Punch
p2043
sVgalvantula
p2044
VGalvantula
p2045
sVcombusken
p2046
VCombusken
p2047
sVcloudnine
p2048
VCloud Nine
p2049
sVmienshao
p2050
VMienshao
p2051
sVkeeberry
p2052
VKee Berry
p2053
sVsteameruption
p2054
VSteam Eruption
p2055
sVscrafty
p2056
VScrafty
p2057
sVsecretpower
p2058
VSecret Power
p2059
sS'mild'
p2060
S'Mild'
p2061
sVsawsbuck
p2062
VSawsbuck
p2063
sVdoublekick
p2064
VDouble Kick
p2065
sViceball
p2066
VIce Ball
p2067
sVflorges
p2068
VFlorges
p2069
sVgourgeistsuper
p2070
VGourgeist-Super
p2071
sVironbarbs
p2072
VIron Barbs
p2073
sValtaria
p2074
VAltaria
p2075
sVcrushgrip
p2076
VCrush Grip
p2077
sVcottonguard
p2078
VCotton Guard
p2079
sVmeganium
p2080
VMeganium
p2081
sVchipaway
p2082
VChip Away
p2083
sVhealer
p2084
VHealer
p2085
sVfeatherdance
p2086
VFeather Dance
p2087
sVtrick
p2088
VTrick
p2089
sVironplate
p2090
VIron Plate
p2091
sVgreatball
p2092
VGreat Ball
p2093
sVfellstinger
p2094
VFell Stinger
p2095
sVaurorabeam
p2096
VAurora Beam
p2097
sVheartstamp
p2098
VHeart Stamp
p2099
sVboldore
p2100
VBoldore
p2101
sVchoicescarf
p2102
VChoice Scarf
p2103
sVdragonfang
p2104
VDragon Fang
p2105
sVgastly
p2106
VGastly
p2107
sVrhydon
p2108
VRhydon
p2109
sVanticipation
p2110
VAnticipation
p2111
sVinfernape
p2112
VInfernape
p2113
sVweezing
p2114
VWeezing
p2115
sVaromatisse
p2116
VAromatisse
p2117
sVkyuremwhite
p2118
VKyurem-White
p2119
sVacidspray
p2120
VAcid Spray
p2121
sVarmaldo
p2122
VArmaldo
p2123
sVkyurem
p2124
VKyurem
p2125
sVwringout
p2126
VWring Out
p2127
sVstarly
p2128
VStarly
p2129
sVhawlucha
p2130
VHawlucha
p2131
sVgolett
p2132
VGolett
p2133
sVgyaradosmega
p2134
VGyarados-Mega
p2135
sVgallade
p2136
VGallade
p2137
sVledian
p2138
VLedian
p2139
sVfeint
p2140
VFeint
p2141
sVluvdisc
p2142
VLuvdisc
p2143
sVhelixfossil
p2144
VHelix Fossil
p2145
sVsplash
p2146
VSplash
p2147
sVillumise
p2148
VIllumise
p2149
sVhonedge
p2150
VHonedge
p2151
sVanorith
p2152
VAnorith
p2153
sVdizzypunch
p2154
VDizzy Punch
p2155
sVflyingpress
p2156
VFlying Press
p2157
sVpumpkaboosuper
p2158
VPumpkaboo-Super
p2159
sVhorsea
p2160
VHorsea
p2161
sVstick
p2162
VStick
p2163
sVrazorfang
p2164
VRazor Fang
p2165
sVwatergem
p2166
VWater Gem
p2167
sVturboblaze
p2168
VTurboblaze
p2169
sVaegislashblade
p2170
VAegislash-Blade
p2171
sVnaturalgift
p2172
VNatural Gift
p2173
sVshadowclaw
p2174
VShadow Claw
p2175
sVchartiberry
p2176
VCharti Berry
p2177
sVlumberry
p2178
VLum Berry
p2179
sVvoltorb
p2180
VVoltorb
p2181
sVskyplate
p2182
VSky Plate
p2183
sVsableye
p2184
VSableye
p2185
sVseviper
p2186
VSeviper
p2187
sVmarvelscale
p2188
VMarvel Scale
p2189
sVaurumoth
p2190
VAurumoth
p2191
sVslakoth
p2192
VSlakoth
p2193
sVmonferno
p2194
VMonferno
p2195
sVnightslash
p2196
VNight Slash
p2197
sVeelektrik
p2198
VEelektrik
p2199
sVextrasensory
p2200
VExtrasensory
p2201
sVfilter
p2202
VFilter
p2203
sVshelmet
p2204
VShelmet
p2205
sVglalitite
p2206
VGlalitite
p2207
sVflyinggem
p2208
VFlying Gem
p2209
sVbulkup
p2210
VBulk Up
p2211
sVglaceon
p2212
VGlaceon
p2213
sVwonderguard
p2214
VWonder Guard
p2215
sVelectricgem
p2216
VElectric Gem
p2217
sVrotomfan
p2218
VRotom-Fan
p2219
sVsignalbeam
p2220
VSignal Beam
p2221
sVshuckle
p2222
VShuckle
p2223
sVreflect
p2224
VReflect
p2225
sVdisable
p2226
VDisable
p2227
sVliquidooze
p2228
VLiquid Ooze
p2229
sVfairygem
p2230
VFairy Gem
p2231
sVmedichammega
p2232
VMedicham-Mega
p2233
sVtoxicplate
p2234
VToxic Plate
p2235
sVlanturn
p2236
VLanturn
p2237
sVparaboliccharge
p2238
VParabolic Charge
p2239
sVretaliate
p2240
VRetaliate
p2241
sVcorphish
p2242
VCorphish
p2243
sVbigpecks
p2244
VBig Pecks
p2245
sVmudbomb
p2246
VMud Bomb
p2247
sVarticuno
p2248
VArticuno
p2249
sVfissure
p2250
VFissure
p2251
sVvolcarona
p2252
VVolcarona
p2253
sVblackglasses
p2254
VBlack Glasses
p2255
sVplayrough
p2256
VPlay Rough
p2257
sVhealorder
p2258
VHeal Order
p2259
sVjigglypuff
p2260
VJigglypuff
p2261
sVsandslash
p2262
VSandslash
p2263
sVastonish
p2264
VAstonish
p2265
sVenergyball
p2266
VEnergy Ball
p2267
sVaggron
p2268
VAggron
p2269
sVlampent
p2270
VLampent
p2271
sVfistplate
p2272
VFist Plate
p2273
sVreturn
p2274
VReturn
p2275
sVmanectricmega
p2276
VManectric-Mega
p2277
sVsnowball
p2278
VSnowball
p2279
sVmrmime
p2280
VMr. Mime
p2281
sVcharizardmegax
p2282
VCharizard-Mega-X
p2283
sVcharizardmegay
p2284
VCharizard-Mega-Y
p2285
sVclefable
p2286
VClefable
p2287
sVskuntank
p2288
VSkuntank
p2289
sVprimeape
p2290
VPrimeape
p2291
sVgabite
p2292
VGabite
p2293
sVmissingno
p2294
VMissingno.
p2295
sVbellsprout
p2296
VBellsprout
p2297
sVlovelykiss
p2298
VLovely Kiss
p2299
sVmeanlook
p2300
VMean Look
p2301
sVclamp
p2302
VClamp
p2303
sVtopsyturvy
p2304
VTopsy-Turvy
p2305
sVquickfeet
p2306
VQuick Feet
p2307
sVirondefense
p2308
VIron Defense
p2309
sVraichu
p2310
VRaichu
p2311
sVmagnezone
p2312
VMagnezone
p2313
sVtrickroom
p2314
VTrick Room
p2315
sVstoredpower
p2316
VStored Power
p2317
sS'hiddenpowerpsychic'
p2318
S'Hidden Power Psychic'
p2319
sVelectroweb
p2320
VElectroweb
p2321
sS'jolly'
p2322
S'Jolly'
p2323
sVsalamence
p2324
VSalamence
p2325
sVabsorb
p2326
VAbsorb
p2327
sVarceusice
p2328
VArceus-Ice
p2329
sVwhirlpool
p2330
VWhirlpool
p2331
sVsuperfang
p2332
VSuper Fang
p2333
sVcombee
p2334
VCombee
p2335
sVroggenrola
p2336
VRoggenrola
p2337
sVironhead
p2338
VIron Head
p2339
sVsentret
p2340
VSentret
p2341
sVpichuspikyeared
p2342
VPichu-Spiky-eared
p2343
sVtyrogue
p2344
VTyrogue
p2345
sVcleffa
p2346
VCleffa
p2347
sVwaterabsorb
p2348
VWater Absorb
p2349
sVtoxicboost
p2350
VToxic Boost
p2351
sVninetales
p2352
VNinetales
p2353
sVnidoranf
p2354
VNidoran-F
p2355
sVcottonspore
p2356
VCotton Spore
p2357
sVnidoranm
p2358
VNidoran-M
p2359
sVpineco
p2360
VPineco
p2361
sVscopelens
p2362
VScope Lens
p2363
sVhydreigon
p2364
VHydreigon
p2365
sVrockpolish
p2366
VRock Polish
p2367
sVgiratinaorigin
p2368
VGiratina-Origin
p2369
sVabomasnowmega
p2370
VAbomasnow-Mega
p2371
sVmanaphy
p2372
VManaphy
p2373
sS'brave'
p2374
S'Brave'
p2375
sVmist
p2376
VMist
p2377
sVkangaskhanmega
p2378
VKangaskhan-Mega
p2379
sVpetaldance
p2380
VPetal Dance
p2381
sVmeowstic
p2382
VMeowstic
p2383
sVboltstrike
p2384
VBolt Strike
p2385
sVswarm
p2386
VSwarm
p2387
sVairlock
p2388
VAir Lock
p2389
sVklinklang
p2390
VKlinklang
p2391
sVlandorustherian
p2392
VLandorus-Therian
p2393
sVpoisongem
p2394
VPoison Gem
p2395
sVpsybeam
p2396
VPsybeam
p2397
sVsuckerpunch
p2398
VSucker Punch
p2399
sVdragonascent
p2400
VDragon Ascent
p2401
sVfreezeshock
p2402
VFreeze Shock
p2403
sVpsywave
p2404
VPsywave
p2405
sVdrillrun
p2406
VDrill Run
p2407
sVwhiteherb
p2408
VWhite Herb
p2409
sVringtarget
p2410
VRing Target
p2411
sVvenipede
p2412
VVenipede
p2413
sVdarkpulse
p2414
VDark Pulse
p2415
sVyamask
p2416
VYamask
p2417
sVstall
p2418
VStall
p2419
sVsharpedonite
p2420
VSharpedonite
p2421
sVdazzlinggleam
p2422
VDazzling Gleam
p2423
sVdoubleedge
p2424
VDouble-Edge
p2425
sVremoraid
p2426
VRemoraid
p2427
sVclefairy
p2428
VClefairy
p2429
sVklink
p2430
VKlink
p2431
sVfirespin
p2432
VFire Spin
p2433
sVgenesectchill
p2434
VGenesect-Chill
p2435
sVdeepseatooth
p2436
VDeepSeaTooth
p2437
sVsuicune
p2438
VSuicune
p2439
sVpamtreberry
p2440
VPamtre Berry
p2441
sVmegahorn
p2442
VMegahorn
p2443
sVslowbromega
p2444
VSlowbro-Mega
p2445
sVsunflora
p2446
VSunflora
p2447
sVgourgeist
p2448
VGourgeist
p2449
sVbarbaracle
p2450
VBarbaracle
p2451
sVairballoon
p2452
VAir Balloon
p2453
sVswirlix
p2454
VSwirlix
p2455
sVlitleo
p2456
VLitleo
p2457
sVcamouflage
p2458
VCamouflage
p2459
sVfrillish
p2460
VFrillish
p2461
sVroselia
p2462
VRoselia
p2463
sVkangaskhan
p2464
VKangaskhan
p2465
sVregirock
p2466
VRegirock
p2467
sVpansage
p2468
VPansage
p2469
sVswitcheroo
p2470
VSwitcheroo
p2471
sValakazammega
p2472
VAlakazam-Mega
p2473
sVsoundproof
p2474
VSoundproof
p2475
sVeruption
p2476
VEruption
p2477
sVyawn
p2478
VYawn
p2479
sVcharm
p2480
VCharm
p2481
sVdiglett
p2482
VDiglett
p2483
sVbeldum
p2484
VBeldum
p2485
sVhabanberry
p2486
VHaban Berry
p2487
sVcrosspoison
p2488
VCross Poison
p2489
sVcarvanha
p2490
VCarvanha
p2491
sVrefrigerate
p2492
VRefrigerate
p2493
sVlowsweep
p2494
VLow Sweep
p2495
sVsturdy
p2496
VSturdy
p2497
sVcovet
p2498
VCovet
p2499
sVgenesectdouse
p2500
VGenesect-Douse
p2501
sVkaratechop
p2502
VKarate Chop
p2503
sVhoundoominite
p2504
VHoundoominite
p2505
sVazumarill
p2506
VAzumarill
p2507
sVrazorwind
p2508
VRazor Wind
p2509
sVherdier
p2510
VHerdier
p2511
sVmeloetta
p2512
VMeloetta
p2513
sVnanabberry
p2514
VNanab Berry
p2515
sVzoomlens
p2516
VZoom Lens
p2517
sVblackbelt
p2518
VBlack Belt
p2519
sVhammerarm
p2520
VHammer Arm
p2521
sVmagmaarmor
p2522
VMagma Armor
p2523
sVtriattack
p2524
VTri Attack
p2525
sVgooey
p2526
VGooey
p2527
sVoblivionwing
p2528
VOblivion Wing
p2529
sVtyrantrum
p2530
VTyrantrum
p2531
sVhealpulse
p2532
VHeal Pulse
p2533
sVmagikarp
p2534
VMagikarp
p2535
sVpawniard
p2536
VPawniard
p2537
sVpoisontail
p2538
VPoison Tail
p2539
sVhitmonchan
p2540
VHitmonchan
p2541
sS'docile'
p2542
S'Docile'
p2543
sVfireblast
p2544
VFire Blast
p2545
sVshroomish
p2546
VShroomish
p2547
sVwhismur
p2548
VWhismur
p2549
sVspikes
p2550
VSpikes
p2551
sVshadowstrike
p2552
VShadow Strike
p2553
sVheatcrash
p2554
VHeat Crash
p2555
sVskorupi
p2556
VSkorupi
p2557
sVgengarite
p2558
VGengarite
p2559
sVblitzle
p2560
VBlitzle
p2561
sVtamatoberry
p2562
VTamato Berry
p2563
sVblazikenite
p2564
VBlazikenite
p2565
sVfarfetchd
p2566
VFarfetch'd
p2567
sVinkay
p2568
VInkay
p2569
sVpickup
p2570
VPickup
p2571
sVcontrary
p2572
VContrary
p2573
sVkarrablast
p2574
VKarrablast
p2575
sVmarowak
p2576
VMarowak
p2577
sVmachobrace
p2578
VMacho Brace
p2579
sVelekid
p2580
VElekid
p2581
sVmagmortar
p2582
VMagmortar
p2583
sVchansey
p2584
VChansey
p2585
sVroaroftime
p2586
VRoar of Time
p2587
sVwildcharge
p2588
VWild Charge
p2589
sVrattata
p2590
VRattata
p2591
sVhoundoommega
p2592
VHoundoom-Mega
p2593
sVclaydol
p2594
VClaydol
p2595
sVrelicanth
p2596
VRelicanth
p2597
sVtorchic
p2598
VTorchic
p2599
sVlapras
p2600
VLapras
p2601
sVmankey
p2602
VMankey
p2603
sVsweetscent
p2604
VSweet Scent
p2605
sVshayminsky
p2606
VShaymin-Sky
p2607
sVwacanberry
p2608
VWacan Berry
p2609
sVsandile
p2610
VSandile
p2611
sVtyphlosion
p2612
VTyphlosion
p2613
sVsimple
p2614
VSimple
p2615
sVdrillpeck
p2616
VDrill Peck
p2617
sVicebody
p2618
VIce Body
p2619
sVnatu
p2620
VNatu
p2621
sVxscissor
p2622
VX-Scissor
p2623
sVsing
p2624
VSing
p2625
sVquiverdance
p2626
VQuiver Dance
p2627
sVblastoisinite
p2628
VBlastoisinite
p2629
sVmegapunch
p2630
VMega Punch
p2631
sVdamp
p2632
VDamp
p2633
sVskitty
p2634
VSkitty
p2635
sVmienfoo
p2636
VMienfoo
p2637
sVliepard
p2638
VLiepard
p2639
sVamnesia
p2640
VAmnesia
p2641
sVdestinybond
p2642
VDestiny Bond
p2643
sVpowersplit
p2644
VPower Split
p2645
sVdruddigon
p2646
VDruddigon
p2647
sVtaillow
p2648
VTaillow
p2649
sVdragontail
p2650
VDragon Tail
p2651
sVbeedrillite
p2652
VBeedrillite
p2653
sVstringshot
p2654
VString Shot
p2655
sValomomola
p2656
VAlomomola
p2657
sVwatergun
p2658
VWater Gun
p2659
sVvcreate
p2660
VV-create
p2661
sVnomelberry
p2662
VNomel Berry
p2663
sVdrainingkiss
p2664
VDraining Kiss
p2665
sVbasculin
p2666
VBasculin
p2667
sVescavalier
p2668
VEscavalier
p2669
sVpsychoshift
p2670
VPsycho Shift
p2671
sVbisharp
p2672
VBisharp
p2673
sVhoundoom
p2674
VHoundoom
p2675
sVgulpin
p2676
VGulpin
p2677
sVpancham
p2678
VPancham
p2679
sVmantyke
p2680
VMantyke
p2681
sVpound
p2682
VPound
p2683
sVmedichamite
p2684
VMedichamite
p2685
sVrotommow
p2686
VRotom-Mow
p2687
sVdefendorder
p2688
VDefend Order
p2689
sVsurskit
p2690
VSurskit
p2691
sVmegalauncher
p2692
VMega Launcher
p2693
sVicebeam
p2694
VIce Beam
p2695
sVfacade
p2696
VFacade
p2697
sVzubat
p2698
VZubat
p2699
sVmagikarpsrevenge
p2700
VMagikarp's Revenge
p2701
sVingrain
p2702
VIngrain
p2703
sVcottonee
p2704
VCottonee
p2705
sVpikachuphd
p2706
VPikachu-PhD
p2707
sVpoisonjab
p2708
VPoison Jab
p2709
sVcameruptmega
p2710
VCamerupt-Mega
p2711
sVleechseed
p2712
VLeech Seed
p2713
sVgorebyss
p2714
VGorebyss
p2715
sVgrotle
p2716
VGrotle
p2717
sVpikachu
p2718
VPikachu
p2719
sVrayquaza
p2720
VRayquaza
p2721
sVfroakie
p2722
VFroakie
p2723
sVloveball
p2724
VLove Ball
p2725
sVjumpluff
p2726
VJumpluff
p2727
sS'timid'
p2728
S'Timid'
p2729
sVmismagius
p2730
VMismagius
p2731
sS'hiddenpowerbug'
p2732
S'Hidden Power Bug'
p2733
sVinfiltrator
p2734
VInfiltrator
p2735
sVpsychup
p2736
VPsych Up
p2737
sVregice
p2738
VRegice
p2739
sVfiregem
p2740
VFire Gem
p2741
sVshellder
p2742
VShellder
p2743
sVwithdraw
p2744
VWithdraw
p2745
sVmoonball
p2746
VMoon Ball
p2747
sVpainsplit
p2748
VPain Split
p2749
sVstoneedge
p2750
VStone Edge
p2751
sVhowl
p2752
VHowl
p2753
sVwaterpledge
p2754
VWater Pledge
p2755
sVspearow
p2756
VSpearow
p2757
sVwhirlipede
p2758
VWhirlipede
p2759
sVrockwrecker
p2760
VRock Wrecker
p2761
sVoriginpulse
p2762
VOrigin Pulse
p2763
sVcompetitive
p2764
VCompetitive
p2765
sVsteelgem
p2766
VSteel Gem
p2767
sVzygarde
p2768
VZygarde
p2769
sVsolrock
p2770
VSolrock
p2771
sVthousandarrows
p2772
VThousand Arrows
p2773
sVspinda
p2774
VSpinda
p2775
sVcloyster
p2776
VCloyster
p2777
sVmetapod
p2778
VMetapod
p2779
sVairslash
p2780
VAir Slash
p2781
sVchatot
p2782
VChatot
p2783
sVacrobatics
p2784
VAcrobatics
p2785
sVspheal
p2786
VSpheal
p2787
sVchoicespecs
p2788
VChoice Specs
p2789
sVrebound
p2790
VRebound
p2791
sVsolarbeam
p2792
VSolar Beam
p2793
sVlusterpurge
p2794
VLuster Purge
p2795
sVtorterra
p2796
VTorterra
p2797
sVmoody
p2798
VMoody
p2799
sVglaliemega
p2800
VGlalie-Mega
p2801
sVgothitelle
p2802
VGothitelle
p2803
sVskilllink
p2804
VSkill Link
p2805
sVponyta
p2806
VPonyta
p2807
sVthundurustherian
p2808
VThundurus-Therian
p2809
sVsubmission
p2810
VSubmission
p2811
sVstaravia
p2812
VStaravia
p2813
sVtailglow
p2814
VTail Glow
p2815
sVnoibat
p2816
VNoibat
p2817
sVuproar
p2818
VUproar
p2819
sVtechnoblast
p2820
VTechno Blast
p2821
sVlilligant
p2822
VLilligant
p2823
sVflamewheel
p2824
VFlame Wheel
p2825
sVsketch
p2826
VSketch
p2827
sVchimchar
p2828
VChimchar
p2829
sVbounce
p2830
VBounce
p2831
sVsunnyday
p2832
VSunny Day
p2833
sVsouldew
p2834
VSoul Dew
p2835
sVgigaimpact
p2836
VGiga Impact
p2837
sVsewaddle
p2838
VSewaddle
p2839
sVscald
p2840
VScald
p2841
sVominouswind
p2842
VOminous Wind
p2843
sVdeepseascale
p2844
VDeepSeaScale
p2845
sVmareep
p2846
VMareep
p2847
sVhuntail
p2848
VHuntail
p2849
sVswordsdance
p2850
VSwords Dance
p2851
sVearlybird
p2852
VEarly Bird
p2853
sVslash
p2854
VSlash
p2855
sS'hiddenpowergrass'
p2856
S'Hidden Power Grass'
p2857
sVpidgeotite
p2858
VPidgeotite
p2859
sVmimejr
p2860
VMime Jr.
p2861
sVimprison
p2862
VImprison
p2863
sVseismitoad
p2864
VSeismitoad
p2865
sVscraggy
p2866
VScraggy
p2867
sVmewtwomegax
p2868
VMewtwo-Mega-X
p2869
sVmewtwomegay
p2870
VMewtwo-Mega-Y
p2871
sVfocussash
p2872
VFocus Sash
p2873
sVjellicent
p2874
VJellicent
p2875
sVspelonberry
p2876
VSpelon Berry
p2877
sVnobleroar
p2878
VNoble Roar
p2879
sVkangaskhanite
p2880
VKangaskhanite
p2881
sVelectrike
p2882
VElectrike
p2883
sViapapaberry
p2884
VIapapa Berry
p2885
sVmudkip
p2886
VMudkip
p2887
sVbouffalant
p2888
VBouffalant
p2889
sVshinx
p2890
VShinx
p2891
sVblock
p2892
VBlock
p2893
sVsharpedo
p2894
VSharpedo
p2895
sVarmthrust
p2896
VArm Thrust
p2897
sVchargebeam
p2898
VCharge Beam
p2899
sVshellos
p2900
VShellos
p2901
sVnidoking
p2902
VNidoking
p2903
sVsablenite
p2904
VSablenite
p2905
sVbarboach
p2906
VBarboach
p2907
sVstench
p2908
VStench
p2909
sVtoxicroak
p2910
VToxicroak
p2911
sVunown
p2912
VUnown
p2913
sVferrothorn
p2914
VFerrothorn
p2915
sVswampertmega
p2916
VSwampert-Mega
p2917
sVearthpower
p2918
VEarth Power
p2919
sVsnorunt
p2920
VSnorunt
p2921
sS'relaxed'
p2922
S'Relaxed'
p2923
sVdragongem
p2924
VDragon Gem
p2925
sVpsychocut
p2926
VPsycho Cut
p2927
sVtranquill
p2928
VTranquill
p2929
sVragepowder
p2930
VRage Powder
p2931
sVbuizel
p2932
VBuizel
p2933
sVsharpen
p2934
VSharpen
p2935
sVprobopass
p2936
VProbopass
p2937
sVshuppet
p2938
VShuppet
p2939
sVsteelixite
p2940
VSteelixite
p2941
sVspacialrend
p2942
VSpacial Rend
p2943
sVforesight
p2944
VForesight
p2945
sVwepearberry
p2946
VWepear Berry
p2947
sVheavyball
p2948
VHeavy Ball
p2949
sVhappyhour
p2950
VHappy Hour
p2951
sVmurkrow
p2952
VMurkrow
p2953
sVpechaberry
p2954
VPecha Berry
p2955
sVarceusfairy
p2956
VArceus-Fairy
p2957
sVmiracleseed
p2958
VMiracle Seed
p2959
sVtakedown
p2960
VTake Down
p2961
sVpangoro
p2962
VPangoro
p2963
sVstickybarb
p2964
VSticky Barb
p2965
sVganlonberry
p2966
VGanlon Berry
p2967
sVbulbasaur
p2968
VBulbasaur
p2969
sVpichu
p2970
VPichu
p2971
sVheatwave
p2972
VHeat Wave
p2973
sVaudino
p2974
VAudino
p2975
sVdrifloon
p2976
VDrifloon
p2977
sVsnowcloak
p2978
VSnow Cloak
p2979
sVrazorshell
p2980
VRazor Shell
p2981
sVmetagross
p2982
VMetagross
p2983
sVmeowsticf
p2984
VMeowstic-F
p2985
sVlickilicky
p2986
VLickilicky
p2987
sVzigzagoon
p2988
VZigzagoon
p2989
sVprecipiceblades
p2990
VPrecipice Blades
p2991
sVcinccino
p2992
VCinccino
p2993
sVavalugg
p2994
VAvalugg
p2995
sVscratch
p2996
VScratch
p2997
sVcharmeleon
p2998
VCharmeleon
p2999
sVsandtomb
p3000
VSand Tomb
p3001
sVcharmander
p3002
VCharmander
p3003
sVspeedboost
p3004
VSpeed Boost
p3005
sVwakeupslap
p3006
VWake-Up Slap
p3007
sVcursedbody
p3008
VCursed Body
p3009
sVharvest
p3010
VHarvest
p3011
sVperishsong
p3012
VPerish Song
p3013
sVpoweruppunch
p3014
VPower-Up Punch
p3015
sVcutecharm
p3016
VCute Charm
p3017
sVblaze
p3018
VBlaze
p3019
sVsniper
p3020
VSniper
p3021
sVtriplekick
p3022
VTriple Kick
p3023
sVfly
p3024
VFly
p3025
sVguardsplit
p3026
VGuard Split
p3027
sVwobbuffet
p3028
VWobbuffet
p3029
sVroleplay
p3030
VRole Play
p3031
sVteddiursa
p3032
VTeddiursa
p3033
sVthundershock
p3034
VThunder Shock
p3035
sVazurill
p3036
VAzurill
p3037
sVbastiodon
p3038
VBastiodon
p3039
sVlureball
p3040
VLure Ball
p3041
sVqwilfish
p3042
VQwilfish
p3043
sVhyperbeam
p3044
VHyper Beam
p3045
sVdynamicpunch
p3046
VDynamic Punch
p3047
sVmagnemite
p3048
VMagnemite
p3049
sVtyrunt
p3050
VTyrunt
p3051
sVwatershuriken
p3052
VWater Shuriken
p3053
sVmisdreavus
p3054
VMisdreavus
p3055
sVfidgit
p3056
VFidgit
p3057
sVdousedrive
p3058
VDouse Drive
p3059
sVcrushclaw
p3060
VCrush Claw
p3061
sVsoftboiled
p3062
VSoft-Boiled
p3063
sVshedinja
p3064
VShedinja
p3065
sVdownload
p3066
VDownload
p3067
sVacid
p3068
VAcid
p3069
sVvigoroth
p3070
VVigoroth
p3071
sVlombre
p3072
VLombre
p3073
sVdelcatty
p3074
VDelcatty
p3075
sVworryseed
p3076
VWorry Seed
p3077
sVpayday
p3078
VPay Day
p3079
sVtyranitar
p3080
VTyranitar
p3081
sVturtwig
p3082
VTurtwig
p3083
sVmagmastorm
p3084
VMagma Storm
p3085
sVpansear
p3086
VPansear
p3087
sVdeerling
p3088
VDeerling
p3089
sVswinub
p3090
VSwinub
p3091
sVabomasnow
p3092
VAbomasnow
p3093
sVbellossom
p3094
VBellossom
p3095
sVpikachucosplay
p3096
VPikachu-Cosplay
p3097
sVcastform
p3098
VCastform
p3099
sVincinerate
p3100
VIncinerate
p3101
sVmarangaberry
p3102
VMaranga Berry
p3103
sVrampardos
p3104
VRampardos
p3105
sVscreech
p3106
VScreech
p3107
sVtentacruel
p3108
VTentacruel
p3109
sVnaturalcure
p3110
VNatural Cure
p3111
sVforestscurse
p3112
VForest's Curse
p3113
sVblizzard
p3114
VBlizzard
p3115
sVteeterdance
p3116
VTeeter Dance
p3117
sVfoongus
p3118
VFoongus
p3119
sVaquaring
p3120
VAqua Ring
p3121
sS'hardy'
p3122
S'Hardy'
p3123
sVarceusground
p3124
VArceus-Ground
p3125
sVhornattack
p3126
VHorn Attack
p3127
sVkingdra
p3128
VKingdra
p3129
sVaerodactylite
p3130
VAerodactylite
p3131
sVbanettite
p3132
VBanettite
p3133
sVeevee
p3134
VEevee
p3135
sVheatran
p3136
VHeatran
p3137
sVwatchog
p3138
VWatchog
p3139
sVpoliwrath
p3140
VPoliwrath
p3141
sVinsomnia
p3142
VInsomnia
p3143
sVcharcoal
p3144
VCharcoal
p3145
sVcranidos
p3146
VCranidos
p3147
sVabsol
p3148
VAbsol
p3149
sVplusle
p3150
VPlusle
p3151
sVaerodactylmega
p3152
VAerodactyl-Mega
p3153
sVrivalry
p3154
VRivalry
p3155
sVwatersport
p3156
VWater Sport
p3157
sVicicleplate
p3158
VIcicle Plate
p3159
sVfuturesight
p3160
VFuture Sight
p3161
sVlustrousorb
p3162
VLustrous Orb
p3163
sVarchen
p3164
VArchen
p3165
sVexeggcute
p3166
VExeggcute
p3167
sVlucario
p3168
VLucario
p3169
sVthundurus
p3170
VThundurus
p3171
sVtangrowth
p3172
VTangrowth
p3173
sVvespiquen
p3174
VVespiquen
p3175
sVterrakion
p3176
VTerrakion
p3177
sVblacksludge
p3178
VBlack Sludge
p3179
sVadamantorb
p3180
VAdamant Orb
p3181
sVrelicsong
p3182
VRelic Song
p3183
sVheliolisk
p3184
VHeliolisk
p3185
sVblazikenmega
p3186
VBlaziken-Mega
p3187
sVgastrodon
p3188
VGastrodon
p3189
sVbronzong
p3190
VBronzong
p3191
sVweavile
p3192
VWeavile
p3193
sVdewott
p3194
VDewott
p3195
sVchandelure
p3196
VChandelure
p3197
sVhaxorus
p3198
VHaxorus
p3199
sVsecretsword
p3200
VSecret Sword
p3201
sVowntempo
p3202
VOwn Tempo
p3203
sVhiddenpower
p3204
S'Hidden Power'
p3205
sVrazorleaf
p3206
VRazor Leaf
p3207
sVpowerswap
p3208
VPower Swap
p3209
sVdragalge
p3210
VDragalge
p3211
sVgrasswhistle
p3212
VGrass Whistle
p3213
sVswampert
p3214
VSwampert
p3215
sVpidgey
p3216
VPidgey
p3217
sVaggronite
p3218
VAggronite
p3219
sVgenesect
p3220
VGenesect
p3221
sVlotad
p3222
VLotad
p3223
sVbind
p3224
VBind
p3225
sVcounter
p3226
VCounter
p3227
sVfullincense
p3228
VFull Incense
p3229
sVweepinbell
p3230
VWeepinbell
p3231
sVwoobat
p3232
VWoobat
p3233
sVaquajet
p3234
VAqua Jet
p3235
sVkrabby
p3236
VKrabby
p3237
sVumbreon
p3238
VUmbreon
p3239
sVheatproof
p3240
VHeatproof
p3241
sVguardswap
p3242
VGuard Swap
p3243
sVassaultvest
p3244
VAssault Vest
p3245
sVpetalblizzard
p3246
VPetal Blizzard
p3247
sVkadabra
p3248
VKadabra
p3249
sVpurepower
p3250
VPure Power
p3251
sVironball
p3252
VIron Ball
p3253
sVdreameater
p3254
VDream Eater
p3255
sVhelpinghand
p3256
VHelping Hand
p3257
sVmunchlax
p3258
VMunchlax
p3259
sVzenheadbutt
p3260
VZen Headbutt
p3261
sVbelch
p3262
VBelch
p3263
sVsuperluck
p3264
VSuper Luck
p3265
sVberryjuice
p3266
VBerry Juice
p3267
sS'hiddenpowerflying'
p3268
S'Hidden Power Flying'
p3269
sVflowerveil
p3270
VFlower Veil
p3271
sVmilotic
p3272
VMilotic
p3273
sVarbok
p3274
VArbok
p3275
sVflail
p3276
VFlail
p3277
sVkabutops
p3278
VKabutops
p3279
sVhoothoot
p3280
VHoothoot
p3281
sVchinchou
p3282
VChinchou
p3283
sVmagnitude
p3284
VMagnitude
p3285
sVarceusfighting
p3286
VArceus-Fighting
p3287
sVrapidspin
p3288
VRapid Spin
p3289
sVskullbash
p3290
VSkull Bash
p3291
sVdratini
p3292
VDratini
p3293
sVafteryou
p3294
VAfter You
p3295
sVmaractus
p3296
VMaractus
p3297
sVilluminate
p3298
VIlluminate
p3299
sVgallademega
p3300
VGallade-Mega
p3301
sVmagnetpull
p3302
VMagnet Pull
p3303
sVtepig
p3304
VTepig
p3305
sVkelpsyberry
p3306
VKelpsy Berry
p3307
sVstatic
p3308
VStatic
p3309
sVflameplate
p3310
VFlame Plate
p3311
sVicefang
p3312
VIce Fang
p3313
sVvenonat
p3314
VVenonat
p3315
sVjoltik
p3316
VJoltik
p3317
sVrollingkick
p3318
VRolling Kick
p3319
sVweatherball
p3320
VWeather Ball
p3321
sVmanectric
p3322
VManectric
p3323
sVnaturepower
p3324
VNature Power
p3325
sVregisteel
p3326
VRegisteel
p3327
sVsmog
p3328
VSmog
p3329
sVbabydolleyes
p3330
VBaby-Doll Eyes
p3331
sVleafguard
p3332
VLeaf Guard
p3333
sVicywind
p3334
VIcy Wind
p3335
sVemolga
p3336
VEmolga
p3337
sVconkeldurr
p3338
VConkeldurr
p3339
sVworkup
p3340
VWork Up
p3341
sVmetagrossite
p3342
VMetagrossite
p3343
sVhippowdon
p3344
VHippowdon
p3345
sVenigmaberry
p3346
VEnigma Berry
p3347
sVvenomoth
p3348
VVenomoth
p3349
sVaromaveil
p3350
VAroma Veil
p3351
sVbergmite
p3352
VBergmite
p3353
sVsudowoodo
p3354
VSudowoodo
p3355
sVlarvitar
p3356
VLarvitar
p3357
sVheadbutt
p3358
VHeadbutt
p3359
sVbodyslam
p3360
VBody Slam
p3361
sVexpertbelt
p3362
VExpert Belt
p3363
sVbugbuzz
p3364
VBug Buzz
p3365
sVfirefang
p3366
VFire Fang
p3367
sVdiancite
p3368
VDiancite
p3369
sVampharosmega
p3370
VAmpharos-Mega
p3371
sVmistball
p3372
VMist Ball
p3373
sVskrelp
p3374
VSkrelp
p3375
sVjumpkick
p3376
VJump Kick
p3377
sVwaterspout
p3378
VWater Spout
p3379
sVloudred
p3380
VLoudred
p3381
sVfletchinder
p3382
VFletchinder
p3383
sVmegakick
p3384
VMega Kick
p3385
sVrotomfrost
p3386
VRotom-Frost
p3387
sVsolidrock
p3388
VSolid Rock
p3389
sVrabutaberry
p3390
VRabuta Berry
p3391
sVagility
p3392
VAgility
p3393
sVelectabuzz
p3394
VElectabuzz
p3395
sVcrobat
p3396
VCrobat
p3397
sVrockblast
p3398
VRock Blast
p3399
sVslackoff
p3400
VSlack Off
p3401
sVsoftsand
p3402
VSoft Sand
p3403
sVsigilyph
p3404
VSigilyph
p3405
sVempoleon
p3406
VEmpoleon
p3407
sVtorkoal
p3408
VTorkoal
p3409
sVwurmple
p3410
VWurmple
p3411
sVmasterball
p3412
VMaster Ball
p3413
sVtimburr
p3414
VTimburr
p3415
sVsealeo
p3416
VSealeo
p3417
sVpoisonfang
p3418
VPoison Fang
p3419
sVinsectplate
p3420
VInsect Plate
p3421
sVtorrent
p3422
VTorrent
p3423
sVencore
p3424
VEncore
p3425
sVquickball
p3426
VQuick Ball
p3427
sVtrapinch
p3428
VTrapinch
p3429
sVmarshtomp
p3430
VMarshtomp
p3431
sS'gentle'
p3432
S'Gentle'
p3433
sVsandrush
p3434
VSand Rush
p3435
sVarceusflying
p3436
VArceus-Flying
p3437
sVzebstrika
p3438
VZebstrika
p3439
sVwhitesmoke
p3440
VWhite Smoke
p3441
sVlevelball
p3442
VLevel Ball
p3443
sVsoak
p3444
VSoak
p3445
sVpikachubelle
p3446
VPikachu-Belle
p3447
sVflareon
p3448
VFlareon
p3449
sVcalmmind
p3450
VCalm Mind
p3451
sVaipom
p3452
VAipom
p3453
sVdiamondstorm
p3454
VDiamond Storm
p3455
sVgravity
p3456
VGravity
p3457
sVcarnivine
p3458
VCarnivine
p3459
sVmistyterrain
p3460
VMisty Terrain
p3461
sVrotom
p3462
VRotom
p3463
sVnuzleaf
p3464
VNuzleaf
p3465
sVwidelens
p3466
VWide Lens
p3467
sVshadowball
p3468
VShadow Ball
p3469
sVdrifblim
p3470
VDrifblim
p3471
sVmewtwo
p3472
VMewtwo
p3473
sVrollout
p3474
VRollout
p3475
sVslurpuff
p3476
VSlurpuff
p3477
sVgrassgem
p3478
VGrass Gem
p3479
sVdracometeor
p3480
VDraco Meteor
p3481
sVsludgewave
p3482
VSludge Wave
p3483
sVsceptile
p3484
VSceptile
p3485
sVgardevoirite
p3486
VGardevoirite
p3487
sVexeggutor
p3488
VExeggutor
p3489
sVshedskin
p3490
VShed Skin
p3491
sVcherrimsunshine
p3492
VCherrim-Sunshine
p3493
sVarceus
p3494
VArceus
p3495
sS'impish'
p3496
S'Impish'
p3497
sVservine
p3498
VServine
p3499
sVwailmer
p3500
VWailmer
p3501
sVbrine
p3502
VBrine
p3503
sVzweilous
p3504
VZweilous
p3505
sVsleeppowder
p3506
VSleep Powder
p3507
sVoldamber
p3508
VOld Amber
p3509
sVdurant
p3510
VDurant
p3511
sVsimplebeam
p3512
VSimple Beam
p3513
sVyveltal
p3514
VYveltal
p3515
sVdragonite
p3516
VDragonite
p3517
sS'rash'
p3518
S'Rash'
p3519
sVpiplup
p3520
VPiplup
p3521
sVflashfire
p3522
VFlash Fire
p3523
sVdeino
p3524
VDeino
p3525
sVcamerupt
p3526
VCamerupt
p3527
sVluckypunch
p3528
VLucky Punch
p3529
sVpsychicgem
p3530
VPsychic Gem
p3531
sVrarebone
p3532
VRare Bone
p3533
sVsnover
p3534
VSnover
p3535
sVtangaberry
p3536
VTanga Berry
p3537
sVbellydrum
p3538
VBelly Drum
p3539
sS'sassy'
p3540
S'Sassy'
p3541
sVdeoxysattack
p3542
VDeoxys-Attack
p3543
sVcroagunk
p3544
VCroagunk
p3545
sVbravebird
p3546
VBrave Bird
p3547
sVgust
p3548
VGust
p3549
sVmagicguard
p3550
VMagic Guard
p3551
sVsandattack
p3552
VSand Attack
p3553
sVkingler
p3554
VKingler
p3555
sVwish
p3556
VWish
p3557
sVwatmelberry
p3558
VWatmel Berry
p3559
sVsheercold
p3560
VSheer Cold
p3561
sVgeomancy
p3562
VGeomancy
p3563
sVcacturne
p3564
VCacturne
p3565
sVpowder
p3566
VPowder
p3567
sVvictini
p3568
VVictini
p3569
sVfinneon
p3570
VFinneon
p3571
sVelectrode
p3572
VElectrode
p3573
sVchestoberry
p3574
VChesto Berry
p3575
sVgrumpig
p3576
VGrumpig
p3577
sVlifeorb
p3578
VLife Orb
p3579
sVgyarados
p3580
VGyarados
p3581
sVvaporeon
p3582
VVaporeon
p3583
sVpartingshot
p3584
VParting Shot
p3585
sVrockincense
p3586
VRock Incense
p3587
sVfroslass
p3588
VFroslass
p3589
sVconfusion
p3590
VConfusion
p3591
sVaron
p3592
VAron
p3593
sVconversion2
p3594
VConversion 2
p3595
sVwhiscash
p3596
VWhiscash
p3597
sVzoroark
p3598
VZoroark
p3599
sVshellsmash
p3600
VShell Smash
p3601
sVhydropump
p3602
VHydro Pump
p3603
sVswift
p3604
VSwift
p3605
sVhighjumpkick
p3606
VHigh Jump Kick
p3607
sVmetang
p3608
VMetang
p3609
sVbaddreams
p3610
VBad Dreams
p3611
sVaerodactyl
p3612
VAerodactyl
p3613
sVpoisonheal
p3614
VPoison Heal
p3615
sVsceptilite
p3616
VSceptilite
p3617
sVsafetygoggles
p3618
VSafety Goggles
p3619
sVklang
p3620
VKlang
p3621
sVswallow
p3622
VSwallow
p3623
sVspritzee
p3624
VSpritzee
p3625
sVflabebe
p3626
VFlabebe
p3627
sVapicotberry
p3628
VApicot Berry
p3629
sVnumel
p3630
VNumel
p3631
sVwoodhammer
p3632
VWood Hammer
p3633
sS'hiddenpowerwater'
p3634
S'Hidden Power Water'
p3635
sVmalaconda
p3636
VMalaconda
p3637
sVgible
p3638
VGible
p3639
sVovercoat
p3640
VOvercoat
p3641
sVekans
p3642
VEkans
p3643
sVsharpedomega
p3644
VSharpedo-Mega
p3645
sVpixieplate
p3646
VPixie Plate
p3647
sVdugtrio
p3648
VDugtrio
p3649
sVdisarmingvoice
p3650
VDisarming Voice
p3651
sVwailord
p3652
VWailord
p3653
sVswoobat
p3654
VSwoobat
p3655
sVelectrify
p3656
VElectrify
p3657
sVbindingband
p3658
VBinding Band
p3659
sVkeldeo
p3660
VKeldeo
p3661
sVtomohawk
p3662
VTomohawk
p3663
sVivysaur
p3664
VIvysaur
p3665
sVhorndrill
p3666
VHorn Drill
p3667
sVcoverfossil
p3668
VCover Fossil
p3669
sVaccelgor
p3670
VAccelgor
p3671
sVsmeargle
p3672
VSmeargle
p3673
sVmetagrossmega
p3674
VMetagross-Mega
p3675
sVraindance
p3676
VRain Dance
p3677
sVinfestation
p3678
VInfestation
p3679
sVpresent
p3680
VPresent
p3681
sVgrovyle
p3682
VGrovyle
p3683
sVintimidate
p3684
VIntimidate
p3685
sVharden
p3686
VHarden
p3687
sVbeheeyem
p3688
VBeheeyem
p3689
sVgarchompmega
p3690
VGarchomp-Mega
p3691
sVpelipper
p3692
VPelipper
p3693
sVthickfat
p3694
VThick Fat
p3695
sVcarracosta
p3696
VCarracosta
p3697
sVluxio
p3698
VLuxio
p3699
sVvullaby
p3700
VVullaby
p3701
sS'hiddenpowerghost'
p3702
S'Hidden Power Ghost'
p3703
sVlightball
p3704
VLight Ball
p3705
sVwaterveil
p3706
VWater Veil
p3707
sVspelltag
p3708
VSpell Tag
p3709
sVdeoxysdefense
p3710
VDeoxys-Defense
p3711
sVzekrom
p3712
VZekrom
p3713
sVphantump
p3714
VPhantump
p3715
sVdefiant
p3716
VDefiant
p3717
sVhardstone
p3718
VHard Stone
p3719
sVkebiaberry
p3720
VKebia Berry
p3721
sVcascoon
p3722
VCascoon
p3723
sVmagcargo
p3724
VMagcargo
p3725
sVarceuswater
p3726
VArceus-Water
p3727
sVraindish
p3728
VRain Dish
p3729
sVseaking
p3730
VSeaking
p3731
sVmagician
p3732
VMagician
p3733
sVjudgment
p3734
VJudgment
p3735
sVbibarel
p3736
VBibarel
p3737
sVbabiriberry
p3738
VBabiri Berry
p3739
sVaspearberry
p3740
VAspear Berry
p3741
sVeelektross
p3742
VEelektross
p3743
sVpickpocket
p3744
VPickpocket
p3745
sVsitrusberry
p3746
VSitrus Berry
p3747
sVarceuspsychic
p3748
VArceus-Psychic
p3749
sVbeautifly
p3750
VBeautifly
p3751
sVvenoshock
p3752
VVenoshock
p3753
sVmudsport
p3754
VMud Sport
p3755
sVazelf
p3756
VAzelf
p3757
sVyanmega
p3758
VYanmega
p3759
sVfairyaura
p3760
VFairy Aura
p3761
sVarceusdark
p3762
VArceus-Dark
p3763
sVpinsir
p3764
VPinsir
p3765
sVguts
p3766
VGuts
p3767
sVtauros
p3768
VTauros
p3769
sVfearow
p3770
VFearow
p3771
sVfaketears
p3772
VFake Tears
p3773
sVariados
p3774
VAriados
p3775
sVraikou
p3776
VRaikou
p3777
sVswellow
p3778
VSwellow
p3779
sVconfide
p3780
VConfide
p3781
sVleechlife
p3782
VLeech Life
p3783
sVkingsshield
p3784
VKing's Shield
p3785
sVkingsrock
p3786
VKing's Rock
p3787
sVblukberry
p3788
VBluk Berry
p3789
sVflowershield
p3790
VFlower Shield
p3791
sVarenatrap
p3792
VArena Trap
p3793
sVtaunt
p3794
VTaunt
p3795
sVgoldeen
p3796
VGoldeen
p3797
sVducklett
p3798
VDucklett
p3799
sVgreninja
p3800
VGreninja
p3801
sVlatios
p3802
VLatios
p3803
sVfrisk
p3804
VFrisk
p3805
sVbudew
p3806
VBudew
p3807
sVgogoat
p3808
VGogoat
p3809
sVbaltoy
p3810
VBaltoy
p3811
sVhealball
p3812
VHeal Ball
p3813
sVphanpy
p3814
VPhanpy
p3815
sVaudinite
p3816
VAudinite
p3817
sVkoffing
p3818
VKoffing
p3819
sVrepeatball
p3820
VRepeat Ball
p3821
sVglare
p3822
VGlare
p3823
sVthief
p3824
VThief
p3825
sVhail
p3826
VHail
p3827
sVcofagrigus
p3828
VCofagrigus
p3829
sVgrowth
p3830
VGrowth
p3831
sVskarmory
p3832
VSkarmory
p3833
sVhitmontop
p3834
VHitmontop
p3835
sVdragonclaw
p3836
VDragon Claw
p3837
sVdrizzle
p3838
VDrizzle
p3839
sVstaraptor
p3840
VStaraptor
p3841
sVmagicalleaf
p3842
VMagical Leaf
p3843
sVforcepalm
p3844
VForce Palm
p3845
sVhurricane
p3846
VHurricane
p3847
sVlileep
p3848
VLileep
p3849
sVpiloswine
p3850
VPiloswine
p3851
sVvenusaurite
p3852
VVenusaurite
p3853
sVcyclohm
p3854
VCyclohm
p3855
sVhappiny
p3856
VHappiny
p3857
sVpressure
p3858
VPressure
p3859
sVsilkscarf
p3860
VSilk Scarf
p3861
sVpidgeotto
p3862
VPidgeotto
p3863
sVdreadplate
p3864
VDread Plate
p3865
sVsableyemega
p3866
VSableye-Mega
p3867
sVfurret
p3868
VFurret
p3869
sVsmellingsalts
p3870
VSmelling Salts
p3871
sVmeteormash
p3872
VMeteor Mash
p3873
sVshucaberry
p3874
VShuca Berry
p3875
sVsweetkiss
p3876
VSweet Kiss
p3877
sVacidarmor
p3878
VAcid Armor
p3879
sVlightclay
p3880
VLight Clay
p3881
sVvoodoom
p3882
VVoodoom
p3883
sVblueorb
p3884
VBlue Orb
p3885
sVfeintattack
p3886
VFeint Attack
p3887
sVburmy
p3888
VBurmy
p3889
sVmagostberry
p3890
VMagost Berry
p3891
sVgrasspelt
p3892
VGrass Pelt
p3893
sVspitup
p3894
VSpit Up
p3895
sVrockthrow
p3896
VRock Throw
p3897
sVroseliberry
p3898
VRoseli Berry
p3899
sVfrustration
p3900
VFrustration
p3901
sVambipom
p3902
VAmbipom
p3903
sVfollowme
p3904
VFollow Me
p3905
sVclauncher
p3906
VClauncher
p3907
sVquickpowder
p3908
VQuick Powder
p3909
sVfrenzyplant
p3910
VFrenzy Plant
p3911
sVclearbody
p3912
VClear Body
p3913
sVmagoberry
p3914
VMago Berry
p3915
sVcroconaw
p3916
VCroconaw
p3917
sVdrowzee
p3918
VDrowzee
p3919
sVserenegrace
p3920
VSerene Grace
p3921
sVheracronite
p3922
VHeracronite
p3923
sVtechnician
p3924
VTechnician
p3925
sVarceusgrass
p3926
VArceus-Grass
p3927
sVembargo
p3928
VEmbargo
p3929
sVmetronome
p3930
VMetronome
p3931
sVattackorder
p3932
VAttack Order
p3933
sVallyswitch
p3934
VAlly Switch
p3935
sVhugepower
p3936
VHuge Power
p3937
sVentrainment
p3938
VEntrainment
p3939
sVtailwhip
p3940
VTail Whip
p3941
sVscizormega
p3942
VScizor-Mega
p3943
sVhoneclaws
p3944
VHone Claws
p3945
sVfloetteeternalflower
p3946
VFloette-Eternal-Flower
p3947
sVpikachurockstar
p3948
VPikachu-Rock-Star
p3949
sVoranberry
p3950
VOran Berry
p3951
sVninjask
p3952
VNinjask
p3953
sVslowstart
p3954
VSlow Start
p3955
sVweakarmor
p3956
VWeak Armor
p3957
sVaurasphere
p3958
VAura Sphere
p3959
sVshelgon
p3960
VShelgon
p3961
sVrawstberry
p3962
VRawst Berry
p3963
sVvacuumwave
p3964
VVacuum Wave
p3965
sVillusion
p3966
VIllusion
p3967
sVreckless
p3968
VReckless
p3969
sVyacheberry
p3970
VYache Berry
p3971
sVtreecko
p3972
VTreecko
p3973
sVdragonair
p3974
VDragonair
p3975
sVbraviary
p3976
VBraviary
p3977
sVvivillon
p3978
VVivillon
p3979
sVnoguard
p3980
VNo Guard
p3981
sVsalamencemega
p3982
VSalamence-Mega
p3983
sVabomasite
p3984
VAbomasite
p3985
sVstarmie
p3986
VStarmie
p3987
sVpersistent
p3988
VPersistent
p3989
sVmagmar
p3990
VMagmar
p3991
sVzangoose
p3992
VZangoose
p3993
sVvanilluxe
p3994
VVanilluxe
p3995
s.