(dp1
Velectivire
p2
VElectivire
p3
sVpsystrike
p4
VPsystrike
p5
sVanchorshot
p6
VAnchor Shot
p7
sVcherrim
p8
VCherrim
p9
sVcolorchange
p10
VColor Change
p11
sVpersimberry
p12
VPersim Berry
p13
sVlucarionite
p14
VLucarionite
p15
sVpalkia
p16
VPalkia
p17
sVdrainingkiss
p18
VDraining Kiss
p19
sValakazite
p20
VAlakazite
p21
sVtickle
p22
VTickle
p23
sVarceuselectric
p24
VArceus-Electric
p25
sVabra
p26
VAbra
p27
sVexeggutoralola
p28
VExeggutor-Alola
p29
sVrecycle
p30
VRecycle
p31
sVtimerball
p32
VTimer Ball
p33
sVsteeliumz
p34
VSteelium Z
p35
sVsharpbeak
p36
VSharp Beak
p37
sVmewtwonitex
p38
VMewtwonite X
p39
sVmewtwonitey
p40
VMewtwonite Y
p41
sVquickclaw
p42
VQuick Claw
p43
sVoricoriopompom
p44
VOricorio-Pom-Pom
p45
sVneuroforce
p46
VNeuroforce
p47
sVdoubleslap
p48
VDouble Slap
p49
sVlurantis
p50
VLurantis
p51
sVeviolite
p52
VEviolite
p53
sVprotean
p54
VProtean
p55
sVsquirtle
p56
VSquirtle
p57
sVdiglettalola
p58
VDiglett-Alola
p59
sVdarmanitanzen
p60
VDarmanitan-Zen
p61
sVpremierball
p62
VPremier Ball
p63
sVgeomancy
p64
VGeomancy
p65
sVnastyplot
p66
VNasty Plot
p67
sVwormadam
p68
VWormadam
p69
sVmiracleberry
p70
VMiracle Berry
p71
sVaggronmega
p72
VAggron-Mega
p73
sVwhirlwind
p74
VWhirlwind
p75
sVplumefossil
p76
VPlume Fossil
p77
sVheracross
p78
VHeracross
p79
sVhiddenpowerelectric
p80
VHidden Power Electric
p81
sVhiddenpowerfire
p82
VHidden Power Fire
p83
sVguillotine
p84
VGuillotine
p85
sVlevitate
p86
VLevitate
p87
sVgyaradosite
p88
VGyaradosite
p89
sVpomegberry
p90
VPomeg Berry
p91
sVpokestargiant
p92
VPokestar Giant
p93
sVmasquerain
p94
VMasquerain
p95
sVaccelerock
p96
VAccelerock
p97
sVthunder
p98
VThunder
p99
sVwaterpulse
p100
VWater Pulse
p101
sVdarkgem
p102
VDark Gem
p103
sVsteelwing
p104
VSteel Wing
p105
sVfraxure
p106
VFraxure
p107
sVmoldbreaker
p108
VMold Breaker
p109
sVcrunch
p110
VCrunch
p111
sVrindoberry
p112
VRindo Berry
p113
sVlatiosite
p114
VLatiosite
p115
sVreflecttype
p116
VReflect Type
p117
sVsnivy
p118
VSnivy
p119
sVmefirst
p120
VMe First
p121
sVstarfberry
p122
VStarf Berry
p123
sVscizorite
p124
VScizorite
p125
sVmew
p126
VMew
p127
sVpursuit
p128
VPursuit
p129
sVheadsmash
p130
VHead Smash
p131
sVaftermath
p132
VAftermath
p133
sVmintberry
p134
VMint Berry
p135
sVclawitzer
p136
VClawitzer
p137
sVpixilate
p138
VPixilate
p139
sVsilverpowder
p140
VSilverPowder
p141
sVlunatone
p142
VLunatone
p143
sVpunishment
p144
VPunishment
p145
sVpoisontouch
p146
VPoison Touch
p147
sVfeebas
p148
VFeebas
p149
sVneedlearm
p150
VNeedle Arm
p151
sValtarianite
p152
VAltarianite
p153
sVblastburn
p154
VBlast Burn
p155
sVhonchkrow
p156
VHonchkrow
p157
sVschooling
p158
VSchooling
p159
sVtirtouga
p160
VTirtouga
p161
sVampharos
p162
VAmpharos
p163
sVpound
p164
VPound
p165
sVpoisonbarb
p166
VPoison Barb
p167
sVmorningsun
p168
VMorning Sun
p169
sVfreezedry
p170
VFreeze-Dry
p171
sVsludgebomb
p172
VSludge Bomb
p173
sVmandibuzz
p174
VMandibuzz
p175
sVoverheat
p176
VOverheat
p177
sVwishiwashischool
p178
VWishiwashi-School
p179
sVspiritomb
p180
VSpiritomb
p181
sVvoltabsorb
p182
VVolt Absorb
p183
sVpurugly
p184
VPurugly
p185
sVshiftgear
p186
VShift Gear
p187
sVcalm
p188
VCalm
p189
sVfirstimpression
p190
VFirst Impression
p191
sVcastformrainy
p192
VCastform-Rainy
p193
sVbigroot
p194
VBig Root
p195
sVtorment
p196
VTorment
p197
sVaromaveil
p198
VAroma Veil
p199
sVgardevoir
p200
VGardevoir
p201
sVvenomdrench
p202
VVenom Drench
p203
sVmagnetrise
p204
VMagnet Rise
p205
sVnaive
p206
VNaive
p207
sVreuniclus
p208
VReuniclus
p209
sVbeastboost
p210
VBeast Boost
p211
sVsceptilemega
p212
VSceptile-Mega
p213
sVlunge
p214
VLunge
p215
sVcharjabug
p216
VCharjabug
p217
sVcorrosion
p218
VCorrosion
p219
sVadamant
p220
VAdamant
p221
sVkitsunoh
p222
VKitsunoh
p223
sVarceusbug
p224
VArceus-Bug
p225
sVgranbull
p226
VGranbull
p227
sVmeditite
p228
VMeditite
p229
sVpidgeot
p230
VPidgeot
p231
sVstakataka
p232
VStakataka
p233
sVmegalauncher
p234
VMega Launcher
p235
sVtangledfeet
p236
VTangled Feet
p237
sVigglybuff
p238
VIgglybuff
p239
sVonix
p240
VOnix
p241
sVgrimer
p242
VGrimer
p243
sVrototiller
p244
VRototiller
p245
sVlucariomega
p246
VLucario-Mega
p247
sVbugbite
p248
VBug Bite
p249
sVpoisongas
p250
VPoison Gas
p251
sVmakuhita
p252
VMakuhita
p253
sVfriendball
p254
VFriend Ball
p255
sVplasmafists
p256
VPlasma Fists
p257
sVattract
p258
VAttract
p259
sVcharizarditey
p260
VCharizardite Y
p261
sVcharizarditex
p262
VCharizardite X
p263
sVhyperspacehole
p264
VHyperspace Hole
p265
sVskydrop
p266
VSky Drop
p267
sVcrabhammer
p268
VCrabhammer
p269
sVtoxic
p270
VToxic
p271
sVcastformsunny
p272
VCastform-Sunny
p273
sVrotomheat
p274
VRotom-Heat
p275
sVsportball
p276
VSport Ball
p277
sVpoisonpowder
p278
VPoison Powder
p279
sVredcard
p280
VRed Card
p281
sVtriage
p282
VTriage
p283
sVmodest
p284
VModest
p285
sVlax
p286
VLax
p287
sVliquidvoice
p288
VLiquid Voice
p289
sVcherubi
p290
VCherubi
p291
sVleafstorm
p292
VLeaf Storm
p293
sVpokestarufo2
p294
VPokestar UFO-2
p295
sVpoweranklet
p296
VPower Anklet
p297
sVgumshoostotem
p298
VGumshoos-Totem
p299
sVspookyplate
p300
VSpooky Plate
p301
sVhasty
p302
VHasty
p303
sVraichualola
p304
VRaichu-Alola
p305
sVentei
p306
VEntei
p307
sVdecidueye
p308
VDecidueye
p309
sVmemento
p310
VMemento
p311
sVarceussteel
p312
VArceus-Steel
p313
sVtogedemarutotem
p314
VTogedemaru-Totem
p315
sVcobaberry
p316
VCoba Berry
p317
sVlaggingtail
p318
VLagging Tail
p319
sVfinalgambit
p320
VFinal Gambit
p321
sVrapidash
p322
VRapidash
p323
sVblacephalon
p324
VBlacephalon
p325
sVdoubleteam
p326
VDouble Team
p327
sVlumineon
p328
VLumineon
p329
sVshielddust
p330
VShield Dust
p331
sVmagicbounce
p332
VMagic Bounce
p333
sVhiddenpowerfighting
p334
VHidden Power Fighting
p335
sVsludge
p336
VSludge
p337
sVvenusaur
p338
VVenusaur
p339
sVphione
p340
VPhione
p341
sVdiancite
p342
VDiancite
p343
sVgrassyseed
p344
VGrassy Seed
p345
sVflameburst
p346
VFlame Burst
p347
sVaromaticmist
p348
VAromatic Mist
p349
sVzapplate
p350
VZap Plate
p351
sVmunna
p352
VMunna
p353
sVdragonscale
p354
VDragon Scale
p355
sVdryskin
p356
VDry Skin
p357
sVnihilego
p358
VNihilego
p359
sVmimikyu
p360
VMimikyu
p361
sVkricketot
p362
VKricketot
p363
sVmistball
p364
VMist Ball
p365
sVroost
p366
VRoost
p367
sVfurycutter
p368
VFury Cutter
p369
sVirontail
p370
VIron Tail
p371
sVclangingscales
p372
VClanging Scales
p373
sVheatmor
p374
VHeatmor
p375
sVeggbomb
p376
VEgg Bomb
p377
sVluxray
p378
VLuxray
p379
sVpayback
p380
VPayback
p381
sVexcadrill
p382
VExcadrill
p383
sVgloom
p384
VGloom
p385
sVgluttony
p386
VGluttony
p387
sVtapukoko
p388
VTapu Koko
p389
sVvulpix
p390
VVulpix
p391
sVcradily
p392
VCradily
p393
sVwimpod
p394
VWimpod
p395
sVthunderfang
p396
VThunder Fang
p397
sVblastoisemega
p398
VBlastoise-Mega
p399
sVespeon
p400
VEspeon
p401
sVtogedemaru
p402
VTogedemaru
p403
sVmultitype
p404
VMultitype
p405
sVflameorb
p406
VFlame Orb
p407
sVhiddenpowerdragon
p408
VHidden Power Dragon
p409
sVfairywind
p410
VFairy Wind
p411
sVgothorita
p412
VGothorita
p413
sVshadowtag
p414
VShadow Tag
p415
sVomastar
p416
VOmastar
p417
sVwalrein
p418
VWalrein
p419
sVpidgeotmega
p420
VPidgeot-Mega
p421
sVtruant
p422
VTruant
p423
sVqualotberry
p424
VQualot Berry
p425
sVnincada
p426
VNincada
p427
sVpsychic
p428
VPsychic
p429
sVvulpixalola
p430
VVulpix-Alola
p431
sVkasibberry
p432
VKasib Berry
p433
sVribombee
p434
VRibombee
p435
sVargalis
p436
VArgalis
p437
sVseedbomb
p438
VSeed Bomb
p439
sVtornadus
p440
VTornadus
p441
sVshedshell
p442
VShed Shell
p443
sVbarrier
p444
VBarrier
p445
sVleftovers
p446
VLeftovers
p447
sVcoreenforcer
p448
VCore Enforcer
p449
sVsynchronoise
p450
VSynchronoise
p451
sVpokestarhumanoid
p452
VPokestar Humanoid
p453
sVtrumpcard
p454
VTrump Card
p455
sVhawlucha
p456
VHawlucha
p457
sVgalladite
p458
VGalladite
p459
sVshiftry
p460
VShiftry
p461
sVgirafarig
p462
VGirafarig
p463
sVbeartic
p464
VBeartic
p465
sVkyuremblack
p466
VKyurem-Black
p467
sVsonicboom
p468
VSonic Boom
p469
sVpikachupartner
p470
VPikachu-Partner
p471
sVfightinggem
p472
VFighting Gem
p473
sVgroudonprimal
p474
VGroudon-Primal
p475
sVlatias
p476
VLatias
p477
sVfilter
p478
VFilter
p479
sVsteelixmega
p480
VSteelix-Mega
p481
sVtapuniumz
p482
VTapunium Z
p483
sVcherishball
p484
VCherish Ball
p485
sVcheriberry
p486
VCheri Berry
p487
sVfightingmemory
p488
VFighting Memory
p489
sVnaughty
p490
VNaughty
p491
sVseedflare
p492
VSeed Flare
p493
sVhydrocannon
p494
VHydro Cannon
p495
sVmagneticflux
p496
VMagnetic Flux
p497
sVfusionbolt
p498
VFusion Bolt
p499
sVdeoxys
p500
VDeoxys
p501
sVpikachukalos
p502
VPikachu-Kalos
p503
sVlatiasmega
p504
VLatias-Mega
p505
sVrattataalola
p506
VRattata-Alola
p507
sVinstruct
p508
VInstruct
p509
sVembirch
p510
VEmbirch
p511
sVshieldon
p512
VShieldon
p513
sVslugma
p514
VSlugma
p515
sVheracrossmega
p516
VHeracross-Mega
p517
sVwaveincense
p518
VWave Incense
p519
sVmanectite
p520
VManectite
p521
sVinnardsout
p522
VInnards Out
p523
sVpikachupopstar
p524
VPikachu-Pop-Star
p525
sVmudsdale
p526
VMudsdale
p527
sVaircutter
p528
VAir Cutter
p529
sVgiratinaorigin
p530
VGiratina-Origin
p531
sVgrowlithe
p532
VGrowlithe
p533
sVinferno
p534
VInferno
p535
sVtwister
p536
VTwister
p537
sVarceusdragon
p538
VArceus-Dragon
p539
sVflamethrower
p540
VFlamethrower
p541
sVtoxicorb
p542
VToxic Orb
p543
sVfairylock
p544
VFairy Lock
p545
sVrockclimb
p546
VRock Climb
p547
sVwonderroom
p548
VWonder Room
p549
sVmachoke
p550
VMachoke
p551
sVgrassysurge
p552
VGrassy Surge
p553
sVdoomdesire
p554
VDoom Desire
p555
sVmirrormove
p556
VMirror Move
p557
sVsandshrew
p558
VSandshrew
p559
sVpolitoed
p560
VPolitoed
p561
sVminun
p562
VMinun
p563
sVbelueberry
p564
VBelue Berry
p565
sVgeodudealola
p566
VGeodude-Alola
p567
sVfloralhealing
p568
VFloral Healing
p569
sVfiriumz
p570
VFirium Z
p571
sVendure
p572
VEndure
p573
sVswiftswim
p574
VSwift Swim
p575
sVshellbell
p576
VShell Bell
p577
sVminus
p578
VMinus
p579
sVmeowth
p580
VMeowth
p581
sVprankster
p582
VPrankster
p583
sVbewear
p584
VBewear
p585
sVpayapaberry
p586
VPayapa Berry
p587
sVclosecombat
p588
VClose Combat
p589
sVsilvallydark
p590
VSilvally-Dark
p591
sVhealer
p592
VHealer
p593
sVseel
p594
VSeel
p595
sVblastoise
p596
VBlastoise
p597
sVstrength
p598
VStrength
p599
sVchingling
p600
VChingling
p601
sVgothita
p602
VGothita
p603
sVyungoos
p604
VYungoos
p605
sVcraftyshield
p606
VCrafty Shield
p607
sVgyroball
p608
VGyro Ball
p609
sVursaring
p610
VUrsaring
p611
sVgolbat
p612
VGolbat
p613
sVgrassyterrain
p614
VGrassy Terrain
p615
sVdeoxysspeed
p616
VDeoxys-Speed
p617
sVshadowforce
p618
VShadow Force
p619
sVcoil
p620
VCoil
p621
sVdrought
p622
VDrought
p623
sVferrothorn
p624
VFerrothorn
p625
sVcosmicpower
p626
VCosmic Power
p627
sVthousandwaves
p628
VThousand Waves
p629
sVdunsparce
p630
VDunsparce
p631
sVconstrict
p632
VConstrict
p633
sVvileplume
p634
VVileplume
p635
sVraticate
p636
VRaticate
p637
sVcinccino
p638
VCinccino
p639
sVjirachi
p640
VJirachi
p641
sVgolduck
p642
VGolduck
p643
sVshiinotic
p644
VShiinotic
p645
sVarmorfossil
p646
VArmor Fossil
p647
sVstickyweb
p648
VSticky Web
p649
sVlycanrocdusk
p650
VLycanroc-Dusk
p651
sVtogekiss
p652
VTogekiss
p653
sVhippopotas
p654
VHippopotas
p655
sVdialga
p656
VDialga
p657
sVlastresort
p658
VLast Resort
p659
sVpsychicterrain
p660
VPsychic Terrain
p661
sVbulletpunch
p662
VBullet Punch
p663
sVicegem
p664
VIce Gem
p665
sVspite
p666
VSpite
p667
sVcarbink
p668
VCarbink
p669
sVhaze
p670
VHaze
p671
sVstoutland
p672
VStoutland
p673
sVgenesissupernova
p674
VGenesis Supernova
p675
sVbidoof
p676
VBidoof
p677
sVsyclant
p678
VSyclant
p679
sVhaunter
p680
VHaunter
p681
sVweedle
p682
VWeedle
p683
sVaerilate
p684
VAerilate
p685
sVhoneygather
p686
VHoney Gather
p687
sVmachop
p688
VMachop
p689
sVpoisoniumz
p690
VPoisonium Z
p691
sVguardianofalola
p692
VGuardian of Alola
p693
sVdusknoir
p694
VDusknoir
p695
sVmeditate
p696
VMeditate
p697
sVreversal
p698
VReversal
p699
sVlunardance
p700
VLunar Dance
p701
sVpumpkaboosmall
p702
VPumpkaboo-Small
p703
sVtentacool
p704
VTentacool
p705
sVpokeball
p706
VPoke Ball
p707
sVdiancie
p708
VDiancie
p709
sVfrustration
p710
VFrustration
p711
sVplasmanta
p712
VPlasmanta
p713
sVnosepass
p714
VNosepass
p715
sVearthplate
p716
VEarth Plate
p717
sVlaxincense
p718
VLax Incense
p719
sVmagneton
p720
VMagneton
p721
sVstickyhold
p722
VSticky Hold
p723
sVbeatup
p724
VBeat Up
p725
sVleafblade
p726
VLeaf Blade
p727
sVfluffy
p728
VFluffy
p729
sVserperior
p730
VSerperior
p731
sVlopunnite
p732
VLopunnite
p733
sVwooper
p734
VWooper
p735
sVforretress
p736
VForretress
p737
sVmindreader
p738
VMind Reader
p739
sVseaincense
p740
VSea Incense
p741
sVsimisage
p742
VSimisage
p743
sVsolarblade
p744
VSolar Blade
p745
sVarcheops
p746
VArcheops
p747
sVheavymetal
p748
VHeavy Metal
p749
sVwormadamsandy
p750
VWormadam-Sandy
p751
sVpsychiumz
p752
VPsychium Z
p753
sVspiritshackle
p754
VSpirit Shackle
p755
sVcontinentalcrush
p756
VContinental Crush
p757
sVmuscleband
p758
VMuscle Band
p759
sVinsectplate
p760
VInsect Plate
p761
sVmatblock
p762
VMat Block
p763
sVdragonfang
p764
VDragon Fang
p765
sVdoduo
p766
VDoduo
p767
sVmuk
p768
VMuk
p769
sVnecrozmadawnwings
p770
VNecrozma-Dawn-Wings
p771
sVmotordrive
p772
VMotor Drive
p773
sVmothim
p774
VMothim
p775
sVslowpoke
p776
VSlowpoke
p777
sVfrostbreath
p778
VFrost Breath
p779
sVvirizion
p780
VVirizion
p781
sVcut
p782
VCut
p783
sVcosmoem
p784
VCosmoem
p785
sVmeadowplate
p786
VMeadow Plate
p787
sVparasect
p788
VParasect
p789
sVgourgeistsmall
p790
VGourgeist-Small
p791
sVadamantorb
p792
VAdamant Orb
p793
sVprotect
p794
VProtect
p795
sVplaynice
p796
VPlay Nice
p797
sVsamurott
p798
VSamurott
p799
sVencore
p800
VEncore
p801
sVreceiver
p802
VReceiver
p803
sVmawile
p804
VMawile
p805
sVlaserfocus
p806
VLaser Focus
p807
sVchimecho
p808
VChimecho
p809
sVpetayaberry
p810
VPetaya Berry
p811
sVdoublade
p812
VDoublade
p813
sVpsychicseed
p814
VPsychic Seed
p815
sVdeltastream
p816
VDelta Stream
p817
sVluckychant
p818
VLucky Chant
p819
sVleppaberry
p820
VLeppa Berry
p821
sVchlorophyll
p822
VChlorophyll
p823
sVoblivious
p824
VOblivious
p825
sVfierydance
p826
VFiery Dance
p827
sVfloatzel
p828
VFloatzel
p829
sVsmackdown
p830
VSmack Down
p831
sVcopycat
p832
VCopycat
p833
sVsalamencite
p834
VSalamencite
p835
sVbuneary
p836
VBuneary
p837
sVrevelationdance
p838
VRevelation Dance
p839
sVshockdrive
p840
VShock Drive
p841
sVnightdaze
p842
VNight Daze
p843
sVfriendguard
p844
VFriend Guard
p845
sVscaryface
p846
VScary Face
p847
sVmarowakalolatotem
p848
VMarowak-Alola-Totem
p849
sVsteamroller
p850
VSteamroller
p851
sVsalazzle
p852
VSalazzle
p853
sVwimpout
p854
VWimp Out
p855
sVkakuna
p856
VKakuna
p857
sVpowertrick
p858
VPower Trick
p859
sVyanma
p860
VYanma
p861
sVsilvallyfire
p862
VSilvally-Fire
p863
sVmagiccoat
p864
VMagic Coat
p865
sVaciddownpour
p866
VAcid Downpour
p867
sVbounce
p868
VBounce
p869
sVbonerush
p870
VBone Rush
p871
sVgurdurr
p872
VGurdurr
p873
sVsoundproof
p874
VSoundproof
p875
sViceberry
p876
VIce Berry
p877
sVthrash
p878
VThrash
p879
sVchespin
p880
VChespin
p881
sVsliggoo
p882
VSliggoo
p883
sVtotodile
p884
VTotodile
p885
sVgarchompite
p886
VGarchompite
p887
sVslowbro
p888
VSlowbro
p889
sVprismaticlaser
p890
VPrismatic Laser
p891
sVnaganadel
p892
VNaganadel
p893
sValakazam
p894
VAlakazam
p895
sVbinacle
p896
VBinacle
p897
sVmarowakalola
p898
VMarowak-Alola
p899
sVnevermeltice
p900
VNever-Melt Ice
p901
sVgrowl
p902
VGrowl
p903
sVarmaldo
p904
VArmaldo
p905
sVaguavberry
p906
VAguav Berry
p907
sVdrilbur
p908
VDrilbur
p909
sVcameruptite
p910
VCameruptite
p911
sVralts
p912
VRalts
p913
sVpupitar
p914
VPupitar
p915
sVpowerbracer
p916
VPower Bracer
p917
sVslowking
p918
VSlowking
p919
sVpowerherb
p920
VPower Herb
p921
sVnoivern
p922
VNoivern
p923
sVwaterfall
p924
VWaterfall
p925
sVdewgong
p926
VDewgong
p927
sVflyiniumz
p928
VFlyinium Z
p929
sVkirlia
p930
VKirlia
p931
sVknockoff
p932
VKnock Off
p933
sVoctazooka
p934
VOctazooka
p935
sVcawmodore
p936
VCawmodore
p937
sVsylveon
p938
VSylveon
p939
sVluxuryball
p940
VLuxury Ball
p941
sVhydration
p942
VHydration
p943
sVkrokorok
p944
VKrokorok
p945
sVamoonguss
p946
VAmoonguss
p947
sVsilvallygrass
p948
VSilvally-Grass
p949
sVquilladin
p950
VQuilladin
p951
sVshellarmor
p952
VShell Armor
p953
sVpoliwag
p954
VPoliwag
p955
sVslushrush
p956
VSlush Rush
p957
sVmetalcoat
p958
VMetal Coat
p959
sVthickclub
p960
VThick Club
p961
sVgravity
p962
VGravity
p963
sVdisguise
p964
VDisguise
p965
sVscizor
p966
VScizor
p967
sVfloetteeternal
p968
VFloette-Eternal
p969
sVkerfluffle
p970
VKerfluffle
p971
sVsilcoon
p972
VSilcoon
p973
sVbuggem
p974
VBug Gem
p975
sVdragonmemory
p976
VDragon Memory
p977
sVoshawott
p978
VOshawott
p979
sVkeldeoresolute
p980
VKeldeo-Resolute
p981
sVtogepi
p982
VTogepi
p983
sVdomefossil
p984
VDome Fossil
p985
sVlowkick
p986
VLow Kick
p987
sVhealbell
p988
VHeal Bell
p989
sVmirrorshot
p990
VMirror Shot
p991
sVtapufini
p992
VTapu Fini
p993
sVlickitung
p994
VLickitung
p995
sVfleurcannon
p996
VFleur Cannon
p997
sVlatiosmega
p998
VLatios-Mega
p999
sVdragonrush
p1000
VDragon Rush
p1001
sVredorb
p1002
VRed Orb
p1003
sVspinarak
p1004
VSpinarak
p1005
sVdiggersby
p1006
VDiggersby
p1007
sVsilverwind
p1008
VSilver Wind
p1009
sVthundurustherian
p1010
VThundurus-Therian
p1011
sVludicolo
p1012
VLudicolo
p1013
sVditto
p1014
VDitto
p1015
sVcirclethrow
p1016
VCircle Throw
p1017
sVfullmetalbody
p1018
VFull Metal Body
p1019
sValloutpummeling
p1020
VAll-Out Pummeling
p1021
sVphotongeyser
p1022
VPhoton Geyser
p1023
sVinfernooverdrive
p1024
VInferno Overdrive
p1025
sVpinsirmega
p1026
VPinsir-Mega
p1027
sVhiddenpowerpoison
p1028
VHidden Power Poison
p1029
sVflatter
p1030
VFlatter
p1031
sVtoxicspikes
p1032
VToxic Spikes
p1033
sVfirepledge
p1034
VFire Pledge
p1035
sVnoctowl
p1036
VNoctowl
p1037
sVcornnberry
p1038
VCornn Berry
p1039
sVskullfossil
p1040
VSkull Fossil
p1041
sVcheekpouch
p1042
VCheek Pouch
p1043
sVsilvallyflying
p1044
VSilvally-Flying
p1045
sVgoldberry
p1046
VGold Berry
p1047
sVrhyperior
p1048
VRhyperior
p1049
sVtynamo
p1050
VTynamo
p1051
sVholdhands
p1052
VHold Hands
p1053
sVrufflet
p1054
VRufflet
p1055
sVpsyshock
p1056
VPsyshock
p1057
sVicyrock
p1058
VIcy Rock
p1059
sVsoulheart
p1060
VSoul-Heart
p1061
sVtrevenant
p1062
VTrevenant
p1063
sVabsorbbulb
p1064
VAbsorb Bulb
p1065
sVbold
p1066
VBold
p1067
sVgunkshot
p1068
VGunk Shot
p1069
sVmagearna
p1070
VMagearna
p1071
sVsandygast
p1072
VSandygast
p1073
sVgarchomp
p1074
VGarchomp
p1075
sVgeodude
p1076
VGeodude
p1077
sVlightscreen
p1078
VLight Screen
p1079
sVwhimsicott
p1080
VWhimsicott
p1081
sVlavaplume
p1082
VLava Plume
p1083
sVkeeneye
p1084
VKeen Eye
p1085
sVsimipour
p1086
VSimipour
p1087
sVtrumbeak
p1088
VTrumbeak
p1089
sVautotomize
p1090
VAutotomize
p1091
sVspikecannon
p1092
VSpike Cannon
p1093
sVnecturna
p1094
VNecturna
p1095
sVplus
p1096
VPlus
p1097
sVnidoqueen
p1098
VNidoqueen
p1099
sVelectricsurge
p1100
VElectric Surge
p1101
sVpikachulibre
p1102
VPikachu-Libre
p1103
sVriolu
p1104
VRiolu
p1105
sVhornleech
p1106
VHorn Leech
p1107
sVbraixen
p1108
VBraixen
p1109
sVdarkvoid
p1110
VDark Void
p1111
sVsupersonicskystrike
p1112
VSupersonic Skystrike
p1113
sVhoundour
p1114
VHoundour
p1115
sVdualchop
p1116
VDual Chop
p1117
sVfoulplay
p1118
VFoul Play
p1119
sVscyther
p1120
VScyther
p1121
sVgalewings
p1122
VGale Wings
p1123
sVstormdrain
p1124
VStorm Drain
p1125
sVseadra
p1126
VSeadra
p1127
sVovergrow
p1128
VOvergrow
p1129
sVbonemerang
p1130
VBonemerang
p1131
sVbronzor
p1132
VBronzor
p1133
sVwrap
p1134
VWrap
p1135
sVterrainextender
p1136
VTerrain Extender
p1137
sVcorsola
p1138
VCorsola
p1139
sVtransform
p1140
VTransform
p1141
sVklefki
p1142
VKlefki
p1143
sVrowapberry
p1144
VRowap Berry
p1145
sVquirky
p1146
VQuirky
p1147
sVgarbodor
p1148
VGarbodor
p1149
sVsynthesis
p1150
VSynthesis
p1151
sVmultiscale
p1152
VMultiscale
p1153
sVgroundgem
p1154
VGround Gem
p1155
sVreshiram
p1156
VReshiram
p1157
sVwatergem
p1158
VWater Gem
p1159
sVrocksmash
p1160
VRock Smash
p1161
sVvolttackle
p1162
VVolt Tackle
p1163
sVghostgem
p1164
VGhost Gem
p1165
sVlitten
p1166
VLitten
p1167
sVroughskin
p1168
VRough Skin
p1169
sVsafeguard
p1170
VSafeguard
p1171
sVsmoothrock
p1172
VSmooth Rock
p1173
sVcosmog
p1174
VCosmog
p1175
sVgigaimpact
p1176
VGiga Impact
p1177
sVbide
p1178
VBide
p1179
sVaurabreak
p1180
VAura Break
p1181
sVaurorus
p1182
VAurorus
p1183
sVlightofruin
p1184
VLight of Ruin
p1185
sVstokedsparksurfer
p1186
VStoked Sparksurfer
p1187
sVdewpider
p1188
VDewpider
p1189
sVchopleberry
p1190
VChople Berry
p1191
sVunnerve
p1192
VUnnerve
p1193
sVparentalbond
p1194
VParental Bond
p1195
sVlunaliumz
p1196
VLunalium Z
p1197
sVferaligatr
p1198
VFeraligatr
p1199
sVelectirizer
p1200
VElectirizer
p1201
sVoddish
p1202
VOddish
p1203
sVleer
p1204
VLeer
p1205
sVmagby
p1206
VMagby
p1207
sVtypenull
p1208
VType: Null
p1209
sVswadloon
p1210
VSwadloon
p1211
sVvibrava
p1212
VVibrava
p1213
sVuxie
p1214
VUxie
p1215
sVsmoochum
p1216
VSmoochum
p1217
sVlansatberry
p1218
VLansat Berry
p1219
sVbutterfree
p1220
VButterfree
p1221
sVferroseed
p1222
VFerroseed
p1223
sVgoomy
p1224
VGoomy
p1225
sVamaura
p1226
VAmaura
p1227
sVfennekin
p1228
VFennekin
p1229
sVclawfossil
p1230
VClaw Fossil
p1231
sVdischarge
p1232
VDischarge
p1233
sVkyogre
p1234
VKyogre
p1235
sVstrengthsap
p1236
VStrength Sap
p1237
sVpoisonpoint
p1238
VPoison Point
p1239
sVhitmonlee
p1240
VHitmonlee
p1241
sVarceuspoison
p1242
VArceus-Poison
p1243
sVliechiberry
p1244
VLiechi Berry
p1245
sVlillipup
p1246
VLillipup
p1247
sVspectralthief
p1248
VSpectral Thief
p1249
sVflareboost
p1250
VFlare Boost
p1251
sVmummy
p1252
VMummy
p1253
sVoccaberry
p1254
VOcca Berry
p1255
sVironfist
p1256
VIron Fist
p1257
sVserious
p1258
VSerious
p1259
sVmegadrain
p1260
VMega Drain
p1261
sVsalacberry
p1262
VSalac Berry
p1263
sVstick
p1264
VStick
p1265
sVsnubbull
p1266
VSnubbull
p1267
sVsandveil
p1268
VSand Veil
p1269
sVabsolite
p1270
VAbsolite
p1271
sVbonsly
p1272
VBonsly
p1273
sVnecrozma
p1274
VNecrozma
p1275
sVcelebi
p1276
VCelebi
p1277
sVavalanche
p1278
VAvalanche
p1279
sVshadowsneak
p1280
VShadow Sneak
p1281
sVsuctioncups
p1282
VSuction Cups
p1283
sVwaterbubble
p1284
VWater Bubble
p1285
sVsuperpower
p1286
VSuperpower
p1287
sVvenusaurmega
p1288
VVenusaur-Mega
p1289
sVpanpour
p1290
VPanpour
p1291
sVdragonpulse
p1292
VDragon Pulse
p1293
sVelectroball
p1294
VElectro Ball
p1295
sVflash
p1296
VFlash
p1297
sVnetball
p1298
VNet Ball
p1299
sVcharge
p1300
VCharge
p1301
sVquash
p1302
VQuash
p1303
sVsnorlax
p1304
VSnorlax
p1305
sVblackholeeclipse
p1306
VBlack Hole Eclipse
p1307
sVunburden
p1308
VUnburden
p1309
sVcrosschop
p1310
VCross Chop
p1311
sVmachamp
p1312
VMachamp
p1313
sVkricketune
p1314
VKricketune
p1315
sVtailslap
p1316
VTail Slap
p1317
sVjynx
p1318
VJynx
p1319
sVlopunny
p1320
VLopunny
p1321
sVtwistedspoon
p1322
VTwisted Spoon
p1323
sVtoucannon
p1324
VToucannon
p1325
sVpikachualola
p1326
VPikachu-Alola
p1327
sVsplinteredstormshards
p1328
VSplintered Stormshards
p1329
sVskyuppercut
p1330
VSky Uppercut
p1331
sV10000000voltthunderbolt
p1332
V10,000,000 Volt Thunderbolt
p1333
sVguzzlord
p1334
VGuzzlord
p1335
sVpoisonsting
p1336
VPoison Sting
p1337
sVarceusfire
p1338
VArceus-Fire
p1339
sVfocusblast
p1340
VFocus Blast
p1341
sVmesprit
p1342
VMesprit
p1343
sVmagnet
p1344
VMagnet
p1345
sVbanettemega
p1346
VBanette-Mega
p1347
sVround
p1348
VRound
p1349
sVunaware
p1350
VUnaware
p1351
sVduskball
p1352
VDusk Ball
p1353
sVfalseswipe
p1354
VFalse Swipe
p1355
sVtalonflame
p1356
VTalonflame
p1357
sVleafeon
p1358
VLeafeon
p1359
sVpokestarufopropu2
p1360
VPokestar UFO-PropU2
p1361
sVminior
p1362
VMinior
p1363
sVzorua
p1364
VZorua
p1365
sVfairymemory
p1366
VFairy Memory
p1367
sVvitalthrow
p1368
VVital Throw
p1369
sVsubstitute
p1370
VSubstitute
p1371
sVcurse
p1372
VCurse
p1373
sVfocusband
p1374
VFocus Band
p1375
sVmoltres
p1376
VMoltres
p1377
sVpasshoberry
p1378
VPassho Berry
p1379
sVtanglinghair
p1380
VTangling Hair
p1381
sVdragondance
p1382
VDragon Dance
p1383
sVaxew
p1384
VAxew
p1385
sVgolemalola
p1386
VGolem-Alola
p1387
sVkecleon
p1388
VKecleon
p1389
sVglameow
p1390
VGlameow
p1391
sVaeroblast
p1392
VAeroblast
p1393
sVwartortle
p1394
VWartortle
p1395
sVexplosion
p1396
VExplosion
p1397
sVmiracleeye
p1398
VMiracle Eye
p1399
sVpumpkaboo
p1400
VPumpkaboo
p1401
sVsimisear
p1402
VSimisear
p1403
sVhoopa
p1404
VHoopa
p1405
sVtropius
p1406
VTropius
p1407
sVgroundmemory
p1408
VGround Memory
p1409
sVmysticwater
p1410
VMystic Water
p1411
sVearthquake
p1412
VEarthquake
p1413
sVgastroacid
p1414
VGastro Acid
p1415
sVejectbutton
p1416
VEject Button
p1417
sVbeedrillmega
p1418
VBeedrill-Mega
p1419
sVexploud
p1420
VExploud
p1421
sVaraquanidtotem
p1422
VAraquanid-Totem
p1423
sVdiveball
p1424
VDive Ball
p1425
sVsawk
p1426
VSawk
p1427
sVodorsleuth
p1428
VOdor Sleuth
p1429
sVtopsyturvy
p1430
VTopsy-Turvy
p1431
sVdedenne
p1432
VDedenne
p1433
sVbrickbreak
p1434
VBrick Break
p1435
sVbagon
p1436
VBagon
p1437
sVregenerator
p1438
VRegenerator
p1439
sViondeluge
p1440
VIon Deluge
p1441
sVlarvesta
p1442
VLarvesta
p1443
sVmudslap
p1444
VMud-Slap
p1445
sVflaaffy
p1446
VFlaaffy
p1447
sVmagicroom
p1448
VMagic Room
p1449
sVampharosite
p1450
VAmpharosite
p1451
sVdesolateland
p1452
VDesolate Land
p1453
sVpinsirite
p1454
VPinsirite
p1455
sVheavyslam
p1456
VHeavy Slam
p1457
sVpinmissile
p1458
VPin Missile
p1459
sVkyogreprimal
p1460
VKyogre-Primal
p1461
sVbanefulbunker
p1462
VBaneful Bunker
p1463
sVcaptivate
p1464
VCaptivate
p1465
sVflamecharge
p1466
VFlame Charge
p1467
sVswagger
p1468
VSwagger
p1469
sVxatu
p1470
VXatu
p1471
sVrockslide
p1472
VRock Slide
p1473
sVcaterpie
p1474
VCaterpie
p1475
sVhypno
p1476
VHypno
p1477
sVscratchet
p1478
VScratchet
p1479
sVblazekick
p1480
VBlaze Kick
p1481
sVfletchling
p1482
VFletchling
p1483
sVseismictoss
p1484
VSeismic Toss
p1485
sVdarumaka
p1486
VDarumaka
p1487
sVuturn
p1488
VU-turn
p1489
sVflygon
p1490
VFlygon
p1491
sVsandstorm
p1492
VSandstorm
p1493
sVswampertite
p1494
VSwampertite
p1495
sVswablu
p1496
VSwablu
p1497
sVcatastropika
p1498
VCatastropika
p1499
sVspikyshield
p1500
VSpiky Shield
p1501
sVscolipede
p1502
VScolipede
p1503
sVdwebble
p1504
VDwebble
p1505
sVpignite
p1506
VPignite
p1507
sVsolarpower
p1508
VSolar Power
p1509
sVvespiquen
p1510
VVespiquen
p1511
sVpalpitoad
p1512
VPalpitoad
p1513
sVchilldrive
p1514
VChill Drive
p1515
sVnormalize
p1516
VNormalize
p1517
sVbanette
p1518
VBanette
p1519
sVtearfullook
p1520
VTearful Look
p1521
sVtailwind
p1522
VTailwind
p1523
sVdianciemega
p1524
VDiancie-Mega
p1525
sVwideguard
p1526
VWide Guard
p1527
sVwikiberry
p1528
VWiki Berry
p1529
sVsandforce
p1530
VSand Force
p1531
sVdarkestlariat
p1532
VDarkest Lariat
p1533
sVpowerbelt
p1534
VPower Belt
p1535
sVelectricterrain
p1536
VElectric Terrain
p1537
sVoctillery
p1538
VOctillery
p1539
sVselfdestruct
p1540
VSelf-Destruct
p1541
sVteleport
p1542
VTeleport
p1543
sVdive
p1544
VDive
p1545
sVmamoswine
p1546
VMamoswine
p1547
sVdarkmemory
p1548
VDark Memory
p1549
sVwiseglasses
p1550
VWise Glasses
p1551
sVmilkdrink
p1552
VMilk Drink
p1553
sVpowerwhip
p1554
VPower Whip
p1555
sVancientpower
p1556
VAncient Power
p1557
sVletssnuggleforever
p1558
VLet's Snuggle Forever
p1559
sVcryogonal
p1560
VCryogonal
p1561
sVsupersonic
p1562
VSupersonic
p1563
sVpsychicfangs
p1564
VPsychic Fangs
p1565
sVdelibird
p1566
VDelibird
p1567
sVsapsipper
p1568
VSap Sipper
p1569
sVmalamar
p1570
VMalamar
p1571
sVpurify
p1572
VPurify
p1573
sVarceusghost
p1574
VArceus-Ghost
p1575
sVflamebody
p1576
VFlame Body
p1577
sVlitwick
p1578
VLitwick
p1579
sVslowbronite
p1580
VSlowbronite
p1581
sVthunderpunch
p1582
VThunder Punch
p1583
sVlugia
p1584
VLugia
p1585
sVbulletseed
p1586
VBullet Seed
p1587
sVbubblebeam
p1588
VBubble Beam
p1589
sVpachirisu
p1590
VPachirisu
p1591
sVpoipole
p1592
VPoipole
p1593
sVtoxicthread
p1594
VToxic Thread
p1595
sVarcanine
p1596
VArcanine
p1597
sVsneasel
p1598
VSneasel
p1599
sVgrassknot
p1600
VGrass Knot
p1601
sVauroraveil
p1602
VAurora Veil
p1603
sVklutz
p1604
VKlutz
p1605
sVpokestarspirit
p1606
VPokestar Spirit
p1607
sVbulldoze
p1608
VBulldoze
p1609
sVfocusenergy
p1610
VFocus Energy
p1611
sVslackoff
p1612
VSlack Off
p1613
sVmimikyutotem
p1614
VMimikyu-Totem
p1615
sVprimordialsea
p1616
VPrimordial Sea
p1617
sVsnugglow
p1618
VSnugglow
p1619
sVkabuto
p1620
VKabuto
p1621
sVmail
p1622
VMail
p1623
sVfuryswipes
p1624
VFury Swipes
p1625
sVlonely
p1626
VLonely
p1627
sVfling
p1628
VFling
p1629
sVrattled
p1630
VRattled
p1631
sVinsomnia
p1632
VInsomnia
p1633
sVwatermemory
p1634
VWater Memory
p1635
sVfusionflare
p1636
VFusion Flare
p1637
sVsafariball
p1638
VSafari Ball
p1639
sVeffectspore
p1640
VEffect Spore
p1641
sVboomburst
p1642
VBoomburst
p1643
sVlinoone
p1644
VLinoone
p1645
sVparkball
p1646
VPark Ball
p1647
sVpowerconstruct
p1648
VPower Construct
p1649
sVsynchronize
p1650
VSynchronize
p1651
sVsilvallyghost
p1652
VSilvally-Ghost
p1653
sVmantine
p1654
VMantine
p1655
sVglalie
p1656
VGlalie
p1657
sVpsyduck
p1658
VPsyduck
p1659
sVmentalherb
p1660
VMental Herb
p1661
sVswalot
p1662
VSwalot
p1663
sVgenesectburn
p1664
VGenesect-Burn
p1665
sVporygonz
p1666
VPorygon-Z
p1667
sVstrugglebug
p1668
VStruggle Bug
p1669
sVpersian
p1670
VPersian
p1671
sVcorkscrewcrash
p1672
VCorkscrew Crash
p1673
sVsilvallybug
p1674
VSilvally-Bug
p1675
sVsinisterarrowraid
p1676
VSinister Arrow Raid
p1677
sVsandslashalola
p1678
VSandslash-Alola
p1679
sVlycanroc
p1680
VLycanroc
p1681
sVshaymin
p1682
VShaymin
p1683
sVpidove
p1684
VPidove
p1685
sVrockiumz
p1686
VRockium Z
p1687
sVskillswap
p1688
VSkill Swap
p1689
sVtorracat
p1690
VTorracat
p1691
sVassurance
p1692
VAssurance
p1693
sVpoochyena
p1694
VPoochyena
p1695
sVpokestarblackdoor
p1696
VPokestar Black Door
p1697
sVporygon2
p1698
VPorygon2
p1699
sViciclecrash
p1700
VIcicle Crash
p1701
sVpokestarmt2
p1702
VPokestar MT2
p1703
sVbitterberry
p1704
VBitter Berry
p1705
sVpetilil
p1706
VPetilil
p1707
sVtelepathy
p1708
VTelepathy
p1709
sVnidorino
p1710
VNidorino
p1711
sVmeloettapirouette
p1712
VMeloetta-Pirouette
p1713
sVnidorina
p1714
VNidorina
p1715
sVhypnosis
p1716
VHypnosis
p1717
sVdurinberry
p1718
VDurin Berry
p1719
sVdragonrage
p1720
VDragon Rage
p1721
sVjolteon
p1722
VJolteon
p1723
sVdefensecurl
p1724
VDefense Curl
p1725
sVnecturine
p1726
VNecturine
p1727
sVrocktomb
p1728
VRock Tomb
p1729
sVchikorita
p1730
VChikorita
p1731
sVrockyhelmet
p1732
VRocky Helmet
p1733
sVspewpa
p1734
VSpewpa
p1735
sVjabocaberry
p1736
VJaboca Berry
p1737
sVhoppip
p1738
VHoppip
p1739
sVpalossand
p1740
VPalossand
p1741
sViceshard
p1742
VIce Shard
p1743
sVgiratina
p1744
VGiratina
p1745
sVteravolt
p1746
VTeravolt
p1747
sVbite
p1748
VBite
p1749
sVduosion
p1750
VDuosion
p1751
sVaromatherapy
p1752
VAromatherapy
p1753
sVsleeptalk
p1754
VSleep Talk
p1755
sVconfuseray
p1756
VConfuse Ray
p1757
sVgliscor
p1758
VGliscor
p1759
sVseedot
p1760
VSeedot
p1761
sVsnatch
p1762
VSnatch
p1763
sVbunnelby
p1764
VBunnelby
p1765
sVdrapion
p1766
VDrapion
p1767
sVpeck
p1768
VPeck
p1769
sVghostmemory
p1770
VGhost Memory
p1771
sVmawilite
p1772
VMawilite
p1773
sVsalazzletotem
p1774
VSalazzle-Totem
p1775
sVdefendorder
p1776
VDefend Order
p1777
sVquickattack
p1778
VQuick Attack
p1779
sVtrickortreat
p1780
VTrick-or-Treat
p1781
sVcubone
p1782
VCubone
p1783
sVhiddenpowerrock
p1784
VHidden Power Rock
p1785
sVrazzberry
p1786
VRazz Berry
p1787
sVlick
p1788
VLick
p1789
sVpluffle
p1790
VPluffle
p1791
sVsilvallyrock
p1792
VSilvally-Rock
p1793
sVslam
p1794
VSlam
p1795
sVsandstream
p1796
VSand Stream
p1797
sVledyba
p1798
VLedyba
p1799
sVaquatail
p1800
VAqua Tail
p1801
sVcharmander
p1802
VCharmander
p1803
sVkrilowatt
p1804
VKrilowatt
p1805
sVrecover
p1806
VRecover
p1807
sVflyingmemory
p1808
VFlying Memory
p1809
sVconversion
p1810
VConversion
p1811
sVtwineedle
p1812
VTwineedle
p1813
sVhiddenpowerdark
p1814
VHidden Power Dark
p1815
sVmetalsound
p1816
VMetal Sound
p1817
sVarghonaut
p1818
VArghonaut
p1819
sVbeedrill
p1820
VBeedrill
p1821
sVsurf
p1822
VSurf
p1823
sVgriseousorb
p1824
VGriseous Orb
p1825
sVneverendingnightmare
p1826
VNever-Ending Nightmare
p1827
sVmountaineer
p1828
VMountaineer
p1829
sVstunky
p1830
VStunky
p1831
sVtrace
p1832
VTrace
p1833
sVgeargrind
p1834
VGear Grind
p1835
sVdarkrai
p1836
VDarkrai
p1837
sVbarrage
p1838
VBarrage
p1839
sViceburn
p1840
VIce Burn
p1841
sVgengarmega
p1842
VGengar-Mega
p1843
sVultranecroziumz
p1844
VUltranecrozium Z
p1845
sVstunfisk
p1846
VStunfisk
p1847
sVadaptability
p1848
VAdaptability
p1849
sVespurr
p1850
VEspurr
p1851
sVleaftornado
p1852
VLeaf Tornado
p1853
sVhyperfang
p1854
VHyper Fang
p1855
sVdracoplate
p1856
VDraco Plate
p1857
sVhyperspacefury
p1858
VHyperspace Fury
p1859
sVpokestarbrycenman
p1860
VPokestar Brycen-Man
p1861
sVmollux
p1862
VMollux
p1863
sVmuddywater
p1864
VMuddy Water
p1865
sVcompoundeyes
p1866
VCompound Eyes
p1867
sVdelphox
p1868
VDelphox
p1869
sVbrattler
p1870
VBrattler
p1871
sVhakamoo
p1872
VHakamo-o
p1873
sVtintedlens
p1874
VTinted Lens
p1875
sVgolurk
p1876
VGolurk
p1877
sVfigyberry
p1878
VFigy Berry
p1879
sVgoodra
p1880
VGoodra
p1881
sVrevenankh
p1882
VRevenankh
p1883
sVvolbeat
p1884
VVolbeat
p1885
sVpulverizingpancake
p1886
VPulverizing Pancake
p1887
sVemergencyexit
p1888
VEmergency Exit
p1889
sVburndrive
p1890
VBurn Drive
p1891
sVthunderwave
p1892
VThunder Wave
p1893
sVpatrat
p1894
VPatrat
p1895
sVacupressure
p1896
VAcupressure
p1897
sVanalytic
p1898
VAnalytic
p1899
sVsilvallysteel
p1900
VSilvally-Steel
p1901
sVgrasspledge
p1902
VGrass Pledge
p1903
sVoutrage
p1904
VOutrage
p1905
sVleavanny
p1906
VLeavanny
p1907
sVlycanrocmidnight
p1908
VLycanroc-Midnight
p1909
sVkinesis
p1910
VKinesis
p1911
sVweaknesspolicy
p1912
VWeakness Policy
p1913
sVstomp
p1914
VStomp
p1915
sVpersianalola
p1916
VPersian-Alola
p1917
sVmimikiumz
p1918
VMimikium Z
p1919
sVboneclub
p1920
VBone Club
p1921
sVtelekinesis
p1922
VTelekinesis
p1923
sVmoxie
p1924
VMoxie
p1925
sVcelebrate
p1926
VCelebrate
p1927
sVabsolmega
p1928
VAbsol-Mega
p1929
sValtariamega
p1930
VAltaria-Mega
p1931
sVzeraora
p1932
VZeraora
p1933
sVaron
p1934
VAron
p1935
sVlatiasite
p1936
VLatiasite
p1937
sVcrucibelle
p1938
VCrucibelle
p1939
sVwonderskin
p1940
VWonder Skin
p1941
sVfakeout
p1942
VFake Out
p1943
sVimposter
p1944
VImposter
p1945
sVspore
p1946
VSpore
p1947
sVnecrozmaultra
p1948
VNecrozma-Ultra
p1949
sVkommoniumz
p1950
VKommonium Z
p1951
sVquagsire
p1952
VQuagsire
p1953
sVdetect
p1954
VDetect
p1955
sVsteadfast
p1956
VSteadfast
p1957
sVlimber
p1958
VLimber
p1959
sVbatonpass
p1960
VBaton Pass
p1961
sVbeakblast
p1962
VBeak Blast
p1963
sVforecast
p1964
VForecast
p1965
sVmysticalfire
p1966
VMystical Fire
p1967
sVsnowwarning
p1968
VSnow Warning
p1969
sVjustified
p1970
VJustified
p1971
sVghostiumz
p1972
VGhostium Z
p1973
sVdamprock
p1974
VDamp Rock
p1975
sVhariyama
p1976
VHariyama
p1977
sVcrawdaunt
p1978
VCrawdaunt
p1979
sVpluck
p1980
VPluck
p1981
sVspark
p1982
VSpark
p1983
sVxerneas
p1984
VXerneas
p1985
sVspiderweb
p1986
VSpider Web
p1987
sVscatterbug
p1988
VScatterbug
p1989
sVvictreebel
p1990
VVictreebel
p1991
sVdestinyknot
p1992
VDestiny Knot
p1993
sVluminousmoss
p1994
VLuminous Moss
p1995
sVrhyhorn
p1996
VRhyhorn
p1997
sVsteelix
p1998
VSteelix
p1999
sVnestball
p2000
VNest Ball
p2001
sVkrookodile
p2002
VKrookodile
p2003
sVcellbattery
p2004
VCell Battery
p2005
sVpheromosa
p2006
VPheromosa
p2007
sVwingattack
p2008
VWing Attack
p2009
sVnormalgem
p2010
VNormal Gem
p2011
sVsmartstrike
p2012
VSmart Strike
p2013
sVhiddenpowersteel
p2014
VHidden Power Steel
p2015
sVtyranitarite
p2016
VTyranitarite
p2017
sVdodrio
p2018
VDodrio
p2019
sVtapubulu
p2020
VTapu Bulu
p2021
sVstancechange
p2022
VStance Change
p2023
sVzapdos
p2024
VZapdos
p2025
sVendeavor
p2026
VEndeavor
p2027
sVfuryattack
p2028
VFury Attack
p2029
sVrunaway
p2030
VRun Away
p2031
sVlandswrath
p2032
VLand's Wrath
p2033
sVmawilemega
p2034
VMawile-Mega
p2035
sVholdback
p2036
VHold Back
p2037
sVlightmetal
p2038
VLight Metal
p2039
sVburntberry
p2040
VBurnt Berry
p2041
sVstunspore
p2042
VStun Spore
p2043
sVroseincense
p2044
VRose Incense
p2045
sVgigalith
p2046
VGigalith
p2047
sVspoink
p2048
VSpoink
p2049
sVpechaberry
p2050
VPecha Berry
p2051
sVheatrock
p2052
VHeat Rock
p2053
sVlopunnymega
p2054
VLopunny-Mega
p2055
sVrockruff
p2056
VRockruff
p2057
sVhelioptile
p2058
VHelioptile
p2059
sVcresselia
p2060
VCresselia
p2061
sVbrutalswing
p2062
VBrutal Swing
p2063
sVomanyte
p2064
VOmanyte
p2065
sVbreloom
p2066
VBreloom
p2067
sVtangela
p2068
VTangela
p2069
sVhealblock
p2070
VHeal Block
p2071
sVswanna
p2072
VSwanna
p2073
sVskiddo
p2074
VSkiddo
p2075
sVcareful
p2076
VCareful
p2077
sVmudshot
p2078
VMud Shot
p2079
sVclangoroussoulblaze
p2080
VClangorous Soulblaze
p2081
sVsteelworker
p2082
VSteelworker
p2083
sVdefeatist
p2084
VDefeatist
p2085
sVbugmemory
p2086
VBug Memory
p2087
sVshockwave
p2088
VShock Wave
p2089
sVlandorus
p2090
VLandorus
p2091
sVgroudon
p2092
VGroudon
p2093
sVspotlight
p2094
VSpotlight
p2095
sVvivillonpokeball
p2096
VVivillon-Pokeball
p2097
sVquiet
p2098
VQuiet
p2099
sVgrasswhistle
p2100
VGrass Whistle
p2101
sVenergypowder
p2102
VEnergy Powder
p2103
sVsacredfire
p2104
VSacred Fire
p2105
sVstaryu
p2106
VStaryu
p2107
sVvicegrip
p2108
VVice Grip
p2109
sVgourgeistlarge
p2110
VGourgeist-Large
p2111
sVcubchoo
p2112
VCubchoo
p2113
sVprimariumz
p2114
VPrimarium Z
p2115
sVhiddenpowerice
p2116
VHidden Power Ice
p2117
sVextremespeed
p2118
VExtreme Speed
p2119
sVangerpoint
p2120
VAnger Point
p2121
sVphantomforce
p2122
VPhantom Force
p2123
sVstrongjaw
p2124
VStrong Jaw
p2125
sVbrionne
p2126
VBrionne
p2127
sVberry
p2128
VBerry
p2129
sVnuzzle
p2130
VNuzzle
p2131
sVmistysurge
p2132
VMisty Surge
p2133
sVgenesectshock
p2134
VGenesect-Shock
p2135
sVmagnetbomb
p2136
VMagnet Bomb
p2137
sVassist
p2138
VAssist
p2139
sVblaziken
p2140
VBlaziken
p2141
sVbulletproof
p2142
VBulletproof
p2143
sVgligar
p2144
VGligar
p2145
sVnightmare
p2146
VNightmare
p2147
sVrockhead
p2148
VRock Head
p2149
sVhypervoice
p2150
VHyper Voice
p2151
sVminimize
p2152
VMinimize
p2153
sVdoublehit
p2154
VDouble Hit
p2155
sVmedicham
p2156
VMedicham
p2157
sVpoliwhirl
p2158
VPoliwhirl
p2159
sVmasterball
p2160
VMaster Ball
p2161
sVdrampa
p2162
VDrampa
p2163
sVrazorwind
p2164
VRazor Wind
p2165
sVfurcoat
p2166
VFur Coat
p2167
sVhealingwish
p2168
VHealing Wish
p2169
sVquickguard
p2170
VQuick Guard
p2171
sVpowerband
p2172
VPower Band
p2173
sVwingull
p2174
VWingull
p2175
sVsnorliumz
p2176
VSnorlium Z
p2177
sVclefable
p2178
VClefable
p2179
sVdarkaura
p2180
VDark Aura
p2181
sVrazorclaw
p2182
VRazor Claw
p2183
sVdragonbreath
p2184
VDragon Breath
p2185
sVsearingsunrazesmash
p2186
VSearing Sunraze Smash
p2187
sVelgyem
p2188
VElgyem
p2189
sVganlonberry
p2190
VGanlon Berry
p2191
sVduskull
p2192
VDuskull
p2193
sVcometpunch
p2194
VComet Punch
p2195
sVnaturesmadness
p2196
VNature's Madness
p2197
sVaerialace
p2198
VAerial Ace
p2199
sVparas
p2200
VParas
p2201
sVrayquazamega
p2202
VRayquaza-Mega
p2203
sVflareblitz
p2204
VFlare Blitz
p2205
sVxurkitree
p2206
VXurkitree
p2207
sVtrubbish
p2208
VTrubbish
p2209
sVsnarl
p2210
VSnarl
p2211
sVmachpunch
p2212
VMach Punch
p2213
sVvolkraken
p2214
VVolkraken
p2215
sVsunkern
p2216
VSunkern
p2217
sVbreakneckblitz
p2218
VBreakneck Blitz
p2219
sVcolossoil
p2220
VColossoil
p2221
sVdreamball
p2222
VDream Ball
p2223
sVsnore
p2224
VSnore
p2225
sVfloatstone
p2226
VFloat Stone
p2227
sVskiploom
p2228
VSkiploom
p2229
sVregigigas
p2230
VRegigigas
p2231
sVzingzap
p2232
VZing Zap
p2233
sVvoltswitch
p2234
VVolt Switch
p2235
sVarceusrock
p2236
VArceus-Rock
p2237
sVbrightpowder
p2238
VBrightPowder
p2239
sVhypercutter
p2240
VHyper Cutter
p2241
sVvanillite
p2242
VVanillite
p2243
sVchoiceband
p2244
VChoice Band
p2245
sVheartswap
p2246
VHeart Swap
p2247
sVsubzeroslammer
p2248
VSubzero Slammer
p2249
sVpinapberry
p2250
VPinap Berry
p2251
sVminccino
p2252
VMinccino
p2253
sVrefresh
p2254
VRefresh
p2255
sVprinplup
p2256
VPrinplup
p2257
sVaudinomega
p2258
VAudino-Mega
p2259
sVultraball
p2260
VUltra Ball
p2261
sVcrustle
p2262
VCrustle
p2263
sVpowergem
p2264
VPower Gem
p2265
sVechoedvoice
p2266
VEchoed Voice
p2267
sVbattlearmor
p2268
VBattle Armor
p2269
sVvolcanion
p2270
VVolcanion
p2271
sVcastformsnowy
p2272
VCastform-Snowy
p2273
sVraticatealolatotem
p2274
VRaticate-Alola-Totem
p2275
sVhustle
p2276
VHustle
p2277
sVthroh
p2278
VThroh
p2279
sVmusharna
p2280
VMusharna
p2281
sVinnerfocus
p2282
VInner Focus
p2283
sVbasculinbluestriped
p2284
VBasculin-Blue-Striped
p2285
sVdragonhammer
p2286
VDragon Hammer
p2287
sVhornattack
p2288
VHorn Attack
p2289
sVcomfey
p2290
VComfey
p2291
sVzapcannon
p2292
VZap Cannon
p2293
sVroar
p2294
VRoar
p2295
sVlockon
p2296
VLock-On
p2297
sVfloette
p2298
VFloette
p2299
sVgengar
p2300
VGengar
p2301
sVroserade
p2302
VRoserade
p2303
sVpokestarf00
p2304
VPokestar F-00
p2305
sVquilava
p2306
VQuilava
p2307
sVcustapberry
p2308
VCustap Berry
p2309
sVsearingshot
p2310
VSearing Shot
p2311
sVstratagem
p2312
VStratagem
p2313
sVpyroar
p2314
VPyroar
p2315
sVminiormeteor
p2316
VMinior-Meteor
p2317
sVshadowpunch
p2318
VShadow Punch
p2319
sVfocuspunch
p2320
VFocus Punch
p2321
sVdazzling
p2322
VDazzling
p2323
sVtoughclaws
p2324
VTough Claws
p2325
sVstruggle
p2326
VStruggle
p2327
sViciclespear
p2328
VIcicle Spear
p2329
sVpyroak
p2330
VPyroak
p2331
sVsolosis
p2332
VSolosis
p2333
sVsurgesurfer
p2334
VSurge Surfer
p2335
sVhex
p2336
VHex
p2337
sVmarill
p2338
VMarill
p2339
sVquickfeet
p2340
VQuick Feet
p2341
sVsymbiosis
p2342
VSymbiosis
p2343
sVgalvanize
p2344
VGalvanize
p2345
sVwillowisp
p2346
VWill-O-Wisp
p2347
sVbubble
p2348
VBubble
p2349
sVfastball
p2350
VFast Ball
p2351
sVglaciate
p2352
VGlaciate
p2353
sVnightshade
p2354
VNight Shade
p2355
sVfrogadier
p2356
VFrogadier
p2357
sVporygon
p2358
VPorygon
p2359
sVstantler
p2360
VStantler
p2361
sVvitalspirit
p2362
VVital Spirit
p2363
sVcrabominable
p2364
VCrabominable
p2365
sVrage
p2366
VRage
p2367
sVvictorystar
p2368
VVictory Star
p2369
sVvinewhip
p2370
VVine Whip
p2371
sVstoneplate
p2372
VStone Plate
p2373
sVember
p2374
VEmber
p2375
sVsplashplate
p2376
VSplash Plate
p2377
sVpowdersnow
p2378
VPowder Snow
p2379
sVclamperl
p2380
VClamperl
p2381
sVchesnaught
p2382
VChesnaught
p2383
sVgrepaberry
p2384
VGrepa Berry
p2385
sVrhydon
p2386
VRhydon
p2387
sVsmokescreen
p2388
VSmokescreen
p2389
sVmoonblast
p2390
VMoonblast
p2391
sVcolburberry
p2392
VColbur Berry
p2393
sVsilvallydragon
p2394
VSilvally-Dragon
p2395
sVhydrovortex
p2396
VHydro Vortex
p2397
sVsoulstealing7starstrike
p2398
VSoul-Stealing 7-Star Strike
p2399
sVimmunity
p2400
VImmunity
p2401
sVstormthrow
p2402
VStorm Throw
p2403
sVcharizard
p2404
VCharizard
p2405
sVgolem
p2406
VGolem
p2407
sVstompingtantrum
p2408
VStomping Tantrum
p2409
sVmirrorcoat
p2410
VMirror Coat
p2411
sVemboar
p2412
VEmboar
p2413
sVdustox
p2414
VDustox
p2415
sVrootfossil
p2416
VRoot Fossil
p2417
sVmysteryberry
p2418
VMystery Berry
p2419
sVtackle
p2420
VTackle
p2421
sVpopplio
p2422
VPopplio
p2423
sVrotomwash
p2424
VRotom-Wash
p2425
sVgrudge
p2426
VGrudge
p2427
sVcyndaquil
p2428
VCyndaquil
p2429
sVblueflare
p2430
VBlue Flare
p2431
sVdefog
p2432
VDefog
p2433
sVraindance
p2434
VRain Dance
p2435
sVskyattack
p2436
VSky Attack
p2437
sVmoonlight
p2438
VMoonlight
p2439
sVmimic
p2440
VMimic
p2441
sVstockpile
p2442
VStockpile
p2443
sVoddincense
p2444
VOdd Incense
p2445
sVgardevoirmega
p2446
VGardevoir-Mega
p2447
sVlairon
p2448
VLairon
p2449
sVeerieimpulse
p2450
VEerie Impulse
p2451
sVscrappy
p2452
VScrappy
p2453
sVtogetic
p2454
VTogetic
p2455
sVfirepunch
p2456
VFire Punch
p2457
sVunfezant
p2458
VUnfezant
p2459
sVmicleberry
p2460
VMicle Berry
p2461
sVsalandit
p2462
VSalandit
p2463
sVlightningrod
p2464
VLightning Rod
p2465
sVgigadrain
p2466
VGiga Drain
p2467
sVtornadustherian
p2468
VTornadus-Therian
p2469
sVvanillish
p2470
VVanillish
p2471
sVsheerforce
p2472
VSheer Force
p2473
sVbayleef
p2474
VBayleef
p2475
sVhondewberry
p2476
VHondew Berry
p2477
sVbloomdoom
p2478
VBloom Doom
p2479
sVtympole
p2480
VTympole
p2481
sVwigglytuff
p2482
VWigglytuff
p2483
sVtyranitarmega
p2484
VTyranitar-Mega
p2485
sVicepunch
p2486
VIce Punch
p2487
sVgalvantula
p2488
VGalvantula
p2489
sVcombusken
p2490
VCombusken
p2491
sVcloudnine
p2492
VCloud Nine
p2493
sVmienshao
p2494
VMienshao
p2495
sVkeeberry
p2496
VKee Berry
p2497
sVsteameruption
p2498
VSteam Eruption
p2499
sVscrafty
p2500
VScrafty
p2501
sVsecretpower
p2502
VSecret Power
p2503
sVmild
p2504
VMild
p2505
sVsawsbuck
p2506
VSawsbuck
p2507
sVdoublekick
p2508
VDouble Kick
p2509
sViceball
p2510
VIce Ball
p2511
sVflorges
p2512
VFlorges
p2513
sVgourgeistsuper
p2514
VGourgeist-Super
p2515
sVironbarbs
p2516
VIron Barbs
p2517
sValtaria
p2518
VAltaria
p2519
sVcrushgrip
p2520
VCrush Grip
p2521
sVcottonguard
p2522
VCotton Guard
p2523
sVmeganium
p2524
VMeganium
p2525
sVchipaway
p2526
VChip Away
p2527
sVmetalclaw
p2528
VMetal Claw
p2529
sVfeatherdance
p2530
VFeather Dance
p2531
sVtrick
p2532
VTrick
p2533
sVironplate
p2534
VIron Plate
p2535
sVgreatball
p2536
VGreat Ball
p2537
sVcawdet
p2538
VCawdet
p2539
sVwateriumz
p2540
VWaterium Z
p2541
sVfightiniumz
p2542
VFightinium Z
p2543
sVheartstamp
p2544
VHeart Stamp
p2545
sVboldore
p2546
VBoldore
p2547
sVchoicescarf
p2548
VChoice Scarf
p2549
sVmoongeistbeam
p2550
VMoongeist Beam
p2551
sVgastly
p2552
VGastly
p2553
sVrevenge
p2554
VRevenge
p2555
sVclearsmog
p2556
VClear Smog
p2557
sVsteenee
p2558
VSteenee
p2559
sVanticipation
p2560
VAnticipation
p2561
sVinfernape
p2562
VInfernape
p2563
sVdecidiumz
p2564
VDecidium Z
p2565
sVaromatisse
p2566
VAromatisse
p2567
sVbattlebond
p2568
VBattle Bond
p2569
sVkyuremwhite
p2570
VKyurem-White
p2571
sVbestow
p2572
VBestow
p2573
sVacidspray
p2574
VAcid Spray
p2575
sViciumz
p2576
VIcium Z
p2577
sVkyurem
p2578
VKyurem
p2579
sVwringout
p2580
VWring Out
p2581
sVstarly
p2582
VStarly
p2583
sVsweetveil
p2584
VSweet Veil
p2585
sVgolett
p2586
VGolett
p2587
sVinciniumz
p2588
VIncinium Z
p2589
sVgyaradosmega
p2590
VGyarados-Mega
p2591
sVgallade
p2592
VGallade
p2593
sVoranguru
p2594
VOranguru
p2595
sVledian
p2596
VLedian
p2597
sVcutiefly
p2598
VCutiefly
p2599
sVnormaliumz
p2600
VNormalium Z
p2601
sVelectricseed
p2602
VElectric Seed
p2603
sVluvdisc
p2604
VLuvdisc
p2605
sVhelixfossil
p2606
VHelix Fossil
p2607
sVsavagespinout
p2608
VSavage Spin-Out
p2609
sVsplash
p2610
VSplash
p2611
sVillumise
p2612
VIllumise
p2613
sVhonedge
p2614
VHonedge
p2615
sVanorith
p2616
VAnorith
p2617
sVfairiumz
p2618
VFairium Z
p2619
sVdizzypunch
p2620
VDizzy Punch
p2621
sVflyingpress
p2622
VFlying Press
p2623
sVbounsweet
p2624
VBounsweet
p2625
sVpumpkaboosuper
p2626
VPumpkaboo-Super
p2627
sVpyukumuku
p2628
VPyukumuku
p2629
sVhorsea
p2630
VHorsea
p2631
sVpolkadotbow
p2632
VPolkadot Bow
p2633
sVrazorfang
p2634
VRazor Fang
p2635
sVchilanberry
p2636
VChilan Berry
p2637
sVturboblaze
p2638
VTurboblaze
p2639
sVaegislashblade
p2640
VAegislash-Blade
p2641
sVnaturalgift
p2642
VNatural Gift
p2643
sVshadowclaw
p2644
VShadow Claw
p2645
sVchartiberry
p2646
VCharti Berry
p2647
sVlumberry
p2648
VLum Berry
p2649
sVvoltorb
p2650
VVoltorb
p2651
sVshadowshield
p2652
VShadow Shield
p2653
sVskyplate
p2654
VSky Plate
p2655
sVsableye
p2656
VSableye
p2657
sVseviper
p2658
VSeviper
p2659
sVmarvelscale
p2660
VMarvel Scale
p2661
sVaurumoth
p2662
VAurumoth
p2663
sVslakoth
p2664
VSlakoth
p2665
sVmonferno
p2666
VMonferno
p2667
sVwishiwashi
p2668
VWishiwashi
p2669
sVnightslash
p2670
VNight Slash
p2671
sVshelltrap
p2672
VShell Trap
p2673
sVeelektrik
p2674
VEelektrik
p2675
sVextrasensory
p2676
VExtrasensory
p2677
sVdrainpunch
p2678
VDrain Punch
p2679
sVshelmet
p2680
VShelmet
p2681
sVkommoototem
p2682
VKommo-o-Totem
p2683
sVglalitite
p2684
VGlalitite
p2685
sVflyinggem
p2686
VFlying Gem
p2687
sVbulkup
p2688
VBulk Up
p2689
sVglaceon
p2690
VGlaceon
p2691
sVwonderguard
p2692
VWonder Guard
p2693
sVprismarmor
p2694
VPrism Armor
p2695
sVelectricgem
p2696
VElectric Gem
p2697
sVrotomfan
p2698
VRotom-Fan
p2699
sVsignalbeam
p2700
VSignal Beam
p2701
sVshuckle
p2702
VShuckle
p2703
sVreflect
p2704
VReflect
p2705
sVdisable
p2706
VDisable
p2707
sVliquidooze
p2708
VLiquid Ooze
p2709
sVfairygem
p2710
VFairy Gem
p2711
sVmedichammega
p2712
VMedicham-Mega
p2713
sVtoxicplate
p2714
VToxic Plate
p2715
sVlanturn
p2716
VLanturn
p2717
sVparaboliccharge
p2718
VParabolic Charge
p2719
sVcomatose
p2720
VComatose
p2721
sVretaliate
p2722
VRetaliate
p2723
sVgolisopod
p2724
VGolisopod
p2725
sVqueenlymajesty
p2726
VQueenly Majesty
p2727
sVcorphish
p2728
VCorphish
p2729
sVbigpecks
p2730
VBig Pecks
p2731
sVmudbomb
p2732
VMud Bomb
p2733
sVarticuno
p2734
VArticuno
p2735
sVfissure
p2736
VFissure
p2737
sVvolcarona
p2738
VVolcarona
p2739
sVblackglasses
p2740
VBlack Glasses
p2741
sVplayrough
p2742
VPlay Rough
p2743
sVhealorder
p2744
VHeal Order
p2745
sVjigglypuff
p2746
VJigglypuff
p2747
sVsandslash
p2748
VSandslash
p2749
sVastonish
p2750
VAstonish
p2751
sVenergyball
p2752
VEnergy Ball
p2753
sVrockpolish
p2754
VRock Polish
p2755
sVlampent
p2756
VLampent
p2757
sVfistplate
p2758
VFist Plate
p2759
sVreturn
p2760
VReturn
p2761
sVmanectricmega
p2762
VManectric-Mega
p2763
sVsnowball
p2764
VSnowball
p2765
sVmrmime
p2766
VMr. Mime
p2767
sVcharizardmegax
p2768
VCharizard-Mega-X
p2769
sVcharizardmegay
p2770
VCharizard-Mega-Y
p2771
sVfurfrou
p2772
VFurfrou
p2773
sVpokestarmt
p2774
VPokestar MT
p2775
sVskuntank
p2776
VSkuntank
p2777
sVprimeape
p2778
VPrimeape
p2779
sVgabite
p2780
VGabite
p2781
sVgrubbin
p2782
VGrubbin
p2783
sVsolganiumz
p2784
VSolganium Z
p2785
sVmissingno
p2786
VMissingno.
p2787
sVhooh
p2788
VHo-Oh
p2789
sVbellsprout
p2790
VBellsprout
p2791
sVlovelykiss
p2792
VLovely Kiss
p2793
sVmeanlook
p2794
VMean Look
p2795
sVgumshoos
p2796
VGumshoos
p2797
sVclamp
p2798
VClamp
p2799
sVdig
p2800
VDig
p2801
sVprimarina
p2802
VPrimarina
p2803
sVsilvallyelectric
p2804
VSilvally-Electric
p2805
sVirondefense
p2806
VIron Defense
p2807
sVtsareena
p2808
VTsareena
p2809
sVthunderbolt
p2810
VThunderbolt
p2811
sVmagnezone
p2812
VMagnezone
p2813
sVtrickroom
p2814
VTrick Room
p2815
sVstoredpower
p2816
VStored Power
p2817
sVwatercompaction
p2818
VWater Compaction
p2819
sVhiddenpowerpsychic
p2820
VHidden Power Psychic
p2821
sVelectroweb
p2822
VElectroweb
p2823
sVjolly
p2824
VJolly
p2825
sVsalamence
p2826
VSalamence
p2827
sVabsorb
p2828
VAbsorb
p2829
sVarceusice
p2830
VArceus-Ice
p2831
sVwhirlpool
p2832
VWhirlpool
p2833
sVsuperfang
p2834
VSuper Fang
p2835
sVsilvallyground
p2836
VSilvally-Ground
p2837
sVcombee
p2838
VCombee
p2839
sVroggenrola
p2840
VRoggenrola
p2841
sVflashcannon
p2842
VFlash Cannon
p2843
sVironhead
p2844
VIron Head
p2845
sVsentret
p2846
VSentret
p2847
sVpichuspikyeared
p2848
VPichu-Spiky-eared
p2849
sVtyrogue
p2850
VTyrogue
p2851
sVsteelgem
p2852
VSteel Gem
p2853
sVwaterabsorb
p2854
VWater Absorb
p2855
sVtoxicboost
p2856
VToxic Boost
p2857
sVninetales
p2858
VNinetales
p2859
sVnidoranf
p2860
VNidoran-F
p2861
sVcottonspore
p2862
VCotton Spore
p2863
sVnidoranm
p2864
VNidoran-M
p2865
sVpineco
p2866
VPineco
p2867
sVscopelens
p2868
VScope Lens
p2869
sVhydreigon
p2870
VHydreigon
p2871
sVaggron
p2872
VAggron
p2873
sVmightyena
p2874
VMightyena
p2875
sVabomasnowmega
p2876
VAbomasnow-Mega
p2877
sVmanaphy
p2878
VManaphy
p2879
sVbrave
p2880
VBrave
p2881
sVmist
p2882
VMist
p2883
sVkangaskhanmega
p2884
VKangaskhan-Mega
p2885
sVpetaldance
p2886
VPetal Dance
p2887
sVmeowstic
p2888
VMeowstic
p2889
sVboltstrike
p2890
VBolt Strike
p2891
sVswarm
p2892
VSwarm
p2893
sVairlock
p2894
VAir Lock
p2895
sVpsncureberry
p2896
VPSN Cure Berry
p2897
sVdazzlinggleam
p2898
VDazzling Gleam
p2899
sVlandorustherian
p2900
VLandorus-Therian
p2901
sVpoisongem
p2902
VPoison Gem
p2903
sVpikashuniumz
p2904
VPikashunium Z
p2905
sVbabiriberry
p2906
VBabiri Berry
p2907
sVsuckerpunch
p2908
VSucker Punch
p2909
sVdragonascent
p2910
VDragon Ascent
p2911
sVfreezeshock
p2912
VFreeze Shock
p2913
sVpsywave
p2914
VPsywave
p2915
sVdrillrun
p2916
VDrill Run
p2917
sVwhiteherb
p2918
VWhite Herb
p2919
sVringtarget
p2920
VRing Target
p2921
sVvenipede
p2922
VVenipede
p2923
sVdarkpulse
p2924
VDark Pulse
p2925
sVyamask
p2926
VYamask
p2927
sVstall
p2928
VStall
p2929
sVsharpedonite
p2930
VSharpedonite
p2931
sVmerciless
p2932
VMerciless
p2933
sVdoubleedge
p2934
VDouble-Edge
p2935
sVremoraid
p2936
VRemoraid
p2937
sVclefairy
p2938
VClefairy
p2939
sVklink
p2940
VKlink
p2941
sVclearbody
p2942
VClear Body
p2943
sVfirespin
p2944
VFire Spin
p2945
sVgenesectchill
p2946
VGenesect-Chill
p2947
sVdeepseatooth
p2948
VDeep Sea Tooth
p2949
sVcleffa
p2950
VCleffa
p2951
sVsuicune
p2952
VSuicune
p2953
sVpamtreberry
p2954
VPamtre Berry
p2955
sVmegahorn
p2956
VMegahorn
p2957
sVslowbromega
p2958
VSlowbro-Mega
p2959
sVzenmode
p2960
VZen Mode
p2961
sVsunflora
p2962
VSunflora
p2963
sVgourgeist
p2964
VGourgeist
p2965
sVbarbaracle
p2966
VBarbaracle
p2967
sVairballoon
p2968
VAir Balloon
p2969
sVswirlix
p2970
VSwirlix
p2971
sVlitleo
p2972
VLitleo
p2973
sVcamouflage
p2974
VCamouflage
p2975
sVfrillish
p2976
VFrillish
p2977
sVroselia
p2978
VRoselia
p2979
sVkangaskhan
p2980
VKangaskhan
p2981
sVregirock
p2982
VRegirock
p2983
sVpansage
p2984
VPansage
p2985
sVswitcheroo
p2986
VSwitcheroo
p2987
sValakazammega
p2988
VAlakazam-Mega
p2989
sVkartana
p2990
VKartana
p2991
sVeruption
p2992
VEruption
p2993
sVyawn
p2994
VYawn
p2995
sVcharm
p2996
VCharm
p2997
sVdiglett
p2998
VDiglett
p2999
sVbeldum
p3000
VBeldum
p3001
sVhabanberry
p3002
VHaban Berry
p3003
sVcrosspoison
p3004
VCross Poison
p3005
sVcarvanha
p3006
VCarvanha
p3007
sVrefrigerate
p3008
VRefrigerate
p3009
sVlowsweep
p3010
VLow Sweep
p3011
sVsturdy
p3012
VSturdy
p3013
sVcovet
p3014
VCovet
p3015
sVlunala
p3016
VLunala
p3017
sVmarshadiumz
p3018
VMarshadium Z
p3019
sVgenesectdouse
p3020
VGenesect-Douse
p3021
sVkaratechop
p3022
VKarate Chop
p3023
sVhoundoominite
p3024
VHoundoominite
p3025
sVazumarill
p3026
VAzumarill
p3027
sVmetalburst
p3028
VMetal Burst
p3029
sVherdier
p3030
VHerdier
p3031
sVmeloetta
p3032
VMeloetta
p3033
sVnanabberry
p3034
VNanab Berry
p3035
sVzoomlens
p3036
VZoom Lens
p3037
sVblackbelt
p3038
VBlack Belt
p3039
sVhammerarm
p3040
VHammer Arm
p3041
sVmagmaarmor
p3042
VMagma Armor
p3043
sVcrabrawler
p3044
VCrabrawler
p3045
sVtriattack
p3046
VTri Attack
p3047
sVgooey
p3048
VGooey
p3049
sVoblivionwing
p3050
VOblivion Wing
p3051
sVtyrantrum
p3052
VTyrantrum
p3053
sVhealpulse
p3054
VHeal Pulse
p3055
sVmagikarp
p3056
VMagikarp
p3057
sVpawniard
p3058
VPawniard
p3059
sVpoisontail
p3060
VPoison Tail
p3061
sVrest
p3062
VRest
p3063
sVdocile
p3064
VDocile
p3065
sVfireblast
p3066
VFire Blast
p3067
sVmaliciousmoonsault
p3068
VMalicious Moonsault
p3069
sVshroomish
p3070
VShroomish
p3071
sVwhismur
p3072
VWhismur
p3073
sVspikes
p3074
VSpikes
p3075
sVshadowstrike
p3076
VShadow Strike
p3077
sVrockgem
p3078
VRock Gem
p3079
sVheatcrash
p3080
VHeat Crash
p3081
sVskorupi
p3082
VSkorupi
p3083
sVgengarite
p3084
VGengarite
p3085
sVpokestartransport
p3086
VPokestar Transport
p3087
sVpoisonmemory
p3088
VPoison Memory
p3089
sVblitzle
p3090
VBlitzle
p3091
sVspeedswap
p3092
VSpeed Swap
p3093
sVflarelm
p3094
VFlarelm
p3095
sVtamatoberry
p3096
VTamato Berry
p3097
sVblazikenite
p3098
VBlazikenite
p3099
sVfarfetchd
p3100
VFarfetch'd
p3101
sVinkay
p3102
VInkay
p3103
sVnecrozmaduskmane
p3104
VNecrozma-Dusk-Mane
p3105
sVpickup
p3106
VPickup
p3107
sVcontrary
p3108
VContrary
p3109
sVkarrablast
p3110
VKarrablast
p3111
sVberserk
p3112
VBerserk
p3113
sVmarowak
p3114
VMarowak
p3115
sVmachobrace
p3116
VMacho Brace
p3117
sVsilvallywater
p3118
VSilvally-Water
p3119
sVelekid
p3120
VElekid
p3121
sVmagmortar
p3122
VMagmortar
p3123
sVchansey
p3124
VChansey
p3125
sVroaroftime
p3126
VRoar of Time
p3127
sVwildcharge
p3128
VWild Charge
p3129
sVgraveleralola
p3130
VGraveler-Alola
p3131
sVhoundoommega
p3132
VHoundoom-Mega
p3133
sVclaydol
p3134
VClaydol
p3135
sVrelicanth
p3136
VRelicanth
p3137
sVtorchic
p3138
VTorchic
p3139
sVlapras
p3140
VLapras
p3141
sVmankey
p3142
VMankey
p3143
sVsweetscent
p3144
VSweet Scent
p3145
sVshayminsky
p3146
VShaymin-Sky
p3147
sVwacanberry
p3148
VWacan Berry
p3149
sVsandile
p3150
VSandile
p3151
sVtyphlosion
p3152
VTyphlosion
p3153
sVariados
p3154
VAriados
p3155
sVdrillpeck
p3156
VDrill Peck
p3157
sVicebody
p3158
VIce Body
p3159
sVdancer
p3160
VDancer
p3161
sVnatu
p3162
VNatu
p3163
sVxscissor
p3164
VX-Scissor
p3165
sVsing
p3166
VSing
p3167
sVquiverdance
p3168
VQuiver Dance
p3169
sVblastoisinite
p3170
VBlastoisinite
p3171
sVmegapunch
p3172
VMega Punch
p3173
sVdamp
p3174
VDamp
p3175
sVskitty
p3176
VSkitty
p3177
sVmienfoo
p3178
VMienfoo
p3179
sVpollenpuff
p3180
VPollen Puff
p3181
sVliepard
p3182
VLiepard
p3183
sVamnesia
p3184
VAmnesia
p3185
sVdestinybond
p3186
VDestiny Bond
p3187
sVpowersplit
p3188
VPower Split
p3189
sVmeowthalola
p3190
VMeowth-Alola
p3191
sVdruddigon
p3192
VDruddigon
p3193
sVtaillow
p3194
VTaillow
p3195
sVbashful
p3196
VBashful
p3197
sVdragontail
p3198
VDragon Tail
p3199
sVbeedrillite
p3200
VBeedrillite
p3201
sVstringshot
p3202
VString Shot
p3203
sValomomola
p3204
VAlomomola
p3205
sVwatergun
p3206
VWater Gun
p3207
sVvcreate
p3208
VV-create
p3209
sVnomelberry
p3210
VNomel Berry
p3211
sVchatter
p3212
VChatter
p3213
sVbasculin
p3214
VBasculin
p3215
sVgrassiumz
p3216
VGrassium Z
p3217
sVescavalier
p3218
VEscavalier
p3219
sVpsychoshift
p3220
VPsycho Shift
p3221
sVbisharp
p3222
VBisharp
p3223
sVhoundoom
p3224
VHoundoom
p3225
sVgulpin
p3226
VGulpin
p3227
sVpancham
p3228
VPancham
p3229
sVmantyke
p3230
VMantyke
p3231
sVdusclops
p3232
VDusclops
p3233
sVmedichamite
p3234
VMedichamite
p3235
sVrotommow
p3236
VRotom-Mow
p3237
sVbeastball
p3238
VBeast Ball
p3239
sVsurskit
p3240
VSurskit
p3241
sVsilvallypoison
p3242
VSilvally-Poison
p3243
sVicebeam
p3244
VIce Beam
p3245
sVfacade
p3246
VFacade
p3247
sVzubat
p3248
VZubat
p3249
sVmagikarpsrevenge
p3250
VMagikarp's Revenge
p3251
sVingrain
p3252
VIngrain
p3253
sVcottonee
p3254
VCottonee
p3255
sVpikachuphd
p3256
VPikachu-PhD
p3257
sVpowerlens
p3258
VPower Lens
p3259
sVpoisonjab
p3260
VPoison Jab
p3261
sVcameruptmega
p3262
VCamerupt-Mega
p3263
sVprotectivepads
p3264
VProtective Pads
p3265
sVcrucibellemega
p3266
VCrucibelle-Mega
p3267
sVadrenalineorb
p3268
VAdrenaline Orb
p3269
sVleechseed
p3270
VLeech Seed
p3271
sVgorebyss
p3272
VGorebyss
p3273
sVgrotle
p3274
VGrotle
p3275
sVpikachu
p3276
VPikachu
p3277
sVnaturalcure
p3278
VNatural Cure
p3279
sVrayquaza
p3280
VRayquaza
p3281
sVfroakie
p3282
VFroakie
p3283
sVloveball
p3284
VLove Ball
p3285
sVjumpluff
p3286
VJumpluff
p3287
sVkomala
p3288
VKomala
p3289
sVtimid
p3290
VTimid
p3291
sVmismagius
p3292
VMismagius
p3293
sVhiddenpowerbug
p3294
VHidden Power Bug
p3295
sVinfiltrator
p3296
VInfiltrator
p3297
sVpsychup
p3298
VPsych Up
p3299
sVregice
p3300
VRegice
p3301
sVfiregem
p3302
VFire Gem
p3303
sVshellder
p3304
VShellder
p3305
sVwithdraw
p3306
VWithdraw
p3307
sVmoonball
p3308
VMoon Ball
p3309
sVpainsplit
p3310
VPain Split
p3311
sVstoneedge
p3312
VStone Edge
p3313
sVhowl
p3314
VHowl
p3315
sVeeviumz
p3316
VEevium Z
p3317
sVwaterpledge
p3318
VWater Pledge
p3319
sVspearow
p3320
VSpearow
p3321
sVwhirlipede
p3322
VWhirlipede
p3323
sVrockwrecker
p3324
VRock Wrecker
p3325
sVoriginpulse
p3326
VOrigin Pulse
p3327
sVcompetitive
p3328
VCompetitive
p3329
sVzygarde
p3330
VZygarde
p3331
sVsolrock
p3332
VSolrock
p3333
sVthousandarrows
p3334
VThousand Arrows
p3335
sVspinda
p3336
VSpinda
p3337
sVincineroar
p3338
VIncineroar
p3339
sVcloyster
p3340
VCloyster
p3341
sVteeterdance
p3342
VTeeter Dance
p3343
sVmetapod
p3344
VMetapod
p3345
sVairslash
p3346
VAir Slash
p3347
sVchatot
p3348
VChatot
p3349
sVacrobatics
p3350
VAcrobatics
p3351
sVspheal
p3352
VSpheal
p3353
sVsilvally
p3354
VSilvally
p3355
sVrebound
p3356
VRebound
p3357
sVsolarbeam
p3358
VSolar Beam
p3359
sVlusterpurge
p3360
VLuster Purge
p3361
sVtorterra
p3362
VTorterra
p3363
sVzygardecomplete
p3364
VZygarde-Complete
p3365
sVmoody
p3366
VMoody
p3367
sVglaliemega
p3368
VGlalie-Mega
p3369
sVgothitelle
p3370
VGothitelle
p3371
sVskilllink
p3372
VSkill Link
p3373
sVponyta
p3374
VPonyta
p3375
sVpaleowave
p3376
VPaleo Wave
p3377
sVsubmission
p3378
VSubmission
p3379
sVstaravia
p3380
VStaravia
p3381
sVtailglow
p3382
VTail Glow
p3383
sVnoibat
p3384
VNoibat
p3385
sVuproar
p3386
VUproar
p3387
sVtechnoblast
p3388
VTechno Blast
p3389
sVlilligant
p3390
VLilligant
p3391
sVflamewheel
p3392
VFlame Wheel
p3393
sVsketch
p3394
VSketch
p3395
sVchimchar
p3396
VChimchar
p3397
sVleafage
p3398
VLeafage
p3399
sVsunnyday
p3400
VSunny Day
p3401
sVsouldew
p3402
VSoul Dew
p3403
sVgearup
p3404
VGear Up
p3405
sVaurorabeam
p3406
VAurora Beam
p3407
sVsewaddle
p3408
VSewaddle
p3409
sVkommoo
p3410
VKommo-o
p3411
sVscald
p3412
VScald
p3413
sVominouswind
p3414
VOminous Wind
p3415
sVdeepseascale
p3416
VDeep Sea Scale
p3417
sVmareep
p3418
VMareep
p3419
sVhuntail
p3420
VHuntail
p3421
sVswordsdance
p3422
VSwords Dance
p3423
sVearlybird
p3424
VEarly Bird
p3425
sVslash
p3426
VSlash
p3427
sVhiddenpowergrass
p3428
VHidden Power Grass
p3429
sVpidgeotite
p3430
VPidgeotite
p3431
sVmimejr
p3432
VMime Jr.
p3433
sVimprison
p3434
VImprison
p3435
sVoricoriopau
p3436
VOricorio-Pa'u
p3437
sVseismitoad
p3438
VSeismitoad
p3439
sVscraggy
p3440
VScraggy
p3441
sVmewtwomegax
p3442
VMewtwo-Mega-X
p3443
sVmewtwomegay
p3444
VMewtwo-Mega-Y
p3445
sVfocussash
p3446
VFocus Sash
p3447
sVjellicent
p3448
VJellicent
p3449
sVspelonberry
p3450
VSpelon Berry
p3451
sVnobleroar
p3452
VNoble Roar
p3453
sVkangaskhanite
p3454
VKangaskhanite
p3455
sVelectrike
p3456
VElectrike
p3457
sViapapaberry
p3458
VIapapa Berry
p3459
sVmudkip
p3460
VMudkip
p3461
sVbouffalant
p3462
VBouffalant
p3463
sVshinx
p3464
VShinx
p3465
sVblock
p3466
VBlock
p3467
sVsharpedo
p3468
VSharpedo
p3469
sVarmthrust
p3470
VArm Thrust
p3471
sVchargebeam
p3472
VCharge Beam
p3473
sVshellos
p3474
VShellos
p3475
sVnidoking
p3476
VNidoking
p3477
sVglare
p3478
VGlare
p3479
sVextremeevoboost
p3480
VExtreme Evoboost
p3481
sVsablenite
p3482
VSablenite
p3483
sVbarboach
p3484
VBarboach
p3485
sVstench
p3486
VStench
p3487
sVtoxicroak
p3488
VToxicroak
p3489
sVunown
p3490
VUnown
p3491
sVdevastatingdrake
p3492
VDevastating Drake
p3493
sVswampertmega
p3494
VSwampert-Mega
p3495
sVpajantom
p3496
VPajantom
p3497
sVpokestarmonster
p3498
VPokestar Monster
p3499
sVsyclar
p3500
VSyclar
p3501
sVmimikyubusted
p3502
VMimikyu-Busted
p3503
sVsnorunt
p3504
VSnorunt
p3505
sVrelaxed
p3506
VRelaxed
p3507
sVdragongem
p3508
VDragon Gem
p3509
sVpsychocut
p3510
VPsycho Cut
p3511
sVtranquill
p3512
VTranquill
p3513
sVragepowder
p3514
VRage Powder
p3515
sVbuizel
p3516
VBuizel
p3517
sVsharpen
p3518
VSharpen
p3519
sVprobopass
p3520
VProbopass
p3521
sVbuzzwole
p3522
VBuzzwole
p3523
sVshuppet
p3524
VShuppet
p3525
sVsteelixite
p3526
VSteelixite
p3527
sVpokestarwhitedoor
p3528
VPokestar White Door
p3529
sVspacialrend
p3530
VSpacial Rend
p3531
sVforesight
p3532
VForesight
p3533
sVwepearberry
p3534
VWepear Berry
p3535
sVheavyball
p3536
VHeavy Ball
p3537
sVhappyhour
p3538
VHappy Hour
p3539
sVmurkrow
p3540
VMurkrow
p3541
sVpokestarsmeargle
p3542
VPokestar Smeargle
p3543
sVpikachusinnoh
p3544
VPikachu-Sinnoh
p3545
sVarceusfairy
p3546
VArceus-Fairy
p3547
sVmiracleseed
p3548
VMiracle Seed
p3549
sVtakedown
p3550
VTake Down
p3551
sVpangoro
p3552
VPangoro
p3553
sVstickybarb
p3554
VSticky Barb
p3555
sVchoicespecs
p3556
VChoice Specs
p3557
sVbulbasaur
p3558
VBulbasaur
p3559
sVpichu
p3560
VPichu
p3561
sVheatwave
p3562
VHeat Wave
p3563
sVaudino
p3564
VAudino
p3565
sVdrifloon
p3566
VDrifloon
p3567
sVsnowcloak
p3568
VSnow Cloak
p3569
sVrazorshell
p3570
VRazor Shell
p3571
sVmetagross
p3572
VMetagross
p3573
sVsparklingaria
p3574
VSparkling Aria
p3575
sVpokestarufo
p3576
VPokestar UFO
p3577
sVforcepalm
p3578
VForce Palm
p3579
sVlickilicky
p3580
VLickilicky
p3581
sVzigzagoon
p3582
VZigzagoon
p3583
sVmudbray
p3584
VMudbray
p3585
sVprecipiceblades
p3586
VPrecipice Blades
p3587
sVslaking
p3588
VSlaking
p3589
sVavalugg
p3590
VAvalugg
p3591
sVscratch
p3592
VScratch
p3593
sVcharmeleon
p3594
VCharmeleon
p3595
sVhighhorsepower
p3596
VHigh Horsepower
p3597
sVsandtomb
p3598
VSand Tomb
p3599
sVraticatealola
p3600
VRaticate-Alola
p3601
sVspeedboost
p3602
VSpeed Boost
p3603
sVwakeupslap
p3604
VWake-Up Slap
p3605
sVcursedbody
p3606
VCursed Body
p3607
sVrivalry
p3608
VRivalry
p3609
sVperishsong
p3610
VPerish Song
p3611
sVpoweruppunch
p3612
VPower-Up Punch
p3613
sVcutecharm
p3614
VCute Charm
p3615
sVblaze
p3616
VBlaze
p3617
sVsniper
p3618
VSniper
p3619
sVtriplekick
p3620
VTriple Kick
p3621
sVfly
p3622
VFly
p3623
sVguardsplit
p3624
VGuard Split
p3625
sVwobbuffet
p3626
VWobbuffet
p3627
sVroleplay
p3628
VRole Play
p3629
sVteddiursa
p3630
VTeddiursa
p3631
sVthundershock
p3632
VThunder Shock
p3633
sVazurill
p3634
VAzurill
p3635
sVbastiodon
p3636
VBastiodon
p3637
sVlureball
p3638
VLure Ball
p3639
sVqwilfish
p3640
VQwilfish
p3641
sVhyperbeam
p3642
VHyper Beam
p3643
sVdynamicpunch
p3644
VDynamic Punch
p3645
sVlurantistotem
p3646
VLurantis-Totem
p3647
sVmagnemite
p3648
VMagnemite
p3649
sVtyrunt
p3650
VTyrunt
p3651
sVmultiattack
p3652
VMulti-Attack
p3653
sVwatershuriken
p3654
VWater Shuriken
p3655
sVmisdreavus
p3656
VMisdreavus
p3657
sVfidgit
p3658
VFidgit
p3659
sVdousedrive
p3660
VDouse Drive
p3661
sVribombeetotem
p3662
VRibombee-Totem
p3663
sVcrushclaw
p3664
VCrush Claw
p3665
sVsoftboiled
p3666
VSoft-Boiled
p3667
sVshedinja
p3668
VShedinja
p3669
sVtectonicrage
p3670
VTectonic Rage
p3671
sVdownload
p3672
VDownload
p3673
sVacid
p3674
VAcid
p3675
sVvigoroth
p3676
VVigoroth
p3677
sVlombre
p3678
VLombre
p3679
sVdelcatty
p3680
VDelcatty
p3681
sVworryseed
p3682
VWorry Seed
p3683
sVturtonator
p3684
VTurtonator
p3685
sVpayday
p3686
VPay Day
p3687
sVtyranitar
p3688
VTyranitar
p3689
sVturtwig
p3690
VTurtwig
p3691
sVbruxish
p3692
VBruxish
p3693
sVmagmastorm
p3694
VMagma Storm
p3695
sVpansear
p3696
VPansear
p3697
sVdeerling
p3698
VDeerling
p3699
sVswinub
p3700
VSwinub
p3701
sVgigavolthavoc
p3702
VGigavolt Havoc
p3703
sVabomasnow
p3704
VAbomasnow
p3705
sVrowlet
p3706
VRowlet
p3707
sVbellossom
p3708
VBellossom
p3709
sVpikachucosplay
p3710
VPikachu-Cosplay
p3711
sVcastform
p3712
VCastform
p3713
sVincinerate
p3714
VIncinerate
p3715
sVmarangaberry
p3716
VMaranga Berry
p3717
sVrampardos
p3718
VRampardos
p3719
sVscreech
p3720
VScreech
p3721
sVtentacruel
p3722
VTentacruel
p3723
sVstealthrock
p3724
VStealth Rock
p3725
sVearthpower
p3726
VEarth Power
p3727
sVforestscurse
p3728
VForest's Curse
p3729
sVblizzard
p3730
VBlizzard
p3731
sVshoreup
p3732
VShore Up
p3733
sVshieldsdown
p3734
VShields Down
p3735
sVfoongus
p3736
VFoongus
p3737
sVfirememory
p3738
VFire Memory
p3739
sVaquaring
p3740
VAqua Ring
p3741
sVprzcureberry
p3742
VPRZ Cure Berry
p3743
sVhardy
p3744
VHardy
p3745
sVarceusground
p3746
VArceus-Ground
p3747
sVpumpkaboolarge
p3748
VPumpkaboo-Large
p3749
sVkingdra
p3750
VKingdra
p3751
sVaerodactylite
p3752
VAerodactylite
p3753
sVstakeout
p3754
VStakeout
p3755
sVbanettite
p3756
VBanettite
p3757
sVeevee
p3758
VEevee
p3759
sVheatran
p3760
VHeatran
p3761
sVwatchog
p3762
VWatchog
p3763
sVpoliwrath
p3764
VPoliwrath
p3765
sVcharcoal
p3766
VCharcoal
p3767
sVmistyseed
p3768
VMisty Seed
p3769
sVcranidos
p3770
VCranidos
p3771
sVabsol
p3772
VAbsol
p3773
sVcelesteela
p3774
VCelesteela
p3775
sVplusle
p3776
VPlusle
p3777
sVaerodactylmega
p3778
VAerodactyl-Mega
p3779
sVharvest
p3780
VHarvest
p3781
sVwatersport
p3782
VWater Sport
p3783
sVpikaniumz
p3784
VPikanium Z
p3785
sVicicleplate
p3786
VIcicle Plate
p3787
sVmimikyubustedtotem
p3788
VMimikyu-Busted-Totem
p3789
sVfuturesight
p3790
VFuture Sight
p3791
sVfirelash
p3792
VFire Lash
p3793
sVlustrousorb
p3794
VLustrous Orb
p3795
sVarchen
p3796
VArchen
p3797
sVexeggcute
p3798
VExeggcute
p3799
sVlucario
p3800
VLucario
p3801
sVthundurus
p3802
VThundurus
p3803
sVtangrowth
p3804
VTangrowth
p3805
sVburnup
p3806
VBurn Up
p3807
sVdonphan
p3808
VDonphan
p3809
sVterrakion
p3810
VTerrakion
p3811
sVblacksludge
p3812
VBlack Sludge
p3813
sVsilvallypsychic
p3814
VSilvally-Psychic
p3815
sVrelicsong
p3816
VRelic Song
p3817
sVheliolisk
p3818
VHeliolisk
p3819
sVblazikenmega
p3820
VBlaziken-Mega
p3821
sVgastrodon
p3822
VGastrodon
p3823
sVbronzong
p3824
VBronzong
p3825
sVweavile
p3826
VWeavile
p3827
sVdewott
p3828
VDewott
p3829
sVchandelure
p3830
VChandelure
p3831
sVhaxorus
p3832
VHaxorus
p3833
sVsecretsword
p3834
VSecret Sword
p3835
sVowntempo
p3836
VOwn Tempo
p3837
sVhiddenpower
p3838
VHidden Power
p3839
sVrazorleaf
p3840
VRazor Leaf
p3841
sVpowerswap
p3842
VPower Swap
p3843
sVdragalge
p3844
VDragalge
p3845
sVheadcharge
p3846
VHead Charge
p3847
sVswampert
p3848
VSwampert
p3849
sVpidgey
p3850
VPidgey
p3851
sVmetalpowder
p3852
VMetal Powder
p3853
sVaggronite
p3854
VAggronite
p3855
sVgenesect
p3856
VGenesect
p3857
sVlotad
p3858
VLotad
p3859
sVrkssystem
p3860
VRKS System
p3861
sVsilvallyice
p3862
VSilvally-Ice
p3863
sVvikavolttotem
p3864
VVikavolt-Totem
p3865
sVbind
p3866
VBind
p3867
sVcounter
p3868
VCounter
p3869
sVvikavolt
p3870
VVikavolt
p3871
sVfullincense
p3872
VFull Incense
p3873
sVfloatoy
p3874
VFloatoy
p3875
sVweepinbell
p3876
VWeepinbell
p3877
sVpiloswine
p3878
VPiloswine
p3879
sVhitmonchan
p3880
VHitmonchan
p3881
sVwoobat
p3882
VWoobat
p3883
sVaquajet
p3884
VAqua Jet
p3885
sVkrabby
p3886
VKrabby
p3887
sVumbreon
p3888
VUmbreon
p3889
sVheatproof
p3890
VHeatproof
p3891
sVmukalola
p3892
VMuk-Alola
p3893
sVguardswap
p3894
VGuard Swap
p3895
sVassaultvest
p3896
VAssault Vest
p3897
sVpetalblizzard
p3898
VPetal Blizzard
p3899
sVsweetkiss
p3900
VSweet Kiss
p3901
sVkadabra
p3902
VKadabra
p3903
sVpurepower
p3904
VPure Power
p3905
sVironball
p3906
VIron Ball
p3907
sVdreameater
p3908
VDream Eater
p3909
sVhelpinghand
p3910
VHelping Hand
p3911
sVmunchlax
p3912
VMunchlax
p3913
sVzenheadbutt
p3914
VZen Headbutt
p3915
sVbelch
p3916
VBelch
p3917
sVsuperluck
p3918
VSuper Luck
p3919
sVberryjuice
p3920
VBerry Juice
p3921
sVhiddenpowerflying
p3922
VHidden Power Flying
p3923
sVflowerveil
p3924
VFlower Veil
p3925
sVmilotic
p3926
VMilotic
p3927
sVpikachuoriginal
p3928
VPikachu-Original
p3929
sVpsychicsurge
p3930
VPsychic Surge
p3931
sVflail
p3932
VFlail
p3933
sVkabutops
p3934
VKabutops
p3935
sVhoothoot
p3936
VHoothoot
p3937
sVchinchou
p3938
VChinchou
p3939
sVtoxapex
p3940
VToxapex
p3941
sVforewarn
p3942
VForewarn
p3943
sVarbok
p3944
VArbok
p3945
sVlightthatburnsthesky
p3946
VLight That Burns the Sky
p3947
sVarceusfighting
p3948
VArceus-Fighting
p3949
sVrapidspin
p3950
VRapid Spin
p3951
sVskullbash
p3952
VSkull Bash
p3953
sVdratini
p3954
VDratini
p3955
sVafteryou
p3956
VAfter You
p3957
sVmaractus
p3958
VMaractus
p3959
sVcrucibellite
p3960
VCrucibellite
p3961
sVmareanie
p3962
VMareanie
p3963
sVilluminate
p3964
VIlluminate
p3965
sVgallademega
p3966
VGallade-Mega
p3967
sVmagnetpull
p3968
VMagnet Pull
p3969
sVtepig
p3970
VTepig
p3971
sVkelpsyberry
p3972
VKelpsy Berry
p3973
sVstatic
p3974
VStatic
p3975
sVlongreach
p3976
VLong Reach
p3977
sVicefang
p3978
VIce Fang
p3979
sVvenonat
p3980
VVenonat
p3981
sVsilvallyfighting
p3982
VSilvally-Fighting
p3983
sVjoltik
p3984
VJoltik
p3985
sVrollingkick
p3986
VRolling Kick
p3987
sVoricorio
p3988
VOricorio
p3989
sVweatherball
p3990
VWeather Ball
p3991
sVshatteredpsyche
p3992
VShattered Psyche
p3993
sVmewniumz
p3994
VMewnium Z
p3995
sVmanectric
p3996
VManectric
p3997
sVnaturepower
p3998
VNature Power
p3999
sVregisteel
p4000
VRegisteel
p4001
sVsmog
p4002
VSmog
p4003
sVbabydolleyes
p4004
VBaby-Doll Eyes
p4005
sVleafguard
p4006
VLeaf Guard
p4007
sVicywind
p4008
VIcy Wind
p4009
sVemolga
p4010
VEmolga
p4011
sVconkeldurr
p4012
VConkeldurr
p4013
sVworkup
p4014
VWork Up
p4015
sVmetagrossite
p4016
VMetagrossite
p4017
sVhippowdon
p4018
VHippowdon
p4019
sVenigmaberry
p4020
VEnigma Berry
p4021
sVvenomoth
p4022
VVenomoth
p4023
sVcobalion
p4024
VCobalion
p4025
sVsteelmemory
p4026
VSteel Memory
p4027
sVtropkick
p4028
VTrop Kick
p4029
sVsudowoodo
p4030
VSudowoodo
p4031
sVlarvitar
p4032
VLarvitar
p4033
sVheadbutt
p4034
VHeadbutt
p4035
sVsacredsword
p4036
VSacred Sword
p4037
sVbodyslam
p4038
VBody Slam
p4039
sVexpertbelt
p4040
VExpert Belt
p4041
sVbugbuzz
p4042
VBug Buzz
p4043
sVpinkbow
p4044
VPink Bow
p4045
sVfirefang
p4046
VFire Fang
p4047
sVmindplate
p4048
VMind Plate
p4049
sVampharosmega
p4050
VAmpharos-Mega
p4051
sVgroundiumz
p4052
VGroundium Z
p4053
sVskrelp
p4054
VSkrelp
p4055
sVjumpkick
p4056
VJump Kick
p4057
sVninetalesalola
p4058
VNinetales-Alola
p4059
sVwaterspout
p4060
VWater Spout
p4061
sVpsychicmemory
p4062
VPsychic Memory
p4063
sVloudred
p4064
VLoudred
p4065
sVfletchinder
p4066
VFletchinder
p4067
sVflowergift
p4068
VFlower Gift
p4069
sVblissey
p4070
VBlissey
p4071
sVdarmanitan
p4072
VDarmanitan
p4073
sVmegakick
p4074
VMega Kick
p4075
sVrotomfrost
p4076
VRotom-Frost
p4077
sVsolidrock
p4078
VSolid Rock
p4079
sVrabutaberry
p4080
VRabuta Berry
p4081
sVagility
p4082
VAgility
p4083
sVelectabuzz
p4084
VElectabuzz
p4085
sVhoopaunbound
p4086
VHoopa-Unbound
p4087
sVfomantis
p4088
VFomantis
p4089
sVcrobat
p4090
VCrobat
p4091
sVrockblast
p4092
VRock Blast
p4093
sVfeint
p4094
VFeint
p4095
sVsoftsand
p4096
VSoft Sand
p4097
sVsigilyph
p4098
VSigilyph
p4099
sVempoleon
p4100
VEmpoleon
p4101
sVtorkoal
p4102
VTorkoal
p4103
sVwurmple
p4104
VWurmple
p4105
sVtapulele
p4106
VTapu Lele
p4107
sVsunsteelstrike
p4108
VSunsteel Strike
p4109
sVgrimeralola
p4110
VGrimer-Alola
p4111
sVtimburr
p4112
VTimburr
p4113
sVsealeo
p4114
VSealeo
p4115
sVpoisonfang
p4116
VPoison Fang
p4117
sVtwinkletackle
p4118
VTwinkle Tackle
p4119
sVtorrent
p4120
VTorrent
p4121
sVmenacingmoonrazemaelstrom
p4122
VMenacing Moonraze Maelstrom
p4123
sVquickball
p4124
VQuick Ball
p4125
sVtrapinch
p4126
VTrapinch
p4127
sVmarshtomp
p4128
VMarshtomp
p4129
sVgentle
p4130
VGentle
p4131
sVsandrush
p4132
VSand Rush
p4133
sVarceusflying
p4134
VArceus-Flying
p4135
sVzebstrika
p4136
VZebstrika
p4137
sVwhitesmoke
p4138
VWhite Smoke
p4139
sVlevelball
p4140
VLevel Ball
p4141
sVsoak
p4142
VSoak
p4143
sVpikachubelle
p4144
VPikachu-Belle
p4145
sVflareon
p4146
VFlareon
p4147
sVcalmmind
p4148
VCalm Mind
p4149
sVaipom
p4150
VAipom
p4151
sVdiamondstorm
p4152
VDiamond Storm
p4153
sVdugtrioalola
p4154
VDugtrio-Alola
p4155
sVcarnivine
p4156
VCarnivine
p4157
sVmistyterrain
p4158
VMisty Terrain
p4159
sVpassimian
p4160
VPassimian
p4161
sVpsychoboost
p4162
VPsycho Boost
p4163
sVnuzleaf
p4164
VNuzleaf
p4165
sVwidelens
p4166
VWide Lens
p4167
sVshadowball
p4168
VShadow Ball
p4169
sVdrifblim
p4170
VDrifblim
p4171
sVmewtwo
p4172
VMewtwo
p4173
sVrollout
p4174
VRollout
p4175
sVslurpuff
p4176
VSlurpuff
p4177
sVgrassgem
p4178
VGrass Gem
p4179
sVdracometeor
p4180
VDraco Meteor
p4181
sVhiddenpowerground
p4182
VHidden Power Ground
p4183
sVsludgewave
p4184
VSludge Wave
p4185
sVsceptile
p4186
VSceptile
p4187
sVaraquanid
p4188
VAraquanid
p4189
sVgardevoirite
p4190
VGardevoirite
p4191
sVexeggutor
p4192
VExeggutor
p4193
sVshedskin
p4194
VShed Skin
p4195
sVcherrimsunshine
p4196
VCherrim-Sunshine
p4197
sVarceus
p4198
VArceus
p4199
sVimpish
p4200
VImpish
p4201
sVservine
p4202
VServine
p4203
sVwailmer
p4204
VWailmer
p4205
sVbrine
p4206
VBrine
p4207
sVzweilous
p4208
VZweilous
p4209
sVsleeppowder
p4210
VSleep Powder
p4211
sVoldamber
p4212
VOld Amber
p4213
sVdurant
p4214
VDurant
p4215
sVdarkiniumz
p4216
VDarkinium Z
p4217
sVsimplebeam
p4218
VSimple Beam
p4219
sVyveltal
p4220
VYveltal
p4221
sVdragonite
p4222
VDragonite
p4223
sVrash
p4224
VRash
p4225
sVpiplup
p4226
VPiplup
p4227
sVflashfire
p4228
VFlash Fire
p4229
sVelectricmemory
p4230
VElectric Memory
p4231
sValoraichiumz
p4232
VAloraichium Z
p4233
sVembargo
p4234
VEmbargo
p4235
sVdeino
p4236
VDeino
p4237
sVcamerupt
p4238
VCamerupt
p4239
sVluckypunch
p4240
VLucky Punch
p4241
sVpurrloin
p4242
VPurrloin
p4243
sVpsychicgem
p4244
VPsychic Gem
p4245
sVrarebone
p4246
VRare Bone
p4247
sVsnover
p4248
VSnover
p4249
sVicehammer
p4250
VIce Hammer
p4251
sVtangaberry
p4252
VTanga Berry
p4253
sVbellydrum
p4254
VBelly Drum
p4255
sVsassy
p4256
VSassy
p4257
sVdeoxysattack
p4258
VDeoxys-Attack
p4259
sVcroagunk
p4260
VCroagunk
p4261
sVbravebird
p4262
VBrave Bird
p4263
sVgust
p4264
VGust
p4265
sVmagicguard
p4266
VMagic Guard
p4267
sVsandattack
p4268
VSand Attack
p4269
sVkingler
p4270
VKingler
p4271
sVwish
p4272
VWish
p4273
sVwatmelberry
p4274
VWatmel Berry
p4275
sVdartrix
p4276
VDartrix
p4277
sVweezing
p4278
VWeezing
p4279
sVsheercold
p4280
VSheer Cold
p4281
sVmagearnaoriginal
p4282
VMagearna-Original
p4283
sVcacturne
p4284
VCacturne
p4285
sVpowder
p4286
VPowder
p4287
sVvictini
p4288
VVictini
p4289
sVfinneon
p4290
VFinneon
p4291
sVelectrode
p4292
VElectrode
p4293
sVbattery
p4294
VBattery
p4295
sVchestoberry
p4296
VChesto Berry
p4297
sVgrumpig
p4298
VGrumpig
p4299
sVbuginiumz
p4300
VBuginium Z
p4301
sVlifeorb
p4302
VLife Orb
p4303
sVgyarados
p4304
VGyarados
p4305
sVlycaniumz
p4306
VLycanium Z
p4307
sVvaporeon
p4308
VVaporeon
p4309
sVpartingshot
p4310
VParting Shot
p4311
sVrockincense
p4312
VRock Incense
p4313
sVfroslass
p4314
VFroslass
p4315
sVconfusion
p4316
VConfusion
p4317
sVcupra
p4318
VCupra
p4319
sVconversion2
p4320
VConversion 2
p4321
sVwhiscash
p4322
VWhiscash
p4323
sVcacnea
p4324
VCacnea
p4325
sVzoroark
p4326
VZoroark
p4327
sVshellsmash
p4328
VShell Smash
p4329
sVhydropump
p4330
VHydro Pump
p4331
sVswift
p4332
VSwift
p4333
sVhighjumpkick
p4334
VHigh Jump Kick
p4335
sVmetang
p4336
VMetang
p4337
sVbaddreams
p4338
VBad Dreams
p4339
sVklinklang
p4340
VKlinklang
p4341
sVaerodactyl
p4342
VAerodactyl
p4343
sVpoisonheal
p4344
VPoison Heal
p4345
sVsceptilite
p4346
VSceptilite
p4347
sVsafetygoggles
p4348
VSafety Goggles
p4349
sVklang
p4350
VKlang
p4351
sVgreninjaash
p4352
VGreninja-Ash
p4353
sVswallow
p4354
VSwallow
p4355
sVspritzee
p4356
VSpritzee
p4357
sVflabebe
p4358
S'Flabebe'
p4359
sVapicotberry
p4360
VApicot Berry
p4361
sVnumel
p4362
VNumel
p4363
sVwoodhammer
p4364
VWood Hammer
p4365
sVhiddenpowerwater
p4366
VHidden Power Water
p4367
sVmalaconda
p4368
VMalaconda
p4369
sVgible
p4370
VGible
p4371
sVovercoat
p4372
VOvercoat
p4373
sVekans
p4374
VEkans
p4375
sVsharpedomega
p4376
VSharpedo-Mega
p4377
sVpixieplate
p4378
VPixie Plate
p4379
sVvolkritter
p4380
VVolkritter
p4381
sVdugtrio
p4382
VDugtrio
p4383
sVdisarmingvoice
p4384
VDisarming Voice
p4385
sVwailord
p4386
VWailord
p4387
sVswoobat
p4388
VSwoobat
p4389
sVelectrify
p4390
VElectrify
p4391
sVbindingband
p4392
VBinding Band
p4393
sVoricoriosensu
p4394
VOricorio-Sensu
p4395
sVkeldeo
p4396
VKeldeo
p4397
sVrattata
p4398
VRattata
p4399
sVtomohawk
p4400
VTomohawk
p4401
sVivysaur
p4402
VIvysaur
p4403
sVgripclaw
p4404
VGrip Claw
p4405
sVhorndrill
p4406
VHorn Drill
p4407
sVcoverfossil
p4408
VCover Fossil
p4409
sVaccelgor
p4410
VAccelgor
p4411
sVsmeargle
p4412
VSmeargle
p4413
sVmetagrossmega
p4414
VMetagross-Mega
p4415
sVberserkgene
p4416
VBerserk Gene
p4417
sVbreezi
p4418
VBreezi
p4419
sVinfestation
p4420
VInfestation
p4421
sVpresent
p4422
VPresent
p4423
sVgrovyle
p4424
VGrovyle
p4425
sVpokestarf002
p4426
VPokestar F-002
p4427
sVintimidate
p4428
VIntimidate
p4429
sVharden
p4430
VHarden
p4431
sVpowerweight
p4432
VPower Weight
p4433
sVbeheeyem
p4434
VBeheeyem
p4435
sVgarchompmega
p4436
VGarchomp-Mega
p4437
sVmarshadow
p4438
VMarshadow
p4439
sVpelipper
p4440
VPelipper
p4441
sVthickfat
p4442
VThick Fat
p4443
sVcarracosta
p4444
VCarracosta
p4445
sVluxio
p4446
VLuxio
p4447
sVvullaby
p4448
VVullaby
p4449
sVhiddenpowerghost
p4450
VHidden Power Ghost
p4451
sVlightball
p4452
VLight Ball
p4453
sVwaterveil
p4454
VWater Veil
p4455
sVspelltag
p4456
VSpell Tag
p4457
sVdeoxysdefense
p4458
VDeoxys-Defense
p4459
sVzekrom
p4460
VZekrom
p4461
sVphantump
p4462
VPhantump
p4463
sVdefiant
p4464
VDefiant
p4465
sVhardstone
p4466
VHard Stone
p4467
sVkebiaberry
p4468
VKebia Berry
p4469
sVbergmite
p4470
VBergmite
p4471
sVcascoon
p4472
VCascoon
p4473
sVpowertrip
p4474
VPower Trip
p4475
sVmagcargo
p4476
VMagcargo
p4477
sVarceuswater
p4478
VArceus-Water
p4479
sVpikachuhoenn
p4480
VPikachu-Hoenn
p4481
sVraindish
p4482
VRain Dish
p4483
sVseaking
p4484
VSeaking
p4485
sVmagician
p4486
VMagician
p4487
sVdragoniumz
p4488
VDragonium Z
p4489
sVbibarel
p4490
VBibarel
p4491
sVpsybeam
p4492
VPsybeam
p4493
sVaspearberry
p4494
VAspear Berry
p4495
sVeelektross
p4496
VEelektross
p4497
sVpickpocket
p4498
VPickpocket
p4499
sVsitrusberry
p4500
VSitrus Berry
p4501
sVarceuspsychic
p4502
VArceus-Psychic
p4503
sVbeautifly
p4504
VBeautifly
p4505
sVwormadamtrash
p4506
VWormadam-Trash
p4507
sVvenoshock
p4508
VVenoshock
p4509
sVsilvallyfairy
p4510
VSilvally-Fairy
p4511
sVmudsport
p4512
VMud Sport
p4513
sVazelf
p4514
VAzelf
p4515
sVyanmega
p4516
VYanmega
p4517
sVnaviathan
p4518
VNaviathan
p4519
sVfairyaura
p4520
VFairy Aura
p4521
sVarceusdark
p4522
VArceus-Dark
p4523
sVpinsir
p4524
VPinsir
p4525
sVrotom
p4526
VRotom
p4527
sVguts
p4528
VGuts
p4529
sVtauros
p4530
VTauros
p4531
sVfearow
p4532
VFearow
p4533
sVfaketears
p4534
VFake Tears
p4535
sVsimple
p4536
VSimple
p4537
sVraikou
p4538
VRaikou
p4539
sVswellow
p4540
VSwellow
p4541
sVconfide
p4542
VConfide
p4543
sVleechlife
p4544
VLeech Life
p4545
sVaegislash
p4546
VAegislash
p4547
sVkingsshield
p4548
VKing's Shield
p4549
sVkingsrock
p4550
VKing's Rock
p4551
sVblukberry
p4552
VBluk Berry
p4553
sVflowershield
p4554
VFlower Shield
p4555
sVarenatrap
p4556
VArena Trap
p4557
sVtaunt
p4558
VTaunt
p4559
sVgoldeen
p4560
VGoldeen
p4561
sVducklett
p4562
VDucklett
p4563
sVgreninja
p4564
VGreninja
p4565
sVlatios
p4566
VLatios
p4567
sVdhelmise
p4568
VDhelmise
p4569
sVbudew
p4570
VBudew
p4571
sVgogoat
p4572
VGogoat
p4573
sVbaltoy
p4574
VBaltoy
p4575
sVhealball
p4576
VHeal Ball
p4577
sVphanpy
p4578
VPhanpy
p4579
sVaudinite
p4580
VAudinite
p4581
sVkoffing
p4582
VKoffing
p4583
sVrepeatball
p4584
VRepeat Ball
p4585
sVliquidation
p4586
VLiquidation
p4587
sVjangmoo
p4588
VJangmo-o
p4589
sVthief
p4590
VThief
p4591
sVhail
p4592
VHail
p4593
sVcofagrigus
p4594
VCofagrigus
p4595
sVgrowth
p4596
VGrowth
p4597
sVskarmory
p4598
VSkarmory
p4599
sVhitmontop
p4600
VHitmontop
p4601
sVdragonclaw
p4602
VDragon Claw
p4603
sVdrizzle
p4604
VDrizzle
p4605
sVzygarde10
p4606
VZygarde-10%
p4607
sVstaraptor
p4608
VStaraptor
p4609
sVmagicalleaf
p4610
VMagical Leaf
p4611
sVmeowsticf
p4612
VMeowstic-F
p4613
sVhurricane
p4614
VHurricane
p4615
sVlileep
p4616
VLileep
p4617
sVmagnitude
p4618
VMagnitude
p4619
sVjudgment
p4620
VJudgment
p4621
sVvenusaurite
p4622
VVenusaurite
p4623
sVraichu
p4624
VRaichu
p4625
sVcyclohm
p4626
VCyclohm
p4627
sVhappiny
p4628
VHappiny
p4629
sVpressure
p4630
VPressure
p4631
sVgraveler
p4632
VGraveler
p4633
sVsilkscarf
p4634
VSilk Scarf
p4635
sVpidgeotto
p4636
VPidgeotto
p4637
sVdreadplate
p4638
VDread Plate
p4639
sVsableyemega
p4640
VSableye-Mega
p4641
sVfurret
p4642
VFurret
p4643
sVsmellingsalts
p4644
VSmelling Salts
p4645
sVmiltank
p4646
VMiltank
p4647
sVmeteormash
p4648
VMeteor Mash
p4649
sVshucaberry
p4650
VShuca Berry
p4651
sVrockmemory
p4652
VRock Memory
p4653
sVwynaut
p4654
VWynaut
p4655
sVacidarmor
p4656
VAcid Armor
p4657
sVlightclay
p4658
VLight Clay
p4659
sVvoodoom
p4660
VVoodoom
p4661
sVblueorb
p4662
VBlue Orb
p4663
sVfeintattack
p4664
VFeint Attack
p4665
sVburmy
p4666
VBurmy
p4667
sVicememory
p4668
VIce Memory
p4669
sVcaimanoe
p4670
VCaimanoe
p4671
sVmagostberry
p4672
VMagost Berry
p4673
sVgrasspelt
p4674
VGrass Pelt
p4675
sVspitup
p4676
VSpit Up
p4677
sVstamina
p4678
VStamina
p4679
sVrockthrow
p4680
VRock Throw
p4681
sVroseliberry
p4682
VRoseli Berry
p4683
sVsandshrewalola
p4684
VSandshrew-Alola
p4685
sVambipom
p4686
VAmbipom
p4687
sVsolgaleo
p4688
VSolgaleo
p4689
sVfellstinger
p4690
VFell Stinger
p4691
sVfollowme
p4692
VFollow Me
p4693
sVclauncher
p4694
VClauncher
p4695
sVquickpowder
p4696
VQuick Powder
p4697
sVfrenzyplant
p4698
VFrenzy Plant
p4699
sVfrisk
p4700
VFrisk
p4701
sVpowerofalchemy
p4702
VPower of Alchemy
p4703
sVmagoberry
p4704
VMago Berry
p4705
sVcroconaw
p4706
VCroconaw
p4707
sVdrowzee
p4708
VDrowzee
p4709
sVserenegrace
p4710
VSerene Grace
p4711
sVoceanicoperetta
p4712
VOceanic Operetta
p4713
sVheracronite
p4714
VHeracronite
p4715
sVtechnician
p4716
VTechnician
p4717
sVarceusgrass
p4718
VArceus-Grass
p4719
sVmorelull
p4720
VMorelull
p4721
sVpikipek
p4722
VPikipek
p4723
sVpikachuunova
p4724
VPikachu-Unova
p4725
sVmetronome
p4726
VMetronome
p4727
sVattackorder
p4728
VAttack Order
p4729
sVallyswitch
p4730
VAlly Switch
p4731
sVhugepower
p4732
VHuge Power
p4733
sVentrainment
p4734
VEntrainment
p4735
sVtailwhip
p4736
VTail Whip
p4737
sVflameplate
p4738
VFlame Plate
p4739
sVscizormega
p4740
VScizor-Mega
p4741
sVthroatchop
p4742
VThroat Chop
p4743
sVhoneclaws
p4744
VHone Claws
p4745
sVgrassmemory
p4746
VGrass Memory
p4747
sVpikachurockstar
p4748
VPikachu-Rock-Star
p4749
sVoranberry
p4750
VOran Berry
p4751
sVstufful
p4752
VStufful
p4753
sVninjask
p4754
VNinjask
p4755
sVslowstart
p4756
VSlow Start
p4757
sVweakarmor
p4758
VWeak Armor
p4759
sVaurasphere
p4760
VAura Sphere
p4761
sVshelgon
p4762
VShelgon
p4763
sVrawstberry
p4764
VRawst Berry
p4765
sVshadowbone
p4766
VShadow Bone
p4767
sVpokestarblackbelt
p4768
VPokestar Black Belt
p4769
sVvacuumwave
p4770
VVacuum Wave
p4771
sVillusion
p4772
VIllusion
p4773
sVreckless
p4774
VReckless
p4775
sVyacheberry
p4776
VYache Berry
p4777
sVelectriumz
p4778
VElectrium Z
p4779
sVtreecko
p4780
VTreecko
p4781
sVdragonair
p4782
VDragonair
p4783
sVbraviary
p4784
VBraviary
p4785
sVvivillon
p4786
VVivillon
p4787
sVnoguard
p4788
VNo Guard
p4789
sVsalamencemega
p4790
VSalamence-Mega
p4791
sVabomasite
p4792
VAbomasite
p4793
sVstarmie
p4794
VStarmie
p4795
sVpersistent
p4796
VPersistent
p4797
sVmindblown
p4798
VMind Blown
p4799
sVmagmar
p4800
VMagmar
p4801
sVzangoose
p4802
VZangoose
p4803
sVvivillonfancy
p4804
VVivillon-Fancy
p4805
sVvanilluxe
p4806
VVanilluxe
p4807
s.