(dp1
Velectivire
p2
VElectivire
p3
sVanchorshot
p4
VAnchor Shot
p5
sVheracross
p6
VHeracross
p7
sVcolorchange
p8
VColor Change
p9
sVlucarionite
p10
VLucarionite
p11
sVpalkia
p12
VPalkia
p13
sVchatter
p14
VChatter
p15
sValakazite
p16
VAlakazite
p17
sVtickle
p18
VTickle
p19
sVarceuselectric
p20
VArceus-Electric
p21
sVabra
p22
VAbra
p23
sVexeggutoralola
p24
VExeggutor-Alola
p25
sVrecycle
p26
VRecycle
p27
sVtimerball
p28
VTimer Ball
p29
sVsteeliumz
p30
VSteelium Z
p31
sVsharpbeak
p32
VSharp Beak
p33
sVmewtwonitex
p34
VMewtwonite X
p35
sVmewtwonitey
p36
VMewtwonite Y
p37
sVquickclaw
p38
VQuick Claw
p39
sVoricoriopompom
p40
VOricorio-Pom-Pom
p41
sVdoubleslap
p42
VDouble Slap
p43
sVlurantis
p44
VLurantis
p45
sVeviolite
p46
VEviolite
p47
sVprotean
p48
VProtean
p49
sVsquirtle
p50
VSquirtle
p51
sVdiglettalola
p52
VDiglett-Alola
p53
sVdarmanitanzen
p54
VDarmanitan-Zen
p55
sVnastyplot
p56
VNasty Plot
p57
sVwormadam
p58
VWormadam
p59
sVmiracleberry
p60
VMiracle Berry
p61
sVaggronmega
p62
VAggron-Mega
p63
sVwhirlwind
p64
VWhirlwind
p65
sVplumefossil
p66
VPlume Fossil
p67
sVcherrim
p68
VCherrim
p69
sVhiddenpowerelectric
p70
VHidden Power Electric
p71
sVhiddenpowerfire
p72
VHidden Power Fire
p73
sVguillotine
p74
VGuillotine
p75
sVlevitate
p76
VLevitate
p77
sVgyaradosite
p78
VGyaradosite
p79
sVpomegberry
p80
VPomeg Berry
p81
sVpokestargiant
p82
VPokestar Giant
p83
sVmasquerain
p84
VMasquerain
p85
sVaccelerock
p86
VAccelerock
p87
sVthunder
p88
VThunder
p89
sVhaze
p90
VHaze
p91
sVdarkgem
p92
VDark Gem
p93
sVpokestarmt2
p94
VPokestar MT2
p95
sVfraxure
p96
VFraxure
p97
sVmoldbreaker
p98
VMold Breaker
p99
sVcrunch
p100
VCrunch
p101
sVrindoberry
p102
VRindo Berry
p103
sVlatiosite
p104
VLatiosite
p105
sVreflecttype
p106
VReflect Type
p107
sVsnivy
p108
VSnivy
p109
sVmefirst
p110
VMe First
p111
sVstarfberry
p112
VStarf Berry
p113
sVscizorite
p114
VScizorite
p115
sVmew
p116
VMew
p117
sVpursuit
p118
VPursuit
p119
sVheadsmash
p120
VHead Smash
p121
sVaftermath
p122
VAftermath
p123
sVmintberry
p124
VMint Berry
p125
sVclawitzer
p126
VClawitzer
p127
sVpixilate
p128
VPixilate
p129
sVtornadustherian
p130
VTornadus-Therian
p131
sVlunatone
p132
VLunatone
p133
sVpunishment
p134
VPunishment
p135
sVpoisontouch
p136
VPoison Touch
p137
sVfeebas
p138
VFeebas
p139
sVneedlearm
p140
VNeedle Arm
p141
sValtarianite
p142
VAltarianite
p143
sVblastburn
p144
VBlast Burn
p145
sVhonchkrow
p146
VHonchkrow
p147
sVschooling
p148
VSchooling
p149
sVtirtouga
p150
VTirtouga
p151
sVampharos
p152
VAmpharos
p153
sVdusclops
p154
VDusclops
p155
sVpoisonbarb
p156
VPoison Barb
p157
sVmorningsun
p158
VMorning Sun
p159
sVfreezedry
p160
VFreeze-Dry
p161
sVmandibuzz
p162
VMandibuzz
p163
sVoverheat
p164
VOverheat
p165
sVwishiwashischool
p166
VWishiwashi-School
p167
sVspiritomb
p168
VSpiritomb
p169
sVvoltabsorb
p170
VVolt Absorb
p171
sVpurugly
p172
VPurugly
p173
sVshiftgear
p174
VShift Gear
p175
sVvenomoth
p176
VVenomoth
p177
sVfirstimpression
p178
VFirst Impression
p179
sVcastformrainy
p180
VCastform-Rainy
p181
sVbigroot
p182
VBig Root
p183
sVcobalion
p184
VCobalion
p185
sVgardevoir
p186
VGardevoir
p187
sVsheerforce
p188
VSheer Force
p189
sVmagnetrise
p190
VMagnet Rise
p191
sVnaive
p192
VNaive
p193
sVreuniclus
p194
VReuniclus
p195
sVbeastboost
p196
VBeast Boost
p197
sVsceptilemega
p198
VSceptile-Mega
p199
sVlunge
p200
VLunge
p201
sVcharjabug
p202
VCharjabug
p203
sVsteelmemory
p204
VSteel Memory
p205
sVbeastball
p206
VBeast Ball
p207
sVkitsunoh
p208
VKitsunoh
p209
sVarceusbug
p210
VArceus-Bug
p211
sVgranbull
p212
VGranbull
p213
sVmeditite
p214
VMeditite
p215
sVpidgeot
p216
VPidgeot
p217
sVsilvallypoison
p218
VSilvally-Poison
p219
sVtangledfeet
p220
VTangled Feet
p221
sVigglybuff
p222
VIgglybuff
p223
sVonix
p224
VOnix
p225
sVgrimer
p226
VGrimer
p227
sVrototiller
p228
VRototiller
p229
sVlucariomega
p230
VLucario-Mega
p231
sVbugbite
p232
VBug Bite
p233
sVpoisongas
p234
VPoison Gas
p235
sVmakuhita
p236
VMakuhita
p237
sVfriendball
p238
VFriend Ball
p239
sVattract
p240
VAttract
p241
sVcharizarditey
p242
VCharizardite Y
p243
sVcharizarditex
p244
VCharizardite X
p245
sVhyperspacehole
p246
VHyperspace Hole
p247
sVskydrop
p248
VSky Drop
p249
sVcrabhammer
p250
VCrabhammer
p251
sVtoxic
p252
VToxic
p253
sVcastformsunny
p254
VCastform-Sunny
p255
sVrotomheat
p256
VRotom-Heat
p257
sVsportball
p258
VSport Ball
p259
sVpoisonpowder
p260
VPoison Powder
p261
sVredcard
p262
VRed Card
p263
sVmodest
p264
VModest
p265
sVtynamo
p266
VTynamo
p267
sVliquidvoice
p268
VLiquid Voice
p269
sVcherubi
p270
VCherubi
p271
sVleafstorm
p272
VLeaf Storm
p273
sVpokestarufo2
p274
VPokestar UFO-2
p275
sVpoweranklet
p276
VPower Anklet
p277
sVspookyplate
p278
VSpooky Plate
p279
sVhasty
p280
VHasty
p281
sVraichualola
p282
VRaichu-Alola
p283
sVentei
p284
VEntei
p285
sVdecidueye
p286
VDecidueye
p287
sVarceussteel
p288
VArceus-Steel
p289
sVcobaberry
p290
VCoba Berry
p291
sVlaggingtail
p292
VLagging Tail
p293
sVfinalgambit
p294
VFinal Gambit
p295
sVrapidash
p296
VRapidash
p297
sVdoubleteam
p298
VDouble Team
p299
sVlumineon
p300
VLumineon
p301
sVgligar
p302
VGligar
p303
sVshielddust
p304
VShield Dust
p305
sVmagicbounce
p306
VMagic Bounce
p307
sVfakeout
p308
VFake Out
p309
sVsludge
p310
VSludge
p311
sVvenusaur
p312
VVenusaur
p313
sVphione
p314
VPhione
p315
sVmindplate
p316
VMind Plate
p317
sVgrassyseed
p318
VGrassy Seed
p319
sVflameburst
p320
VFlame Burst
p321
sVzapplate
p322
VZap Plate
p323
sVmunna
p324
VMunna
p325
sVdragonscale
p326
VDragon Scale
p327
sVdryskin
p328
VDry Skin
p329
sVnihilego
p330
VNihilego
p331
sVmimikyu
p332
VMimikyu
p333
sVkricketot
p334
VKricketot
p335
sVgroundiumz
p336
VGroundium Z
p337
sVroost
p338
VRoost
p339
sVfurycutter
p340
VFury Cutter
p341
sVirontail
p342
VIron Tail
p343
sVclangingscales
p344
VClanging Scales
p345
sVheatmor
p346
VHeatmor
p347
sVeggbomb
p348
VEgg Bomb
p349
sVluxray
p350
VLuxray
p351
sVpayback
p352
VPayback
p353
sVexcadrill
p354
VExcadrill
p355
sVgloom
p356
VGloom
p357
sVgluttony
p358
VGluttony
p359
sVtapukoko
p360
VTapu Koko
p361
sVvulpix
p362
VVulpix
p363
sVcradily
p364
VCradily
p365
sVwimpod
p366
VWimpod
p367
sVthunderfang
p368
VThunder Fang
p369
sVblastoisemega
p370
VBlastoise-Mega
p371
sVespeon
p372
VEspeon
p373
sVtogedemaru
p374
VTogedemaru
p375
sVmultitype
p376
VMultitype
p377
sVflameorb
p378
VFlame Orb
p379
sVpanpour
p380
VPanpour
p381
sVhiddenpowerdragon
p382
VHidden Power Dragon
p383
sVfairywind
p384
VFairy Wind
p385
sVgothorita
p386
VGothorita
p387
sVomastar
p388
VOmastar
p389
sVwalrein
p390
VWalrein
p391
sVsawsbuck
p392
VSawsbuck
p393
sVtruant
p394
VTruant
p395
sVqualotberry
p396
VQualot Berry
p397
sVflowergift
p398
VFlower Gift
p399
sVpsychic
p400
VPsychic
p401
sVlifeorb
p402
VLife Orb
p403
sVvulpixalola
p404
VVulpix-Alola
p405
sVkasibberry
p406
VKasib Berry
p407
sVribombee
p408
VRibombee
p409
sVargalis
p410
VArgalis
p411
sVcottonguard
p412
VCotton Guard
p413
sVtornadus
p414
VTornadus
p415
sVshedshell
p416
VShed Shell
p417
sVbarrier
p418
VBarrier
p419
sVleftovers
p420
VLeftovers
p421
sVcoreenforcer
p422
VCore Enforcer
p423
sVsynchronoise
p424
VSynchronoise
p425
sVbestow
p426
VBestow
p427
sVtrumpcard
p428
VTrump Card
p429
sVsweetveil
p430
VSweet Veil
p431
sViceball
p432
VIce Ball
p433
sVgalladite
p434
VGalladite
p435
sVshiftry
p436
VShiftry
p437
sVfletchinder
p438
VFletchinder
p439
sVbeartic
p440
VBeartic
p441
sVkyuremblack
p442
VKyurem-Black
p443
sVsonicboom
p444
VSonic Boom
p445
sVfightinggem
p446
VFighting Gem
p447
sVgroudonprimal
p448
VGroudon-Primal
p449
sVlatias
p450
VLatias
p451
sVfilter
p452
VFilter
p453
sVsteelixmega
p454
VSteelix-Mega
p455
sVtapuniumz
p456
VTapunium Z
p457
sVcherishball
p458
VCherish Ball
p459
sVcheriberry
p460
VCheri Berry
p461
sVfightingmemory
p462
VFighting Memory
p463
sVnaughty
p464
VNaughty
p465
sVseedflare
p466
VSeed Flare
p467
sVhydrocannon
p468
VHydro Cannon
p469
sVmagneticflux
p470
VMagnetic Flux
p471
sVdeoxys
p472
VDeoxys
p473
sVursaring
p474
VUrsaring
p475
sVlatiasmega
p476
VLatias-Mega
p477
sVrattataalola
p478
VRattata-Alola
p479
sVinstruct
p480
VInstruct
p481
sVembirch
p482
VEmbirch
p483
sVshieldon
p484
VShieldon
p485
sVslugma
p486
VSlugma
p487
sVheracrossmega
p488
VHeracross-Mega
p489
sVwaveincense
p490
VWave Incense
p491
sVmanectite
p492
VManectite
p493
sVinnardsout
p494
VInnards Out
p495
sVpikachupopstar
p496
VPikachu-Pop-Star
p497
sVmudsdale
p498
VMudsdale
p499
sVaircutter
p500
VAir Cutter
p501
sVgiratinaorigin
p502
VGiratina-Origin
p503
sVgrowlithe
p504
VGrowlithe
p505
sVinferno
p506
VInferno
p507
sVtwister
p508
VTwister
p509
sVarceusdragon
p510
VArceus-Dragon
p511
sVflamethrower
p512
VFlamethrower
p513
sVtoxicorb
p514
VToxic Orb
p515
sVfairylock
p516
VFairy Lock
p517
sVrockclimb
p518
VRock Climb
p519
sVwonderroom
p520
VWonder Room
p521
sVmegakick
p522
VMega Kick
p523
sVdoomdesire
p524
VDoom Desire
p525
sVmirrormove
p526
VMirror Move
p527
sVsandshrew
p528
VSandshrew
p529
sVpolitoed
p530
VPolitoed
p531
sVminun
p532
VMinun
p533
sVbelueberry
p534
VBelue Berry
p535
sVgeodudealola
p536
VGeodude-Alola
p537
sVfloralhealing
p538
VFloral Healing
p539
sVfiriumz
p540
VFirium Z
p541
sVendure
p542
VEndure
p543
sVswiftswim
p544
VSwift Swim
p545
sVshellbell
p546
VShell Bell
p547
sVminus
p548
VMinus
p549
sVmeowth
p550
VMeowth
p551
sVprankster
p552
VPrankster
p553
sVwacanberry
p554
VWacan Berry
p555
sVsylveon
p556
VSylveon
p557
sVpayapaberry
p558
VPayapa Berry
p559
sVclosecombat
p560
VClose Combat
p561
sVsilvallydark
p562
VSilvally-Dark
p563
sVmetalclaw
p564
VMetal Claw
p565
sVseel
p566
VSeel
p567
sVblastoise
p568
VBlastoise
p569
sVstrength
p570
VStrength
p571
sVchingling
p572
VChingling
p573
sVgothita
p574
VGothita
p575
sVyungoos
p576
VYungoos
p577
sVcraftyshield
p578
VCrafty Shield
p579
sVgyroball
p580
VGyro Ball
p581
sVrhyperior
p582
VRhyperior
p583
sVgolbat
p584
VGolbat
p585
sVgrassyterrain
p586
VGrassy Terrain
p587
sVdeoxysspeed
p588
VDeoxys-Speed
p589
sVpikachucosplay
p590
VPikachu-Cosplay
p591
sVshadowforce
p592
VShadow Force
p593
sVcoil
p594
VCoil
p595
sVdrought
p596
VDrought
p597
sVfeint
p598
VFeint
p599
sVcosmicpower
p600
VCosmic Power
p601
sVempoleon
p602
VEmpoleon
p603
sVthousandwaves
p604
VThousand Waves
p605
sVdunsparce
p606
VDunsparce
p607
sVnincada
p608
VNincada
p609
sVconstrict
p610
VConstrict
p611
sVvileplume
p612
VVileplume
p613
sVraticate
p614
VRaticate
p615
sVcinccino
p616
VCinccino
p617
sVjirachi
p618
VJirachi
p619
sVgolduck
p620
VGolduck
p621
sVshiinotic
p622
VShiinotic
p623
sVarmorfossil
p624
VArmor Fossil
p625
sVstickyweb
p626
VSticky Web
p627
sVtogekiss
p628
VTogekiss
p629
sVhippopotas
p630
VHippopotas
p631
sVdialga
p632
VDialga
p633
sVlastresort
p634
VLast Resort
p635
sVpsychicterrain
p636
VPsychic Terrain
p637
sVbulletpunch
p638
VBullet Punch
p639
sVicegem
p640
VIce Gem
p641
sVspite
p642
VSpite
p643
sVcarbink
p644
VCarbink
p645
sVwaterpulse
p646
VWater Pulse
p647
sVstoutland
p648
VStoutland
p649
sVgenesissupernova
p650
VGenesis Supernova
p651
sVbidoof
p652
VBidoof
p653
sVsyclant
p654
VSyclant
p655
sVhaunter
p656
VHaunter
p657
sVweedle
p658
VWeedle
p659
sVaerilate
p660
VAerilate
p661
sVhoneygather
p662
VHoney Gather
p663
sVmachop
p664
VMachop
p665
sVpoisoniumz
p666
VPoisonium Z
p667
sVguardianofalola
p668
VGuardian of Alola
p669
sVdusknoir
p670
VDusknoir
p671
sVmeditate
p672
VMeditate
p673
sVreversal
p674
VReversal
p675
sVlunardance
p676
VLunar Dance
p677
sVpumpkaboosmall
p678
VPumpkaboo-Small
p679
sVtentacool
p680
VTentacool
p681
sVpokeball
p682
VPoke Ball
p683
sVsilvally
p684
VSilvally
p685
sVdiancie
p686
VDiancie
p687
sVplasmanta
p688
VPlasmanta
p689
sVnosepass
p690
VNosepass
p691
sVmawilite
p692
VMawilite
p693
sVlaxincense
p694
VLax Incense
p695
sVmagneton
p696
VMagneton
p697
sVstickyhold
p698
VSticky Hold
p699
sVbeatup
p700
VBeat Up
p701
sVleafblade
p702
VLeaf Blade
p703
sVfluffy
p704
VFluffy
p705
sVserperior
p706
VSerperior
p707
sVlopunnite
p708
VLopunnite
p709
sVwooper
p710
VWooper
p711
sVforretress
p712
VForretress
p713
sVmindreader
p714
VMind Reader
p715
sVseaincense
p716
VSea Incense
p717
sVsimisage
p718
VSimisage
p719
sVsolarblade
p720
VSolar Blade
p721
sVarcheops
p722
VArcheops
p723
sVheavymetal
p724
VHeavy Metal
p725
sVwormadamsandy
p726
VWormadam-Sandy
p727
sVpsychiumz
p728
VPsychium Z
p729
sVspiritshackle
p730
VSpirit Shackle
p731
sVcontinentalcrush
p732
VContinental Crush
p733
sVmuscleband
p734
VMuscle Band
p735
sVtwinkletackle
p736
VTwinkle Tackle
p737
sVmatblock
p738
VMat Block
p739
sVmoongeistbeam
p740
VMoongeist Beam
p741
sVdoduo
p742
VDoduo
p743
sVmuk
p744
VMuk
p745
sVmotordrive
p746
VMotor Drive
p747
sVconfusion
p748
VConfusion
p749
sVslowpoke
p750
VSlowpoke
p751
sVfrostbreath
p752
VFrost Breath
p753
sVvirizion
p754
VVirizion
p755
sVspinda
p756
VSpinda
p757
sVcosmoem
p758
VCosmoem
p759
sVmeadowplate
p760
VMeadow Plate
p761
sVparasect
p762
VParasect
p763
sVgourgeistsmall
p764
VGourgeist-Small
p765
sVadamantorb
p766
VAdamant Orb
p767
sVprotect
p768
VProtect
p769
sVplaynice
p770
VPlay Nice
p771
sVsamurott
p772
VSamurott
p773
sVreceiver
p774
VReceiver
p775
sVmawile
p776
VMawile
p777
sVchimecho
p778
VChimecho
p779
sVpetayaberry
p780
VPetaya Berry
p781
sVdoublade
p782
VDoublade
p783
sVpsychicseed
p784
VPsychic Seed
p785
sVdeltastream
p786
VDelta Stream
p787
sVluckychant
p788
VLucky Chant
p789
sVleppaberry
p790
VLeppa Berry
p791
sVlick
p792
VLick
p793
sVoblivious
p794
VOblivious
p795
sVfierydance
p796
VFiery Dance
p797
sVfloatzel
p798
VFloatzel
p799
sVsmackdown
p800
VSmack Down
p801
sVcopycat
p802
VCopycat
p803
sVsalamencite
p804
VSalamencite
p805
sVbuneary
p806
VBuneary
p807
sVrevelationdance
p808
VRevelation Dance
p809
sVshockdrive
p810
VShock Drive
p811
sVnightdaze
p812
VNight Daze
p813
sVfriendguard
p814
VFriend Guard
p815
sVscaryface
p816
VScary Face
p817
sVsteamroller
p818
VSteamroller
p819
sVsalazzle
p820
VSalazzle
p821
sVwimpout
p822
VWimp Out
p823
sVkakuna
p824
VKakuna
p825
sVpowertrick
p826
VPower Trick
p827
sVyanma
p828
VYanma
p829
sVsilvallyfire
p830
VSilvally-Fire
p831
sVchatot
p832
VChatot
p833
sVaciddownpour
p834
VAcid Downpour
p835
sVmarshtomp
p836
VMarshtomp
p837
sVgurdurr
p838
VGurdurr
p839
sVsoundproof
p840
VSoundproof
p841
sVslam
p842
VSlam
p843
sVthrash
p844
VThrash
p845
sVsandrush
p846
VSand Rush
p847
sVsliggoo
p848
VSliggoo
p849
sVtotodile
p850
VTotodile
p851
sVgarchompite
p852
VGarchompite
p853
sVslowbro
p854
VSlowbro
p855
sVprismaticlaser
p856
VPrismatic Laser
p857
sValakazam
p858
VAlakazam
p859
sVbinacle
p860
VBinacle
p861
sVhitmonlee
p862
VHitmonlee
p863
sVmarowakalola
p864
VMarowak-Alola
p865
sVnevermeltice
p866
VNever-Melt Ice
p867
sVgrowl
p868
VGrowl
p869
sViciumz
p870
VIcium Z
p871
sVaguavberry
p872
VAguav Berry
p873
sVdrilbur
p874
VDrilbur
p875
sVcameruptite
p876
VCameruptite
p877
sVralts
p878
VRalts
p879
sVpupitar
p880
VPupitar
p881
sVkyurem
p882
VKyurem
p883
sVslowking
p884
VSlowking
p885
sVpowerherb
p886
VPower Herb
p887
sVnoivern
p888
VNoivern
p889
sVwaterfall
p890
VWaterfall
p891
sVdewgong
p892
VDewgong
p893
sVflyiniumz
p894
VFlyinium Z
p895
sVkirlia
p896
VKirlia
p897
sVknockoff
p898
VKnock Off
p899
sVoctazooka
p900
VOctazooka
p901
sVcawmodore
p902
VCawmodore
p903
sVpikachubelle
p904
VPikachu-Belle
p905
sVluxuryball
p906
VLuxury Ball
p907
sVhydration
p908
VHydration
p909
sVkrokorok
p910
VKrokorok
p911
sVamoonguss
p912
VAmoonguss
p913
sVsilvallygrass
p914
VSilvally-Grass
p915
sVquilladin
p916
VQuilladin
p917
sVshellarmor
p918
VShell Armor
p919
sVpoliwag
p920
VPoliwag
p921
sVslushrush
p922
VSlush Rush
p923
sVmetalcoat
p924
VMetal Coat
p925
sVthickclub
p926
VThick Club
p927
sVdugtrioalola
p928
VDugtrio-Alola
p929
sVdisguise
p930
VDisguise
p931
sVscizor
p932
VScizor
p933
sVfloetteeternal
p934
VFloette-Eternal
p935
sVkerfluffle
p936
VKerfluffle
p937
sVsilcoon
p938
VSilcoon
p939
sVbuggem
p940
VBug Gem
p941
sVdragonmemory
p942
VDragon Memory
p943
sVoshawott
p944
VOshawott
p945
sVtorterra
p946
VTorterra
p947
sVtogepi
p948
VTogepi
p949
sVdomefossil
p950
VDome Fossil
p951
sVadamant
p952
VAdamant
p953
sVlowkick
p954
VLow Kick
p955
sVhealbell
p956
VHeal Bell
p957
sVmirrorshot
p958
VMirror Shot
p959
sVtapufini
p960
VTapu Fini
p961
sVlickitung
p962
VLickitung
p963
sVpassimian
p964
VPassimian
p965
sVlatiosmega
p966
VLatios-Mega
p967
sVdragonrush
p968
VDragon Rush
p969
sVredorb
p970
VRed Orb
p971
sVspinarak
p972
VSpinarak
p973
sVdiggersby
p974
VDiggersby
p975
sVsilverwind
p976
VSilver Wind
p977
sVsunnyday
p978
VSunny Day
p979
sVludicolo
p980
VLudicolo
p981
sVditto
p982
VDitto
p983
sVcirclethrow
p984
VCircle Throw
p985
sVfullmetalbody
p986
VFull Metal Body
p987
sValloutpummeling
p988
VAll-Out Pummeling
p989
sVinfernooverdrive
p990
VInferno Overdrive
p991
sVpinsirmega
p992
VPinsir-Mega
p993
sVhiddenpowerpoison
p994
VHidden Power Poison
p995
sVflatter
p996
VFlatter
p997
sVtoxicspikes
p998
VToxic Spikes
p999
sVfirepledge
p1000
VFire Pledge
p1001
sVnoctowl
p1002
VNoctowl
p1003
sVcornnberry
p1004
VCornn Berry
p1005
sVskullfossil
p1006
VSkull Fossil
p1007
sVcheekpouch
p1008
VCheek Pouch
p1009
sVuproar
p1010
VUproar
p1011
sVgoldberry
p1012
VGold Berry
p1013
sVferrothorn
p1014
VFerrothorn
p1015
sVexpertbelt
p1016
VExpert Belt
p1017
sVholdhands
p1018
VHold Hands
p1019
sVcrosschop
p1020
VCross Chop
p1021
sVpsyshock
p1022
VPsyshock
p1023
sVicyrock
p1024
VIcy Rock
p1025
sVsoulheart
p1026
VSoul-Heart
p1027
sVtrevenant
p1028
VTrevenant
p1029
sVabsorbbulb
p1030
VAbsorb Bulb
p1031
sVbold
p1032
VBold
p1033
sVgunkshot
p1034
VGunk Shot
p1035
sVmagearna
p1036
VMagearna
p1037
sVarceusfire
p1038
VArceus-Fire
p1039
sVgarchomp
p1040
VGarchomp
p1041
sVgeodude
p1042
VGeodude
p1043
sVlightscreen
p1044
VLight Screen
p1045
sVwhimsicott
p1046
VWhimsicott
p1047
sVlavaplume
p1048
VLava Plume
p1049
sVkeeneye
p1050
VKeen Eye
p1051
sVsimipour
p1052
VSimipour
p1053
sVtrumbeak
p1054
VTrumbeak
p1055
sVautotomize
p1056
VAutotomize
p1057
sVspikecannon
p1058
VSpike Cannon
p1059
sVnecturna
p1060
VNecturna
p1061
sVplus
p1062
VPlus
p1063
sVnidoqueen
p1064
VNidoqueen
p1065
sVsapsipper
p1066
VSap Sipper
p1067
sVpikachulibre
p1068
VPikachu-Libre
p1069
sVthunderpunch
p1070
VThunder Punch
p1071
sVhornleech
p1072
VHorn Leech
p1073
sVbraixen
p1074
VBraixen
p1075
sVdarkvoid
p1076
VDark Void
p1077
sVsupersonicskystrike
p1078
VSupersonic Skystrike
p1079
sVhoundour
p1080
VHoundour
p1081
sVdualchop
p1082
VDual Chop
p1083
sVfoulplay
p1084
VFoul Play
p1085
sVscyther
p1086
VScyther
p1087
sVgalewings
p1088
VGale Wings
p1089
sVstormdrain
p1090
VStorm Drain
p1091
sVseadra
p1092
VSeadra
p1093
sVovergrow
p1094
VOvergrow
p1095
sVgengarmega
p1096
VGengar-Mega
p1097
sVbronzor
p1098
VBronzor
p1099
sVwrap
p1100
VWrap
p1101
sVterrainextender
p1102
VTerrain Extender
p1103
sVcorsola
p1104
VCorsola
p1105
sVtransform
p1106
VTransform
p1107
sVklefki
p1108
VKlefki
p1109
sVrowapberry
p1110
VRowap Berry
p1111
sVquirky
p1112
VQuirky
p1113
sVquickattack
p1114
VQuick Attack
p1115
sVsynthesis
p1116
VSynthesis
p1117
sVmultiscale
p1118
VMultiscale
p1119
sVgroundgem
p1120
VGround Gem
p1121
sVreshiram
p1122
VReshiram
p1123
sVrocksmash
p1124
VRock Smash
p1125
sVvolttackle
p1126
VVolt Tackle
p1127
sVghostgem
p1128
VGhost Gem
p1129
sVleafage
p1130
VLeafage
p1131
sVroughskin
p1132
VRough Skin
p1133
sVsafeguard
p1134
VSafeguard
p1135
sVsmoothrock
p1136
VSmooth Rock
p1137
sVcosmog
p1138
VCosmog
p1139
sVgearup
p1140
VGear Up
p1141
sVbide
p1142
VBide
p1143
sVaurabreak
p1144
VAura Break
p1145
sVaurorus
p1146
VAurorus
p1147
sVlightofruin
p1148
VLight of Ruin
p1149
sVstokedsparksurfer
p1150
VStoked Sparksurfer
p1151
sVholdback
p1152
VHold Back
p1153
sVpoweruppunch
p1154
VPower-Up Punch
p1155
sVunnerve
p1156
VUnnerve
p1157
sVparentalbond
p1158
VParental Bond
p1159
sVferaligatr
p1160
VFeraligatr
p1161
sVpokestarbrycenman
p1162
VPokestar Brycen-Man
p1163
sVoddish
p1164
VOddish
p1165
sVleer
p1166
VLeer
p1167
sVmagby
p1168
VMagby
p1169
sVtypenull
p1170
VType: Null
p1171
sVswadloon
p1172
VSwadloon
p1173
sVvibrava
p1174
VVibrava
p1175
sVuxie
p1176
VUxie
p1177
sVsmoochum
p1178
VSmoochum
p1179
sVlansatberry
p1180
VLansat Berry
p1181
sVbutterfree
p1182
VButterfree
p1183
sVferroseed
p1184
VFerroseed
p1185
sVgoomy
p1186
VGoomy
p1187
sVamaura
p1188
VAmaura
p1189
sVminiormeteor
p1190
VMinior-Meteor
p1191
sVclawfossil
p1192
VClaw Fossil
p1193
sVdischarge
p1194
VDischarge
p1195
sVkyogre
p1196
VKyogre
p1197
sVstrengthsap
p1198
VStrength Sap
p1199
sVpoisonpoint
p1200
VPoison Point
p1201
sVhiddenpowerground
p1202
VHidden Power Ground
p1203
sVarceuspoison
p1204
VArceus-Poison
p1205
sVliechiberry
p1206
VLiechi Berry
p1207
sVlillipup
p1208
VLillipup
p1209
sVsilvallyflying
p1210
VSilvally-Flying
p1211
sVspectralthief
p1212
VSpectral Thief
p1213
sVflareboost
p1214
VFlare Boost
p1215
sVmareep
p1216
VMareep
p1217
sVoccaberry
p1218
VOcca Berry
p1219
sVironfist
p1220
VIron Fist
p1221
sVserious
p1222
VSerious
p1223
sVmegadrain
p1224
VMega Drain
p1225
sVsalacberry
p1226
VSalac Berry
p1227
sVpolkadotbow
p1228
VPolkadot Bow
p1229
sVsnubbull
p1230
VSnubbull
p1231
sVsandveil
p1232
VSand Veil
p1233
sVabsolite
p1234
VAbsolite
p1235
sVbonsly
p1236
VBonsly
p1237
sVnecrozma
p1238
VNecrozma
p1239
sVcelebi
p1240
VCelebi
p1241
sVavalanche
p1242
VAvalanche
p1243
sVshadowsneak
p1244
VShadow Sneak
p1245
sVsuctioncups
p1246
VSuction Cups
p1247
sVwaterbubble
p1248
VWater Bubble
p1249
sVsuperpower
p1250
VSuperpower
p1251
sVchinchou
p1252
VChinchou
p1253
sVvenusaurmega
p1254
VVenusaur-Mega
p1255
sVweezing
p1256
VWeezing
p1257
sVdragonpulse
p1258
VDragon Pulse
p1259
sVelectroball
p1260
VElectro Ball
p1261
sVflash
p1262
VFlash
p1263
sVnetball
p1264
VNet Ball
p1265
sVcharge
p1266
VCharge
p1267
sVquash
p1268
VQuash
p1269
sVsnorlax
p1270
VSnorlax
p1271
sVblackholeeclipse
p1272
VBlack Hole Eclipse
p1273
sVunburden
p1274
VUnburden
p1275
sVrufflet
p1276
VRufflet
p1277
sVmachamp
p1278
VMachamp
p1279
sVkricketune
p1280
VKricketune
p1281
sVtailslap
p1282
VTail Slap
p1283
sVjynx
p1284
VJynx
p1285
sVlopunny
p1286
VLopunny
p1287
sVtwistedspoon
p1288
VTwisted Spoon
p1289
sVtoucannon
p1290
VToucannon
p1291
sVpikachualola
p1292
VPikachu-Alola
p1293
sVskyuppercut
p1294
VSky Uppercut
p1295
sVmimejr
p1296
VMime Jr.
p1297
sVguzzlord
p1298
VGuzzlord
p1299
sVpoisonsting
p1300
VPoison Sting
p1301
sVdig
p1302
VDig
p1303
sVfocusblast
p1304
VFocus Blast
p1305
sVmesprit
p1306
VMesprit
p1307
sVmagnet
p1308
VMagnet
p1309
sVbanettemega
p1310
VBanette-Mega
p1311
sVround
p1312
VRound
p1313
sVunaware
p1314
VUnaware
p1315
sVduskball
p1316
VDusk Ball
p1317
sVfalseswipe
p1318
VFalse Swipe
p1319
sVtalonflame
p1320
VTalonflame
p1321
sVleafeon
p1322
VLeafeon
p1323
sVpokestarufopropu2
p1324
VPokestar UFO-PropU2
p1325
sVminior
p1326
VMinior
p1327
sVzorua
p1328
VZorua
p1329
sVfairymemory
p1330
VFairy Memory
p1331
sVvitalthrow
p1332
VVital Throw
p1333
sVsubstitute
p1334
VSubstitute
p1335
sVcurse
p1336
VCurse
p1337
sVfocusband
p1338
VFocus Band
p1339
sVmoltres
p1340
VMoltres
p1341
sVpasshoberry
p1342
VPassho Berry
p1343
sVtanglinghair
p1344
VTangling Hair
p1345
sVdragondance
p1346
VDragon Dance
p1347
sVaxew
p1348
VAxew
p1349
sVgolemalola
p1350
VGolem-Alola
p1351
sVkecleon
p1352
VKecleon
p1353
sVglameow
p1354
VGlameow
p1355
sVaeroblast
p1356
VAeroblast
p1357
sVwartortle
p1358
VWartortle
p1359
sVexplosion
p1360
VExplosion
p1361
sVmiracleeye
p1362
VMiracle Eye
p1363
sVpumpkaboo
p1364
VPumpkaboo
p1365
sVsimisear
p1366
VSimisear
p1367
sVhoopa
p1368
VHoopa
p1369
sVtropius
p1370
VTropius
p1371
sVgroundmemory
p1372
VGround Memory
p1373
sVmysticwater
p1374
VMystic Water
p1375
sVearthquake
p1376
VEarthquake
p1377
sVgastroacid
p1378
VGastro Acid
p1379
sVejectbutton
p1380
VEject Button
p1381
sVbeedrillmega
p1382
VBeedrill-Mega
p1383
sVexploud
p1384
VExploud
p1385
sVdiveball
p1386
VDive Ball
p1387
sVsawk
p1388
VSawk
p1389
sVsandygast
p1390
VSandygast
p1391
sVdedenne
p1392
VDedenne
p1393
sVdragonite
p1394
VDragonite
p1395
sVbagon
p1396
VBagon
p1397
sVregenerator
p1398
VRegenerator
p1399
sViondeluge
p1400
VIon Deluge
p1401
sVlarvesta
p1402
VLarvesta
p1403
sVmudslap
p1404
VMud-Slap
p1405
sVhawlucha
p1406
VHawlucha
p1407
sVmagicroom
p1408
VMagic Room
p1409
sVampharosite
p1410
VAmpharosite
p1411
sVdesolateland
p1412
VDesolate Land
p1413
sVpinsirite
p1414
VPinsirite
p1415
sVheavyslam
p1416
VHeavy Slam
p1417
sVpinmissile
p1418
VPin Missile
p1419
sVkyogreprimal
p1420
VKyogre-Primal
p1421
sVbanefulbunker
p1422
VBaneful Bunker
p1423
sVtakedown
p1424
VTake Down
p1425
sVcaptivate
p1426
VCaptivate
p1427
sVflamecharge
p1428
VFlame Charge
p1429
sVswagger
p1430
VSwagger
p1431
sVxatu
p1432
VXatu
p1433
sVrockslide
p1434
VRock Slide
p1435
sVcaterpie
p1436
VCaterpie
p1437
sVhypno
p1438
VHypno
p1439
sVscratchet
p1440
VScratchet
p1441
sVelectrike
p1442
VElectrike
p1443
sVfletchling
p1444
VFletchling
p1445
sVseismictoss
p1446
VSeismic Toss
p1447
sVdarumaka
p1448
VDarumaka
p1449
sVuturn
p1450
VU-turn
p1451
sVflygon
p1452
VFlygon
p1453
sVsandstorm
p1454
VSandstorm
p1455
sVswampertite
p1456
VSwampertite
p1457
sVswablu
p1458
VSwablu
p1459
sVcatastropika
p1460
VCatastropika
p1461
sVspikyshield
p1462
VSpiky Shield
p1463
sVscolipede
p1464
VScolipede
p1465
sVdwebble
p1466
VDwebble
p1467
sVpignite
p1468
VPignite
p1469
sVsolarpower
p1470
VSolar Power
p1471
sVvespiquen
p1472
VVespiquen
p1473
sVpalpitoad
p1474
VPalpitoad
p1475
sVchilldrive
p1476
VChill Drive
p1477
sVnormalize
p1478
VNormalize
p1479
sVbanette
p1480
VBanette
p1481
sVtearfullook
p1482
VTearful Look
p1483
sVtailwind
p1484
VTailwind
p1485
sVdianciemega
p1486
VDiancie-Mega
p1487
sVwideguard
p1488
VWide Guard
p1489
sVeelektrik
p1490
VEelektrik
p1491
sVsandforce
p1492
VSand Force
p1493
sVdarkestlariat
p1494
VDarkest Lariat
p1495
sVpowerbelt
p1496
VPower Belt
p1497
sVelectricterrain
p1498
VElectric Terrain
p1499
sVoctillery
p1500
VOctillery
p1501
sVselfdestruct
p1502
VSelf-Destruct
p1503
sVstantler
p1504
VStantler
p1505
sVdive
p1506
VDive
p1507
sVarmaldo
p1508
VArmaldo
p1509
sVdarkmemory
p1510
VDark Memory
p1511
sVwiseglasses
p1512
VWise Glasses
p1513
sVmilkdrink
p1514
VMilk Drink
p1515
sVpowerwhip
p1516
VPower Whip
p1517
sVancientpower
p1518
VAncient Power
p1519
sVblissey
p1520
VBlissey
p1521
sVcryogonal
p1522
VCryogonal
p1523
sVsupersonic
p1524
VSupersonic
p1525
sVpsychicfangs
p1526
VPsychic Fangs
p1527
sVdelibird
p1528
VDelibird
p1529
sVelectricsurge
p1530
VElectric Surge
p1531
sVmalamar
p1532
VMalamar
p1533
sVpurify
p1534
VPurify
p1535
sVshinx
p1536
VShinx
p1537
sVclamperl
p1538
VClamperl
p1539
sVlitwick
p1540
VLitwick
p1541
sVslowbronite
p1542
VSlowbronite
p1543
sVriolu
p1544
VRiolu
p1545
sVlugia
p1546
VLugia
p1547
sVbulletseed
p1548
VBullet Seed
p1549
sVbubblebeam
p1550
VBubble Beam
p1551
sVpachirisu
p1552
VPachirisu
p1553
sVtoxicthread
p1554
VToxic Thread
p1555
sVchilanberry
p1556
VChilan Berry
p1557
sVarcanine
p1558
VArcanine
p1559
sVsneasel
p1560
VSneasel
p1561
sVgrassknot
p1562
VGrass Knot
p1563
sVauroraveil
p1564
VAurora Veil
p1565
sVklutz
p1566
VKlutz
p1567
sVpokestarspirit
p1568
VPokestar Spirit
p1569
sVbulldoze
p1570
VBulldoze
p1571
sVfocusenergy
p1572
VFocus Energy
p1573
sVprimordialsea
p1574
VPrimordial Sea
p1575
sVsnugglow
p1576
VSnugglow
p1577
sVkabuto
p1578
VKabuto
p1579
sVmail
p1580
VMail
p1581
sVfuryswipes
p1582
VFury Swipes
p1583
sVlonely
p1584
VLonely
p1585
sVfling
p1586
VFling
p1587
sVrattled
p1588
VRattled
p1589
sVinsomnia
p1590
VInsomnia
p1591
sVwatermemory
p1592
VWater Memory
p1593
sVfusionflare
p1594
VFusion Flare
p1595
sVsafariball
p1596
VSafari Ball
p1597
sVeffectspore
p1598
VEffect Spore
p1599
sVboomburst
p1600
VBoomburst
p1601
sVregice
p1602
VRegice
p1603
sVlinoone
p1604
VLinoone
p1605
sValtariamega
p1606
VAltaria-Mega
p1607
sVpowerconstruct
p1608
VPower Construct
p1609
sVsynchronize
p1610
VSynchronize
p1611
sVsilvallyghost
p1612
VSilvally-Ghost
p1613
sVmantine
p1614
VMantine
p1615
sVglalie
p1616
VGlalie
p1617
sVpsyduck
p1618
VPsyduck
p1619
sVmentalherb
p1620
VMental Herb
p1621
sVswalot
p1622
VSwalot
p1623
sVgenesectburn
p1624
VGenesect-Burn
p1625
sVporygonz
p1626
VPorygon-Z
p1627
sVstrugglebug
p1628
VStruggle Bug
p1629
sVpersian
p1630
VPersian
p1631
sVcorkscrewcrash
p1632
VCorkscrew Crash
p1633
sVsilvallybug
p1634
VSilvally-Bug
p1635
sVsinisterarrowraid
p1636
VSinister Arrow Raid
p1637
sVsandslashalola
p1638
VSandslash-Alola
p1639
sVlycanroc
p1640
VLycanroc
p1641
sVshaymin
p1642
VShaymin
p1643
sVpidove
p1644
VPidove
p1645
sVrockiumz
p1646
VRockium Z
p1647
sVskillswap
p1648
VSkill Swap
p1649
sVtorracat
p1650
VTorracat
p1651
sVassurance
p1652
VAssurance
p1653
sVpoochyena
p1654
VPoochyena
p1655
sVpokestarblackdoor
p1656
VPokestar Black Door
p1657
sVporygon2
p1658
VPorygon2
p1659
sVtoxicroak
p1660
VToxicroak
p1661
sVsteelwing
p1662
VSteel Wing
p1663
sVunown
p1664
VUnown
p1665
sVbitterberry
p1666
VBitter Berry
p1667
sVpoliwhirl
p1668
VPoliwhirl
p1669
sVpetilil
p1670
VPetilil
p1671
sVtelepathy
p1672
VTelepathy
p1673
sVstufful
p1674
VStufful
p1675
sVnidorino
p1676
VNidorino
p1677
sVmeloettapirouette
p1678
VMeloetta-Pirouette
p1679
sVnidorina
p1680
VNidorina
p1681
sVhypnosis
p1682
VHypnosis
p1683
sVdurinberry
p1684
VDurin Berry
p1685
sVdragonrage
p1686
VDragon Rage
p1687
sVjolteon
p1688
VJolteon
p1689
sVdefensecurl
p1690
VDefense Curl
p1691
sVnecturine
p1692
VNecturine
p1693
sVrocktomb
p1694
VRock Tomb
p1695
sVchikorita
p1696
VChikorita
p1697
sVrockyhelmet
p1698
VRocky Helmet
p1699
sVspewpa
p1700
VSpewpa
p1701
sVjabocaberry
p1702
VJaboca Berry
p1703
sVhoppip
p1704
VHoppip
p1705
sVpalossand
p1706
VPalossand
p1707
sViceshard
p1708
VIce Shard
p1709
sVgiratina
p1710
VGiratina
p1711
sVteravolt
p1712
VTeravolt
p1713
sVbite
p1714
VBite
p1715
sVduosion
p1716
VDuosion
p1717
sVaromatherapy
p1718
VAromatherapy
p1719
sVsleeptalk
p1720
VSleep Talk
p1721
sVconfuseray
p1722
VConfuse Ray
p1723
sVdrainpunch
p1724
VDrain Punch
p1725
sVgliscor
p1726
VGliscor
p1727
sVseedot
p1728
VSeedot
p1729
sVsnatch
p1730
VSnatch
p1731
sVslakoth
p1732
VSlakoth
p1733
sVbunnelby
p1734
VBunnelby
p1735
sVdrapion
p1736
VDrapion
p1737
sVpeck
p1738
VPeck
p1739
sVchespin
p1740
VChespin
p1741
sVghostmemory
p1742
VGhost Memory
p1743
sVkartana
p1744
VKartana
p1745
sVearthplate
p1746
VEarth Plate
p1747
sVgarbodor
p1748
VGarbodor
p1749
sVtrickortreat
p1750
VTrick-or-Treat
p1751
sVcubone
p1752
VCubone
p1753
sVhiddenpowerrock
p1754
VHidden Power Rock
p1755
sVrazzberry
p1756
VRazz Berry
p1757
sVchlorophyll
p1758
VChlorophyll
p1759
sVpluffle
p1760
VPluffle
p1761
sVsilvallyrock
p1762
VSilvally-Rock
p1763
sViceberry
p1764
VIce Berry
p1765
sVsandstream
p1766
VSand Stream
p1767
sVledyba
p1768
VLedyba
p1769
sVaquatail
p1770
VAqua Tail
p1771
sVarceusdark
p1772
VArceus-Dark
p1773
sVkrilowatt
p1774
VKrilowatt
p1775
sVrecover
p1776
VRecover
p1777
sVflyingmemory
p1778
VFlying Memory
p1779
sVconversion
p1780
VConversion
p1781
sVelectrode
p1782
VElectrode
p1783
sVreckless
p1784
VReckless
p1785
sVhiddenpowerdark
p1786
VHidden Power Dark
p1787
sVmetalsound
p1788
VMetal Sound
p1789
sVarghonaut
p1790
VArghonaut
p1791
sVbeedrill
p1792
VBeedrill
p1793
sVsurf
p1794
VSurf
p1795
sVgriseousorb
p1796
VGriseous Orb
p1797
sVneverendingnightmare
p1798
VNever-Ending Nightmare
p1799
sVmountaineer
p1800
VMountaineer
p1801
sVstunky
p1802
VStunky
p1803
sVtrace
p1804
VTrace
p1805
sVquagsire
p1806
VQuagsire
p1807
sVgeargrind
p1808
VGear Grind
p1809
sVdarkrai
p1810
VDarkrai
p1811
sVbarrage
p1812
VBarrage
p1813
sVbonemerang
p1814
VBonemerang
p1815
sVstunfisk
p1816
VStunfisk
p1817
sVadaptability
p1818
VAdaptability
p1819
sVespurr
p1820
VEspurr
p1821
sVleaftornado
p1822
VLeaf Tornado
p1823
sVhyperfang
p1824
VHyper Fang
p1825
sVdracoplate
p1826
VDraco Plate
p1827
sVhyperspacefury
p1828
VHyperspace Fury
p1829
sVelectirizer
p1830
VElectirizer
p1831
sVmollux
p1832
VMollux
p1833
sVmuddywater
p1834
VMuddy Water
p1835
sVmothim
p1836
VMothim
p1837
sVcompoundeyes
p1838
VCompound Eyes
p1839
sVdelphox
p1840
VDelphox
p1841
sVbrattler
p1842
VBrattler
p1843
sVhakamoo
p1844
VHakamo-o
p1845
sVtintedlens
p1846
VTinted Lens
p1847
sVgolurk
p1848
VGolurk
p1849
sVfigyberry
p1850
VFigy Berry
p1851
sVgoodra
p1852
VGoodra
p1853
sVrevenankh
p1854
VRevenankh
p1855
sVvolbeat
p1856
VVolbeat
p1857
sVpulverizingpancake
p1858
VPulverizing Pancake
p1859
sVemergencyexit
p1860
VEmergency Exit
p1861
sVburndrive
p1862
VBurn Drive
p1863
sVpartingshot
p1864
VParting Shot
p1865
sVpatrat
p1866
VPatrat
p1867
sVacupressure
p1868
VAcupressure
p1869
sVanalytic
p1870
VAnalytic
p1871
sVsilvallysteel
p1872
VSilvally-Steel
p1873
sVprobopass
p1874
VProbopass
p1875
sVoutrage
p1876
VOutrage
p1877
sVleavanny
p1878
VLeavanny
p1879
sVlycanrocmidnight
p1880
VLycanroc-Midnight
p1881
sVkinesis
p1882
VKinesis
p1883
sVweaknesspolicy
p1884
VWeakness Policy
p1885
sVstomp
p1886
VStomp
p1887
sVpersianalola
p1888
VPersian-Alola
p1889
sVboneclub
p1890
VBone Club
p1891
sVtelekinesis
p1892
VTelekinesis
p1893
sVmoxie
p1894
VMoxie
p1895
sVcelebrate
p1896
VCelebrate
p1897
sVshuppet
p1898
VShuppet
p1899
sVparkball
p1900
VPark Ball
p1901
sVcupra
p1902
VCupra
p1903
sVlatiasite
p1904
VLatiasite
p1905
sVcrucibelle
p1906
VCrucibelle
p1907
sVwonderskin
p1908
VWonder Skin
p1909
sVhiddenpowerfighting
p1910
VHidden Power Fighting
p1911
sVimposter
p1912
VImposter
p1913
sVspore
p1914
VSpore
p1915
sVforesight
p1916
VForesight
p1917
sVdetect
p1918
VDetect
p1919
sVsteadfast
p1920
VSteadfast
p1921
sVlimber
p1922
VLimber
p1923
sVbatonpass
p1924
VBaton Pass
p1925
sVbeakblast
p1926
VBeak Blast
p1927
sVforecast
p1928
VForecast
p1929
sVwhiscash
p1930
VWhiscash
p1931
sVsnowwarning
p1932
VSnow Warning
p1933
sVjustified
p1934
VJustified
p1935
sVghostiumz
p1936
VGhostium Z
p1937
sVdamprock
p1938
VDamp Rock
p1939
sVhariyama
p1940
VHariyama
p1941
sVcrawdaunt
p1942
VCrawdaunt
p1943
sVpluck
p1944
VPluck
p1945
sVfuryattack
p1946
VFury Attack
p1947
sVroseincense
p1948
VRose Incense
p1949
sVspiderweb
p1950
VSpider Web
p1951
sVbrutalswing
p1952
VBrutal Swing
p1953
sVdestinyknot
p1954
VDestiny Knot
p1955
sVluminousmoss
p1956
VLuminous Moss
p1957
sVvivillonpokeball
p1958
VVivillon-Pokeball
p1959
sVpoisonmemory
p1960
VPoison Memory
p1961
sVsteelix
p1962
VSteelix
p1963
sVnestball
p1964
VNest Ball
p1965
sVberry
p1966
VBerry
p1967
sVcellbattery
p1968
VCell Battery
p1969
sVpheromosa
p1970
VPheromosa
p1971
sVwingattack
p1972
VWing Attack
p1973
sVnormalgem
p1974
VNormal Gem
p1975
sVsmartstrike
p1976
VSmart Strike
p1977
sVhiddenpowersteel
p1978
VHidden Power Steel
p1979
sVtyranitarite
p1980
VTyranitarite
p1981
sVdodrio
p1982
VDodrio
p1983
sVtapubulu
p1984
VTapu Bulu
p1985
sVstancechange
p1986
VStance Change
p1987
sVzapdos
p1988
VZapdos
p1989
sVendeavor
p1990
VEndeavor
p1991
sVechoedvoice
p1992
VEchoed Voice
p1993
sVrunaway
p1994
VRun Away
p1995
sVlandswrath
p1996
VLand's Wrath
p1997
sVmawilemega
p1998
VMawile-Mega
p1999
sVdewpider
p2000
VDewpider
p2001
sVlightmetal
p2002
VLight Metal
p2003
sVburntberry
p2004
VBurnt Berry
p2005
sVstunspore
p2006
VStun Spore
p2007
sVxerneas
p2008
VXerneas
p2009
sVchopleberry
p2010
VChople Berry
p2011
sVhighjumpkick
p2012
VHigh Jump Kick
p2013
sVpokestarsmeargle
p2014
VPokestar Smeargle
p2015
sVgripclaw
p2016
VGrip Claw
p2017
sVlopunnymega
p2018
VLopunny-Mega
p2019
sVwhirlipede
p2020
VWhirlipede
p2021
sVflamebody
p2022
VFlame Body
p2023
sVhelioptile
p2024
VHelioptile
p2025
sVcresselia
p2026
VCresselia
p2027
sVvictreebel
p2028
VVictreebel
p2029
sVomanyte
p2030
VOmanyte
p2031
sVbreloom
p2032
VBreloom
p2033
sVstormthrow
p2034
VStorm Throw
p2035
sVhealblock
p2036
VHeal Block
p2037
sVswanna
p2038
VSwanna
p2039
sVskiddo
p2040
VSkiddo
p2041
sVcareful
p2042
VCareful
p2043
sVmudshot
p2044
VMud Shot
p2045
sVsteelworker
p2046
VSteelworker
p2047
sVdefeatist
p2048
VDefeatist
p2049
sVbugmemory
p2050
VBug Memory
p2051
sVtrick
p2052
VTrick
p2053
sVlandorus
p2054
VLandorus
p2055
sVgroudon
p2056
VGroudon
p2057
sVspotlight
p2058
VSpotlight
p2059
sVrhyhorn
p2060
VRhyhorn
p2061
sVquiet
p2062
VQuiet
p2063
sVshadowclaw
p2064
VShadow Claw
p2065
sVsacredfire
p2066
VSacred Fire
p2067
sVmonferno
p2068
VMonferno
p2069
sVvicegrip
p2070
VVice Grip
p2071
sVgourgeistlarge
p2072
VGourgeist-Large
p2073
sVcubchoo
p2074
VCubchoo
p2075
sVprimariumz
p2076
VPrimarium Z
p2077
sVhiddenpowerice
p2078
VHidden Power Ice
p2079
sVextremespeed
p2080
VExtreme Speed
p2081
sVangerpoint
p2082
VAnger Point
p2083
sVphantomforce
p2084
VPhantom Force
p2085
sVstrongjaw
p2086
VStrong Jaw
p2087
sVbrionne
p2088
VBrionne
p2089
sVkrookodile
p2090
VKrookodile
p2091
sVnuzzle
p2092
VNuzzle
p2093
sVmistysurge
p2094
VMisty Surge
p2095
sVgenesectshock
p2096
VGenesect-Shock
p2097
sVmagnetbomb
p2098
VMagnet Bomb
p2099
sVassist
p2100
VAssist
p2101
sVblaziken
p2102
VBlaziken
p2103
sVbulletproof
p2104
VBulletproof
p2105
sVsteelgem
p2106
VSteel Gem
p2107
sVpangoro
p2108
VPangoro
p2109
sVhypervoice
p2110
VHyper Voice
p2111
sVminimize
p2112
VMinimize
p2113
sVdoublehit
p2114
VDouble Hit
p2115
sVmedicham
p2116
VMedicham
p2117
sVmrmime
p2118
VMr. Mime
p2119
sVmasterball
p2120
VMaster Ball
p2121
sVspark
p2122
VSpark
p2123
sVdrampa
p2124
VDrampa
p2125
sVrazorwind
p2126
VRazor Wind
p2127
sVfurcoat
p2128
VFur Coat
p2129
sVhealingwish
p2130
VHealing Wish
p2131
sVquickguard
p2132
VQuick Guard
p2133
sVpowerband
p2134
VPower Band
p2135
sVwingull
p2136
VWingull
p2137
sVsnorliumz
p2138
VSnorlium Z
p2139
sVfurfrou
p2140
VFurfrou
p2141
sVchimchar
p2142
VChimchar
p2143
sVdarkaura
p2144
VDark Aura
p2145
sVrazorclaw
p2146
VRazor Claw
p2147
sVdragonbreath
p2148
VDragon Breath
p2149
sVelgyem
p2150
VElgyem
p2151
sVduskull
p2152
VDuskull
p2153
sVcometpunch
p2154
VComet Punch
p2155
sVaerialace
p2156
VAerial Ace
p2157
sVparas
p2158
VParas
p2159
sVrayquazamega
p2160
VRayquaza-Mega
p2161
sVflareblitz
p2162
VFlare Blitz
p2163
sVxurkitree
p2164
VXurkitree
p2165
sVtrubbish
p2166
VTrubbish
p2167
sVsnarl
p2168
VSnarl
p2169
sVmachpunch
p2170
VMach Punch
p2171
sVvolkraken
p2172
VVolkraken
p2173
sVsunkern
p2174
VSunkern
p2175
sVbreakneckblitz
p2176
VBreakneck Blitz
p2177
sVcolossoil
p2178
VColossoil
p2179
sVdreamball
p2180
VDream Ball
p2181
sVsnore
p2182
VSnore
p2183
sVfloatstone
p2184
VFloat Stone
p2185
sVskiploom
p2186
VSkiploom
p2187
sVregigigas
p2188
VRegigigas
p2189
sVzingzap
p2190
VZing Zap
p2191
sVvoltswitch
p2192
VVolt Switch
p2193
sVarceusrock
p2194
VArceus-Rock
p2195
sVbrightpowder
p2196
VBrightPowder
p2197
sVhypercutter
p2198
VHyper Cutter
p2199
sVvanillite
p2200
VVanillite
p2201
sVchoiceband
p2202
VChoice Band
p2203
sVheartswap
p2204
VHeart Swap
p2205
sVsubzeroslammer
p2206
VSubzero Slammer
p2207
sVheatcrash
p2208
VHeat Crash
p2209
sVpinapberry
p2210
VPinap Berry
p2211
sVminccino
p2212
VMinccino
p2213
sVbellsprout
p2214
VBellsprout
p2215
sVprinplup
p2216
VPrinplup
p2217
sVaudinomega
p2218
VAudino-Mega
p2219
sVmachoke
p2220
VMachoke
p2221
sVultraball
p2222
VUltra Ball
p2223
sVcrustle
p2224
VCrustle
p2225
sVpowergem
p2226
VPower Gem
p2227
sViceburn
p2228
VIce Burn
p2229
sVbattlearmor
p2230
VBattle Armor
p2231
sVvolcanion
p2232
VVolcanion
p2233
sVcastformsnowy
p2234
VCastform-Snowy
p2235
sVhustle
p2236
VHustle
p2237
sVthroh
p2238
VThroh
p2239
sVmusharna
p2240
VMusharna
p2241
sVinnerfocus
p2242
VInner Focus
p2243
sVbasculinbluestriped
p2244
VBasculin-Blue-Striped
p2245
sVdragonhammer
p2246
VDragon Hammer
p2247
sVhornattack
p2248
VHorn Attack
p2249
sVcomfey
p2250
VComfey
p2251
sVzapcannon
p2252
VZap Cannon
p2253
sVroar
p2254
VRoar
p2255
sVlockon
p2256
VLock-On
p2257
sVfloette
p2258
VFloette
p2259
sVgengar
p2260
VGengar
p2261
sVroserade
p2262
VRoserade
p2263
sVaudino
p2264
VAudino
p2265
sVquilava
p2266
VQuilava
p2267
sVcustapberry
p2268
VCustap Berry
p2269
sVsearingshot
p2270
VSearing Shot
p2271
sVstratagem
p2272
VStratagem
p2273
sVpyroar
p2274
VPyroar
p2275
sVfennekin
p2276
VFennekin
p2277
sVshadowpunch
p2278
VShadow Punch
p2279
sVfocuspunch
p2280
VFocus Punch
p2281
sVbindingband
p2282
VBinding Band
p2283
sVtoughclaws
p2284
VTough Claws
p2285
sVforewarn
p2286
VForewarn
p2287
sViciclespear
p2288
VIcicle Spear
p2289
sVpyroak
p2290
VPyroak
p2291
sVgigalith
p2292
VGigalith
p2293
sVsurgesurfer
p2294
VSurge Surfer
p2295
sVhex
p2296
VHex
p2297
sVmarill
p2298
VMarill
p2299
sVprimarina
p2300
VPrimarina
p2301
sVsymbiosis
p2302
VSymbiosis
p2303
sVgalvanize
p2304
VGalvanize
p2305
sVwillowisp
p2306
VWill-O-Wisp
p2307
sVbubble
p2308
VBubble
p2309
sVfastball
p2310
VFast Ball
p2311
sVglaciate
p2312
VGlaciate
p2313
sVnightshade
p2314
VNight Shade
p2315
sVfrogadier
p2316
VFrogadier
p2317
sVporygon
p2318
VPorygon
p2319
sVheatrock
p2320
VHeat Rock
p2321
sVvitalspirit
p2322
VVital Spirit
p2323
sVcrabominable
p2324
VCrabominable
p2325
sVrage
p2326
VRage
p2327
sVsandshrewalola
p2328
VSandshrew-Alola
p2329
sVvictorystar
p2330
VVictory Star
p2331
sVvinewhip
p2332
VVine Whip
p2333
sVstoneplate
p2334
VStone Plate
p2335
sVember
p2336
VEmber
p2337
sVsplashplate
p2338
VSplash Plate
p2339
sVpowdersnow
p2340
VPowder Snow
p2341
sVrockruff
p2342
VRockruff
p2343
sVchesnaught
p2344
VChesnaught
p2345
sVgrepaberry
p2346
VGrepa Berry
p2347
sVrhydon
p2348
VRhydon
p2349
sVsmokescreen
p2350
VSmokescreen
p2351
sVmoonblast
p2352
VMoonblast
p2353
sVcolburberry
p2354
VColbur Berry
p2355
sVsilvallydragon
p2356
VSilvally-Dragon
p2357
sVhydrovortex
p2358
VHydro Vortex
p2359
sVsoulstealing7starstrike
p2360
VSoul-Stealing 7-Star Strike
p2361
sVimmunity
p2362
VImmunity
p2363
sVtangela
p2364
VTangela
p2365
sVcharizard
p2366
VCharizard
p2367
sVgolem
p2368
VGolem
p2369
sVstompingtantrum
p2370
VStomping Tantrum
p2371
sVmirrorcoat
p2372
VMirror Coat
p2373
sVemboar
p2374
VEmboar
p2375
sVdustox
p2376
VDustox
p2377
sVrootfossil
p2378
VRoot Fossil
p2379
sVzigzagoon
p2380
VZigzagoon
p2381
sVtackle
p2382
VTackle
p2383
sVpopplio
p2384
VPopplio
p2385
sVrotomwash
p2386
VRotom-Wash
p2387
sVgrudge
p2388
VGrudge
p2389
sVcyndaquil
p2390
VCyndaquil
p2391
sVblueflare
p2392
VBlue Flare
p2393
sVdefog
p2394
VDefog
p2395
sVberserkgene
p2396
VBerserk Gene
p2397
sVskyattack
p2398
VSky Attack
p2399
sVmoonlight
p2400
VMoonlight
p2401
sVmimic
p2402
VMimic
p2403
sVstockpile
p2404
VStockpile
p2405
sVoddincense
p2406
VOdd Incense
p2407
sVmeloetta
p2408
VMeloetta
p2409
sVgardevoirmega
p2410
VGardevoir-Mega
p2411
sVlairon
p2412
VLairon
p2413
sVeerieimpulse
p2414
VEerie Impulse
p2415
sVscrappy
p2416
VScrappy
p2417
sVtogetic
p2418
VTogetic
p2419
sVfirepunch
p2420
VFire Punch
p2421
sVunfezant
p2422
VUnfezant
p2423
sVmicleberry
p2424
VMicle Berry
p2425
sVjolly
p2426
VJolly
p2427
sVsalandit
p2428
VSalandit
p2429
sVbewear
p2430
VBewear
p2431
sVlightningrod
p2432
VLightning Rod
p2433
sVgigadrain
p2434
VGiga Drain
p2435
sVsilverpowder
p2436
VSilverPowder
p2437
sVvanillish
p2438
VVanillish
p2439
sVvenomdrench
p2440
VVenom Drench
p2441
sVbayleef
p2442
VBayleef
p2443
sVhondewberry
p2444
VHondew Berry
p2445
sVbloomdoom
p2446
VBloom Doom
p2447
sVtympole
p2448
VTympole
p2449
sVwigglytuff
p2450
VWigglytuff
p2451
sVtyranitarmega
p2452
VTyranitar-Mega
p2453
sVicepunch
p2454
VIce Punch
p2455
sVgalvantula
p2456
VGalvantula
p2457
sVcombusken
p2458
VCombusken
p2459
sVcloudnine
p2460
VCloud Nine
p2461
sVmienshao
p2462
VMienshao
p2463
sVkeeberry
p2464
VKee Berry
p2465
sVsteameruption
p2466
VSteam Eruption
p2467
sVmild
p2468
VMild
p2469
sVscrafty
p2470
VScrafty
p2471
sVsecretpower
p2472
VSecret Power
p2473
sVshadowtag
p2474
VShadow Tag
p2475
sVpidgeotmega
p2476
VPidgeot-Mega
p2477
sVmagearnaoriginal
p2478
VMagearna-Original
p2479
sVdoublekick
p2480
VDouble Kick
p2481
sVsandtomb
p2482
VSand Tomb
p2483
sVflorges
p2484
VFlorges
p2485
sVgourgeistsuper
p2486
VGourgeist-Super
p2487
sVironbarbs
p2488
VIron Barbs
p2489
sValtaria
p2490
VAltaria
p2491
sVcrushgrip
p2492
VCrush Grip
p2493
sVmagikarp
p2494
VMagikarp
p2495
sVseedbomb
p2496
VSeed Bomb
p2497
sVmeganium
p2498
VMeganium
p2499
sVchipaway
p2500
VChip Away
p2501
sVhealer
p2502
VHealer
p2503
sVfeatherdance
p2504
VFeather Dance
p2505
sVshockwave
p2506
VShock Wave
p2507
sVironplate
p2508
VIron Plate
p2509
sVgreatball
p2510
VGreat Ball
p2511
sVcawdet
p2512
VCawdet
p2513
sVwateriumz
p2514
VWaterium Z
p2515
sVfightiniumz
p2516
VFightinium Z
p2517
sVheartstamp
p2518
VHeart Stamp
p2519
sVboldore
p2520
VBoldore
p2521
sVcombee
p2522
VCombee
p2523
sVdragonfang
p2524
VDragon Fang
p2525
sVgastly
p2526
VGastly
p2527
sVrevenge
p2528
VRevenge
p2529
sVclearsmog
p2530
VClear Smog
p2531
sVsteenee
p2532
VSteenee
p2533
sVanticipation
p2534
VAnticipation
p2535
sVinfernape
p2536
VInfernape
p2537
sVdecidiumz
p2538
VDecidium Z
p2539
sVaromatisse
p2540
VAromatisse
p2541
sVbattlebond
p2542
VBattle Bond
p2543
sVkyuremwhite
p2544
VKyurem-White
p2545
sVpokestarhumanoid
p2546
VPokestar Humanoid
p2547
sVacidspray
p2548
VAcid Spray
p2549
sVcursedbody
p2550
VCursed Body
p2551
sVpowerbracer
p2552
VPower Bracer
p2553
sVwringout
p2554
VWring Out
p2555
sVstarly
p2556
VStarly
p2557
sVstruggle
p2558
VStruggle
p2559
sVgolett
p2560
VGolett
p2561
sVinciniumz
p2562
VIncinium Z
p2563
sVgyaradosmega
p2564
VGyarados-Mega
p2565
sVgallade
p2566
VGallade
p2567
sVoranguru
p2568
VOranguru
p2569
sVledian
p2570
VLedian
p2571
sVcutiefly
p2572
VCutiefly
p2573
sVscraggy
p2574
VScraggy
p2575
sVelectricseed
p2576
VElectric Seed
p2577
sVluvdisc
p2578
VLuvdisc
p2579
sVhelixfossil
p2580
VHelix Fossil
p2581
sVsavagespinout
p2582
VSavage Spin-Out
p2583
sVsplash
p2584
VSplash
p2585
sVillumise
p2586
VIllumise
p2587
sVgirafarig
p2588
VGirafarig
p2589
sVanorith
p2590
VAnorith
p2591
sVfairiumz
p2592
VFairium Z
p2593
sVdizzypunch
p2594
VDizzy Punch
p2595
sVflyingpress
p2596
VFlying Press
p2597
sVbounsweet
p2598
VBounsweet
p2599
sVpumpkaboosuper
p2600
VPumpkaboo-Super
p2601
sVhorsea
p2602
VHorsea
p2603
sVstick
p2604
VStick
p2605
sVrazorfang
p2606
VRazor Fang
p2607
sVwatergem
p2608
VWater Gem
p2609
sVturboblaze
p2610
VTurboblaze
p2611
sVaegislashblade
p2612
VAegislash-Blade
p2613
sVnaturalgift
p2614
VNatural Gift
p2615
sVenergypowder
p2616
VEnergy Powder
p2617
sVchartiberry
p2618
VCharti Berry
p2619
sVlumberry
p2620
VLum Berry
p2621
sVvoltorb
p2622
VVoltorb
p2623
sVshadowshield
p2624
VShadow Shield
p2625
sVskyplate
p2626
VSky Plate
p2627
sVsableye
p2628
VSableye
p2629
sVseviper
p2630
VSeviper
p2631
sVmarvelscale
p2632
VMarvel Scale
p2633
sVaurumoth
p2634
VAurumoth
p2635
sVflowerveil
p2636
VFlower Veil
p2637
sVstaryu
p2638
VStaryu
p2639
sVwishiwashi
p2640
VWishiwashi
p2641
sVshelltrap
p2642
VShell Trap
p2643
sVwikiberry
p2644
VWiki Berry
p2645
sVwobbuffet
p2646
VWobbuffet
p2647
sVteleport
p2648
VTeleport
p2649
sVshelmet
p2650
VShelmet
p2651
sVglalitite
p2652
VGlalitite
p2653
sVflyinggem
p2654
VFlying Gem
p2655
sVbulkup
p2656
VBulk Up
p2657
sVglaceon
p2658
VGlaceon
p2659
sVwonderguard
p2660
VWonder Guard
p2661
sVprismarmor
p2662
VPrism Armor
p2663
sVelectricgem
p2664
VElectric Gem
p2665
sVrotomfan
p2666
VRotom-Fan
p2667
sVsignalbeam
p2668
VSignal Beam
p2669
sVshuckle
p2670
VShuckle
p2671
sVreflect
p2672
VReflect
p2673
sVdisable
p2674
VDisable
p2675
sVliquidooze
p2676
VLiquid Ooze
p2677
sVmistyterrain
p2678
VMisty Terrain
p2679
sVfairygem
p2680
VFairy Gem
p2681
sVmedichammega
p2682
VMedicham-Mega
p2683
sVtoxicplate
p2684
VToxic Plate
p2685
sVlanturn
p2686
VLanturn
p2687
sVpineco
p2688
VPineco
p2689
sVcomatose
p2690
VComatose
p2691
sVretaliate
p2692
VRetaliate
p2693
sVphantump
p2694
VPhantump
p2695
sVgolisopod
p2696
VGolisopod
p2697
sVqueenlymajesty
p2698
VQueenly Majesty
p2699
sVcorphish
p2700
VCorphish
p2701
sVbastiodon
p2702
VBastiodon
p2703
sVwatmelberry
p2704
VWatmel Berry
p2705
sVarticuno
p2706
VArticuno
p2707
sVfissure
p2708
VFissure
p2709
sVvolcarona
p2710
VVolcarona
p2711
sVblackglasses
p2712
VBlack Glasses
p2713
sVplayrough
p2714
VPlay Rough
p2715
sVhealorder
p2716
VHeal Order
p2717
sVjigglypuff
p2718
VJigglypuff
p2719
sVsandslash
p2720
VSandslash
p2721
sVastonish
p2722
VAstonish
p2723
sVenergyball
p2724
VEnergy Ball
p2725
sVaggron
p2726
VAggron
p2727
sVlampent
p2728
VLampent
p2729
sVfistplate
p2730
VFist Plate
p2731
sVreturn
p2732
VReturn
p2733
sVmanectricmega
p2734
VManectric-Mega
p2735
sVsnowball
p2736
VSnowball
p2737
sVsolarbeam
p2738
VSolar Beam
p2739
sVcharizardmegax
p2740
VCharizard-Mega-X
p2741
sVcharizardmegay
p2742
VCharizard-Mega-Y
p2743
sVclefable
p2744
VClefable
p2745
sVpokestarmt
p2746
VPokestar MT
p2747
sVskuntank
p2748
VSkuntank
p2749
sVprimeape
p2750
VPrimeape
p2751
sVgabite
p2752
VGabite
p2753
sVgrubbin
p2754
VGrubbin
p2755
sVmissingno
p2756
VMissingno.
p2757
sVhooh
p2758
VHo-Oh
p2759
sVrefresh
p2760
VRefresh
p2761
sVspoink
p2762
VSpoink
p2763
sVlovelykiss
p2764
VLovely Kiss
p2765
sVmeanlook
p2766
VMean Look
p2767
sVgumshoos
p2768
VGumshoos
p2769
sVclamp
p2770
VClamp
p2771
sVtopsyturvy
p2772
VTopsy-Turvy
p2773
sVquickfeet
p2774
VQuick Feet
p2775
sVsilvallyelectric
p2776
VSilvally-Electric
p2777
sVwatershuriken
p2778
VWater Shuriken
p2779
sVtsareena
p2780
VTsareena
p2781
sVthunderbolt
p2782
VThunderbolt
p2783
sVmagnezone
p2784
VMagnezone
p2785
sVtrickroom
p2786
VTrick Room
p2787
sVmist
p2788
VMist
p2789
sVwatercompaction
p2790
VWater Compaction
p2791
sVhiddenpowerpsychic
p2792
VHidden Power Psychic
p2793
sVelectroweb
p2794
VElectroweb
p2795
sVkangaskhanmega
p2796
VKangaskhan-Mega
p2797
sVsalamence
p2798
VSalamence
p2799
sVarceuswater
p2800
VArceus-Water
p2801
sVarceusice
p2802
VArceus-Ice
p2803
sVsuperfang
p2804
VSuper Fang
p2805
sVsilvallyground
p2806
VSilvally-Ground
p2807
sVchoicescarf
p2808
VChoice Scarf
p2809
sVroggenrola
p2810
VRoggenrola
p2811
sVflashcannon
p2812
VFlash Cannon
p2813
sVironhead
p2814
VIron Head
p2815
sVsentret
p2816
VSentret
p2817
sVpichuspikyeared
p2818
VPichu-Spiky-eared
p2819
sVtyrogue
p2820
VTyrogue
p2821
sVcleffa
p2822
VCleffa
p2823
sVwaterabsorb
p2824
VWater Absorb
p2825
sVtoxicboost
p2826
VToxic Boost
p2827
sVninetales
p2828
VNinetales
p2829
sVnidoranf
p2830
VNidoran-F
p2831
sVcottonspore
p2832
VCotton Spore
p2833
sVnidoranm
p2834
VNidoran-M
p2835
sVparaboliccharge
p2836
VParabolic Charge
p2837
sVscopelens
p2838
VScope Lens
p2839
sVhydreigon
p2840
VHydreigon
p2841
sVrockpolish
p2842
VRock Polish
p2843
sVmightyena
p2844
VMightyena
p2845
sVabomasnowmega
p2846
VAbomasnow-Mega
p2847
sVmanaphy
p2848
VManaphy
p2849
sVbrave
p2850
VBrave
p2851
sVstoredpower
p2852
VStored Power
p2853
sVapicotberry
p2854
VApicot Berry
p2855
sVpetaldance
p2856
VPetal Dance
p2857
sVmeowstic
p2858
VMeowstic
p2859
sVboltstrike
p2860
VBolt Strike
p2861
sVraikou
p2862
VRaikou
p2863
sVswarm
p2864
VSwarm
p2865
sVbibarel
p2866
VBibarel
p2867
sVpsncureberry
p2868
VPSN Cure Berry
p2869
sVdazzlinggleam
p2870
VDazzling Gleam
p2871
sVlandorustherian
p2872
VLandorus-Therian
p2873
sVshedinja
p2874
VShedinja
p2875
sVpikashuniumz
p2876
VPikashunium Z
p2877
sVpsybeam
p2878
VPsybeam
p2879
sVsuckerpunch
p2880
VSucker Punch
p2881
sVdragonascent
p2882
VDragon Ascent
p2883
sVfreezeshock
p2884
VFreeze Shock
p2885
sVpsywave
p2886
VPsywave
p2887
sVdrillrun
p2888
VDrill Run
p2889
sVwhiteherb
p2890
VWhite Herb
p2891
sVringtarget
p2892
VRing Target
p2893
sVvenipede
p2894
VVenipede
p2895
sVdarkpulse
p2896
VDark Pulse
p2897
sVyamask
p2898
VYamask
p2899
sVstall
p2900
VStall
p2901
sVsharpedonite
p2902
VSharpedonite
p2903
sVmerciless
p2904
VMerciless
p2905
sVdoubleedge
p2906
VDouble-Edge
p2907
sVremoraid
p2908
VRemoraid
p2909
sVclefairy
p2910
VClefairy
p2911
sVklink
p2912
VKlink
p2913
sVfirespin
p2914
VFire Spin
p2915
sVgenesectchill
p2916
VGenesect-Chill
p2917
sVsuicune
p2918
VSuicune
p2919
sVthundurustherian
p2920
VThundurus-Therian
p2921
sVpamtreberry
p2922
VPamtre Berry
p2923
sVmegahorn
p2924
VMegahorn
p2925
sVslowbromega
p2926
VSlowbro-Mega
p2927
sVzenmode
p2928
VZen Mode
p2929
sVsunflora
p2930
VSunflora
p2931
sVariados
p2932
VAriados
p2933
sVgourgeist
p2934
VGourgeist
p2935
sVbarbaracle
p2936
VBarbaracle
p2937
sVairballoon
p2938
VAir Balloon
p2939
sVswirlix
p2940
VSwirlix
p2941
sVlitleo
p2942
VLitleo
p2943
sVcamouflage
p2944
VCamouflage
p2945
sVfrillish
p2946
VFrillish
p2947
sVroselia
p2948
VRoselia
p2949
sVkangaskhan
p2950
VKangaskhan
p2951
sVregirock
p2952
VRegirock
p2953
sVpansage
p2954
VPansage
p2955
sVswitcheroo
p2956
VSwitcheroo
p2957
sValakazammega
p2958
VAlakazam-Mega
p2959
sVrockgem
p2960
VRock Gem
p2961
sVeruption
p2962
VEruption
p2963
sVyawn
p2964
VYawn
p2965
sVcharm
p2966
VCharm
p2967
sVdiglett
p2968
VDiglett
p2969
sVbeldum
p2970
VBeldum
p2971
sVhabanberry
p2972
VHaban Berry
p2973
sVcrosspoison
p2974
VCross Poison
p2975
sVcarvanha
p2976
VCarvanha
p2977
sVrefrigerate
p2978
VRefrigerate
p2979
sVlowsweep
p2980
VLow Sweep
p2981
sVsturdy
p2982
VSturdy
p2983
sVcovet
p2984
VCovet
p2985
sVlax
p2986
VLax
p2987
sVlunala
p2988
VLunala
p2989
sVmarshadiumz
p2990
VMarshadium Z
p2991
sVgenesectdouse
p2992
VGenesect-Douse
p2993
sVkaratechop
p2994
VKarate Chop
p2995
sVworryseed
p2996
VWorry Seed
p2997
sVazumarill
p2998
VAzumarill
p2999
sVmetalburst
p3000
VMetal Burst
p3001
sVherdier
p3002
VHerdier
p3003
sVguardsplit
p3004
VGuard Split
p3005
sVnanabberry
p3006
VNanab Berry
p3007
sVzoomlens
p3008
VZoom Lens
p3009
sVblackbelt
p3010
VBlack Belt
p3011
sVhammerarm
p3012
VHammer Arm
p3013
sVmagmaarmor
p3014
VMagma Armor
p3015
sVcrabrawler
p3016
VCrabrawler
p3017
sVpayday
p3018
VPay Day
p3019
sVgooey
p3020
VGooey
p3021
sVoblivionwing
p3022
VOblivion Wing
p3023
sVtyrantrum
p3024
VTyrantrum
p3025
sVhealpulse
p3026
VHeal Pulse
p3027
sVheadcharge
p3028
VHead Charge
p3029
sVpawniard
p3030
VPawniard
p3031
sVpoisontail
p3032
VPoison Tail
p3033
sVrest
p3034
VRest
p3035
sVdocile
p3036
VDocile
p3037
sVfireblast
p3038
VFire Blast
p3039
sVmaliciousmoonsault
p3040
VMalicious Moonsault
p3041
sVshroomish
p3042
VShroomish
p3043
sVlitten
p3044
VLitten
p3045
sVwhismur
p3046
VWhismur
p3047
sVspikes
p3048
VSpikes
p3049
sVshadowstrike
p3050
VShadow Strike
p3051
sVlongreach
p3052
VLong Reach
p3053
sVskorupi
p3054
VSkorupi
p3055
sVgengarite
p3056
VGengarite
p3057
sVpokestartransport
p3058
VPokestar Transport
p3059
sVpinkbow
p3060
VPink Bow
p3061
sVblitzle
p3062
VBlitzle
p3063
sVspeedswap
p3064
VSpeed Swap
p3065
sVlustrousorb
p3066
VLustrous Orb
p3067
sVflarelm
p3068
VFlarelm
p3069
sVtamatoberry
p3070
VTamato Berry
p3071
sVblazikenite
p3072
VBlazikenite
p3073
sVfarfetchd
p3074
VFarfetch'd
p3075
sVinkay
p3076
VInkay
p3077
sVpickup
p3078
VPickup
p3079
sVcontrary
p3080
VContrary
p3081
sVkarrablast
p3082
VKarrablast
p3083
sVberserk
p3084
VBerserk
p3085
sVmarowak
p3086
VMarowak
p3087
sVmachobrace
p3088
VMacho Brace
p3089
sVsilvallywater
p3090
VSilvally-Water
p3091
sVelekid
p3092
VElekid
p3093
sVmagmortar
p3094
VMagmortar
p3095
sVchansey
p3096
VChansey
p3097
sVroaroftime
p3098
VRoar of Time
p3099
sVwildcharge
p3100
VWild Charge
p3101
sVgraveleralola
p3102
VGraveler-Alola
p3103
sVhoundoommega
p3104
VHoundoom-Mega
p3105
sVclaydol
p3106
VClaydol
p3107
sVrelicanth
p3108
VRelicanth
p3109
sVtorchic
p3110
VTorchic
p3111
sVlapras
p3112
VLapras
p3113
sVpikachuhoenn
p3114
VPikachu-Hoenn
p3115
sVsweetscent
p3116
VSweet Scent
p3117
sVraticatealola
p3118
VRaticate-Alola
p3119
sVshayminsky
p3120
VShaymin-Sky
p3121
sVsludgebomb
p3122
VSludge Bomb
p3123
sVsandile
p3124
VSandile
p3125
sVtyphlosion
p3126
VTyphlosion
p3127
sVsimple
p3128
VSimple
p3129
sVdrillpeck
p3130
VDrill Peck
p3131
sVicebody
p3132
VIce Body
p3133
sVdancer
p3134
VDancer
p3135
sVfearow
p3136
VFearow
p3137
sVxscissor
p3138
VX-Scissor
p3139
sVbellossom
p3140
VBellossom
p3141
sVquiverdance
p3142
VQuiver Dance
p3143
sVblastoisinite
p3144
VBlastoisinite
p3145
sVmegapunch
p3146
VMega Punch
p3147
sVdamp
p3148
VDamp
p3149
sVskitty
p3150
VSkitty
p3151
sVmienfoo
p3152
VMienfoo
p3153
sVpollenpuff
p3154
VPollen Puff
p3155
sVliepard
p3156
VLiepard
p3157
sVamnesia
p3158
VAmnesia
p3159
sVdestinybond
p3160
VDestiny Bond
p3161
sVcastform
p3162
VCastform
p3163
sVmeowthalola
p3164
VMeowth-Alola
p3165
sVdruddigon
p3166
VDruddigon
p3167
sVtaillow
p3168
VTaillow
p3169
sVbashful
p3170
VBashful
p3171
sVdragontail
p3172
VDragon Tail
p3173
sVswellow
p3174
VSwellow
p3175
sVstringshot
p3176
VString Shot
p3177
sValomomola
p3178
VAlomomola
p3179
sVwatergun
p3180
VWater Gun
p3181
sVvcreate
p3182
VV-create
p3183
sVnomelberry
p3184
VNomel Berry
p3185
sVdrainingkiss
p3186
VDraining Kiss
p3187
sVbasculin
p3188
VBasculin
p3189
sVgrassiumz
p3190
VGrassium Z
p3191
sVescavalier
p3192
VEscavalier
p3193
sVpsychoshift
p3194
VPsycho Shift
p3195
sVbisharp
p3196
VBisharp
p3197
sVhoundoom
p3198
VHoundoom
p3199
sVgulpin
p3200
VGulpin
p3201
sVpancham
p3202
VPancham
p3203
sVmantyke
p3204
VMantyke
p3205
sVpound
p3206
VPound
p3207
sVmedichamite
p3208
VMedichamite
p3209
sVrotommow
p3210
VRotom-Mow
p3211
sVdefendorder
p3212
VDefend Order
p3213
sVsurskit
p3214
VSurskit
p3215
sVmegalauncher
p3216
VMega Launcher
p3217
sVicebeam
p3218
VIce Beam
p3219
sVfacade
p3220
VFacade
p3221
sVzubat
p3222
VZubat
p3223
sVmagikarpsrevenge
p3224
VMagikarp's Revenge
p3225
sVingrain
p3226
VIngrain
p3227
sVcottonee
p3228
VCottonee
p3229
sVpikachuphd
p3230
VPikachu-PhD
p3231
sVpowerlens
p3232
VPower Lens
p3233
sVpoisonjab
p3234
VPoison Jab
p3235
sVcameruptmega
p3236
VCamerupt-Mega
p3237
sVprotectivepads
p3238
VProtective Pads
p3239
sVcrucibellemega
p3240
VCrucibelle-Mega
p3241
sVadrenalineorb
p3242
VAdrenaline Orb
p3243
sVtaunt
p3244
VTaunt
p3245
sVgorebyss
p3246
VGorebyss
p3247
sVgrotle
p3248
VGrotle
p3249
sVpikachu
p3250
VPikachu
p3251
sVrayquaza
p3252
VRayquaza
p3253
sVfroakie
p3254
VFroakie
p3255
sVloveball
p3256
VLove Ball
p3257
sVjumpluff
p3258
VJumpluff
p3259
sVkomala
p3260
VKomala
p3261
sVtimid
p3262
VTimid
p3263
sVmismagius
p3264
VMismagius
p3265
sVhiddenpowerbug
p3266
VHidden Power Bug
p3267
sVinfiltrator
p3268
VInfiltrator
p3269
sVpsychup
p3270
VPsych Up
p3271
sVtangrowth
p3272
VTangrowth
p3273
sVfiregem
p3274
VFire Gem
p3275
sVshellder
p3276
VShellder
p3277
sVwithdraw
p3278
VWithdraw
p3279
sVmoonball
p3280
VMoon Ball
p3281
sVpainsplit
p3282
VPain Split
p3283
sVstoneedge
p3284
VStone Edge
p3285
sVhowl
p3286
VHowl
p3287
sVeeviumz
p3288
VEevium Z
p3289
sVwaterpledge
p3290
VWater Pledge
p3291
sVspearow
p3292
VSpearow
p3293
sVdarmanitan
p3294
VDarmanitan
p3295
sVrockwrecker
p3296
VRock Wrecker
p3297
sVoriginpulse
p3298
VOrigin Pulse
p3299
sVcompetitive
p3300
VCompetitive
p3301
sVzygarde
p3302
VZygarde
p3303
sVsolrock
p3304
VSolrock
p3305
sVthousandarrows
p3306
VThousand Arrows
p3307
sVcut
p3308
VCut
p3309
sVincineroar
p3310
VIncineroar
p3311
sVcloyster
p3312
VCloyster
p3313
sVshoreup
p3314
VShore Up
p3315
sVmetapod
p3316
VMetapod
p3317
sVairslash
p3318
VAir Slash
p3319
sVmagiccoat
p3320
VMagic Coat
p3321
sVacrobatics
p3322
VAcrobatics
p3323
sVspheal
p3324
VSpheal
p3325
sVchoicespecs
p3326
VChoice Specs
p3327
sVrebound
p3328
VRebound
p3329
sVlusterpurge
p3330
VLuster Purge
p3331
sVkeldeoresolute
p3332
VKeldeo-Resolute
p3333
sVzygardecomplete
p3334
VZygarde-Complete
p3335
sVmoody
p3336
VMoody
p3337
sVglaliemega
p3338
VGlalie-Mega
p3339
sVgothitelle
p3340
VGothitelle
p3341
sVskilllink
p3342
VSkill Link
p3343
sVponyta
p3344
VPonyta
p3345
sVpaleowave
p3346
VPaleo Wave
p3347
sVsubmission
p3348
VSubmission
p3349
sVstaravia
p3350
VStaravia
p3351
sVtailglow
p3352
VTail Glow
p3353
sVnoibat
p3354
VNoibat
p3355
sVstealthrock
p3356
VStealth Rock
p3357
sVtechnoblast
p3358
VTechno Blast
p3359
sVbaltoy
p3360
VBaltoy
p3361
sVflamewheel
p3362
VFlame Wheel
p3363
sVsketch
p3364
VSketch
p3365
sVfrisk
p3366
VFrisk
p3367
sVbounce
p3368
VBounce
p3369
sVdartrix
p3370
VDartrix
p3371
sVsouldew
p3372
VSoul Dew
p3373
sVgigaimpact
p3374
VGiga Impact
p3375
sVaurorabeam
p3376
VAurora Beam
p3377
sVsewaddle
p3378
VSewaddle
p3379
sVkommoo
p3380
VKommo-o
p3381
sVscald
p3382
VScald
p3383
sVominouswind
p3384
VOminous Wind
p3385
sVdeepseascale
p3386
VDeepSeaScale
p3387
sVmummy
p3388
VMummy
p3389
sVhuntail
p3390
VHuntail
p3391
sVswordsdance
p3392
VSwords Dance
p3393
sVearlybird
p3394
VEarly Bird
p3395
sVslash
p3396
VSlash
p3397
sVhiddenpowergrass
p3398
VHidden Power Grass
p3399
sVpidgeotite
p3400
VPidgeotite
p3401
sVgarchompmega
p3402
VGarchomp-Mega
p3403
sV10000000voltthunderbolt
p3404
V10,000,000 Volt Thunderbolt
p3405
sVoricoriopau
p3406
VOricorio-Pa'u
p3407
sVseismitoad
p3408
VSeismitoad
p3409
sVodorsleuth
p3410
VOdor Sleuth
p3411
sVmewtwomegax
p3412
VMewtwo-Mega-X
p3413
sVmewtwomegay
p3414
VMewtwo-Mega-Y
p3415
sVfocussash
p3416
VFocus Sash
p3417
sVjellicent
p3418
VJellicent
p3419
sVspelonberry
p3420
VSpelon Berry
p3421
sVnobleroar
p3422
VNoble Roar
p3423
sVkangaskhanite
p3424
VKangaskhanite
p3425
sVblazekick
p3426
VBlaze Kick
p3427
sViapapaberry
p3428
VIapapa Berry
p3429
sVmudkip
p3430
VMudkip
p3431
sVbouffalant
p3432
VBouffalant
p3433
sVarceusghost
p3434
VArceus-Ghost
p3435
sVblock
p3436
VBlock
p3437
sVsharpedo
p3438
VSharpedo
p3439
sVarmthrust
p3440
VArm Thrust
p3441
sVchargebeam
p3442
VCharge Beam
p3443
sVshellos
p3444
VShellos
p3445
sVnidoking
p3446
VNidoking
p3447
sVliquidation
p3448
VLiquidation
p3449
sVextremeevoboost
p3450
VExtreme Evoboost
p3451
sVsablenite
p3452
VSablenite
p3453
sVbarboach
p3454
VBarboach
p3455
sVstench
p3456
VStench
p3457
sViciclecrash
p3458
VIcicle Crash
p3459
sVcacnea
p3460
VCacnea
p3461
sVdevastatingdrake
p3462
VDevastating Drake
p3463
sVswampertmega
p3464
VSwampert-Mega
p3465
sVpokestarmonster
p3466
VPokestar Monster
p3467
sVsyclar
p3468
VSyclar
p3469
sVmimikyubusted
p3470
VMimikyu-Busted
p3471
sVsnorunt
p3472
VSnorunt
p3473
sVrelaxed
p3474
VRelaxed
p3475
sVeevee
p3476
VEevee
p3477
sVpsychocut
p3478
VPsycho Cut
p3479
sVtranquill
p3480
VTranquill
p3481
sVragepowder
p3482
VRage Powder
p3483
sVbuizel
p3484
VBuizel
p3485
sVsharpen
p3486
VSharpen
p3487
sVgrasspledge
p3488
VGrass Pledge
p3489
sVbuzzwole
p3490
VBuzzwole
p3491
sVabsolmega
p3492
VAbsol-Mega
p3493
sVwatchog
p3494
VWatchog
p3495
sVpokestarwhitedoor
p3496
VPokestar White Door
p3497
sVspacialrend
p3498
VSpacial Rend
p3499
sVbaddreams
p3500
VBad Dreams
p3501
sVgrowth
p3502
VGrowth
p3503
sVpoliwrath
p3504
VPoliwrath
p3505
sVhappyhour
p3506
VHappy Hour
p3507
sVmurkrow
p3508
VMurkrow
p3509
sVpechaberry
p3510
VPecha Berry
p3511
sVpikachusinnoh
p3512
VPikachu-Sinnoh
p3513
sVarceusfairy
p3514
VArceus-Fairy
p3515
sVmiracleseed
p3516
VMiracle Seed
p3517
sVnaturesmadness
p3518
VNature's Madness
p3519
sVrockhead
p3520
VRock Head
p3521
sVcalm
p3522
VCalm
p3523
sVstickybarb
p3524
VSticky Barb
p3525
sVganlonberry
p3526
VGanlon Berry
p3527
sVbulbasaur
p3528
VBulbasaur
p3529
sVpichu
p3530
VPichu
p3531
sVheatwave
p3532
VHeat Wave
p3533
sVpokestarf00
p3534
VPokestar F-00
p3535
sVdrifloon
p3536
VDrifloon
p3537
sVsnowcloak
p3538
VSnow Cloak
p3539
sVrazorshell
p3540
VRazor Shell
p3541
sVmetagross
p3542
VMetagross
p3543
sVsparklingaria
p3544
VSparkling Aria
p3545
sVpokestarufo
p3546
VPokestar UFO
p3547
sVmeowsticf
p3548
VMeowstic-F
p3549
sVlickilicky
p3550
VLickilicky
p3551
sVaccelgor
p3552
VAccelgor
p3553
sVmysteryberry
p3554
VMystery Berry
p3555
sVmudbray
p3556
VMudbray
p3557
sVprecipiceblades
p3558
VPrecipice Blades
p3559
sVslaking
p3560
VSlaking
p3561
sVavalugg
p3562
VAvalugg
p3563
sVscratch
p3564
VScratch
p3565
sVcharmeleon
p3566
VCharmeleon
p3567
sVhighhorsepower
p3568
VHigh Horsepower
p3569
sVnormaliumz
p3570
VNormalium Z
p3571
sVcharmander
p3572
VCharmander
p3573
sVspeedboost
p3574
VSpeed Boost
p3575
sVwakeupslap
p3576
VWake-Up Slap
p3577
sVpsychicgem
p3578
VPsychic Gem
p3579
sVrivalry
p3580
VRivalry
p3581
sVperishsong
p3582
VPerish Song
p3583
sVcutecharm
p3584
VCute Charm
p3585
sVblaze
p3586
VBlaze
p3587
sVsniper
p3588
VSniper
p3589
sVtriplekick
p3590
VTriple Kick
p3591
sVfly
p3592
VFly
p3593
sVnightslash
p3594
VNight Slash
p3595
sVextrasensory
p3596
VExtrasensory
p3597
sVteddiursa
p3598
VTeddiursa
p3599
sVthundershock
p3600
VThunder Shock
p3601
sVazurill
p3602
VAzurill
p3603
sVbigpecks
p3604
VBig Pecks
p3605
sVlureball
p3606
VLure Ball
p3607
sVqwilfish
p3608
VQwilfish
p3609
sVhyperbeam
p3610
VHyper Beam
p3611
sVdynamicpunch
p3612
VDynamic Punch
p3613
sVmagnemite
p3614
VMagnemite
p3615
sVtyrunt
p3616
VTyrunt
p3617
sVmultiattack
p3618
VMulti-Attack
p3619
sVirondefense
p3620
VIron Defense
p3621
sVmisdreavus
p3622
VMisdreavus
p3623
sVfidgit
p3624
VFidgit
p3625
sVdousedrive
p3626
VDouse Drive
p3627
sVcrushclaw
p3628
VCrush Claw
p3629
sVsoftboiled
p3630
VSoft-Boiled
p3631
sVpoisongem
p3632
VPoison Gem
p3633
sVtectonicrage
p3634
VTectonic Rage
p3635
sVdownload
p3636
VDownload
p3637
sVacid
p3638
VAcid
p3639
sVvigoroth
p3640
VVigoroth
p3641
sVlombre
p3642
VLombre
p3643
sVdelcatty
p3644
VDelcatty
p3645
sVhoundoominite
p3646
VHoundoominite
p3647
sVturtonator
p3648
VTurtonator
p3649
sVtriattack
p3650
VTri Attack
p3651
sVtyranitar
p3652
VTyranitar
p3653
sVturtwig
p3654
VTurtwig
p3655
sVbruxish
p3656
VBruxish
p3657
sVmagmastorm
p3658
VMagma Storm
p3659
sVpansear
p3660
VPansear
p3661
sVdeerling
p3662
VDeerling
p3663
sVswinub
p3664
VSwinub
p3665
sVgigavolthavoc
p3666
VGigavolt Havoc
p3667
sVabomasnow
p3668
VAbomasnow
p3669
sVrowlet
p3670
VRowlet
p3671
sVsing
p3672
VSing
p3673
sVtriage
p3674
VTriage
p3675
sVpowersplit
p3676
VPower Split
p3677
sVincinerate
p3678
VIncinerate
p3679
sVmarangaberry
p3680
VMaranga Berry
p3681
sVrampardos
p3682
VRampardos
p3683
sVscreech
p3684
VScreech
p3685
sVtentacruel
p3686
VTentacruel
p3687
sVnaturalcure
p3688
VNatural Cure
p3689
sVforestscurse
p3690
VForest's Curse
p3691
sVblizzard
p3692
VBlizzard
p3693
sVteeterdance
p3694
VTeeter Dance
p3695
sVshieldsdown
p3696
VShields Down
p3697
sVfoongus
p3698
VFoongus
p3699
sVfirememory
p3700
VFire Memory
p3701
sVaquaring
p3702
VAqua Ring
p3703
sVprzcureberry
p3704
VPRZ Cure Berry
p3705
sVhardy
p3706
VHardy
p3707
sVarceusground
p3708
VArceus-Ground
p3709
sVpumpkaboolarge
p3710
VPumpkaboo-Large
p3711
sVkingdra
p3712
VKingdra
p3713
sVaerodactylite
p3714
VAerodactylite
p3715
sVstakeout
p3716
VStakeout
p3717
sVbanettite
p3718
VBanettite
p3719
sVdragongem
p3720
VDragon Gem
p3721
sVheatran
p3722
VHeatran
p3723
sVsteelixite
p3724
VSteelixite
p3725
sVheavyball
p3726
VHeavy Ball
p3727
sVcharcoal
p3728
VCharcoal
p3729
sVmistyseed
p3730
VMisty Seed
p3731
sVcranidos
p3732
VCranidos
p3733
sVabsol
p3734
VAbsol
p3735
sVcelesteela
p3736
VCelesteela
p3737
sVplusle
p3738
VPlusle
p3739
sVaerodactylmega
p3740
VAerodactyl-Mega
p3741
sVharvest
p3742
VHarvest
p3743
sVwatersport
p3744
VWater Sport
p3745
sVpikaniumz
p3746
VPikanium Z
p3747
sVicicleplate
p3748
VIcicle Plate
p3749
sVfuturesight
p3750
VFuture Sight
p3751
sVfirelash
p3752
VFire Lash
p3753
sVsmellingsalts
p3754
VSmelling Salts
p3755
sVarchen
p3756
VArchen
p3757
sVexeggcute
p3758
VExeggcute
p3759
sVlucario
p3760
VLucario
p3761
sVthundurus
p3762
VThundurus
p3763
sVburnup
p3764
VBurn Up
p3765
sVdonphan
p3766
VDonphan
p3767
sVterrakion
p3768
VTerrakion
p3769
sVblacksludge
p3770
VBlack Sludge
p3771
sVsilvallypsychic
p3772
VSilvally-Psychic
p3773
sVrelicsong
p3774
VRelic Song
p3775
sVheliolisk
p3776
VHeliolisk
p3777
sVblazikenmega
p3778
VBlaziken-Mega
p3779
sVgastrodon
p3780
VGastrodon
p3781
sVbronzong
p3782
VBronzong
p3783
sVweavile
p3784
VWeavile
p3785
sVdewott
p3786
VDewott
p3787
sVchandelure
p3788
VChandelure
p3789
sVhaxorus
p3790
VHaxorus
p3791
sVsecretsword
p3792
VSecret Sword
p3793
sVowntempo
p3794
VOwn Tempo
p3795
sVhiddenpower
p3796
VHidden Power
p3797
sVrazorleaf
p3798
VRazor Leaf
p3799
sVpowerswap
p3800
VPower Swap
p3801
sVdragalge
p3802
VDragalge
p3803
sVgrasswhistle
p3804
VGrass Whistle
p3805
sVswampert
p3806
VSwampert
p3807
sVwynaut
p3808
VWynaut
p3809
sVpidgey
p3810
VPidgey
p3811
sVmetalpowder
p3812
VMetal Powder
p3813
sVaggronite
p3814
VAggronite
p3815
sVgenesect
p3816
VGenesect
p3817
sVlotad
p3818
VLotad
p3819
sVrkssystem
p3820
VRKS System
p3821
sVsilvallyice
p3822
VSilvally-Ice
p3823
sVbind
p3824
VBind
p3825
sVcounter
p3826
VCounter
p3827
sVvikavolt
p3828
VVikavolt
p3829
sVfullincense
p3830
VFull Incense
p3831
sVfloatoy
p3832
VFloatoy
p3833
sVweepinbell
p3834
VWeepinbell
p3835
sVhitmonchan
p3836
VHitmonchan
p3837
sVwoobat
p3838
VWoobat
p3839
sVaquajet
p3840
VAqua Jet
p3841
sVkrabby
p3842
VKrabby
p3843
sVumbreon
p3844
VUmbreon
p3845
sVdragonair
p3846
VDragonair
p3847
sVhitmontop
p3848
VHitmontop
p3849
sVheatproof
p3850
VHeatproof
p3851
sVmukalola
p3852
VMuk-Alola
p3853
sVguardswap
p3854
VGuard Swap
p3855
sVassaultvest
p3856
VAssault Vest
p3857
sVpetalblizzard
p3858
VPetal Blizzard
p3859
sVkadabra
p3860
VKadabra
p3861
sVpurepower
p3862
VPure Power
p3863
sVironball
p3864
VIron Ball
p3865
sVdreameater
p3866
VDream Eater
p3867
sVhelpinghand
p3868
VHelping Hand
p3869
sVmunchlax
p3870
VMunchlax
p3871
sVzenheadbutt
p3872
VZen Headbutt
p3873
sVbelch
p3874
VBelch
p3875
sVpowertrip
p3876
VPower Trip
p3877
sVberryjuice
p3878
VBerry Juice
p3879
sVhiddenpowerflying
p3880
VHidden Power Flying
p3881
sVmilotic
p3882
VMilotic
p3883
sVpikachuoriginal
p3884
VPikachu-Original
p3885
sVpsychicsurge
p3886
VPsychic Surge
p3887
sVflail
p3888
VFlail
p3889
sVkabutops
p3890
VKabutops
p3891
sVhoothoot
p3892
VHoothoot
p3893
sVkoffing
p3894
VKoffing
p3895
sVtoxapex
p3896
VToxapex
p3897
sVmagnitude
p3898
VMagnitude
p3899
sVarceusfighting
p3900
VArceus-Fighting
p3901
sVrapidspin
p3902
VRapid Spin
p3903
sVskullbash
p3904
VSkull Bash
p3905
sVdratini
p3906
VDratini
p3907
sVafteryou
p3908
VAfter You
p3909
sVmaractus
p3910
VMaractus
p3911
sVcrucibellite
p3912
VCrucibellite
p3913
sVmareanie
p3914
VMareanie
p3915
sVilluminate
p3916
VIlluminate
p3917
sVgallademega
p3918
VGallade-Mega
p3919
sVmagnetpull
p3920
VMagnet Pull
p3921
sVtepig
p3922
VTepig
p3923
sVkelpsyberry
p3924
VKelpsy Berry
p3925
sVstatic
p3926
VStatic
p3927
sVflameplate
p3928
VFlame Plate
p3929
sVicememory
p3930
VIce Memory
p3931
sVicefang
p3932
VIce Fang
p3933
sVvenonat
p3934
VVenonat
p3935
sVsilvallyfighting
p3936
VSilvally-Fighting
p3937
sVjoltik
p3938
VJoltik
p3939
sVrollingkick
p3940
VRolling Kick
p3941
sVoricorio
p3942
VOricorio
p3943
sVweatherball
p3944
VWeather Ball
p3945
sVshatteredpsyche
p3946
VShattered Psyche
p3947
sVmewniumz
p3948
VMewnium Z
p3949
sVmanectric
p3950
VManectric
p3951
sVnaturepower
p3952
VNature Power
p3953
sVregisteel
p3954
VRegisteel
p3955
sVsmog
p3956
VSmog
p3957
sVbabydolleyes
p3958
VBaby-Doll Eyes
p3959
sVleafguard
p3960
VLeaf Guard
p3961
sVicywind
p3962
VIcy Wind
p3963
sVemolga
p3964
VEmolga
p3965
sVmamoswine
p3966
VMamoswine
p3967
sVconkeldurr
p3968
VConkeldurr
p3969
sVworkup
p3970
VWork Up
p3971
sVmetagrossite
p3972
VMetagrossite
p3973
sVhippowdon
p3974
VHippowdon
p3975
sVenigmaberry
p3976
VEnigma Berry
p3977
sVscatterbug
p3978
VScatterbug
p3979
sVaromaveil
p3980
VAroma Veil
p3981
sVcorrosion
p3982
VCorrosion
p3983
sVtropkick
p3984
VTrop Kick
p3985
sVsudowoodo
p3986
VSudowoodo
p3987
sVlarvitar
p3988
VLarvitar
p3989
sVheadbutt
p3990
VHeadbutt
p3991
sVsacredsword
p3992
VSacred Sword
p3993
sVbodyslam
p3994
VBody Slam
p3995
sVbugbuzz
p3996
VBug Buzz
p3997
sVfirefang
p3998
VFire Fang
p3999
sVdiancite
p4000
VDiancite
p4001
sVampharosmega
p4002
VAmpharos-Mega
p4003
sVmistball
p4004
VMist Ball
p4005
sVskrelp
p4006
VSkrelp
p4007
sVjumpkick
p4008
VJump Kick
p4009
sVninetalesalola
p4010
VNinetales-Alola
p4011
sVwaterspout
p4012
VWater Spout
p4013
sVpsychicmemory
p4014
VPsychic Memory
p4015
sVloudred
p4016
VLoudred
p4017
sVearthpower
p4018
VEarth Power
p4019
sVpikachukalos
p4020
VPikachu-Kalos
p4021
sVpremierball
p4022
VPremier Ball
p4023
sVrotomfrost
p4024
VRotom-Frost
p4025
sVsolidrock
p4026
VSolid Rock
p4027
sVhonedge
p4028
VHonedge
p4029
sVrabutaberry
p4030
VRabuta Berry
p4031
sVagility
p4032
VAgility
p4033
sVelectabuzz
p4034
VElectabuzz
p4035
sVhoopaunbound
p4036
VHoopa-Unbound
p4037
sVfomantis
p4038
VFomantis
p4039
sVcrobat
p4040
VCrobat
p4041
sVrockblast
p4042
VRock Blast
p4043
sVslackoff
p4044
VSlack Off
p4045
sVsoftsand
p4046
VSoft Sand
p4047
sVsigilyph
p4048
VSigilyph
p4049
sVdeepseatooth
p4050
VDeepSeaTooth
p4051
sVtorkoal
p4052
VTorkoal
p4053
sVwurmple
p4054
VWurmple
p4055
sVtapulele
p4056
VTapu Lele
p4057
sVsunsteelstrike
p4058
VSunsteel Strike
p4059
sVgrimeralola
p4060
VGrimer-Alola
p4061
sVtimburr
p4062
VTimburr
p4063
sVsealeo
p4064
VSealeo
p4065
sVpoisonfang
p4066
VPoison Fang
p4067
sVinsectplate
p4068
VInsect Plate
p4069
sVtorrent
p4070
VTorrent
p4071
sVencore
p4072
VEncore
p4073
sVquickball
p4074
VQuick Ball
p4075
sVtrapinch
p4076
VTrapinch
p4077
sVbonerush
p4078
VBone Rush
p4079
sVgentle
p4080
VGentle
p4081
sVtorment
p4082
VTorment
p4083
sVarceusflying
p4084
VArceus-Flying
p4085
sVzebstrika
p4086
VZebstrika
p4087
sVwhitesmoke
p4088
VWhite Smoke
p4089
sVlevelball
p4090
VLevel Ball
p4091
sVsoak
p4092
VSoak
p4093
sVfusionbolt
p4094
VFusion Bolt
p4095
sVflareon
p4096
VFlareon
p4097
sVcalmmind
p4098
VCalm Mind
p4099
sVdiamondstorm
p4100
VDiamond Storm
p4101
sVgravity
p4102
VGravity
p4103
sVcarnivine
p4104
VCarnivine
p4105
sVgrassgem
p4106
VGrass Gem
p4107
sVfleurcannon
p4108
VFleur Cannon
p4109
sVpsychoboost
p4110
VPsycho Boost
p4111
sVnuzleaf
p4112
VNuzleaf
p4113
sVwidelens
p4114
VWide Lens
p4115
sVshadowball
p4116
VShadow Ball
p4117
sVdrifblim
p4118
VDrifblim
p4119
sVgoldeen
p4120
VGoldeen
p4121
sVmewtwo
p4122
VMewtwo
p4123
sVrollout
p4124
VRollout
p4125
sVslurpuff
p4126
VSlurpuff
p4127
sVdracometeor
p4128
VDraco Meteor
p4129
sVsludgewave
p4130
VSludge Wave
p4131
sVsceptile
p4132
VSceptile
p4133
sVaraquanid
p4134
VAraquanid
p4135
sVgardevoirite
p4136
VGardevoirite
p4137
sVexeggutor
p4138
VExeggutor
p4139
sVshedskin
p4140
VShed Skin
p4141
sVcherrimsunshine
p4142
VCherrim-Sunshine
p4143
sVarceus
p4144
VArceus
p4145
sVimpish
p4146
VImpish
p4147
sVservine
p4148
VServine
p4149
sVwailmer
p4150
VWailmer
p4151
sVbrine
p4152
VBrine
p4153
sVzweilous
p4154
VZweilous
p4155
sVsleeppowder
p4156
VSleep Powder
p4157
sVoldamber
p4158
VOld Amber
p4159
sVsnover
p4160
VSnover
p4161
sVdurant
p4162
VDurant
p4163
sVdarkiniumz
p4164
VDarkinium Z
p4165
sVsimplebeam
p4166
VSimple Beam
p4167
sVyveltal
p4168
VYveltal
p4169
sVbrickbreak
p4170
VBrick Break
p4171
sVrash
p4172
VRash
p4173
sVpiplup
p4174
VPiplup
p4175
sVflashfire
p4176
VFlash Fire
p4177
sVelectricmemory
p4178
VElectric Memory
p4179
sValoraichiumz
p4180
VAloraichium Z
p4181
sVpikipek
p4182
VPikipek
p4183
sVdeino
p4184
VDeino
p4185
sVcamerupt
p4186
VCamerupt
p4187
sVluckypunch
p4188
VLucky Punch
p4189
sVpurrloin
p4190
VPurrloin
p4191
sVrarebone
p4192
VRare Bone
p4193
sVsolosis
p4194
VSolosis
p4195
sVtangaberry
p4196
VTanga Berry
p4197
sVbellydrum
p4198
VBelly Drum
p4199
sVsassy
p4200
VSassy
p4201
sVdeoxysattack
p4202
VDeoxys-Attack
p4203
sVcroagunk
p4204
VCroagunk
p4205
sVbravebird
p4206
VBrave Bird
p4207
sVgust
p4208
VGust
p4209
sVmagicguard
p4210
VMagic Guard
p4211
sVsandattack
p4212
VSand Attack
p4213
sVkingler
p4214
VKingler
p4215
sVhugepower
p4216
VHuge Power
p4217
sVmudbomb
p4218
VMud Bomb
p4219
sVsheercold
p4220
VSheer Cold
p4221
sVgeomancy
p4222
VGeomancy
p4223
sVcacturne
p4224
VCacturne
p4225
sVpowder
p4226
VPowder
p4227
sVvictini
p4228
VVictini
p4229
sVfinneon
p4230
VFinneon
p4231
sVtwineedle
p4232
VTwineedle
p4233
sVchestoberry
p4234
VChesto Berry
p4235
sVgrumpig
p4236
VGrumpig
p4237
sVbuginiumz
p4238
VBuginium Z
p4239
sVnightmare
p4240
VNightmare
p4241
sVgyarados
p4242
VGyarados
p4243
sVvaporeon
p4244
VVaporeon
p4245
sVthunderwave
p4246
VThunder Wave
p4247
sVrockincense
p4248
VRock Incense
p4249
sVfroslass
p4250
VFroslass
p4251
sVaron
p4252
VAron
p4253
sVconversion2
p4254
VConversion 2
p4255
sVmysticalfire
p4256
VMystical Fire
p4257
sVzoroark
p4258
VZoroark
p4259
sVshellsmash
p4260
VShell Smash
p4261
sVhydropump
p4262
VHydro Pump
p4263
sVswift
p4264
VSwift
p4265
sVmemento
p4266
VMemento
p4267
sVmetang
p4268
VMetang
p4269
sVklinklang
p4270
VKlinklang
p4271
sVaerodactyl
p4272
VAerodactyl
p4273
sVtailwhip
p4274
VTail Whip
p4275
sVsceptilite
p4276
VSceptilite
p4277
sVsafetygoggles
p4278
VSafety Goggles
p4279
sVklang
p4280
VKlang
p4281
sVgreninjaash
p4282
VGreninja-Ash
p4283
sVswallow
p4284
VSwallow
p4285
sVspritzee
p4286
VSpritzee
p4287
sVflabebe
p4288
VFlabebe
p4289
sVnumel
p4290
VNumel
p4291
sVwoodhammer
p4292
VWood Hammer
p4293
sVhiddenpowerwater
p4294
VHidden Power Water
p4295
sVmalaconda
p4296
VMalaconda
p4297
sVgible
p4298
VGible
p4299
sVovercoat
p4300
VOvercoat
p4301
sVekans
p4302
VEkans
p4303
sVsharpedomega
p4304
VSharpedo-Mega
p4305
sVpixieplate
p4306
VPixie Plate
p4307
sVvolkritter
p4308
VVolkritter
p4309
sVdugtrio
p4310
VDugtrio
p4311
sVdisarmingvoice
p4312
VDisarming Voice
p4313
sVwailord
p4314
VWailord
p4315
sVswoobat
p4316
VSwoobat
p4317
sVelectrify
p4318
VElectrify
p4319
sVdazzling
p4320
VDazzling
p4321
sVoricoriosensu
p4322
VOricorio-Sensu
p4323
sVkeldeo
p4324
VKeldeo
p4325
sVrattata
p4326
VRattata
p4327
sVtomohawk
p4328
VTomohawk
p4329
sVivysaur
p4330
VIvysaur
p4331
sVhorndrill
p4332
VHorn Drill
p4333
sVcoverfossil
p4334
VCover Fossil
p4335
sVgraveler
p4336
VGraveler
p4337
sVsmeargle
p4338
VSmeargle
p4339
sVmetagrossmega
p4340
VMetagross-Mega
p4341
sVraindance
p4342
VRain Dance
p4343
sVbreezi
p4344
VBreezi
p4345
sVinfestation
p4346
VInfestation
p4347
sVpresent
p4348
VPresent
p4349
sVgrovyle
p4350
VGrovyle
p4351
sVpokestarf002
p4352
VPokestar F-002
p4353
sVintimidate
p4354
VIntimidate
p4355
sVharden
p4356
VHarden
p4357
sVpowerweight
p4358
VPower Weight
p4359
sVflaaffy
p4360
VFlaaffy
p4361
sVbeheeyem
p4362
VBeheeyem
p4363
sVwhirlpool
p4364
VWhirlpool
p4365
sVpelipper
p4366
VPelipper
p4367
sVthickfat
p4368
VThick Fat
p4369
sVcarracosta
p4370
VCarracosta
p4371
sVluxio
p4372
VLuxio
p4373
sVvullaby
p4374
VVullaby
p4375
sVhiddenpowerghost
p4376
VHidden Power Ghost
p4377
sVlightball
p4378
VLight Ball
p4379
sVwaterveil
p4380
VWater Veil
p4381
sVspelltag
p4382
VSpell Tag
p4383
sVdeoxysdefense
p4384
VDeoxys-Defense
p4385
sVzekrom
p4386
VZekrom
p4387
sVaipom
p4388
VAipom
p4389
sVdefiant
p4390
VDefiant
p4391
sVhardstone
p4392
VHard Stone
p4393
sVkebiaberry
p4394
VKebia Berry
p4395
sVbergmite
p4396
VBergmite
p4397
sVcascoon
p4398
VCascoon
p4399
sVsuperluck
p4400
VSuper Luck
p4401
sVmagcargo
p4402
VMagcargo
p4403
sVabsorb
p4404
VAbsorb
p4405
sVmankey
p4406
VMankey
p4407
sVraindish
p4408
VRain Dish
p4409
sVseaking
p4410
VSeaking
p4411
sVmagician
p4412
VMagician
p4413
sVdragoniumz
p4414
VDragonium Z
p4415
sVairlock
p4416
VAir Lock
p4417
sVbabiriberry
p4418
VBabiri Berry
p4419
sVaspearberry
p4420
VAspear Berry
p4421
sVeelektross
p4422
VEelektross
p4423
sVpickpocket
p4424
VPickpocket
p4425
sVsitrusberry
p4426
VSitrus Berry
p4427
sVarceuspsychic
p4428
VArceus-Psychic
p4429
sVbeautifly
p4430
VBeautifly
p4431
sVwormadamtrash
p4432
VWormadam-Trash
p4433
sVvenoshock
p4434
VVenoshock
p4435
sVsilvallyfairy
p4436
VSilvally-Fairy
p4437
sVmudsport
p4438
VMud Sport
p4439
sVazelf
p4440
VAzelf
p4441
sVyanmega
p4442
VYanmega
p4443
sVnaviathan
p4444
VNaviathan
p4445
sVfairyaura
p4446
VFairy Aura
p4447
sVarbok
p4448
VArbok
p4449
sVpinsir
p4450
VPinsir
p4451
sVrotom
p4452
VRotom
p4453
sVguts
p4454
VGuts
p4455
sVtauros
p4456
VTauros
p4457
sVnatu
p4458
VNatu
p4459
sVfaketears
p4460
VFake Tears
p4461
sVbattery
p4462
VBattery
p4463
sVaromaticmist
p4464
VAromatic Mist
p4465
sVbeedrillite
p4466
VBeedrillite
p4467
sVconfide
p4468
VConfide
p4469
sVleechlife
p4470
VLeech Life
p4471
sVaegislash
p4472
VAegislash
p4473
sVkingsshield
p4474
VKing's Shield
p4475
sVkingsrock
p4476
VKing's Rock
p4477
sVblukberry
p4478
VBluk Berry
p4479
sVflowershield
p4480
VFlower Shield
p4481
sVarenatrap
p4482
VArena Trap
p4483
sVleechseed
p4484
VLeech Seed
p4485
sVlaserfocus
p4486
VLaser Focus
p4487
sVducklett
p4488
VDucklett
p4489
sVgreninja
p4490
VGreninja
p4491
sVlatios
p4492
VLatios
p4493
sVdhelmise
p4494
VDhelmise
p4495
sVbudew
p4496
VBudew
p4497
sVgogoat
p4498
VGogoat
p4499
sVlilligant
p4500
VLilligant
p4501
sVhealball
p4502
VHeal Ball
p4503
sVphanpy
p4504
VPhanpy
p4505
sVaudinite
p4506
VAudinite
p4507
sVimprison
p4508
VImprison
p4509
sVrepeatball
p4510
VRepeat Ball
p4511
sVglare
p4512
VGlare
p4513
sVjangmoo
p4514
VJangmo-o
p4515
sVthief
p4516
VThief
p4517
sVhail
p4518
VHail
p4519
sVcofagrigus
p4520
VCofagrigus
p4521
sVwepearberry
p4522
VWepear Berry
p4523
sVskarmory
p4524
VSkarmory
p4525
sVpersimberry
p4526
VPersim Berry
p4527
sVdragonclaw
p4528
VDragon Claw
p4529
sVdrizzle
p4530
VDrizzle
p4531
sVzygarde10
p4532
VZygarde-10%
p4533
sVstaraptor
p4534
VStaraptor
p4535
sVmagicalleaf
p4536
VMagical Leaf
p4537
sVforcepalm
p4538
VForce Palm
p4539
sVhurricane
p4540
VHurricane
p4541
sVlileep
p4542
VLileep
p4543
sVpiloswine
p4544
VPiloswine
p4545
sVjudgment
p4546
VJudgment
p4547
sVvenusaurite
p4548
VVenusaurite
p4549
sVraichu
p4550
VRaichu
p4551
sVcyclohm
p4552
VCyclohm
p4553
sVhappiny
p4554
VHappiny
p4555
sVpressure
p4556
VPressure
p4557
sVsilkscarf
p4558
VSilk Scarf
p4559
sVpidgeotto
p4560
VPidgeotto
p4561
sVdreadplate
p4562
VDread Plate
p4563
sVsableyemega
p4564
VSableye-Mega
p4565
sVfurret
p4566
VFurret
p4567
sVpsystrike
p4568
VPsystrike
p4569
sVmiltank
p4570
VMiltank
p4571
sVmeteormash
p4572
VMeteor Mash
p4573
sVshucaberry
p4574
VShuca Berry
p4575
sVrockmemory
p4576
VRock Memory
p4577
sVsweetkiss
p4578
VSweet Kiss
p4579
sVacidarmor
p4580
VAcid Armor
p4581
sVlightclay
p4582
VLight Clay
p4583
sVvoodoom
p4584
VVoodoom
p4585
sVblueorb
p4586
VBlue Orb
p4587
sVfeintattack
p4588
VFeint Attack
p4589
sVburmy
p4590
VBurmy
p4591
sVgrassysurge
p4592
VGrassy Surge
p4593
sVcaimanoe
p4594
VCaimanoe
p4595
sVmagostberry
p4596
VMagost Berry
p4597
sVgrasspelt
p4598
VGrass Pelt
p4599
sVspitup
p4600
VSpit Up
p4601
sVstamina
p4602
VStamina
p4603
sVrockthrow
p4604
VRock Throw
p4605
sVroseliberry
p4606
VRoseli Berry
p4607
sVfrustration
p4608
VFrustration
p4609
sVambipom
p4610
VAmbipom
p4611
sVsolgaleo
p4612
VSolgaleo
p4613
sVfellstinger
p4614
VFell Stinger
p4615
sVfollowme
p4616
VFollow Me
p4617
sVclauncher
p4618
VClauncher
p4619
sVquickpowder
p4620
VQuick Powder
p4621
sVfrenzyplant
p4622
VFrenzy Plant
p4623
sVclearbody
p4624
VClear Body
p4625
sVpowerofalchemy
p4626
VPower of Alchemy
p4627
sVmagoberry
p4628
VMago Berry
p4629
sVcroconaw
p4630
VCroconaw
p4631
sVdrowzee
p4632
VDrowzee
p4633
sVserenegrace
p4634
VSerene Grace
p4635
sVoceanicoperetta
p4636
VOceanic Operetta
p4637
sVheracronite
p4638
VHeracronite
p4639
sVtechnician
p4640
VTechnician
p4641
sVarceusgrass
p4642
VArceus-Grass
p4643
sVmorelull
p4644
VMorelull
p4645
sVembargo
p4646
VEmbargo
p4647
sVpikachuunova
p4648
VPikachu-Unova
p4649
sVmetronome
p4650
VMetronome
p4651
sVattackorder
p4652
VAttack Order
p4653
sVallyswitch
p4654
VAlly Switch
p4655
sVwish
p4656
VWish
p4657
sVentrainment
p4658
VEntrainment
p4659
sVpoisonheal
p4660
VPoison Heal
p4661
sVpyukumuku
p4662
VPyukumuku
p4663
sVscizormega
p4664
VScizor-Mega
p4665
sVthroatchop
p4666
VThroat Chop
p4667
sVhoneclaws
p4668
VHone Claws
p4669
sVgrassmemory
p4670
VGrass Memory
p4671
sVpikachurockstar
p4672
VPikachu-Rock-Star
p4673
sVoranberry
p4674
VOran Berry
p4675
sVmarshadow
p4676
VMarshadow
p4677
sVninjask
p4678
VNinjask
p4679
sVslowstart
p4680
VSlow Start
p4681
sVweakarmor
p4682
VWeak Armor
p4683
sVaurasphere
p4684
VAura Sphere
p4685
sVshelgon
p4686
VShelgon
p4687
sVrawstberry
p4688
VRawst Berry
p4689
sVshadowbone
p4690
VShadow Bone
p4691
sVpokestarblackbelt
p4692
VPokestar Black Belt
p4693
sVvacuumwave
p4694
VVacuum Wave
p4695
sVillusion
p4696
VIllusion
p4697
sVroleplay
p4698
VRole Play
p4699
sVyacheberry
p4700
VYache Berry
p4701
sVelectriumz
p4702
VElectrium Z
p4703
sVtreecko
p4704
VTreecko
p4705
sVicehammer
p4706
VIce Hammer
p4707
sVbraviary
p4708
VBraviary
p4709
sVvivillon
p4710
VVivillon
p4711
sVnoguard
p4712
VNo Guard
p4713
sVsalamencemega
p4714
VSalamence-Mega
p4715
sVabomasite
p4716
VAbomasite
p4717
sVstarmie
p4718
VStarmie
p4719
sVpersistent
p4720
VPersistent
p4721
sVmagmar
p4722
VMagmar
p4723
sVzangoose
p4724
VZangoose
p4725
sVvivillonfancy
p4726
VVivillon-Fancy
p4727
sVvanilluxe
p4728
VVanilluxe
p4729
s.