(dp1
Velectivire
p2
VElectivire
p3
sVpsystrike
p4
VPsystrike
p5
sVcherrim
p6
VCherrim
p7
sVcolorchange
p8
VColor Change
p9
sVlucarionite
p10
VLucarionite
p11
sVpalkia
p12
VPalkia
p13
sVchatter
p14
VChatter
p15
sValakazite
p16
VAlakazite
p17
sVtickle
p18
VTickle
p19
sVarceuselectric
p20
VArceus-Electric
p21
sVabra
p22
VAbra
p23
sVreuniclus
p24
VReuniclus
p25
sVrecycle
p26
VRecycle
p27
sVtimerball
p28
VTimer Ball
p29
sVmeditite
p30
VMeditite
p31
sVsharpbeak
p32
VSharp Beak
p33
sVmewtwonitex
p34
VMewtwonite X
p35
sVmewtwonitey
p36
VMewtwonite Y
p37
sVquickclaw
p38
VQuick Claw
p39
sVdoubleslap
p40
VDoubleSlap
p41
sVplayaround
p42
VPlay Around
p43
sVeviolite
p44
VEviolite
p45
sVprotean
p46
VProtean
p47
sVsquirtle
p48
VSquirtle
p49
sVdarmanitanzen
p50
VDarmanitan-Zen
p51
sVnastyplot
p52
VNasty Plot
p53
sVwormadam
p54
VWormadam
p55
sVaggronmega
p56
VAggron-Mega
p57
sVwhirlwind
p58
VWhirlwind
p59
sVplumefossil
p60
VPlume Fossil
p61
sVarceusice
p62
VArceus-Ice
p63
sVhiddenpowerelectric
p64
VHidden Power Electric
p65
sVhiddenpowerfire
p66
VHidden Power Fire
p67
sVguillotine
p68
VGuillotine
p69
sVlevitate
p70
VLevitate
p71
sVgyaradosite
p72
VGyaradosite
p73
sVpomegberry
p74
VPomeg Berry
p75
sVmasquerain
p76
VMasquerain
p77
sVthunder
p78
VThunder
p79
sVhaze
p80
VHaze
p81
sVdarkgem
p82
VDark Gem
p83
sVmiltank
p84
VMiltank
p85
sVfraxure
p86
VFraxure
p87
sVmoldbreaker
p88
VMold Breaker
p89
sVcrunch
p90
VCrunch
p91
sVrindoberry
p92
VRindo Berry
p93
sVreflecttype
p94
VReflect Type
p95
sVsnivy
p96
VSnivy
p97
sVmefirst
p98
VMe First
p99
sVmothim
p100
VMothim
p101
sVscizorite
p102
VScizorite
p103
sVmew
p104
VMew
p105
sVpursuit
p106
VPursuit
p107
sVheadsmash
p108
VHead Smash
p109
sVaftermath
p110
VAftermath
p111
sVclawitzer
p112
VClawitzer
p113
sVpixilate
p114
VPixilate
p115
sVsilverpowder
p116
VSilverPowder
p117
sVlunatone
p118
VLunatone
p119
sVpunishment
p120
VPunishment
p121
sVpoisontouch
p122
VPoison Touch
p123
sVfeebas
p124
VFeebas
p125
sVneedlearm
p126
VNeedle Arm
p127
sVblastburn
p128
VBlast Burn
p129
sVhonchkrow
p130
VHonchkrow
p131
sVtirtouga
p132
VTirtouga
p133
sVampharos
p134
VAmpharos
p135
sVdusclops
p136
VDusclops
p137
sVpoisonbarb
p138
VPoison Barb
p139
sVmorningsun
p140
VMorning Sun
p141
sVfreezedry
p142
VFreeze Dry
p143
sVmandibuzz
p144
VMandibuzz
p145
sVoverheat
p146
VOverheat
p147
sVspiritomb
p148
VSpiritomb
p149
sVvoltabsorb
p150
VVolt Absorb
p151
sVpurugly
p152
VPurugly
p153
sVshiftgear
p154
VShift Gear
p155
sS'calm'
p156
S'Calm'
p157
sVcastformrainy
p158
VCastform-Rainy
p159
sVbigroot
p160
VBig Root
p161
sVgardevoir
p162
VGardevoir
p163
sVsheerforce
p164
VSheer Force
p165
sVmagnetrise
p166
VMagnet Rise
p167
sS'naive'
p168
S'Naive'
p169
sVkyogre
p170
VKyogre
p171
sS'adamant'
p172
S'Adamant'
p173
sVkitsunoh
p174
VKitsunoh
p175
sVarceusbug
p176
VArceus-Bug
p177
sVnoibat
p178
VNoibat
p179
sVpidgeot
p180
VPidgeot
p181
sVtangledfeet
p182
VTangled Feet
p183
sValakazam
p184
VAlakazam
p185
sVonix
p186
VOnix
p187
sVgrimer
p188
VGrimer
p189
sVrototiller
p190
VRototiller
p191
sVlucariomega
p192
VLucario-Mega
p193
sVbugbite
p194
VBug Bite
p195
sVpoisongas
p196
VPoison Gas
p197
sVmakuhita
p198
VMakuhita
p199
sVattract
p200
VAttract
p201
sVcharizarditey
p202
VCharizardite Y
p203
sVcharizarditex
p204
VCharizardite X
p205
sVpowerwhip
p206
VPower Whip
p207
sVskydrop
p208
VSky Drop
p209
sVcrabhammer
p210
VCrabhammer
p211
sVtoxic
p212
VToxic
p213
sVcastformsunny
p214
VCastform-Sunny
p215
sVrotomheat
p216
VRotom-Heat
p217
sVsportball
p218
VSport Ball
p219
sVpoisonpowder
p220
VPoisonPowder
p221
sVredcard
p222
VRed Card
p223
sS'modest'
p224
S'Modest'
p225
sS'lax'
p226
S'Lax'
p227
sVrocktomb
p228
VRock Tomb
p229
sVcherubi
p230
VCherubi
p231
sVleafstorm
p232
VLeaf Storm
p233
sVspookyplate
p234
VSpooky Plate
p235
sS'hasty'
p236
S'Hasty'
p237
sVentei
p238
VEntei
p239
sVarceussteel
p240
VArceus-Steel
p241
sVcobaberry
p242
VCoba Berry
p243
sVlaggingtail
p244
VLagging Tail
p245
sVfinalgambit
p246
VFinal Gambit
p247
sVrapidash
p248
VRapidash
p249
sVdoubleteam
p250
VDouble Team
p251
sVlumineon
p252
VLumineon
p253
sVshielddust
p254
VShield Dust
p255
sVmagicbounce
p256
VMagic Bounce
p257
sVhiddenpowerfighting
p258
VHidden Power Fighting
p259
sVsludge
p260
VSludge
p261
sVvenusaur
p262
VVenusaur
p263
sVphione
p264
VPhione
p265
sVflameburst
p266
VFlame Burst
p267
sVzapplate
p268
VZap Plate
p269
sVmunna
p270
VMunna
p271
sVhitmonlee
p272
VHitmonlee
p273
sVdryskin
p274
VDry Skin
p275
sVkricketot
p276
VKricketot
p277
sVroost
p278
VRoost
p279
sVfurycutter
p280
VFury Cutter
p281
sVirontail
p282
VIron Tail
p283
sVpoliwhirl
p284
VPoliwhirl
p285
sVeggbomb
p286
VEgg Bomb
p287
sVluxray
p288
VLuxray
p289
sVpayback
p290
VPayback
p291
sVexcadrill
p292
VExcadrill
p293
sVgloom
p294
VGloom
p295
sVgluttony
p296
VGluttony
p297
sVvulpix
p298
VVulpix
p299
sVcradily
p300
VCradily
p301
sVthunderfang
p302
VThunder Fang
p303
sVblastoisemega
p304
VBlastoise-Mega
p305
sVespeon
p306
VEspeon
p307
sVmultitype
p308
VMultitype
p309
sVflameorb
p310
VFlame Orb
p311
sVhiddenpowerdragon
p312
VHidden Power Dragon
p313
sVfairywind
p314
VFairy Wind
p315
sVgothorita
p316
VGothorita
p317
sVomastar
p318
VOmastar
p319
sVwalrein
p320
VWalrein
p321
sVtruant
p322
VTruant
p323
sVqualotberry
p324
VQualot Berry
p325
sVflowergift
p326
VFlower Gift
p327
sVpsychic
p328
VPsychic
p329
sVkasibberry
p330
VKasib Berry
p331
sVcottonguard
p332
VCotton Guard
p333
sVtornadus
p334
VTornadus
p335
sVshedshell
p336
VShed Shell
p337
sVbarrier
p338
VBarrier
p339
sVleftovers
p340
VLeftovers
p341
sVrevenge
p342
VRevenge
p343
sVsynchronoise
p344
VSynchronoise
p345
sVbestow
p346
VBestow
p347
sVtrumpcard
p348
VTrump Card
p349
sVsweetveil
p350
VSweet Veil
p351
sVshiftry
p352
VShiftry
p353
sVhonedge
p354
VHonedge
p355
sVbeartic
p356
VBeartic
p357
sVkyuremblack
p358
VKyurem-Black
p359
sVsonicboom
p360
VSonicBoom
p361
sVfightinggem
p362
VFighting Gem
p363
sVlatias
p364
VLatias
p365
sVfilter
p366
VFilter
p367
sVcherishball
p368
VCherish Ball
p369
sVcheriberry
p370
VCheri Berry
p371
sS'naughty'
p372
S'Naughty'
p373
sVseedflare
p374
VSeed Flare
p375
sVhydrocannon
p376
VHydro Cannon
p377
sVmagneticflux
p378
VMagnetic Flux
p379
sVdeoxys
p380
VDeoxys
p381
sVhooh
p382
VHo-Oh
p383
sVshieldon
p384
VShieldon
p385
sVslugma
p386
VSlugma
p387
sVheracrossmega
p388
VHeracross-Mega
p389
sVwaveincense
p390
VWave Incense
p391
sVmanectite
p392
VManectite
p393
sVaircutter
p394
VAir Cutter
p395
sVmightyena
p396
VMightyena
p397
sVgrowlithe
p398
VGrowlithe
p399
sVinferno
p400
VInferno
p401
sVtwister
p402
VTwister
p403
sVyamask
p404
VYamask
p405
sVflamethrower
p406
VFlamethrower
p407
sVtoxicorb
p408
VToxic Orb
p409
sVfairylock
p410
VFairy Lock
p411
sVrockclimb
p412
VRock Climb
p413
sVwonderroom
p414
VWonder Room
p415
sVmachoke
p416
VMachoke
p417
sVdoomdesire
p418
VDoom Desire
p419
sVmirrormove
p420
VMirror Move
p421
sVsandshrew
p422
VSandshrew
p423
sVpolitoed
p424
VPolitoed
p425
sVminun
p426
VMinun
p427
sVbelueberry
p428
VBelue Berry
p429
sVendure
p430
VEndure
p431
sVswiftswim
p432
VSwift Swim
p433
sVshellbell
p434
VShell Bell
p435
sVminus
p436
VMinus
p437
sVmeowth
p438
VMeowth
p439
sVprankster
p440
VPrankster
p441
sVsludgebomb
p442
VSludge Bomb
p443
sVpayapaberry
p444
VPayapa Berry
p445
sVclosecombat
p446
VClose Combat
p447
sVhealer
p448
VHealer
p449
sVseel
p450
VSeel
p451
sVblastoise
p452
VBlastoise
p453
sVstrength
p454
VStrength
p455
sVchingling
p456
VChingling
p457
sVgothita
p458
VGothita
p459
sVdarmanitan
p460
VDarmanitan
p461
sVcraftyshield
p462
VCrafty Shield
p463
sVgyroball
p464
VGyro Ball
p465
sVponyta
p466
VPonyta
p467
sVamoonguss
p468
VAmoonguss
p469
sVgrassyterrain
p470
VGrassy Terrain
p471
sVdeoxysspeed
p472
VDeoxys-Speed
p473
sVshadowforce
p474
VShadow Force
p475
sVcoil
p476
VCoil
p477
sVdrought
p478
VDrought
p479
sVferrothorn
p480
VFerrothorn
p481
sVcosmicpower
p482
VCosmic Power
p483
sVdunsparce
p484
VDunsparce
p485
sVconstrict
p486
VConstrict
p487
sVvileplume
p488
VVileplume
p489
sVraticate
p490
VRaticate
p491
sVslaking
p492
VSlaking
p493
sVjirachi
p494
VJirachi
p495
sVgolduck
p496
VGolduck
p497
sVarmorfossil
p498
VArmor Fossil
p499
sVstickyweb
p500
VSticky Web
p501
sVtogekiss
p502
VTogekiss
p503
sVhippopotas
p504
VHippopotas
p505
sVdialga
p506
VDialga
p507
sVlastresort
p508
VLast Resort
p509
sVbulletpunch
p510
VBullet Punch
p511
sVicegem
p512
VIce Gem
p513
sVspite
p514
VSpite
p515
sVcarbink
p516
VCarbink
p517
sVwaterpulse
p518
VWater Pulse
p519
sVstoutland
p520
VStoutland
p521
sVbidoof
p522
VBidoof
p523
sVsyclant
p524
VSyclant
p525
sVhaunter
p526
VHaunter
p527
sVweedle
p528
VWeedle
p529
sVaerilate
p530
VAerilate
p531
sVhoneygather
p532
VHoney Gather
p533
sVmachop
p534
VMachop
p535
sVmetalpowder
p536
VMetal Powder
p537
sVdusknoir
p538
VDusknoir
p539
sVmeditate
p540
VMeditate
p541
sVreversal
p542
VReversal
p543
sVlunardance
p544
VLunar Dance
p545
sVpumpkaboosmall
p546
VPumpkaboo-Small
p547
sVtentacool
p548
VTentacool
p549
sVmilotic
p550
VMilotic
p551
sVwailmer
p552
VWailmer
p553
sVnosepass
p554
VNosepass
p555
sVflashcannon
p556
VFlash Cannon
p557
sVlaxincense
p558
VLax Incense
p559
sVmagneton
p560
VMagneton
p561
sVstickyhold
p562
VSticky Hold
p563
sVbeatup
p564
VBeat Up
p565
sVleafblade
p566
VLeaf Blade
p567
sVserperior
p568
VSerperior
p569
sVempoleon
p570
VEmpoleon
p571
sVwooper
p572
VWooper
p573
sVforretress
p574
VForretress
p575
sVmindreader
p576
VMind Reader
p577
sVseaincense
p578
VSea Incense
p579
sVsimisage
p580
VSimisage
p581
sVarcheops
p582
VArcheops
p583
sVheavymetal
p584
VHeavy Metal
p585
sVwormadamsandy
p586
VWormadam-Sandy
p587
sVmuscleband
p588
VMuscle Band
p589
sVmatblock
p590
VMat Block
p591
sVpurrloin
p592
VPurrloin
p593
sVdoduo
p594
VDoduo
p595
sVmuk
p596
VMuk
p597
sVmotordrive
p598
VMotor Drive
p599
sVstarfberry
p600
VStarf Berry
p601
sVslowpoke
p602
VSlowpoke
p603
sVfrostbreath
p604
VFrost Breath
p605
sVcubone
p606
VCubone
p607
sVcut
p608
VCut
p609
sVmeadowplate
p610
VMeadow Plate
p611
sVparasect
p612
VParasect
p613
sVgourgeistsmall
p614
VGourgeist-Small
p615
sVrhydon
p616
VRhydon
p617
sVprotect
p618
VProtect
p619
sVplaynice
p620
VPlay Nice
p621
sVsamurott
p622
VSamurott
p623
sVmawile
p624
VMawile
p625
sVchimecho
p626
VChimecho
p627
sVpetayaberry
p628
VPetaya Berry
p629
sVdoublade
p630
VDoublade
p631
sVconfide
p632
VConfide
p633
sVluckychant
p634
VLucky Chant
p635
sVleppaberry
p636
VLeppa Berry
p637
sVchlorophyll
p638
VChlorophyll
p639
sVhitmontop
p640
VHitmontop
p641
sVfierydance
p642
VFiery Dance
p643
sVfloatzel
p644
VFloatzel
p645
sVsmackdown
p646
VSmack Down
p647
sVcyclohm
p648
VCyclohm
p649
sVbuneary
p650
VBuneary
p651
sVshockdrive
p652
VShock Drive
p653
sVnightdaze
p654
VNight Daze
p655
sVfriendguard
p656
VFriend Guard
p657
sVfrisk
p658
VFrisk
p659
sVsteamroller
p660
VSteamroller
p661
sVkakuna
p662
VKakuna
p663
sVpowertrick
p664
VPower Trick
p665
sVyanma
p666
VYanma
p667
sVmagiccoat
p668
VMagic Coat
p669
sVbonerush
p670
VBone Rush
p671
sVgurdurr
p672
VGurdurr
p673
sVsoundproof
p674
VSoundproof
p675
sVthrash
p676
VThrash
p677
sVchespin
p678
VChespin
p679
sVsliggoo
p680
VSliggoo
p681
sVtotodile
p682
VTotodile
p683
sVgarchompite
p684
VGarchompite
p685
sVslowbro
p686
VSlowbro
p687
sVigglybuff
p688
VIgglybuff
p689
sVbinacle
p690
VBinacle
p691
sVnevermeltice
p692
VNeverMeltIce
p693
sVgrowl
p694
VGrowl
p695
sVaguavberry
p696
VAguav Berry
p697
sVdrilbur
p698
VDrilbur
p699
sVheracross
p700
VHeracross
p701
sVralts
p702
VRalts
p703
sVpupitar
p704
VPupitar
p705
sVslowking
p706
VSlowking
p707
sVpowerherb
p708
VPower Herb
p709
sVnoivern
p710
VNoivern
p711
sVwaterfall
p712
VWaterfall
p713
sVdewgong
p714
VDewgong
p715
sVkirlia
p716
VKirlia
p717
sVknockoff
p718
VKnock Off
p719
sVoctazooka
p720
VOctazooka
p721
sS'cawmodore'
p722
S'Cawmodore'
p723
sVsylveon
p724
VSylveon
p725
sVhighjumpkick
p726
VHigh Jump Kick
p727
sVluxuryball
p728
VLuxury Ball
p729
sVhydration
p730
VHydration
p731
sVkrokorok
p732
VKrokorok
p733
sVgolbat
p734
VGolbat
p735
sVquilladin
p736
VQuilladin
p737
sVshellarmor
p738
VShell Armor
p739
sVpoliwag
p740
VPoliwag
p741
sVmetalcoat
p742
VMetal Coat
p743
sVthickclub
p744
VThick Club
p745
sVscizor
p746
VScizor
p747
sVgoomy
p748
VGoomy
p749
sVsilcoon
p750
VSilcoon
p751
sVbuggem
p752
VBug Gem
p753
sVoshawott
p754
VOshawott
p755
sVtorterra
p756
VTorterra
p757
sVtogepi
p758
VTogepi
p759
sVdomefossil
p760
VDome Fossil
p761
sVlowkick
p762
VLow Kick
p763
sVhealbell
p764
VHeal Bell
p765
sVmirrorshot
p766
VMirror Shot
p767
sVlickitung
p768
VLickitung
p769
sVdragonrush
p770
VDragon Rush
p771
sVspinarak
p772
VSpinarak
p773
sVdiggersby
p774
VDiggersby
p775
sVsilverwind
p776
VSilver Wind
p777
sVthundurustherian
p778
VThundurus-Therian
p779
sVludicolo
p780
VLudicolo
p781
sVditto
p782
VDitto
p783
sVcirclethrow
p784
VCircle Throw
p785
sVpsychoboost
p786
VPsycho Boost
p787
sVnidoqueen
p788
VNidoqueen
p789
sVpinsirmega
p790
VPinsir-Mega
p791
sVhiddenpowerpoison
p792
VHidden Power Poison
p793
sVflatter
p794
VFlatter
p795
sVtoxicspikes
p796
VToxic Spikes
p797
sVfirepledge
p798
VFire Pledge
p799
sVnoctowl
p800
VNoctowl
p801
sVcornnberry
p802
VCornn Berry
p803
sVskullfossil
p804
VSkull Fossil
p805
sVcheekpouch
p806
VCheek Pouch
p807
sVuproar
p808
VUproar
p809
sVrhyperior
p810
VRhyperior
p811
sVgeargrind
p812
VGear Grind
p813
sVcrosschop
p814
VCross Chop
p815
sVpsyshock
p816
VPsyshock
p817
sVicyrock
p818
VIcy Rock
p819
sVwynaut
p820
VWynaut
p821
sVtrevenant
p822
VTrevenant
p823
sVabsorbbulb
p824
VAbsorb Bulb
p825
sS'bold'
p826
S'Bold'
p827
sVgunkshot
p828
VGunk Shot
p829
sVgarchomp
p830
VGarchomp
p831
sVgeodude
p832
VGeodude
p833
sVlightscreen
p834
VLight Screen
p835
sVwhimsicott
p836
VWhimsicott
p837
sVlavaplume
p838
VLava Plume
p839
sVkeeneye
p840
VKeen Eye
p841
sVsimipour
p842
VSimipour
p843
sVautotomize
p844
VAutotomize
p845
sVspikecannon
p846
VSpike Cannon
p847
sVnecturna
p848
VNecturna
p849
sVplus
p850
VPlus
p851
sVsapsipper
p852
VSap Sipper
p853
sVriolu
p854
VRiolu
p855
sVhornleech
p856
VHorn Leech
p857
sVbraixen
p858
VBraixen
p859
sVdarkvoid
p860
VDark Void
p861
sVhoundour
p862
VHoundour
p863
sVdualchop
p864
VDual Chop
p865
sVfoulplay
p866
VFoul Play
p867
sVscyther
p868
VScyther
p869
sVgalewings
p870
VGale Wings
p871
sVstormdrain
p872
VStorm Drain
p873
sVseadra
p874
VSeadra
p875
sVovergrow
p876
VOvergrow
p877
sVgengarmega
p878
VGengar-Mega
p879
sVshellos
p880
VShellos
p881
sVwrap
p882
VWrap
p883
sVcorsola
p884
VCorsola
p885
sVtransform
p886
VTransform
p887
sVklefki
p888
VKlefki
p889
sVrowapberry
p890
VRowap Berry
p891
sS'quirky'
p892
S'Quirky'
p893
sVquickattack
p894
VQuick Attack
p895
sVsynthesis
p896
VSynthesis
p897
sVmultiscale
p898
VMultiscale
p899
sVgroundgem
p900
VGround Gem
p901
sVreshiram
p902
VReshiram
p903
sVrocksmash
p904
VRock Smash
p905
sVvolttackle
p906
VVolt Tackle
p907
sVghostgem
p908
VGhost Gem
p909
sVroughskin
p910
VRough Skin
p911
sVsafeguard
p912
VSafeguard
p913
sVsmoothrock
p914
VSmooth Rock
p915
sVbide
p916
VBide
p917
sVaurabreak
p918
VAura Break
p919
sVaurorus
p920
VAurorus
p921
sVchopleberry
p922
VChople Berry
p923
sVunnerve
p924
VUnnerve
p925
sVpaleowave
p926
VPaleo Wave
p927
sVparentalbond
p928
VParental Bond
p929
sVferaligatr
p930
VFeraligatr
p931
sVoddish
p932
VOddish
p933
sVleer
p934
VLeer
p935
sVmagby
p936
VMagby
p937
sVswadloon
p938
VSwadloon
p939
sVvibrava
p940
VVibrava
p941
sVuxie
p942
VUxie
p943
sVsmoochum
p944
VSmoochum
p945
sVlansatberry
p946
VLansat Berry
p947
sVbutterfree
p948
VButterfree
p949
sVferroseed
p950
VFerroseed
p951
sVamaura
p952
VAmaura
p953
sVfennekin
p954
VFennekin
p955
sVclawfossil
p956
VClaw Fossil
p957
sVdischarge
p958
VDischarge
p959
sVpoisonpoint
p960
VPoison Point
p961
sVhiddenpowerground
p962
VHidden Power Ground
p963
sVarceuspoison
p964
VArceus-Poison
p965
sVliechiberry
p966
VLiechi Berry
p967
sVlillipup
p968
VLillipup
p969
sVflareboost
p970
VFlare Boost
p971
sVmummy
p972
VMummy
p973
sVoccaberry
p974
VOcca Berry
p975
sVironfist
p976
VIron Fist
p977
sS'serious'
p978
S'Serious'
p979
sVmegadrain
p980
VMega Drain
p981
sVsalacberry
p982
VSalac Berry
p983
sVsnubbull
p984
VSnubbull
p985
sVsandveil
p986
VSand Veil
p987
sVabsolite
p988
VAbsolite
p989
sVbonsly
p990
VBonsly
p991
sVcelebi
p992
VCelebi
p993
sVavalanche
p994
VAvalanche
p995
sVshadowsneak
p996
VShadow Sneak
p997
sVsuctioncups
p998
VSuction Cups
p999
sVsuperpower
p1000
VSuperpower
p1001
sVanticipation
p1002
VAnticipation
p1003
sVpanpour
p1004
VPanpour
p1005
sVdragonpulse
p1006
VDragon Pulse
p1007
sVelectroball
p1008
VElectro Ball
p1009
sVflash
p1010
VFlash
p1011
sVnetball
p1012
VNet Ball
p1013
sVcharge
p1014
VCharge
p1015
sVquash
p1016
VQuash
p1017
sVsnorlax
p1018
VSnorlax
p1019
sVunburden
p1020
VUnburden
p1021
sVrufflet
p1022
VRufflet
p1023
sVmachamp
p1024
VMachamp
p1025
sVkricketune
p1026
VKricketune
p1027
sVtailslap
p1028
VTail Slap
p1029
sVjynx
p1030
VJynx
p1031
sVlopunny
p1032
VLopunny
p1033
sVtoxicplate
p1034
VToxic Plate
p1035
sVskyuppercut
p1036
VSky Uppercut
p1037
sVpoisonsting
p1038
VPoison Sting
p1039
sVarceusfire
p1040
VArceus-Fire
p1041
sVfocusblast
p1042
VFocus Blast
p1043
sVmesprit
p1044
VMesprit
p1045
sVmagnet
p1046
VMagnet
p1047
sVbanettemega
p1048
VBanette-Mega
p1049
sVround
p1050
VRound
p1051
sVunaware
p1052
VUnaware
p1053
sVduskball
p1054
VDusk Ball
p1055
sVfalseswipe
p1056
VFalse Swipe
p1057
sVtalonflame
p1058
VTalonflame
p1059
sVleafeon
p1060
VLeafeon
p1061
sVzorua
p1062
VZorua
p1063
sVzenmode
p1064
VZen Mode
p1065
sVvitalthrow
p1066
VVital Throw
p1067
sVsubstitute
p1068
VSubstitute
p1069
sVcurse
p1070
VCurse
p1071
sVfocusband
p1072
VFocus Band
p1073
sVmoltres
p1074
VMoltres
p1075
sVpasshoberry
p1076
VPassho Berry
p1077
sVdragondance
p1078
VDragon Dance
p1079
sVaxew
p1080
VAxew
p1081
sVkecleon
p1082
VKecleon
p1083
sVglameow
p1084
VGlameow
p1085
sVaeroblast
p1086
VAeroblast
p1087
sVwartortle
p1088
VWartortle
p1089
sVexplosion
p1090
VExplosion
p1091
sVmiracleeye
p1092
VMiracle Eye
p1093
sVpumpkaboo
p1094
VPumpkaboo
p1095
sVsimisear
p1096
VSimisear
p1097
sVtropius
p1098
VTropius
p1099
sVmysticwater
p1100
VMystic Water
p1101
sVearthquake
p1102
VEarthquake
p1103
sVgastroacid
p1104
VGastro Acid
p1105
sVejectbutton
p1106
VEject Button
p1107
sVexploud
p1108
VExploud
p1109
sVdiveball
p1110
VDive Ball
p1111
sVsawk
p1112
VSawk
p1113
sVodorsleuth
p1114
VOdor Sleuth
p1115
sVdedenne
p1116
VDedenne
p1117
sVdragonite
p1118
VDragonite
p1119
sVbagon
p1120
VBagon
p1121
sVregenerator
p1122
VRegenerator
p1123
sViondeluge
p1124
VIon Deluge
p1125
sVburndrive
p1126
VBurn Drive
p1127
sVmudslap
p1128
VMud-Slap
p1129
sVflaaffy
p1130
VFlaaffy
p1131
sVmagicroom
p1132
VMagic Room
p1133
sVsouldew
p1134
VSoul Dew
p1135
sVpinsirite
p1136
VPinsirite
p1137
sVheavyslam
p1138
VHeavy Slam
p1139
sVpinmissile
p1140
VPin Missile
p1141
sVcaptivate
p1142
VCaptivate
p1143
sVsharpen
p1144
VSharpen
p1145
sVswagger
p1146
VSwagger
p1147
sVxatu
p1148
VXatu
p1149
sVrockslide
p1150
VRock Slide
p1151
sVcaterpie
p1152
VCaterpie
p1153
sVhypno
p1154
VHypno
p1155
sVelectrike
p1156
VElectrike
p1157
sVfletchling
p1158
VFletchling
p1159
sVseismictoss
p1160
VSeismic Toss
p1161
sVdarumaka
p1162
VDarumaka
p1163
sVuturn
p1164
VU-turn
p1165
sVflygon
p1166
VFlygon
p1167
sVsandstorm
p1168
VSandstorm
p1169
sVswablu
p1170
VSwablu
p1171
sVspikyshield
p1172
VSpiky Shield
p1173
sVscolipede
p1174
VScolipede
p1175
sVdwebble
p1176
VDwebble
p1177
sVpignite
p1178
VPignite
p1179
sVsolarpower
p1180
VSolar Power
p1181
sVdonphan
p1182
VDonphan
p1183
sVpalpitoad
p1184
VPalpitoad
p1185
sVchilldrive
p1186
VChill Drive
p1187
sVnormalize
p1188
VNormalize
p1189
sVbanette
p1190
VBanette
p1191
sVtailwind
p1192
VTailwind
p1193
sVwideguard
p1194
VWide Guard
p1195
sVeelektrik
p1196
VEelektrik
p1197
sVarbok
p1198
VArbok
p1199
sVelectricterrain
p1200
VElectric Terrain
p1201
sVoctillery
p1202
VOctillery
p1203
sVvenonat
p1204
VVenonat
p1205
sVteleport
p1206
VTeleport
p1207
sVdive
p1208
VDive
p1209
sVmamoswine
p1210
VMamoswine
p1211
sVwiseglasses
p1212
VWise Glasses
p1213
sVmilkdrink
p1214
VMilk Drink
p1215
sVancientpower
p1216
VAncient Power
p1217
sVblissey
p1218
VBlissey
p1219
sVcryogonal
p1220
VCryogonal
p1221
sVsupersonic
p1222
VSupersonic
p1223
sVdelibird
p1224
VDelibird
p1225
sVmalamar
p1226
VMalamar
p1227
sVarceusghost
p1228
VArceus-Ghost
p1229
sVlitwick
p1230
VLitwick
p1231
sVthunderpunch
p1232
VThunder Punch
p1233
sVlugia
p1234
VLugia
p1235
sVbulletseed
p1236
VBullet Seed
p1237
sVbubblebeam
p1238
VBubbleBeam
p1239
sVpachirisu
p1240
VPachirisu
p1241
sVchilanberry
p1242
VChilan Berry
p1243
sVarcanine
p1244
VArcanine
p1245
sVsneasel
p1246
VSneasel
p1247
sVgrassknot
p1248
VGrass Knot
p1249
sVklutz
p1250
VKlutz
p1251
sVbulldoze
p1252
VBulldoze
p1253
sVfocusenergy
p1254
VFocus Energy
p1255
sVslackoff
p1256
VSlack Off
p1257
sVkabuto
p1258
VKabuto
p1259
sVmail
p1260
VMail
p1261
sVgarchompmega
p1262
VGarchomp-Mega
p1263
sS'lonely'
p1264
S'Lonely'
p1265
sVfling
p1266
VFling
p1267
sVrattled
p1268
VRattled
p1269
sS'bashful'
p1270
S'Bashful'
p1271
sVfusionflare
p1272
VFusion Flare
p1273
sVsafariball
p1274
VSafari Ball
p1275
sVeffectspore
p1276
VEffect Spore
p1277
sVboomburst
p1278
VBoomburst
p1279
sVlinoone
p1280
VLinoone
p1281
sVsynchronize
p1282
VSynchronize
p1283
sVmantine
p1284
VMantine
p1285
sVglalie
p1286
VGlalie
p1287
sVpsyduck
p1288
VPsyduck
p1289
sVrockthrow
p1290
VRock Throw
p1291
sVswalot
p1292
VSwalot
p1293
sVgenesectburn
p1294
VGenesect-Burn
p1295
sVporygonz
p1296
VPorygon-Z
p1297
sVstrugglebug
p1298
VStruggle Bug
p1299
sVpersian
p1300
VPersian
p1301
sVshaymin
p1302
VShaymin
p1303
sVpidove
p1304
VPidove
p1305
sVskillswap
p1306
VSkill Swap
p1307
sVassurance
p1308
VAssurance
p1309
sVpoochyena
p1310
VPoochyena
p1311
sVporygon2
p1312
VPorygon2
p1313
sViciclecrash
p1314
VIcicle Crash
p1315
sVsteelwing
p1316
VSteel Wing
p1317
sVdig
p1318
VDig
p1319
sVpetilil
p1320
VPetilil
p1321
sVtelepathy
p1322
VTelepathy
p1323
sVnidorino
p1324
VNidorino
p1325
sVmeloettapirouette
p1326
VMeloetta-Pirouette
p1327
sVnidorina
p1328
VNidorina
p1329
sVhypnosis
p1330
VHypnosis
p1331
sVdurinberry
p1332
VDurin Berry
p1333
sVdragonrage
p1334
VDragon Rage
p1335
sVjolteon
p1336
VJolteon
p1337
sVdefensecurl
p1338
VDefense Curl
p1339
sVchikorita
p1340
VChikorita
p1341
sVrockyhelmet
p1342
VRocky Helmet
p1343
sVjabocaberry
p1344
VJaboca Berry
p1345
sVhoppip
p1346
VHoppip
p1347
sViceshard
p1348
VIce Shard
p1349
sVgiratina
p1350
VGiratina
p1351
sVteravolt
p1352
VTeravolt
p1353
sVbite
p1354
VBite
p1355
sVduosion
p1356
VDuosion
p1357
sVaromatherapy
p1358
VAromatherapy
p1359
sVsleeptalk
p1360
VSleep Talk
p1361
sVconfuseray
p1362
VConfuse Ray
p1363
sVgliscor
p1364
VGliscor
p1365
sVseedot
p1366
VSeedot
p1367
sVsnatch
p1368
VSnatch
p1369
sVbunnelby
p1370
VBunnelby
p1371
sVdrapion
p1372
VDrapion
p1373
sVpeck
p1374
VPeck
p1375
sVwormadamtrash
p1376
VWormadam-Trash
p1377
sVmawilite
p1378
VMawilite
p1379
sVgarbodor
p1380
VGarbodor
p1381
sVtrickortreat
p1382
VTrick-or-Treat
p1383
sVvirizion
p1384
VVirizion
p1385
sVhiddenpowerrock
p1386
VHidden Power Rock
p1387
sVrazzberry
p1388
VRazz Berry
p1389
sVlick
p1390
VLick
p1391
sVslam
p1392
VSlam
p1393
sVsandstream
p1394
VSand Stream
p1395
sVledyba
p1396
VLedyba
p1397
sVaquatail
p1398
VAqua Tail
p1399
sVkrilowatt
p1400
VKrilowatt
p1401
sVrecover
p1402
VRecover
p1403
sVconversion
p1404
VConversion
p1405
sVtwineedle
p1406
VTwineedle
p1407
sVhiddenpowerdark
p1408
VHidden Power Dark
p1409
sVmetalsound
p1410
VMetal Sound
p1411
sVarghonaut
p1412
VArghonaut
p1413
sVbeedrill
p1414
VBeedrill
p1415
sVsurf
p1416
VSurf
p1417
sVgriseousorb
p1418
VGriseous Orb
p1419
sVmountaineer
p1420
VMountaineer
p1421
sVstunky
p1422
VStunky
p1423
sVtrace
p1424
VTrace
p1425
sVtynamo
p1426
VTynamo
p1427
sVearthplate
p1428
VEarth Plate
p1429
sVdarkrai
p1430
VDarkrai
p1431
sVbarrage
p1432
VBarrage
p1433
sVbonemerang
p1434
VBonemerang
p1435
sVstunfisk
p1436
VStunfisk
p1437
sVadaptability
p1438
VAdaptability
p1439
sVespurr
p1440
VEspurr
p1441
sVleaftornado
p1442
VLeaf Tornado
p1443
sVhyperfang
p1444
VHyper Fang
p1445
sVdracoplate
p1446
VDraco Plate
p1447
sVelectirizer
p1448
VElectirizer
p1449
sVmollux
p1450
VMollux
p1451
sVmuddywater
p1452
VMuddy Water
p1453
sVcompoundeyes
p1454
VCompound Eyes
p1455
sVdelphox
p1456
VDelphox
p1457
sVtintedlens
p1458
VTinted Lens
p1459
sVgolurk
p1460
VGolurk
p1461
sVfigyberry
p1462
VFigy Berry
p1463
sVgoodra
p1464
VGoodra
p1465
sVrevenankh
p1466
VRevenankh
p1467
sVvolbeat
p1468
VVolbeat
p1469
sVlarvesta
p1470
VLarvesta
p1471
sVpartingshot
p1472
VParting Shot
p1473
sVpatrat
p1474
VPatrat
p1475
sVacupressure
p1476
VAcupressure
p1477
sVanalytic
p1478
VAnalytic
p1479
sVgrasspledge
p1480
VGrass Pledge
p1481
sVoutrage
p1482
VOutrage
p1483
sVleavanny
p1484
VLeavanny
p1485
sVkinesis
p1486
VKinesis
p1487
sVweaknesspolicy
p1488
VWeakness Policy
p1489
sVstomp
p1490
VStomp
p1491
sVboneclub
p1492
VBone Club
p1493
sVtelekinesis
p1494
VTelekinesis
p1495
sVmoxie
p1496
VMoxie
p1497
sVshuppet
p1498
VShuppet
p1499
sVparkball
p1500
VPark Ball
p1501
sVspewpa
p1502
VSpewpa
p1503
sVwonderskin
p1504
VWonder Skin
p1505
sVfakeout
p1506
VFake Out
p1507
sVimposter
p1508
VImposter
p1509
sVspore
p1510
VSpore
p1511
sVquagsire
p1512
VQuagsire
p1513
sVdetect
p1514
VDetect
p1515
sVsteadfast
p1516
VSteadfast
p1517
sVlimber
p1518
VLimber
p1519
sVbatonpass
p1520
VBaton Pass
p1521
sVforecast
p1522
VForecast
p1523
sVmysticalfire
p1524
VMystical Fire
p1525
sVsnowwarning
p1526
VSnow Warning
p1527
sVjustified
p1528
VJustified
p1529
sVdamprock
p1530
VDamp Rock
p1531
sVhariyama
p1532
VHariyama
p1533
sVcrawdaunt
p1534
VCrawdaunt
p1535
sVpluck
p1536
VPluck
p1537
sVspark
p1538
VSpark
p1539
sVroseincense
p1540
VRose Incense
p1541
sVspoink
p1542
VSpoink
p1543
sVvictreebel
p1544
VVictreebel
p1545
sVdestinyknot
p1546
VDestiny Knot
p1547
sVskiddo
p1548
VSkiddo
p1549
sVrhyhorn
p1550
VRhyhorn
p1551
sVsteelix
p1552
VSteelix
p1553
sVnestball
p1554
VNest Ball
p1555
sVkrookodile
p1556
VKrookodile
p1557
sVcellbattery
p1558
VCell Battery
p1559
sVwingattack
p1560
VWing Attack
p1561
sVnormalgem
p1562
VNormal Gem
p1563
sVhiddenpowersteel
p1564
VHidden Power Steel
p1565
sVtyranitarite
p1566
VTyranitarite
p1567
sVdodrio
p1568
VDodrio
p1569
sVstancechange
p1570
VStance Change
p1571
sVzapdos
p1572
VZapdos
p1573
sVendeavor
p1574
VEndeavor
p1575
sVechoedvoice
p1576
VEchoed Voice
p1577
sVrunaway
p1578
VRun Away
p1579
sVlandswrath
p1580
VLand's Wrath
p1581
sVmawilemega
p1582
VMawile-Mega
p1583
sVlightmetal
p1584
VLight Metal
p1585
sVstunspore
p1586
VStun Spore
p1587
sVxerneas
p1588
VXerneas
p1589
sVgigalith
p1590
VGigalith
p1591
sVspiderweb
p1592
VSpider Web
p1593
sVheatrock
p1594
VHeat Rock
p1595
sVflamebody
p1596
VFlame Body
p1597
sVhelioptile
p1598
VHelioptile
p1599
sVcresselia
p1600
VCresselia
p1601
sVomanyte
p1602
VOmanyte
p1603
sVbreloom
p1604
VBreloom
p1605
sVstormthrow
p1606
VStorm Throw
p1607
sVhealblock
p1608
VHeal Block
p1609
sVswanna
p1610
VSwanna
p1611
sVluminousmoss
p1612
VLuminous Moss
p1613
sS'careful'
p1614
S'Careful'
p1615
sVmudshot
p1616
VMud Shot
p1617
sVdefeatist
p1618
VDefeatist
p1619
sVshockwave
p1620
VShock Wave
p1621
sVlandorus
p1622
VLandorus
p1623
sVgroudon
p1624
VGroudon
p1625
sS'quiet'
p1626
S'Quiet'
p1627
sVgrasswhistle
p1628
VGrassWhistle
p1629
sVshadowclaw
p1630
VShadow Claw
p1631
sVsacredfire
p1632
VSacred Fire
p1633
sVmonferno
p1634
VMonferno
p1635
sVvicegrip
p1636
VViceGrip
p1637
sVgourgeistlarge
p1638
VGourgeist-Large
p1639
sVcubchoo
p1640
VCubchoo
p1641
sVhiddenpowerice
p1642
VHidden Power Ice
p1643
sVextremespeed
p1644
VExtreme Speed
p1645
sVangerpoint
p1646
VAnger Point
p1647
sVphantomforce
p1648
VPhantom Force
p1649
sVstrongjaw
p1650
VStrong Jaw
p1651
sVnuzzle
p1652
VNuzzle
p1653
sVthunderbolt
p1654
VThunderbolt
p1655
sVgenesectshock
p1656
VGenesect-Shock
p1657
sVmagnetbomb
p1658
VMagnet Bomb
p1659
sVassist
p1660
VAssist
p1661
sVblaziken
p1662
VBlaziken
p1663
sVgligar
p1664
VGligar
p1665
sVnightmare
p1666
VNightmare
p1667
sVpangoro
p1668
VPangoro
p1669
sVhypervoice
p1670
VHyper Voice
p1671
sVminimize
p1672
VMinimize
p1673
sVdoublehit
p1674
VDouble Hit
p1675
sVmedicham
p1676
VMedicham
p1677
sVheatmor
p1678
VHeatmor
p1679
sVrockgem
p1680
VRock Gem
p1681
sVmetalburst
p1682
VMetal Burst
p1683
sVfurcoat
p1684
VFur Coat
p1685
sVhealingwish
p1686
VHealing Wish
p1687
sVquickguard
p1688
VQuick Guard
p1689
sVwingull
p1690
VWingull
p1691
sVrest
p1692
VRest
p1693
sVfurfrou
p1694
VFurfrou
p1695
sVchimchar
p1696
VChimchar
p1697
sVdarkaura
p1698
VDark Aura
p1699
sVrazorclaw
p1700
VRazor Claw
p1701
sVdragonbreath
p1702
VDragon Breath
p1703
sVelgyem
p1704
VElgyem
p1705
sVduskull
p1706
VDuskull
p1707
sVcometpunch
p1708
VComet Punch
p1709
sVaerialace
p1710
VAerial Ace
p1711
sVparas
p1712
VParas
p1713
sVskitty
p1714
VSkitty
p1715
sVflareblitz
p1716
VFlare Blitz
p1717
sVtrubbish
p1718
VTrubbish
p1719
sVsnarl
p1720
VSnarl
p1721
sVmachpunch
p1722
VMach Punch
p1723
sVsunkern
p1724
VSunkern
p1725
sVcolossoil
p1726
VColossoil
p1727
sVdreamball
p1728
VDream Ball
p1729
sVsnore
p1730
VSnore
p1731
sVfloatstone
p1732
VFloat Stone
p1733
sVskiploom
p1734
VSkiploom
p1735
sVregigigas
p1736
VRegigigas
p1737
sVvoltswitch
p1738
VVolt Switch
p1739
sVarceusrock
p1740
VArceus-Rock
p1741
sVbrightpowder
p1742
VBrightPowder
p1743
sVhypercutter
p1744
VHyper Cutter
p1745
sVvanillite
p1746
VVanillite
p1747
sVchoiceband
p1748
VChoice Band
p1749
sVheartswap
p1750
VHeart Swap
p1751
sVpinapberry
p1752
VPinap Berry
p1753
sVminccino
p1754
VMinccino
p1755
sVrefresh
p1756
VRefresh
p1757
sVprinplup
p1758
VPrinplup
p1759
sVultraball
p1760
VUltra Ball
p1761
sVcrustle
p1762
VCrustle
p1763
sVpowergem
p1764
VPower Gem
p1765
sViceburn
p1766
VIce Burn
p1767
sVbattlearmor
p1768
VBattle Armor
p1769
sVcastformsnowy
p1770
VCastform-Snowy
p1771
sVhustle
p1772
VHustle
p1773
sVthroh
p1774
VThroh
p1775
sVmusharna
p1776
VMusharna
p1777
sVinnerfocus
p1778
VInner Focus
p1779
sVbasculinbluestriped
p1780
VBasculin-Blue-Striped
p1781
sVhornattack
p1782
VHorn Attack
p1783
sVzapcannon
p1784
VZap Cannon
p1785
sVroar
p1786
VRoar
p1787
sVlockon
p1788
VLock-On
p1789
sVfloette
p1790
VFloette
p1791
sVgengar
p1792
VGengar
p1793
sVswampert
p1794
VSwampert
p1795
sVgolem
p1796
VGolem
p1797
sVquilava
p1798
VQuilava
p1799
sVcustapberry
p1800
VCustap Berry
p1801
sVsearingshot
p1802
VSearing Shot
p1803
sVstratagem
p1804
VStratagem
p1805
sVpyroar
p1806
VPyroar
p1807
sVshadowpunch
p1808
VShadow Punch
p1809
sVfocuspunch
p1810
VFocus Punch
p1811
sVtoughclaws
p1812
VTough Claws
p1813
sVstruggle
p1814
VStruggle
p1815
sViciclespear
p1816
VIcicle Spear
p1817
sVpyroak
p1818
VPyroak
p1819
sVsacredsword
p1820
VSacred Sword
p1821
sVhex
p1822
VHex
p1823
sVmarill
p1824
VMarill
p1825
sVsymbiosis
p1826
VSymbiosis
p1827
sVwillowisp
p1828
VWill-O-Wisp
p1829
sVsandrush
p1830
VSand Rush
p1831
sVbubble
p1832
VBubble
p1833
sVsealeo
p1834
VSealeo
p1835
sVglaciate
p1836
VGlaciate
p1837
sVnightshade
p1838
VNight Shade
p1839
sVfrogadier
p1840
VFrogadier
p1841
sVporygon
p1842
VPorygon
p1843
sVstantler
p1844
VStantler
p1845
sVvitalspirit
p1846
VVital Spirit
p1847
sVsnover
p1848
VSnover
p1849
sVrage
p1850
VRage
p1851
sVvictorystar
p1852
VVictory Star
p1853
sVvinewhip
p1854
VVine Whip
p1855
sVstoneplate
p1856
VStone Plate
p1857
sVsheercold
p1858
VSheer Cold
p1859
sVsplashplate
p1860
VSplash Plate
p1861
sVpowdersnow
p1862
VPowder Snow
p1863
sVclamperl
p1864
VClamperl
p1865
sVchesnaught
p1866
VChesnaught
p1867
sVdugtrio
p1868
VDugtrio
p1869
sVsmokescreen
p1870
VSmokeScreen
p1871
sVmoonblast
p1872
VMoonblast
p1873
sVcolburberry
p1874
VColbur Berry
p1875
sVhorndrill
p1876
VHorn Drill
p1877
sVaegislash
p1878
VAegislash
p1879
sVimmunity
p1880
VImmunity
p1881
sVtangela
p1882
VTangela
p1883
sVcharizard
p1884
VCharizard
p1885
sVnincada
p1886
VNincada
p1887
sVgraveler
p1888
VGraveler
p1889
sVmirrorcoat
p1890
VMirror Coat
p1891
sVemboar
p1892
VEmboar
p1893
sVdustox
p1894
VDustox
p1895
sVrootfossil
p1896
VRoot Fossil
p1897
sVtackle
p1898
VTackle
p1899
sVrotomwash
p1900
VRotom-Wash
p1901
sVgrudge
p1902
VGrudge
p1903
sVcyndaquil
p1904
VCyndaquil
p1905
sVblueflare
p1906
VBlue Flare
p1907
sVdefog
p1908
VDefog
p1909
sVskyattack
p1910
VSky Attack
p1911
sVmoonlight
p1912
VMoonlight
p1913
sVmimic
p1914
VMimic
p1915
sVstockpile
p1916
VStockpile
p1917
sVoddincense
p1918
VOdd Incense
p1919
sVgardevoirmega
p1920
VGardevoir-Mega
p1921
sVlairon
p1922
VLairon
p1923
sVeerieimpulse
p1924
VEerie Impulse
p1925
sVscrappy
p1926
VScrappy
p1927
sVtogetic
p1928
VTogetic
p1929
sVfirepunch
p1930
VFire Punch
p1931
sVunfezant
p1932
VUnfezant
p1933
sVmicleberry
p1934
VMicle Berry
p1935
sVlightningrod
p1936
VLightningrod
p1937
sVgigadrain
p1938
VGiga Drain
p1939
sVtornadustherian
p1940
VTornadus-Therian
p1941
sVvanillish
p1942
VVanillish
p1943
sVvenomdrench
p1944
VVenom Drench
p1945
sVbayleef
p1946
VBayleef
p1947
sVhondewberry
p1948
VHondew Berry
p1949
sVtympole
p1950
VTympole
p1951
sVwigglytuff
p1952
VWigglytuff
p1953
sVtyranitarmega
p1954
VTyranitar-Mega
p1955
sVicepunch
p1956
VIce Punch
p1957
sVgalvantula
p1958
VGalvantula
p1959
sVcombusken
p1960
VCombusken
p1961
sVcloudnine
p1962
VCloud Nine
p1963
sVmienshao
p1964
VMienshao
p1965
sVkeeberry
p1966
VKee Berry
p1967
sS'mild'
p1968
S'Mild'
p1969
sVscrafty
p1970
VScrafty
p1971
sVsecretpower
p1972
VSecret Power
p1973
sVshadowtag
p1974
VShadow Tag
p1975
sVsawsbuck
p1976
VSawsbuck
p1977
sVdoublekick
p1978
VDouble Kick
p1979
sViceball
p1980
VIce Ball
p1981
sVflorges
p1982
VFlorges
p1983
sVgourgeistsuper
p1984
VGourgeist-Super
p1985
sVironbarbs
p1986
VIron Barbs
p1987
sValtaria
p1988
VAltaria
p1989
sVcrushgrip
p1990
VCrush Grip
p1991
sVseedbomb
p1992
VSeed Bomb
p1993
sVmeganium
p1994
VMeganium
p1995
sVchipaway
p1996
VChip Away
p1997
sVmetalclaw
p1998
VMetal Claw
p1999
sVfeatherdance
p2000
VFeatherDance
p2001
sVtrick
p2002
VTrick
p2003
sVironplate
p2004
VIron Plate
p2005
sVgreatball
p2006
VGreat Ball
p2007
sVfellstinger
p2008
VFell Stinger
p2009
sVaurorabeam
p2010
VAurora Beam
p2011
sVheartstamp
p2012
VHeart Stamp
p2013
sVboldore
p2014
VBoldore
p2015
sVchoicescarf
p2016
VChoice Scarf
p2017
sVdragonfang
p2018
VDragon Fang
p2019
sVgastly
p2020
VGastly
p2021
sVclearsmog
p2022
VClear Smog
p2023
sVvenusaurmega
p2024
VVenusaur-Mega
p2025
sVinfernape
p2026
VInfernape
p2027
sVweezing
p2028
VWeezing
p2029
sVaromatisse
p2030
VAromatisse
p2031
sVkyuremwhite
p2032
VKyurem-White
p2033
sVacidspray
p2034
VAcid Spray
p2035
sVarmaldo
p2036
VArmaldo
p2037
sVkyurem
p2038
VKyurem
p2039
sVwringout
p2040
VWring Out
p2041
sVstarly
p2042
VStarly
p2043
sVhawlucha
p2044
VHawlucha
p2045
sVgolett
p2046
VGolett
p2047
sVgyaradosmega
p2048
VGyarados-Mega
p2049
sVgallade
p2050
VGallade
p2051
sVledian
p2052
VLedian
p2053
sVluvdisc
p2054
VLuvdisc
p2055
sVhelixfossil
p2056
VHelix Fossil
p2057
sVsplash
p2058
VSplash
p2059
sVillumise
p2060
VIllumise
p2061
sVgirafarig
p2062
VGirafarig
p2063
sVanorith
p2064
VAnorith
p2065
sVdizzypunch
p2066
VDizzy Punch
p2067
sVflyingpress
p2068
VFlying Press
p2069
sVpumpkaboosuper
p2070
VPumpkaboo-Super
p2071
sVhorsea
p2072
VHorsea
p2073
sVstick
p2074
VStick
p2075
sVrazorfang
p2076
VRazor Fang
p2077
sVwatergem
p2078
VWater Gem
p2079
sVturboblaze
p2080
VTurboblaze
p2081
sVaegislashblade
p2082
VAegislash-Blade
p2083
sVnaturalgift
p2084
VNatural Gift
p2085
sVenergypowder
p2086
VEnergyPowder
p2087
sVchartiberry
p2088
VCharti Berry
p2089
sVlumberry
p2090
VLum Berry
p2091
sVvoltorb
p2092
VVoltorb
p2093
sVskyplate
p2094
VSky Plate
p2095
sVsableye
p2096
VSableye
p2097
sVseviper
p2098
VSeviper
p2099
sVmarvelscale
p2100
VMarvel Scale
p2101
sVaurumoth
p2102
VAurumoth
p2103
sVslakoth
p2104
VSlakoth
p2105
sVstaryu
p2106
VStaryu
p2107
sVnightslash
p2108
VNight Slash
p2109
sVwikiberry
p2110
VWiki Berry
p2111
sVextrasensory
p2112
VExtrasensory
p2113
sVdrainpunch
p2114
VDrain Punch
p2115
sVshelmet
p2116
VShelmet
p2117
sVflyinggem
p2118
VFlying Gem
p2119
sVbulkup
p2120
VBulk Up
p2121
sVglaceon
p2122
VGlaceon
p2123
sVwonderguard
p2124
VWonder Guard
p2125
sVelectricgem
p2126
VElectric Gem
p2127
sVrotomfan
p2128
VRotom-Fan
p2129
sVsignalbeam
p2130
VSignal Beam
p2131
sVshuckle
p2132
VShuckle
p2133
sVreflect
p2134
VReflect
p2135
sVdisable
p2136
VDisable
p2137
sVliquidooze
p2138
VLiquid Ooze
p2139
sVmedichammega
p2140
VMedicham-Mega
p2141
sVtwistedspoon
p2142
VTwistedSpoon
p2143
sVlanturn
p2144
VLanturn
p2145
sVparaboliccharge
p2146
VParabolic Charge
p2147
sVretaliate
p2148
VRetaliate
p2149
sVcorphish
p2150
VCorphish
p2151
sVbigpecks
p2152
VBig Pecks
p2153
sVwatmelberry
p2154
VWatmel Berry
p2155
sVoblivious
p2156
VOblivious
p2157
sVarticuno
p2158
VArticuno
p2159
sVfissure
p2160
VFissure
p2161
sVvolcarona
p2162
VVolcarona
p2163
sVblackglasses
p2164
VBlackGlasses
p2165
sVplayrough
p2166
VPlay Rough
p2167
sVhealorder
p2168
VHeal Order
p2169
sVjigglypuff
p2170
VJigglypuff
p2171
sVsandslash
p2172
VSandslash
p2173
sVastonish
p2174
VAstonish
p2175
sVenergyball
p2176
VEnergy Ball
p2177
sVaggron
p2178
VAggron
p2179
sVlampent
p2180
VLampent
p2181
sVfistplate
p2182
VFist Plate
p2183
sVreturn
p2184
VReturn
p2185
sVmanectricmega
p2186
VManectric-Mega
p2187
sVsnowball
p2188
VSnowball
p2189
sVmrmime
p2190
VMr. Mime
p2191
sVcharizardmegax
p2192
VCharizard-Mega-X
p2193
sVcharizardmegay
p2194
VCharizard-Mega-Y
p2195
sVclefable
p2196
VClefable
p2197
sVskuntank
p2198
VSkuntank
p2199
sVprimeape
p2200
VPrimeape
p2201
sVgabite
p2202
VGabite
p2203
sVmissingno
p2204
VMissingno.
p2205
sVbellsprout
p2206
VBellsprout
p2207
sVlovelykiss
p2208
VLovely Kiss
p2209
sVmeanlook
p2210
VMean Look
p2211
sVclamp
p2212
VClamp
p2213
sVtopsyturvy
p2214
VTopsy-turvy
p2215
sVquickfeet
p2216
VQuick Feet
p2217
sVwatershuriken
p2218
VWater Shuriken
p2219
sVraichu
p2220
VRaichu
p2221
sVmagnezone
p2222
VMagnezone
p2223
sVtrickroom
p2224
VTrick Room
p2225
sVstoredpower
p2226
VStored Power
p2227
sVhiddenpowerpsychic
p2228
VHidden Power Psychic
p2229
sVelectroweb
p2230
VElectroweb
p2231
sS'jolly'
p2232
S'Jolly'
p2233
sVsalamence
p2234
VSalamence
p2235
sVarceuswater
p2236
VArceus-Water
p2237
sVsuperfang
p2238
VSuper Fang
p2239
sVcombee
p2240
VCombee
p2241
sVroggenrola
p2242
VRoggenrola
p2243
sVironhead
p2244
VIron Head
p2245
sVsentret
p2246
VSentret
p2247
sVpichuspikyeared
p2248
VPichu-Spiky-eared
p2249
sVtyrogue
p2250
VTyrogue
p2251
sVcleffa
p2252
VCleffa
p2253
sVwaterabsorb
p2254
VWater Absorb
p2255
sVtoxicboost
p2256
VToxic Boost
p2257
sVninetales
p2258
VNinetales
p2259
sVnidoranf
p2260
S'NidoranF'
p2261
sVcottonspore
p2262
VCotton Spore
p2263
sVnidoranm
p2264
S'NidoranM'
p2265
sVpineco
p2266
VPineco
p2267
sVscopelens
p2268
VScope Lens
p2269
sVhydreigon
p2270
VHydreigon
p2271
sVrockpolish
p2272
VRock Polish
p2273
sVgiratinaorigin
p2274
VGiratina-Origin
p2275
sVabomasnowmega
p2276
VAbomasnow-Mega
p2277
sVmanaphy
p2278
VManaphy
p2279
sS'brave'
p2280
S'Brave'
p2281
sVmist
p2282
VMist
p2283
sVkangaskhanmega
p2284
VKangaskhan-Mega
p2285
sVpetaldance
p2286
VPetal Dance
p2287
sVmeowstic
p2288
VMeowstic
p2289
sVboltstrike
p2290
VBolt Strike
p2291
sVswarm
p2292
VSwarm
p2293
sVairlock
p2294
VAir Lock
p2295
sVklinklang
p2296
VKlinklang
p2297
sVlandorustherian
p2298
VLandorus-Therian
p2299
sVshedinja
p2300
VShedinja
p2301
sVbabiriberry
p2302
VBabiri Berry
p2303
sVsuckerpunch
p2304
VSucker Punch
p2305
sVfreezeshock
p2306
VFreeze Shock
p2307
sVpsywave
p2308
VPsywave
p2309
sVdrillrun
p2310
VDrill Run
p2311
sVwhiteherb
p2312
VWhite Herb
p2313
sVringtarget
p2314
VRing Target
p2315
sVvenipede
p2316
VVenipede
p2317
sVdarkpulse
p2318
VDark Pulse
p2319
sVarceusdragon
p2320
VArceus-Dragon
p2321
sVstall
p2322
VStall
p2323
sVcontrary
p2324
VContrary
p2325
sVdazzlinggleam
p2326
VDazzling Gleam
p2327
sVdoubleedge
p2328
VDouble-Edge
p2329
sVremoraid
p2330
VRemoraid
p2331
sVclefairy
p2332
VClefairy
p2333
sVklink
p2334
VKlink
p2335
sVfirespin
p2336
VFire Spin
p2337
sVgenesectchill
p2338
VGenesect-Chill
p2339
sVsuicune
p2340
VSuicune
p2341
sVpamtreberry
p2342
VPamtre Berry
p2343
sVmegahorn
p2344
VMegahorn
p2345
sVsunflora
p2346
VSunflora
p2347
sVgourgeist
p2348
VGourgeist
p2349
sVbarbaracle
p2350
VBarbaracle
p2351
sVairballoon
p2352
VAir Balloon
p2353
sVswirlix
p2354
VSwirlix
p2355
sVlitleo
p2356
VLitleo
p2357
sVcamouflage
p2358
VCamouflage
p2359
sVfrillish
p2360
VFrillish
p2361
sVspheal
p2362
VSpheal
p2363
sVkangaskhan
p2364
VKangaskhan
p2365
sVregirock
p2366
VRegirock
p2367
sVpansage
p2368
VPansage
p2369
sVswitcheroo
p2370
VSwitcheroo
p2371
sValakazammega
p2372
VAlakazam-Mega
p2373
sVmasterball
p2374
VMaster Ball
p2375
sVeruption
p2376
VEruption
p2377
sVyawn
p2378
VYawn
p2379
sVcharm
p2380
VCharm
p2381
sVdiglett
p2382
VDiglett
p2383
sVbeldum
p2384
VBeldum
p2385
sVbarboach
p2386
VBarboach
p2387
sVcrosspoison
p2388
VCross Poison
p2389
sVcarvanha
p2390
VCarvanha
p2391
sVrefrigerate
p2392
VRefrigerate
p2393
sVlowsweep
p2394
VLow Sweep
p2395
sVsturdy
p2396
VSturdy
p2397
sVcovet
p2398
VCovet
p2399
sVgenesectdouse
p2400
VGenesect-Douse
p2401
sVkaratechop
p2402
VKarate Chop
p2403
sVworryseed
p2404
VWorry Seed
p2405
sVazumarill
p2406
VAzumarill
p2407
sVrazorwind
p2408
VRazor Wind
p2409
sVcharmeleon
p2410
VCharmeleon
p2411
sVmeloetta
p2412
VMeloetta
p2413
sVnanabberry
p2414
VNanab Berry
p2415
sVzoomlens
p2416
VZoom Lens
p2417
sVblackbelt
p2418
VBlack Belt
p2419
sVhammerarm
p2420
VHammer Arm
p2421
sVmagmaarmor
p2422
VMagma Armor
p2423
sVtriattack
p2424
VTri Attack
p2425
sVgooey
p2426
VGooey
p2427
sVoblivionwing
p2428
VOblivion Wing
p2429
sVtyrantrum
p2430
VTyrantrum
p2431
sVhealpulse
p2432
VHeal Pulse
p2433
sVmagikarp
p2434
VMagikarp
p2435
sVpawniard
p2436
VPawniard
p2437
sVpoisontail
p2438
VPoison Tail
p2439
sVhitmonchan
p2440
VHitmonchan
p2441
sS'docile'
p2442
S'Docile'
p2443
sVfireblast
p2444
VFire Blast
p2445
sVshroomish
p2446
VShroomish
p2447
sVwhismur
p2448
VWhismur
p2449
sVspikes
p2450
VSpikes
p2451
sVshadowstrike
p2452
VShadowStrike
p2453
sVheatcrash
p2454
VHeat Crash
p2455
sVskorupi
p2456
VSkorupi
p2457
sVgengarite
p2458
VGengarite
p2459
sVblitzle
p2460
VBlitzle
p2461
sVtamatoberry
p2462
VTamato Berry
p2463
sVblazikenite
p2464
VBlazikenite
p2465
sVfarfetchd
p2466
VFarfetch'd
p2467
sVinkay
p2468
VInkay
p2469
sVpickup
p2470
VPickup
p2471
sVtangaberry
p2472
VTanga Berry
p2473
sVkarrablast
p2474
VKarrablast
p2475
sVmarowak
p2476
VMarowak
p2477
sVmachobrace
p2478
VMacho Brace
p2479
sVelekid
p2480
VElekid
p2481
sVmagmortar
p2482
VMagmortar
p2483
sVchansey
p2484
VChansey
p2485
sVroaroftime
p2486
VRoar of Time
p2487
sVwildcharge
p2488
VWild Charge
p2489
sVrattata
p2490
VRattata
p2491
sVhoundoommega
p2492
VHoundoom-Mega
p2493
sVclaydol
p2494
VClaydol
p2495
sVrelicanth
p2496
VRelicanth
p2497
sVtorchic
p2498
VTorchic
p2499
sVlapras
p2500
VLapras
p2501
sVmankey
p2502
VMankey
p2503
sVfuryattack
p2504
VFury Attack
p2505
sVsweetscent
p2506
VSweet Scent
p2507
sVshayminsky
p2508
VShaymin-Sky
p2509
sVwacanberry
p2510
VWacan Berry
p2511
sVsandile
p2512
VSandile
p2513
sVtyphlosion
p2514
VTyphlosion
p2515
sVariados
p2516
VAriados
p2517
sVdrillpeck
p2518
VDrill Peck
p2519
sVicebody
p2520
VIce Body
p2521
sVbronzor
p2522
VBronzor
p2523
sVfearow
p2524
VFearow
p2525
sVxscissor
p2526
VX-Scissor
p2527
sVbellossom
p2528
VBellossom
p2529
sVquiverdance
p2530
VQuiver Dance
p2531
sVblastoisinite
p2532
VBlastoisinite
p2533
sVmegapunch
p2534
VMega Punch
p2535
sVdamp
p2536
VDamp
p2537
sVmienfoo
p2538
VMienfoo
p2539
sVliepard
p2540
VLiepard
p2541
sVamnesia
p2542
VAmnesia
p2543
sVdestinybond
p2544
VDestiny Bond
p2545
sVpowersplit
p2546
VPower Split
p2547
sVdruddigon
p2548
VDruddigon
p2549
sVraikou
p2550
VRaikou
p2551
sVdragontail
p2552
VDragon Tail
p2553
sVstringshot
p2554
VString Shot
p2555
sVdragonair
p2556
VDragonair
p2557
sVwatergun
p2558
VWater Gun
p2559
sVvanilluxe
p2560
VVanilluxe
p2561
sVnomelberry
p2562
VNomel Berry
p2563
sVdrainingkiss
p2564
VDraining Kiss
p2565
sVbasculin
p2566
VBasculin
p2567
sVescavalier
p2568
VEscavalier
p2569
sVpsychoshift
p2570
VPsycho Shift
p2571
sVbisharp
p2572
VBisharp
p2573
sVhoundoom
p2574
VHoundoom
p2575
sVgulpin
p2576
VGulpin
p2577
sVpancham
p2578
VPancham
p2579
sVmantyke
p2580
VMantyke
p2581
sVpound
p2582
VPound
p2583
sVmedichamite
p2584
VMedichamite
p2585
sVrotommow
p2586
VRotom-Mow
p2587
sVdefendorder
p2588
VDefend Order
p2589
sVsurskit
p2590
VSurskit
p2591
sVmegalauncher
p2592
VMega Launcher
p2593
sVicebeam
p2594
VIce Beam
p2595
sVfacade
p2596
VFacade
p2597
sVzubat
p2598
VZubat
p2599
sVmagikarpsrevenge
p2600
VMagikarp's Revenge
p2601
sVingrain
p2602
VIngrain
p2603
sVcottonee
p2604
VCottonee
p2605
sVpoisonjab
p2606
VPoison Jab
p2607
sVtaunt
p2608
VTaunt
p2609
sVgorebyss
p2610
VGorebyss
p2611
sVgrotle
p2612
VGrotle
p2613
sVpikachu
p2614
VPikachu
p2615
sVrayquaza
p2616
VRayquaza
p2617
sVfroakie
p2618
VFroakie
p2619
sVloveball
p2620
VLove Ball
p2621
sVjumpluff
p2622
VJumpluff
p2623
sS'timid'
p2624
S'Timid'
p2625
sVmismagius
p2626
VMismagius
p2627
sVhiddenpowerbug
p2628
VHidden Power Bug
p2629
sVinfiltrator
p2630
VInfiltrator
p2631
sVpsychup
p2632
VPsych Up
p2633
sVregice
p2634
VRegice
p2635
sVfiregem
p2636
VFire Gem
p2637
sVshellder
p2638
VShellder
p2639
sVwithdraw
p2640
VWithdraw
p2641
sVmoonball
p2642
VMoon Ball
p2643
sVpainsplit
p2644
VPain Split
p2645
sVstoneedge
p2646
VStone Edge
p2647
sVhowl
p2648
VHowl
p2649
sVwaterpledge
p2650
VWater Pledge
p2651
sVspearow
p2652
VSpearow
p2653
sVmagneticfield
p2654
VMagnetic Field
p2655
sVrockwrecker
p2656
VRock Wrecker
p2657
sVcompetitive
p2658
VCompetitive
p2659
sVsteelgem
p2660
VSteel Gem
p2661
sVzygarde
p2662
VZygarde
p2663
sVsolrock
p2664
VSolrock
p2665
sVspinda
p2666
VSpinda
p2667
sVcloyster
p2668
VCloyster
p2669
sVmetapod
p2670
VMetapod
p2671
sVairslash
p2672
VAir Slash
p2673
sVchatot
p2674
VChatot
p2675
sVacrobatics
p2676
VAcrobatics
p2677
sVchoicespecs
p2678
VChoice Specs
p2679
sVrebound
p2680
VRebound
p2681
sVsolarbeam
p2682
VSolarBeam
p2683
sVlusterpurge
p2684
VLuster Purge
p2685
sVkeldeoresolute
p2686
VKeldeo-Resolute
p2687
sVmoody
p2688
VMoody
p2689
sVgothitelle
p2690
VGothitelle
p2691
sVskilllink
p2692
VSkill Link
p2693
sVursaring
p2694
VUrsaring
p2695
sVsunnyday
p2696
VSunny Day
p2697
sVsubmission
p2698
VSubmission
p2699
sVstaravia
p2700
VStaravia
p2701
sVtailglow
p2702
VTail Glow
p2703
sVstealthrock
p2704
VStealth Rock
p2705
sVtechnoblast
p2706
VTechno Blast
p2707
sVbaltoy
p2708
VBaltoy
p2709
sVflamewheel
p2710
VFlame Wheel
p2711
sVsketch
p2712
VSketch
p2713
sVwhirlipede
p2714
VWhirlipede
p2715
sVbounce
p2716
VBounce
p2717
sVampharosite
p2718
VAmpharosite
p2719
sVgigaimpact
p2720
VGiga Impact
p2721
sVsewaddle
p2722
VSewaddle
p2723
sVscald
p2724
VScald
p2725
sVominouswind
p2726
VOminous Wind
p2727
sVdeepseascale
p2728
VDeepSeaScale
p2729
sVmareep
p2730
VMareep
p2731
sVhuntail
p2732
VHuntail
p2733
sVswordsdance
p2734
VSwords Dance
p2735
sVearlybird
p2736
VEarly Bird
p2737
sVslash
p2738
VSlash
p2739
sVhiddenpowergrass
p2740
VHidden Power Grass
p2741
sVmimejr
p2742
VMime Jr.
p2743
sVseismitoad
p2744
VSeismitoad
p2745
sVscraggy
p2746
VScraggy
p2747
sVmewtwomegax
p2748
VMewtwo-Mega-X
p2749
sVmewtwomegay
p2750
VMewtwo-Mega-Y
p2751
sVfocussash
p2752
VFocus Sash
p2753
sVjellicent
p2754
VJellicent
p2755
sVspelonberry
p2756
VSpelon Berry
p2757
sVnobleroar
p2758
VNoble Roar
p2759
sVkangaskhanite
p2760
VKangaskhanite
p2761
sVblazekick
p2762
VBlaze Kick
p2763
sViapapaberry
p2764
VIapapa Berry
p2765
sVmudkip
p2766
VMudkip
p2767
sVbouffalant
p2768
VBouffalant
p2769
sVshinx
p2770
VShinx
p2771
sVmurkrow
p2772
VMurkrow
p2773
sVsharpedo
p2774
VSharpedo
p2775
sVarmthrust
p2776
VArm Thrust
p2777
sVchargebeam
p2778
VCharge Beam
p2779
sVnidoking
p2780
VNidoking
p2781
sVhabanberry
p2782
VHaban Berry
p2783
sVstench
p2784
VStench
p2785
sVtoxicroak
p2786
VToxicroak
p2787
sVunown
p2788
VUnown
p2789
sVearthpower
p2790
VEarth Power
p2791
sVsnorunt
p2792
VSnorunt
p2793
sS'relaxed'
p2794
S'Relaxed'
p2795
sVdragongem
p2796
VDragon Gem
p2797
sVpsychocut
p2798
VPsycho Cut
p2799
sVtranquill
p2800
VTranquill
p2801
sVragepowder
p2802
VRage Powder
p2803
sVbuizel
p2804
VBuizel
p2805
sVflamecharge
p2806
VFlame Charge
p2807
sVprobopass
p2808
VProbopass
p2809
sVabsolmega
p2810
VAbsol-Mega
p2811
sVspacialrend
p2812
VSpacial Rend
p2813
sVforesight
p2814
VForesight
p2815
sVgrowth
p2816
VGrowth
p2817
sVpoliwrath
p2818
VPoliwrath
p2819
sVpechaberry
p2820
VPecha Berry
p2821
sVarceusfairy
p2822
VArceus-Fairy
p2823
sVmiracleseed
p2824
VMiracle Seed
p2825
sVtakedown
p2826
VTake Down
p2827
sVrockhead
p2828
VRock Head
p2829
sVstickybarb
p2830
VSticky Barb
p2831
sVganlonberry
p2832
VGanlon Berry
p2833
sVbulbasaur
p2834
VBulbasaur
p2835
sVpichu
p2836
VPichu
p2837
sVheatwave
p2838
VHeat Wave
p2839
sVaudino
p2840
VAudino
p2841
sVdrifloon
p2842
VDrifloon
p2843
sVsnowcloak
p2844
VSnow Cloak
p2845
sVrazorshell
p2846
VRazor Shell
p2847
sVmetagross
p2848
VMetagross
p2849
sVmeowsticf
p2850
VMeowstic-F
p2851
sVlickilicky
p2852
VLickilicky
p2853
sVzigzagoon
p2854
VZigzagoon
p2855
sVcinccino
p2856
VCinccino
p2857
sVavalugg
p2858
VAvalugg
p2859
sVscratch
p2860
VScratch
p2861
sVherdier
p2862
VHerdier
p2863
sVsandtomb
p2864
VSand Tomb
p2865
sVcharmander
p2866
VCharmander
p2867
sVspeedboost
p2868
VSpeed Boost
p2869
sVwakeupslap
p2870
VWake-Up Slap
p2871
sVcursedbody
p2872
VCursed Body
p2873
sVrivalry
p2874
VRivalry
p2875
sVperishsong
p2876
VPerish Song
p2877
sVpoweruppunch
p2878
VPower-Up Punch
p2879
sVcutecharm
p2880
VCute Charm
p2881
sVblaze
p2882
VBlaze
p2883
sVsniper
p2884
VSniper
p2885
sVtriplekick
p2886
VTriple Kick
p2887
sVfly
p2888
VFly
p2889
sVguardsplit
p2890
VGuard Split
p2891
sVwobbuffet
p2892
VWobbuffet
p2893
sVteddiursa
p2894
VTeddiursa
p2895
sVthundershock
p2896
VThunder Shock
p2897
sVazurill
p2898
VAzurill
p2899
sVbastiodon
p2900
VBastiodon
p2901
sVlureball
p2902
VLure Ball
p2903
sVqwilfish
p2904
VQwilfish
p2905
sVhyperbeam
p2906
VHyper Beam
p2907
sVdynamicpunch
p2908
VDynamic Punch
p2909
sVmagnemite
p2910
VMagnemite
p2911
sVtyrunt
p2912
VTyrunt
p2913
sVirondefense
p2914
VIron Defense
p2915
sVmisdreavus
p2916
VMisdreavus
p2917
sVfidgit
p2918
VFidgit
p2919
sVdousedrive
p2920
VDouse Drive
p2921
sVcrushclaw
p2922
VCrush Claw
p2923
sVsoftboiled
p2924
VSoftboiled
p2925
sVpoisongem
p2926
VPoison Gem
p2927
sVdownload
p2928
VDownload
p2929
sVacid
p2930
VAcid
p2931
sVvigoroth
p2932
VVigoroth
p2933
sVlombre
p2934
VLombre
p2935
sVdelcatty
p2936
VDelcatty
p2937
sVhoundoominite
p2938
VHoundoominite
p2939
sVpayday
p2940
VPay Day
p2941
sVtyranitar
p2942
VTyranitar
p2943
sVturtwig
p2944
VTurtwig
p2945
sVmagmastorm
p2946
VMagma Storm
p2947
sVpansear
p2948
VPansear
p2949
sVdeerling
p2950
VDeerling
p2951
sVswinub
p2952
VSwinub
p2953
sVabomasnow
p2954
VAbomasnow
p2955
sVsing
p2956
VSing
p2957
sVcastform
p2958
VCastform
p2959
sVincinerate
p2960
VIncinerate
p2961
sVmarangaberry
p2962
VMaranga Berry
p2963
sVrampardos
p2964
VRampardos
p2965
sVscreech
p2966
VScreech
p2967
sVtentacruel
p2968
VTentacruel
p2969
sVnaturalcure
p2970
VNatural Cure
p2971
sVforestscurse
p2972
VForest's Curse
p2973
sVblizzard
p2974
VBlizzard
p2975
sVteeterdance
p2976
VTeeter Dance
p2977
sVfoongus
p2978
VFoongus
p2979
sVaquaring
p2980
VAqua Ring
p2981
sS'hardy'
p2982
S'Hardy'
p2983
sVarceusground
p2984
VArceus-Ground
p2985
sVpumpkaboolarge
p2986
VPumpkaboo-Large
p2987
sVkingdra
p2988
VKingdra
p2989
sVaerodactylite
p2990
VAerodactylite
p2991
sVbanettite
p2992
VBanettite
p2993
sVeevee
p2994
VEevee
p2995
sVheatran
p2996
VHeatran
p2997
sVwatchog
p2998
VWatchog
p2999
sVheavyball
p3000
VHeavy Ball
p3001
sVinsomnia
p3002
VInsomnia
p3003
sVcharcoal
p3004
VCharcoal
p3005
sVcranidos
p3006
VCranidos
p3007
sVabsol
p3008
VAbsol
p3009
sVplusle
p3010
VPlusle
p3011
sVaerodactylmega
p3012
VAerodactyl-Mega
p3013
sVharvest
p3014
VHarvest
p3015
sVwatersport
p3016
VWater Sport
p3017
sVicicleplate
p3018
VIcicle Plate
p3019
sVfuturesight
p3020
VFuture Sight
p3021
sVlustrousorb
p3022
VLustrous Orb
p3023
sVarchen
p3024
VArchen
p3025
sVexeggcute
p3026
VExeggcute
p3027
sVlucario
p3028
VLucario
p3029
sVthundurus
p3030
VThundurus
p3031
sVtangrowth
p3032
VTangrowth
p3033
sVvespiquen
p3034
VVespiquen
p3035
sVterrakion
p3036
VTerrakion
p3037
sVblacksludge
p3038
VBlack Sludge
p3039
sVrelicsong
p3040
VRelic Song
p3041
sVheliolisk
p3042
VHeliolisk
p3043
sVblazikenmega
p3044
VBlaziken-Mega
p3045
sVgastrodon
p3046
VGastrodon
p3047
sVbronzong
p3048
VBronzong
p3049
sVweavile
p3050
VWeavile
p3051
sVdewott
p3052
VDewott
p3053
sVchandelure
p3054
VChandelure
p3055
sVhaxorus
p3056
VHaxorus
p3057
sVsecretsword
p3058
VSecret Sword
p3059
sVowntempo
p3060
VOwn Tempo
p3061
sVhiddenpower
p3062
VHidden Power
p3063
sVrazorleaf
p3064
VRazor Leaf
p3065
sVpowerswap
p3066
VPower Swap
p3067
sVdragalge
p3068
VDragalge
p3069
sVheadcharge
p3070
VHead Charge
p3071
sVroserade
p3072
VRoserade
p3073
sVpidgey
p3074
VPidgey
p3075
sVaggronite
p3076
VAggronite
p3077
sVgenesect
p3078
VGenesect
p3079
sVlotad
p3080
VLotad
p3081
sVbind
p3082
VBind
p3083
sVcounter
p3084
VCounter
p3085
sVfullincense
p3086
VFull Incense
p3087
sVweepinbell
p3088
VWeepinbell
p3089
sVwoobat
p3090
VWoobat
p3091
sVaquajet
p3092
VAqua Jet
p3093
sVkrabby
p3094
VKrabby
p3095
sVumbreon
p3096
VUmbreon
p3097
sVheatproof
p3098
VHeatproof
p3099
sVguardswap
p3100
VGuard Swap
p3101
sVassaultvest
p3102
VAssault Vest
p3103
sVpetalblizzard
p3104
VPetal Blizzard
p3105
sVkadabra
p3106
VKadabra
p3107
sVpurepower
p3108
VPure Power
p3109
sVironball
p3110
VIron Ball
p3111
sVdreameater
p3112
VDream Eater
p3113
sVhelpinghand
p3114
VHelping Hand
p3115
sVmunchlax
p3116
VMunchlax
p3117
sVdeoxysdefense
p3118
VDeoxys-Defense
p3119
sVbelch
p3120
VBelch
p3121
sVsuperluck
p3122
VSuper Luck
p3123
sVberryjuice
p3124
VBerry Juice
p3125
sVhiddenpowerflying
p3126
VHidden Power Flying
p3127
sVflowerveil
p3128
VFlower Veil
p3129
sVpokeball
p3130
VPoke Ball
p3131
sVsandforce
p3132
VSand Force
p3133
sVflail
p3134
VFlail
p3135
sVkabutops
p3136
VKabutops
p3137
sVgreninja
p3138
VGreninja
p3139
sVchinchou
p3140
VChinchou
p3141
sVforewarn
p3142
VForewarn
p3143
sVmagnitude
p3144
VMagnitude
p3145
sVarceusfighting
p3146
VArceus-Fighting
p3147
sVrapidspin
p3148
VRapid Spin
p3149
sVskullbash
p3150
VSkull Bash
p3151
sVdratini
p3152
VDratini
p3153
sVafteryou
p3154
VAfter You
p3155
sVmaractus
p3156
VMaractus
p3157
sVscaryface
p3158
VScary Face
p3159
sVilluminate
p3160
VIlluminate
p3161
sVmagnetpull
p3162
VMagnet Pull
p3163
sVtepig
p3164
VTepig
p3165
sVkelpsyberry
p3166
VKelpsy Berry
p3167
sVstatic
p3168
VStatic
p3169
sVflameplate
p3170
VFlame Plate
p3171
sVicefang
p3172
VIce Fang
p3173
sVninjask
p3174
VNinjask
p3175
sVjoltik
p3176
VJoltik
p3177
sVrollingkick
p3178
VRolling Kick
p3179
sVweatherball
p3180
VWeather Ball
p3181
sVmanectric
p3182
VManectric
p3183
sVnaturepower
p3184
VNature Power
p3185
sVregisteel
p3186
VRegisteel
p3187
sVsmog
p3188
VSmog
p3189
sVbabydolleyes
p3190
VBaby-Doll Eyes
p3191
sVleafguard
p3192
VLeaf Guard
p3193
sVicywind
p3194
VIcy Wind
p3195
sVemolga
p3196
VEmolga
p3197
sVconkeldurr
p3198
VConkeldurr
p3199
sVworkup
p3200
VWork Up
p3201
sVhippowdon
p3202
VHippowdon
p3203
sVenigmaberry
p3204
VEnigma Berry
p3205
sVscatterbug
p3206
VScatterbug
p3207
sVcobalion
p3208
VCobalion
p3209
sVbergmite
p3210
VBergmite
p3211
sVsudowoodo
p3212
VSudowoodo
p3213
sVlarvitar
p3214
VLarvitar
p3215
sVheadbutt
p3216
VHeadbutt
p3217
sVbodyslam
p3218
VBody Slam
p3219
sVexpertbelt
p3220
VExpert Belt
p3221
sVbugbuzz
p3222
VBug Buzz
p3223
sVfirefang
p3224
VFire Fang
p3225
sVmindplate
p3226
VMind Plate
p3227
sVampharosmega
p3228
VAmpharos-Mega
p3229
sVmistball
p3230
VMist Ball
p3231
sVskrelp
p3232
VSkrelp
p3233
sVjumpkick
p3234
VJump Kick
p3235
sVwaterspout
p3236
VWater Spout
p3237
sVloudred
p3238
VLoudred
p3239
sVfletchinder
p3240
VFletchinder
p3241
sVpremierball
p3242
VPremier Ball
p3243
sVrotomfrost
p3244
VRotom-Frost
p3245
sVsolidrock
p3246
VSolid Rock
p3247
sVrabutaberry
p3248
VRabuta Berry
p3249
sVagility
p3250
VAgility
p3251
sVelectabuzz
p3252
VElectabuzz
p3253
sVcrobat
p3254
VCrobat
p3255
sVrockblast
p3256
VRock Blast
p3257
sVfeint
p3258
VFeint
p3259
sVsoftsand
p3260
VSoft Sand
p3261
sVsigilyph
p3262
VSigilyph
p3263
sVdeepseatooth
p3264
VDeepSeaTooth
p3265
sVtorkoal
p3266
VTorkoal
p3267
sVwurmple
p3268
VWurmple
p3269
sVtimburr
p3270
VTimburr
p3271
sVfastball
p3272
VFast Ball
p3273
sVpoisonfang
p3274
VPoison Fang
p3275
sVinsectplate
p3276
VInsect Plate
p3277
sVtorrent
p3278
VTorrent
p3279
sVencore
p3280
VEncore
p3281
sVquickball
p3282
VQuick Ball
p3283
sVtrapinch
p3284
VTrapinch
p3285
sVmarshtomp
p3286
VMarshtomp
p3287
sS'gentle'
p3288
S'Gentle'
p3289
sVtorment
p3290
VTorment
p3291
sVarceusflying
p3292
VArceus-Flying
p3293
sVzebstrika
p3294
VZebstrika
p3295
sVwhitesmoke
p3296
VWhite Smoke
p3297
sVlevelball
p3298
VLevel Ball
p3299
sVsoak
p3300
VSoak
p3301
sVfusionbolt
p3302
VFusion Bolt
p3303
sVflareon
p3304
VFlareon
p3305
sVcalmmind
p3306
VCalm Mind
p3307
sVaipom
p3308
VAipom
p3309
sVgravity
p3310
VGravity
p3311
sVcarnivine
p3312
VCarnivine
p3313
sVmistyterrain
p3314
VMisty Terrain
p3315
sVrotom
p3316
VRotom
p3317
sVnuzleaf
p3318
VNuzleaf
p3319
sVwidelens
p3320
VWide Lens
p3321
sVshadowball
p3322
VShadow Ball
p3323
sVdrifblim
p3324
VDrifblim
p3325
sVmewtwo
p3326
VMewtwo
p3327
sVrollout
p3328
VRollout
p3329
sVslurpuff
p3330
VSlurpuff
p3331
sVgrassgem
p3332
VGrass Gem
p3333
sVdracometeor
p3334
VDraco Meteor
p3335
sVsludgewave
p3336
VSludge Wave
p3337
sVsceptile
p3338
VSceptile
p3339
sVgardevoirite
p3340
VGardevoirite
p3341
sVexeggutor
p3342
VExeggutor
p3343
sVshedskin
p3344
VShed Skin
p3345
sVcherrimsunshine
p3346
VCherrim-Sunshine
p3347
sVarceus
p3348
VArceus
p3349
sS'impish'
p3350
S'Impish'
p3351
sVservine
p3352
VServine
p3353
sVroselia
p3354
VRoselia
p3355
sVbrine
p3356
VBrine
p3357
sVzweilous
p3358
VZweilous
p3359
sVsleeppowder
p3360
VSleep Powder
p3361
sVoldamber
p3362
VOld Amber
p3363
sVdurant
p3364
VDurant
p3365
sVsimplebeam
p3366
VSimple Beam
p3367
sVyveltal
p3368
VYveltal
p3369
sVbrickbreak
p3370
VBrick Break
p3371
sS'rash'
p3372
S'Rash'
p3373
sVpiplup
p3374
VPiplup
p3375
sVflashfire
p3376
VFlash Fire
p3377
sVdeino
p3378
VDeino
p3379
sVcamerupt
p3380
VCamerupt
p3381
sVluckypunch
p3382
VLucky Punch
p3383
sVpsychicgem
p3384
VPsychic Gem
p3385
sVrarebone
p3386
VRare Bone
p3387
sVsolosis
p3388
VSolosis
p3389
sVbellydrum
p3390
VBelly Drum
p3391
sS'sassy'
p3392
S'Sassy'
p3393
sVdeoxysattack
p3394
VDeoxys-Attack
p3395
sVcroagunk
p3396
VCroagunk
p3397
sVbravebird
p3398
VBrave Bird
p3399
sVgust
p3400
VGust
p3401
sVmagicguard
p3402
VMagic Guard
p3403
sVsandattack
p3404
VSand Attack
p3405
sVkingler
p3406
VKingler
p3407
sVhugepower
p3408
VHuge Power
p3409
sVmudbomb
p3410
VMud Bomb
p3411
sVember
p3412
VEmber
p3413
sVgeomancy
p3414
VGeomancy
p3415
sVcacturne
p3416
VCacturne
p3417
sVpowder
p3418
VPowder
p3419
sVvictini
p3420
VVictini
p3421
sVfinneon
p3422
VFinneon
p3423
sVelectrode
p3424
VElectrode
p3425
sVchestoberry
p3426
VChesto Berry
p3427
sVgrumpig
p3428
VGrumpig
p3429
sVlifeorb
p3430
VLife Orb
p3431
sVgyarados
p3432
VGyarados
p3433
sVvaporeon
p3434
VVaporeon
p3435
sVthunderwave
p3436
VThunder Wave
p3437
sVrockincense
p3438
VRock Incense
p3439
sVfroslass
p3440
VFroslass
p3441
sVconfusion
p3442
VConfusion
p3443
sVfuryswipes
p3444
VFury Swipes
p3445
sVaron
p3446
VAron
p3447
sVconversion2
p3448
VConversion 2
p3449
sVwhiscash
p3450
VWhiscash
p3451
sVcacnea
p3452
VCacnea
p3453
sVzoroark
p3454
VZoroark
p3455
sVshellsmash
p3456
VShell Smash
p3457
sVhydropump
p3458
VHydro Pump
p3459
sVswift
p3460
VSwift
p3461
sVmemento
p3462
VMemento
p3463
sVmetang
p3464
VMetang
p3465
sVbaddreams
p3466
VBad Dreams
p3467
sVaerodactyl
p3468
VAerodactyl
p3469
sVpoisonheal
p3470
VPoison Heal
p3471
sVsafetygoggles
p3472
VSafety Goggles
p3473
sVklang
p3474
VKlang
p3475
sVswallow
p3476
VSwallow
p3477
sVspritzee
p3478
VSpritzee
p3479
sVflabebe
p3480
VFlabebe
p3481
sVapicotberry
p3482
VApicot Berry
p3483
sVnumel
p3484
VNumel
p3485
sVwoodhammer
p3486
VWood Hammer
p3487
sVhiddenpowerwater
p3488
VHidden Power Water
p3489
sVmalaconda
p3490
VMalaconda
p3491
sVgible
p3492
VGible
p3493
sVovercoat
p3494
VOvercoat
p3495
sVekans
p3496
VEkans
p3497
sVpixieplate
p3498
VPixie Plate
p3499
sVgrepaberry
p3500
VGrepa Berry
p3501
sVdisarmingvoice
p3502
VDisarming Voice
p3503
sVwailord
p3504
VWailord
p3505
sVswoobat
p3506
VSwoobat
p3507
sVelectrify
p3508
VElectrify
p3509
sVbindingband
p3510
VBinding Band
p3511
sVkeldeo
p3512
VKeldeo
p3513
sVtomohawk
p3514
VTomohawk
p3515
sVivysaur
p3516
VIvysaur
p3517
sVgripclaw
p3518
VGrip Claw
p3519
sVadamantorb
p3520
VAdamant Orb
p3521
sVcoverfossil
p3522
VCover Fossil
p3523
sVaccelgor
p3524
VAccelgor
p3525
sVsmeargle
p3526
VSmeargle
p3527
sVraindance
p3528
VRain Dance
p3529
sVinfestation
p3530
VInfestation
p3531
sVpresent
p3532
VPresent
p3533
sVgrovyle
p3534
VGrovyle
p3535
sVintimidate
p3536
VIntimidate
p3537
sVharden
p3538
VHarden
p3539
sVbeheeyem
p3540
VBeheeyem
p3541
sVwhirlpool
p3542
VWhirlpool
p3543
sVpelipper
p3544
VPelipper
p3545
sVthickfat
p3546
VThick Fat
p3547
sVcarracosta
p3548
VCarracosta
p3549
sVluxio
p3550
VLuxio
p3551
sVvullaby
p3552
VVullaby
p3553
sVhiddenpowerghost
p3554
VHidden Power Ghost
p3555
sVlightball
p3556
VLight Ball
p3557
sVwaterveil
p3558
VWater Veil
p3559
sVspelltag
p3560
VSpell Tag
p3561
sVzenheadbutt
p3562
VZen Headbutt
p3563
sVzekrom
p3564
VZekrom
p3565
sVphantump
p3566
VPhantump
p3567
sVdefiant
p3568
VDefiant
p3569
sVhardstone
p3570
VHard Stone
p3571
sVkebiaberry
p3572
VKebia Berry
p3573
sVcascoon
p3574
VCascoon
p3575
sVmagcargo
p3576
VMagcargo
p3577
sVabsorb
p3578
VAbsorb
p3579
sVraindish
p3580
VRain Dish
p3581
sVseaking
p3582
VSeaking
p3583
sVmagician
p3584
VMagician
p3585
sVjudgment
p3586
VJudgment
p3587
sVbibarel
p3588
VBibarel
p3589
sVpsybeam
p3590
VPsybeam
p3591
sVaspearberry
p3592
VAspear Berry
p3593
sVeelektross
p3594
VEelektross
p3595
sVpickpocket
p3596
VPickpocket
p3597
sVsitrusberry
p3598
VSitrus Berry
p3599
sVarceuspsychic
p3600
VArceus-Psychic
p3601
sVbeautifly
p3602
VBeautifly
p3603
sVvenoshock
p3604
VVenoshock
p3605
sVmudsport
p3606
VMud Sport
p3607
sVazelf
p3608
VAzelf
p3609
sVyanmega
p3610
VYanmega
p3611
sVfairyaura
p3612
VFairy Aura
p3613
sVarceusdark
p3614
VArceus-Dark
p3615
sVpinsir
p3616
VPinsir
p3617
sVkoffing
p3618
VKoffing
p3619
sVguts
p3620
VGuts
p3621
sVtauros
p3622
VTauros
p3623
sVnatu
p3624
VNatu
p3625
sVfaketears
p3626
VFake Tears
p3627
sVsimple
p3628
VSimple
p3629
sVaromaticmist
p3630
VAromatic Mist
p3631
sVswellow
p3632
VSwellow
p3633
sVleechlife
p3634
VLeech Life
p3635
sVkingsshield
p3636
VKing's Shield
p3637
sVkingsrock
p3638
VKing's Rock
p3639
sVblukberry
p3640
VBluk Berry
p3641
sVflowershield
p3642
VFlower Shield
p3643
sVarenatrap
p3644
VArena Trap
p3645
sVleechseed
p3646
VLeech Seed
p3647
sVselfdestruct
p3648
VSelfdestruct
p3649
sVgoldeen
p3650
VGoldeen
p3651
sVducklett
p3652
VDucklett
p3653
sVglowpunch
p3654
VGlow Punch
p3655
sVhoothoot
p3656
VHoothoot
p3657
sVlatios
p3658
VLatios
p3659
sVbudew
p3660
VBudew
p3661
sVgogoat
p3662
VGogoat
p3663
sVlilligant
p3664
VLilligant
p3665
sVhealball
p3666
VHeal Ball
p3667
sVphanpy
p3668
VPhanpy
p3669
sVreckless
p3670
VReckless
p3671
sVimprison
p3672
VImprison
p3673
sVrepeatball
p3674
VRepeat Ball
p3675
sVglare
p3676
VGlare
p3677
sVthief
p3678
VThief
p3679
sVhail
p3680
VHail
p3681
sVcofagrigus
p3682
VCofagrigus
p3683
sVwepearberry
p3684
VWepear Berry
p3685
sVskarmory
p3686
VSkarmory
p3687
sVpersimberry
p3688
VPersim Berry
p3689
sVdragonclaw
p3690
VDragon Claw
p3691
sVdrizzle
p3692
VDrizzle
p3693
sVstaraptor
p3694
VStaraptor
p3695
sVmagicalleaf
p3696
VMagical Leaf
p3697
sVforcepalm
p3698
VForce Palm
p3699
sVhurricane
p3700
VHurricane
p3701
sVlileep
p3702
VLileep
p3703
sVpiloswine
p3704
VPiloswine
p3705
sVvenusaurite
p3706
VVenusaurite
p3707
sVcopycat
p3708
VCopycat
p3709
sVhappiny
p3710
VHappiny
p3711
sVpressure
p3712
VPressure
p3713
sVsilkscarf
p3714
VSilk Scarf
p3715
sVpidgeotto
p3716
VPidgeotto
p3717
sVdreadplate
p3718
VDread Plate
p3719
sVvenomoth
p3720
VVenomoth
p3721
sVfurret
p3722
VFurret
p3723
sVsmellingsalts
p3724
VSmelling Salts
p3725
sVmeteormash
p3726
VMeteor Mash
p3727
sVshucaberry
p3728
VShuca Berry
p3729
sVsweetkiss
p3730
VSweet Kiss
p3731
sVacidarmor
p3732
VAcid Armor
p3733
sVlightclay
p3734
VLight Clay
p3735
sVvoodoom
p3736
VVoodoom
p3737
sVfeintattack
p3738
VFeint Attack
p3739
sVburmy
p3740
VBurmy
p3741
sVmagostberry
p3742
VMagost Berry
p3743
sVgrasspelt
p3744
VGrass Pelt
p3745
sVspitup
p3746
VSpit Up
p3747
sVmentalherb
p3748
VMental Herb
p3749
sVroseliberry
p3750
VRoseli Berry
p3751
sVfrustration
p3752
VFrustration
p3753
sVambipom
p3754
VAmbipom
p3755
sVfollowme
p3756
VFollow Me
p3757
sVclauncher
p3758
VClauncher
p3759
sVquickpowder
p3760
VQuick Powder
p3761
sVfrenzyplant
p3762
VFrenzy Plant
p3763
sVclearbody
p3764
VClear Body
p3765
sVmagoberry
p3766
VMago Berry
p3767
sVcroconaw
p3768
VCroconaw
p3769
sVdrowzee
p3770
VDrowzee
p3771
sVserenegrace
p3772
VSerene Grace
p3773
sVheracronite
p3774
VHeracronite
p3775
sVtechnician
p3776
VTechnician
p3777
sVarceusgrass
p3778
VArceus-Grass
p3779
sVembargo
p3780
VEmbargo
p3781
sVmetronome
p3782
VMetronome
p3783
sVattackorder
p3784
VAttack Order
p3785
sVallyswitch
p3786
VAlly Switch
p3787
sVwish
p3788
VWish
p3789
sVmegakick
p3790
VMega Kick
p3791
sVentrainment
p3792
VEntrainment
p3793
sVtaillow
p3794
VTaillow
p3795
sVtailwhip
p3796
VTail Whip
p3797
sVblock
p3798
VBlock
p3799
sVscizormega
p3800
VScizor-Mega
p3801
sVhoneclaws
p3802
VHone Claws
p3803
sVoranberry
p3804
VOran Berry
p3805
sVslowstart
p3806
VSlow Start
p3807
sVgranbull
p3808
VGranbull
p3809
sVweakarmor
p3810
VWeak Armor
p3811
sVaurasphere
p3812
VAura Sphere
p3813
sVshelgon
p3814
VShelgon
p3815
sVrawstberry
p3816
VRawst Berry
p3817
sVvacuumwave
p3818
VVacuum Wave
p3819
sVillusion
p3820
VIllusion
p3821
sVroleplay
p3822
VRole Play
p3823
sVyacheberry
p3824
VYache Berry
p3825
sVtreecko
p3826
VTreecko
p3827
sValomomola
p3828
VAlomomola
p3829
sVbraviary
p3830
VBraviary
p3831
sVvivillon
p3832
VVivillon
p3833
sVnoguard
p3834
VNo Guard
p3835
sVabomasite
p3836
VAbomasite
p3837
sVstarmie
p3838
VStarmie
p3839
sVpersistent
p3840
VPersistent
p3841
sVmagmar
p3842
VMagmar
p3843
sVzangoose
p3844
VZangoose
p3845
sVvcreate
p3846
VV-create
p3847
s.