(dp1
Velectivire
p2
VElectivire
p3
sVheracross
p4
VHeracross
p5
sVcolorchange
p6
VColor Change
p7
sVlucarionite
p8
VLucarionite
p9
sVpalkia
p10
VPalkia
p11
sVchatter
p12
VChatter
p13
sValakazite
p14
VAlakazite
p15
sVtickle
p16
VTickle
p17
sVarceuselectric
p18
VArceus-Electric
p19
sVabra
p20
VAbra
p21
sVreuniclus
p22
VReuniclus
p23
sVrecycle
p24
VRecycle
p25
sVtimerball
p26
VTimer Ball
p27
sVmeditite
p28
VMeditite
p29
sVsharpbeak
p30
VSharp Beak
p31
sVmewtwonitex
p32
VMewtwonite X
p33
sVmewtwonitey
p34
VMewtwonite Y
p35
sVquickclaw
p36
VQuick Claw
p37
sVdoubleslap
p38
VDouble Slap
p39
sVeviolite
p40
VEviolite
p41
sVprotean
p42
VProtean
p43
sVsquirtle
p44
VSquirtle
p45
sVdarmanitanzen
p46
VDarmanitan-Zen
p47
sVnastyplot
p48
VNasty Plot
p49
sVwormadam
p50
VWormadam
p51
sVaggronmega
p52
VAggron-Mega
p53
sVwhirlwind
p54
VWhirlwind
p55
sVplumefossil
p56
VPlume Fossil
p57
sVcherrim
p58
VCherrim
p59
sS'hiddenpowerelectric'
p60
S'Hidden Power Electric'
p61
sS'hiddenpowerfire'
p62
S'Hidden Power Fire'
p63
sVguillotine
p64
VGuillotine
p65
sVlevitate
p66
VLevitate
p67
sVgyaradosite
p68
VGyaradosite
p69
sVpomegberry
p70
VPomeg Berry
p71
sVmasquerain
p72
VMasquerain
p73
sVthunder
p74
VThunder
p75
sVhaze
p76
VHaze
p77
sVdarkgem
p78
VDark Gem
p79
sVmiltank
p80
VMiltank
p81
sVfraxure
p82
VFraxure
p83
sVmoldbreaker
p84
VMold Breaker
p85
sVcrunch
p86
VCrunch
p87
sVrindoberry
p88
VRindo Berry
p89
sVlatiosite
p90
VLatiosite
p91
sVreflecttype
p92
VReflect Type
p93
sVsnivy
p94
VSnivy
p95
sVmefirst
p96
VMe First
p97
sVstarfberry
p98
VStarf Berry
p99
sVscizorite
p100
VScizorite
p101
sVmew
p102
VMew
p103
sVpursuit
p104
VPursuit
p105
sVheadsmash
p106
VHead Smash
p107
sVaftermath
p108
VAftermath
p109
sVclawitzer
p110
VClawitzer
p111
sVpixilate
p112
VPixilate
p113
sVtornadustherian
p114
VTornadus-Therian
p115
sVlunatone
p116
VLunatone
p117
sVpunishment
p118
VPunishment
p119
sVpoisontouch
p120
VPoison Touch
p121
sVfeebas
p122
VFeebas
p123
sVneedlearm
p124
VNeedle Arm
p125
sValtarianite
p126
VAltarianite
p127
sVblastburn
p128
VBlast Burn
p129
sVhonchkrow
p130
VHonchkrow
p131
sVtirtouga
p132
VTirtouga
p133
sVampharos
p134
VAmpharos
p135
sVdusclops
p136
VDusclops
p137
sVpoisonbarb
p138
VPoison Barb
p139
sVmorningsun
p140
VMorning Sun
p141
sVfreezedry
p142
VFreeze-Dry
p143
sVmandibuzz
p144
VMandibuzz
p145
sVoverheat
p146
VOverheat
p147
sVspiritomb
p148
VSpiritomb
p149
sVvoltabsorb
p150
VVolt Absorb
p151
sVpurugly
p152
VPurugly
p153
sVshiftgear
p154
VShift Gear
p155
sS'calm'
p156
S'Calm'
p157
sVcastformrainy
p158
VCastform-Rainy
p159
sVbigroot
p160
VBig Root
p161
sVaromaveil
p162
VAroma Veil
p163
sVgardevoir
p164
VGardevoir
p165
sVsheerforce
p166
VSheer Force
p167
sVmagnetrise
p168
VMagnet Rise
p169
sS'naive'
p170
S'Naive'
p171
sVsceptilemega
p172
VSceptile-Mega
p173
sS'adamant'
p174
S'Adamant'
p175
sVkitsunoh
p176
VKitsunoh
p177
sVarceusbug
p178
VArceus-Bug
p179
sVgranbull
p180
VGranbull
p181
sVpidgeot
p182
VPidgeot
p183
sVtangledfeet
p184
VTangled Feet
p185
sVigglybuff
p186
VIgglybuff
p187
sVonix
p188
VOnix
p189
sVgrimer
p190
VGrimer
p191
sVrototiller
p192
VRototiller
p193
sVlucariomega
p194
VLucario-Mega
p195
sVbugbite
p196
VBug Bite
p197
sVpoisongas
p198
VPoison Gas
p199
sVmakuhita
p200
VMakuhita
p201
sVfriendball
p202
VFriend Ball
p203
sVattract
p204
VAttract
p205
sVcharizarditey
p206
VCharizardite Y
p207
sVcharizarditex
p208
VCharizardite X
p209
sVhyperspacehole
p210
VHyperspace Hole
p211
sVskydrop
p212
VSky Drop
p213
sVcrabhammer
p214
VCrabhammer
p215
sVtoxic
p216
VToxic
p217
sVcastformsunny
p218
VCastform-Sunny
p219
sVrotomheat
p220
VRotom-Heat
p221
sVsportball
p222
VSport Ball
p223
sVpoisonpowder
p224
VPoison Powder
p225
sVredcard
p226
VRed Card
p227
sS'modest'
p228
S'Modest'
p229
sS'lax'
p230
S'Lax'
p231
sVrocktomb
p232
VRock Tomb
p233
sVcherubi
p234
VCherubi
p235
sVleafstorm
p236
VLeaf Storm
p237
sVspookyplate
p238
VSpooky Plate
p239
sS'hasty'
p240
S'Hasty'
p241
sVentei
p242
VEntei
p243
sVarceussteel
p244
VArceus-Steel
p245
sVcobaberry
p246
VCoba Berry
p247
sVlaggingtail
p248
VLagging Tail
p249
sVfinalgambit
p250
VFinal Gambit
p251
sVrapidash
p252
VRapidash
p253
sVdoubleteam
p254
VDouble Team
p255
sVlumineon
p256
VLumineon
p257
sVshielddust
p258
VShield Dust
p259
sVmagicbounce
p260
VMagic Bounce
p261
sS'hiddenpowerfighting'
p262
S'Hidden Power Fighting'
p263
sVsludge
p264
VSludge
p265
sVvenusaur
p266
VVenusaur
p267
sVphione
p268
VPhione
p269
sVdiancite
p270
VDiancite
p271
sVflameburst
p272
VFlame Burst
p273
sVzapplate
p274
VZap Plate
p275
sVfletchinder
p276
VFletchinder
p277
sVmunna
p278
VMunna
p279
sVhitmonlee
p280
VHitmonlee
p281
sVdryskin
p282
VDry Skin
p283
sVkricketot
p284
VKricketot
p285
sVroost
p286
VRoost
p287
sVfurycutter
p288
VFury Cutter
p289
sVirontail
p290
VIron Tail
p291
sVpoliwhirl
p292
VPoliwhirl
p293
sVeggbomb
p294
VEgg Bomb
p295
sVluxray
p296
VLuxray
p297
sVpayback
p298
VPayback
p299
sVexcadrill
p300
VExcadrill
p301
sVgloom
p302
VGloom
p303
sVgluttony
p304
VGluttony
p305
sVvulpix
p306
VVulpix
p307
sVcradily
p308
VCradily
p309
sVthunderfang
p310
VThunder Fang
p311
sVblastoisemega
p312
VBlastoise-Mega
p313
sVespeon
p314
VEspeon
p315
sVmultitype
p316
VMultitype
p317
sVflameorb
p318
VFlame Orb
p319
sS'hiddenpowerdragon'
p320
S'Hidden Power Dragon'
p321
sVfairywind
p322
VFairy Wind
p323
sVgothorita
p324
VGothorita
p325
sVomastar
p326
VOmastar
p327
sVwalrein
p328
VWalrein
p329
sVsawsbuck
p330
VSawsbuck
p331
sVtruant
p332
VTruant
p333
sVqualotberry
p334
VQualot Berry
p335
sVflowergift
p336
VFlower Gift
p337
sVpsychic
p338
VPsychic
p339
sVlifeorb
p340
VLife Orb
p341
sVkasibberry
p342
VKasib Berry
p343
sVcottonguard
p344
VCotton Guard
p345
sVtornadus
p346
VTornadus
p347
sVshedshell
p348
VShed Shell
p349
sVbarrier
p350
VBarrier
p351
sVleftovers
p352
VLeftovers
p353
sVrevenge
p354
VRevenge
p355
sVsynchronoise
p356
VSynchronoise
p357
sVbestow
p358
VBestow
p359
sVtrumpcard
p360
VTrump Card
p361
sVsweetveil
p362
VSweet Veil
p363
sVgalladite
p364
VGalladite
p365
sVshiftry
p366
VShiftry
p367
sVgirafarig
p368
VGirafarig
p369
sVbeartic
p370
VBeartic
p371
sVkyuremblack
p372
VKyurem-Black
p373
sVsonicboom
p374
VSonic Boom
p375
sVfightinggem
p376
VFighting Gem
p377
sVgroudonprimal
p378
VGroudon-Primal
p379
sVlatias
p380
VLatias
p381
sVdrainpunch
p382
VDrain Punch
p383
sVsteelixmega
p384
VSteelix-Mega
p385
sVcherishball
p386
VCherish Ball
p387
sVcheriberry
p388
VCheri Berry
p389
sS'naughty'
p390
S'Naughty'
p391
sVseedflare
p392
VSeed Flare
p393
sVhydrocannon
p394
VHydro Cannon
p395
sVmagneticflux
p396
VMagnetic Flux
p397
sVdeoxys
p398
VDeoxys
p399
sVlatiasmega
p400
VLatias-Mega
p401
sVhooh
p402
VHo-Oh
p403
sVshieldon
p404
VShieldon
p405
sVslugma
p406
VSlugma
p407
sVheracrossmega
p408
VHeracross-Mega
p409
sVwaveincense
p410
VWave Incense
p411
sVmanectite
p412
VManectite
p413
sVpikachupopstar
p414
VPikachu-Pop-Star
p415
sVaircutter
p416
VAir Cutter
p417
sVgiratinaorigin
p418
VGiratina-Origin
p419
sVgrowlithe
p420
VGrowlithe
p421
sVinferno
p422
VInferno
p423
sVtwister
p424
VTwister
p425
sVarceusdragon
p426
VArceus-Dragon
p427
sVflamethrower
p428
VFlamethrower
p429
sVtoxicorb
p430
VToxic Orb
p431
sVfairylock
p432
VFairy Lock
p433
sVrockclimb
p434
VRock Climb
p435
sVwonderroom
p436
VWonder Room
p437
sVmachoke
p438
VMachoke
p439
sVdoomdesire
p440
VDoom Desire
p441
sVmirrormove
p442
VMirror Move
p443
sVsandshrew
p444
VSandshrew
p445
sVpolitoed
p446
VPolitoed
p447
sVminun
p448
VMinun
p449
sVbelueberry
p450
VBelue Berry
p451
sVendure
p452
VEndure
p453
sVswiftswim
p454
VSwift Swim
p455
sVshellbell
p456
VShell Bell
p457
sVminus
p458
VMinus
p459
sVmeowth
p460
VMeowth
p461
sVsweetscent
p462
VSweet Scent
p463
sVsludgebomb
p464
VSludge Bomb
p465
sVpayapaberry
p466
VPayapa Berry
p467
sVclosecombat
p468
VClose Combat
p469
sVhealer
p470
VHealer
p471
sVseel
p472
VSeel
p473
sVblastoise
p474
VBlastoise
p475
sVstrength
p476
VStrength
p477
sVchingling
p478
VChingling
p479
sVgothita
p480
VGothita
p481
sVdarmanitan
p482
VDarmanitan
p483
sVcraftyshield
p484
VCrafty Shield
p485
sVgyroball
p486
VGyro Ball
p487
sVursaring
p488
VUrsaring
p489
sVgolbat
p490
VGolbat
p491
sVgrassyterrain
p492
VGrassy Terrain
p493
sVdeoxysspeed
p494
VDeoxys-Speed
p495
sVshadowforce
p496
VShadow Force
p497
sVcoil
p498
VCoil
p499
sVdrought
p500
VDrought
p501
sVcacnea
p502
VCacnea
p503
sVcosmicpower
p504
VCosmic Power
p505
sVempoleon
p506
VEmpoleon
p507
sVthousandwaves
p508
VThousand Waves
p509
sVdunsparce
p510
VDunsparce
p511
sVconstrict
p512
VConstrict
p513
sVvileplume
p514
VVileplume
p515
sVraticate
p516
VRaticate
p517
sVslaking
p518
VSlaking
p519
sVjirachi
p520
VJirachi
p521
sVgolduck
p522
VGolduck
p523
sVarmorfossil
p524
VArmor Fossil
p525
sVstickyweb
p526
VSticky Web
p527
sVtogekiss
p528
VTogekiss
p529
sVhippopotas
p530
VHippopotas
p531
sVdialga
p532
VDialga
p533
sVlastresort
p534
VLast Resort
p535
sVbulletpunch
p536
VBullet Punch
p537
sVicegem
p538
VIce Gem
p539
sVspite
p540
VSpite
p541
sVcarbink
p542
VCarbink
p543
sVwaterpulse
p544
VWater Pulse
p545
sVstoutland
p546
VStoutland
p547
sVbidoof
p548
VBidoof
p549
sVsyclant
p550
VSyclant
p551
sVhaunter
p552
VHaunter
p553
sVweedle
p554
VWeedle
p555
sVaerilate
p556
VAerilate
p557
sVhoneygather
p558
VHoney Gather
p559
sVmachop
p560
VMachop
p561
sVmetalpowder
p562
VMetal Powder
p563
sVdusknoir
p564
VDusknoir
p565
sVmeditate
p566
VMeditate
p567
sVreversal
p568
VReversal
p569
sVlunardance
p570
VLunar Dance
p571
sVpumpkaboosmall
p572
VPumpkaboo-Small
p573
sVtentacool
p574
VTentacool
p575
sVpokeball
p576
VPoke Ball
p577
sVdiancie
p578
VDiancie
p579
sVplasmanta
p580
VPlasmanta
p581
sVnosepass
p582
VNosepass
p583
sVearthplate
p584
VEarth Plate
p585
sVlaxincense
p586
VLax Incense
p587
sVmagneton
p588
VMagneton
p589
sVstickyhold
p590
VSticky Hold
p591
sVbeatup
p592
VBeat Up
p593
sVleafblade
p594
VLeaf Blade
p595
sVserperior
p596
VSerperior
p597
sVlopunnite
p598
VLopunnite
p599
sVwooper
p600
VWooper
p601
sVforretress
p602
VForretress
p603
sVmindreader
p604
VMind Reader
p605
sVseaincense
p606
VSea Incense
p607
sVsimisage
p608
VSimisage
p609
sVarcheops
p610
VArcheops
p611
sVheavymetal
p612
VHeavy Metal
p613
sVwormadamsandy
p614
VWormadam-Sandy
p615
sVmuscleband
p616
VMuscle Band
p617
sVmatblock
p618
VMat Block
p619
sVpurrloin
p620
VPurrloin
p621
sVdoduo
p622
VDoduo
p623
sVmuk
p624
VMuk
p625
sVmotordrive
p626
VMotor Drive
p627
sVmothim
p628
VMothim
p629
sVslowpoke
p630
VSlowpoke
p631
sVfrostbreath
p632
VFrost Breath
p633
sVcubone
p634
VCubone
p635
sVspinda
p636
VSpinda
p637
sVmeadowplate
p638
VMeadow Plate
p639
sVparasect
p640
VParasect
p641
sVgourgeistsmall
p642
VGourgeist-Small
p643
sVrhydon
p644
VRhydon
p645
sVprotect
p646
VProtect
p647
sVplaynice
p648
VPlay Nice
p649
sVsamurott
p650
VSamurott
p651
sVmawile
p652
VMawile
p653
sVchimecho
p654
VChimecho
p655
sVpetayaberry
p656
VPetaya Berry
p657
sVdoublade
p658
VDoublade
p659
sVdeltastream
p660
VDelta Stream
p661
sVluckychant
p662
VLucky Chant
p663
sVleppaberry
p664
VLeppa Berry
p665
sVchlorophyll
p666
VChlorophyll
p667
sVoblivious
p668
VOblivious
p669
sVfierydance
p670
VFiery Dance
p671
sVfloatzel
p672
VFloatzel
p673
sVsmackdown
p674
VSmack Down
p675
sVcopycat
p676
VCopycat
p677
sVsalamencite
p678
VSalamencite
p679
sVbuneary
p680
VBuneary
p681
sVshockdrive
p682
VShock Drive
p683
sVnightdaze
p684
VNight Daze
p685
sVfriendguard
p686
VFriend Guard
p687
sVscaryface
p688
VScary Face
p689
sVsteamroller
p690
VSteamroller
p691
sVkakuna
p692
VKakuna
p693
sVpowertrick
p694
VPower Trick
p695
sVyanma
p696
VYanma
p697
sVchatot
p698
VChatot
p699
sVmarshtomp
p700
VMarshtomp
p701
sVgurdurr
p702
VGurdurr
p703
sVthrash
p704
VThrash
p705
sVchespin
p706
VChespin
p707
sVtotodile
p708
VTotodile
p709
sVgarchompite
p710
VGarchompite
p711
sVslowbro
p712
VSlowbro
p713
sValakazam
p714
VAlakazam
p715
sVbinacle
p716
VBinacle
p717
sVnevermeltice
p718
VNever-Melt Ice
p719
sVgrowl
p720
VGrowl
p721
sVaguavberry
p722
VAguav Berry
p723
sVdrilbur
p724
VDrilbur
p725
sVcameruptite
p726
VCameruptite
p727
sVralts
p728
VRalts
p729
sVpupitar
p730
VPupitar
p731
sVslowking
p732
VSlowking
p733
sVpowerherb
p734
VPower Herb
p735
sVnoivern
p736
VNoivern
p737
sVwaterfall
p738
VWaterfall
p739
sVdewgong
p740
VDewgong
p741
sVkirlia
p742
VKirlia
p743
sVknockoff
p744
VKnock Off
p745
sVoctazooka
p746
VOctazooka
p747
sVcawmodore
p748
VCawmodore
p749
sVsylveon
p750
VSylveon
p751
sVhighjumpkick
p752
VHigh Jump Kick
p753
sVluxuryball
p754
VLuxury Ball
p755
sVhydration
p756
VHydration
p757
sVkrokorok
p758
VKrokorok
p759
sVamoonguss
p760
VAmoonguss
p761
sVquilladin
p762
VQuilladin
p763
sVshellarmor
p764
VShell Armor
p765
sVpoliwag
p766
VPoliwag
p767
sVmetalcoat
p768
VMetal Coat
p769
sVthickclub
p770
VThick Club
p771
sVscizor
p772
VScizor
p773
sVgoomy
p774
VGoomy
p775
sVsilcoon
p776
VSilcoon
p777
sVbuggem
p778
VBug Gem
p779
sVoshawott
p780
VOshawott
p781
sVtorterra
p782
VTorterra
p783
sVtogepi
p784
VTogepi
p785
sVdomefossil
p786
VDome Fossil
p787
sVlowkick
p788
VLow Kick
p789
sVhealbell
p790
VHeal Bell
p791
sVmirrorshot
p792
VMirror Shot
p793
sVlickitung
p794
VLickitung
p795
sVlatiosmega
p796
VLatios-Mega
p797
sVdragonrush
p798
VDragon Rush
p799
sVredorb
p800
VRed Orb
p801
sVspinarak
p802
VSpinarak
p803
sVdiggersby
p804
VDiggersby
p805
sVsilverwind
p806
VSilver Wind
p807
sVthundurustherian
p808
VThundurus-Therian
p809
sVludicolo
p810
VLudicolo
p811
sVditto
p812
VDitto
p813
sVcirclethrow
p814
VCircle Throw
p815
sVrotom
p816
VRotom
p817
sVnidoqueen
p818
VNidoqueen
p819
sVpinsirmega
p820
VPinsir-Mega
p821
sS'hiddenpowerpoison'
p822
S'Hidden Power Poison'
p823
sVflatter
p824
VFlatter
p825
sVtoxicspikes
p826
VToxic Spikes
p827
sVfirepledge
p828
VFire Pledge
p829
sVnoctowl
p830
VNoctowl
p831
sVcornnberry
p832
VCornn Berry
p833
sVskullfossil
p834
VSkull Fossil
p835
sVcheekpouch
p836
VCheek Pouch
p837
sVuproar
p838
VUproar
p839
sVrhyperior
p840
VRhyperior
p841
sVgeargrind
p842
VGear Grind
p843
sVholdhands
p844
VHold Hands
p845
sVcrosschop
p846
VCross Chop
p847
sVpsyshock
p848
VPsyshock
p849
sVicyrock
p850
VIcy Rock
p851
sVwynaut
p852
VWynaut
p853
sVtrevenant
p854
VTrevenant
p855
sVabsorbbulb
p856
VAbsorb Bulb
p857
sS'bold'
p858
S'Bold'
p859
sVgunkshot
p860
VGunk Shot
p861
sVgarchomp
p862
VGarchomp
p863
sVgeodude
p864
VGeodude
p865
sVlightscreen
p866
VLight Screen
p867
sVwhimsicott
p868
VWhimsicott
p869
sVlavaplume
p870
VLava Plume
p871
sVkeeneye
p872
VKeen Eye
p873
sVsimipour
p874
VSimipour
p875
sVautotomize
p876
VAutotomize
p877
sVspikecannon
p878
VSpike Cannon
p879
sVnecturna
p880
VNecturna
p881
sVplus
p882
VPlus
p883
sVsapsipper
p884
VSap Sipper
p885
sVpikachulibre
p886
VPikachu-Libre
p887
sVriolu
p888
VRiolu
p889
sVhornleech
p890
VHorn Leech
p891
sVbraixen
p892
VBraixen
p893
sVdarkvoid
p894
VDark Void
p895
sVhoundour
p896
VHoundour
p897
sVdualchop
p898
VDual Chop
p899
sVfoulplay
p900
VFoul Play
p901
sVscyther
p902
VScyther
p903
sVgalewings
p904
VGale Wings
p905
sVstormdrain
p906
VStorm Drain
p907
sVseadra
p908
VSeadra
p909
sVovergrow
p910
VOvergrow
p911
sVgengarmega
p912
VGengar-Mega
p913
sVchimchar
p914
VChimchar
p915
sVwrap
p916
VWrap
p917
sVcorsola
p918
VCorsola
p919
sVtransform
p920
VTransform
p921
sVklefki
p922
VKlefki
p923
sVrowapberry
p924
VRowap Berry
p925
sS'quirky'
p926
S'Quirky'
p927
sVquickattack
p928
VQuick Attack
p929
sVsynthesis
p930
VSynthesis
p931
sVmultiscale
p932
VMultiscale
p933
sVgroundgem
p934
VGround Gem
p935
sVreshiram
p936
VReshiram
p937
sVrocksmash
p938
VRock Smash
p939
sVvolttackle
p940
VVolt Tackle
p941
sVghostgem
p942
VGhost Gem
p943
sVroughskin
p944
VRough Skin
p945
sVsafeguard
p946
VSafeguard
p947
sVsmoothrock
p948
VSmooth Rock
p949
sVbide
p950
VBide
p951
sVaurabreak
p952
VAura Break
p953
sVaurorus
p954
VAurorus
p955
sVlightofruin
p956
VLight of Ruin
p957
sVholdback
p958
VHold Back
p959
sVchopleberry
p960
VChople Berry
p961
sVunnerve
p962
VUnnerve
p963
sVparentalbond
p964
VParental Bond
p965
sVferaligatr
p966
VFeraligatr
p967
sVoddish
p968
VOddish
p969
sVleer
p970
VLeer
p971
sVmagby
p972
VMagby
p973
sVswadloon
p974
VSwadloon
p975
sVvibrava
p976
VVibrava
p977
sVuxie
p978
VUxie
p979
sVsmoochum
p980
VSmoochum
p981
sVlansatberry
p982
VLansat Berry
p983
sVbutterfree
p984
VButterfree
p985
sVferroseed
p986
VFerroseed
p987
sVamaura
p988
VAmaura
p989
sVfennekin
p990
VFennekin
p991
sVclawfossil
p992
VClaw Fossil
p993
sVdischarge
p994
VDischarge
p995
sVkyogre
p996
VKyogre
p997
sVpoisonpoint
p998
VPoison Point
p999
sS'hiddenpowerground'
p1000
S'Hidden Power Ground'
p1001
sVarceuspoison
p1002
VArceus-Poison
p1003
sVliechiberry
p1004
VLiechi Berry
p1005
sVlillipup
p1006
VLillipup
p1007
sVflareboost
p1008
VFlare Boost
p1009
sVmareep
p1010
VMareep
p1011
sVoccaberry
p1012
VOcca Berry
p1013
sVironfist
p1014
VIron Fist
p1015
sS'serious'
p1016
S'Serious'
p1017
sVmegadrain
p1018
VMega Drain
p1019
sVsalacberry
p1020
VSalac Berry
p1021
sVsnubbull
p1022
VSnubbull
p1023
sVsandveil
p1024
VSand Veil
p1025
sVabsolite
p1026
VAbsolite
p1027
sVbonsly
p1028
VBonsly
p1029
sVcelebi
p1030
VCelebi
p1031
sVavalanche
p1032
VAvalanche
p1033
sVshadowsneak
p1034
VShadow Sneak
p1035
sVsuctioncups
p1036
VSuction Cups
p1037
sVsuperpower
p1038
VSuperpower
p1039
sVvenusaurmega
p1040
VVenusaur-Mega
p1041
sVpanpour
p1042
VPanpour
p1043
sVdragonpulse
p1044
VDragon Pulse
p1045
sVelectroball
p1046
VElectro Ball
p1047
sVflash
p1048
VFlash
p1049
sVnetball
p1050
VNet Ball
p1051
sVcharge
p1052
VCharge
p1053
sVquash
p1054
VQuash
p1055
sVsnorlax
p1056
VSnorlax
p1057
sVunburden
p1058
VUnburden
p1059
sVrufflet
p1060
VRufflet
p1061
sVmachamp
p1062
VMachamp
p1063
sVkricketune
p1064
VKricketune
p1065
sVtailslap
p1066
VTail Slap
p1067
sVjynx
p1068
VJynx
p1069
sVlopunny
p1070
VLopunny
p1071
sVtwistedspoon
p1072
VTwistedSpoon
p1073
sVskyuppercut
p1074
VSky Uppercut
p1075
sVpoisonsting
p1076
VPoison Sting
p1077
sVarceusfire
p1078
VArceus-Fire
p1079
sVfocusblast
p1080
VFocus Blast
p1081
sVmesprit
p1082
VMesprit
p1083
sVmagnet
p1084
VMagnet
p1085
sVbanettemega
p1086
VBanette-Mega
p1087
sVround
p1088
VRound
p1089
sVunaware
p1090
VUnaware
p1091
sVduskball
p1092
VDusk Ball
p1093
sVfalseswipe
p1094
VFalse Swipe
p1095
sVtalonflame
p1096
VTalonflame
p1097
sVleafeon
p1098
VLeafeon
p1099
sVzorua
p1100
VZorua
p1101
sVzenmode
p1102
VZen Mode
p1103
sVvitalthrow
p1104
VVital Throw
p1105
sVsubstitute
p1106
VSubstitute
p1107
sVcurse
p1108
VCurse
p1109
sVfocusband
p1110
VFocus Band
p1111
sVmoltres
p1112
VMoltres
p1113
sVpasshoberry
p1114
VPassho Berry
p1115
sVdragondance
p1116
VDragon Dance
p1117
sVaxew
p1118
VAxew
p1119
sVkecleon
p1120
VKecleon
p1121
sVglameow
p1122
VGlameow
p1123
sVaeroblast
p1124
VAeroblast
p1125
sVwartortle
p1126
VWartortle
p1127
sVexplosion
p1128
VExplosion
p1129
sVmiracleeye
p1130
VMiracle Eye
p1131
sVpumpkaboo
p1132
VPumpkaboo
p1133
sVsimisear
p1134
VSimisear
p1135
sVhoopa
p1136
VHoopa
p1137
sVtropius
p1138
VTropius
p1139
sVmysticwater
p1140
VMystic Water
p1141
sVearthquake
p1142
VEarthquake
p1143
sVgastroacid
p1144
VGastro Acid
p1145
sVejectbutton
p1146
VEject Button
p1147
sVbeedrillmega
p1148
VBeedrill-Mega
p1149
sVexploud
p1150
VExploud
p1151
sVdiveball
p1152
VDive Ball
p1153
sVsawk
p1154
VSawk
p1155
sVscraggy
p1156
VScraggy
p1157
sVdedenne
p1158
VDedenne
p1159
sVdragonite
p1160
VDragonite
p1161
sVbagon
p1162
VBagon
p1163
sVregenerator
p1164
VRegenerator
p1165
sViondeluge
p1166
VIon Deluge
p1167
sVlarvesta
p1168
VLarvesta
p1169
sVmudslap
p1170
VMud-Slap
p1171
sVflaaffy
p1172
VFlaaffy
p1173
sVmagicroom
p1174
VMagic Room
p1175
sVampharosite
p1176
VAmpharosite
p1177
sVdesolateland
p1178
VDesolate Land
p1179
sVpinsirite
p1180
VPinsirite
p1181
sVheavyslam
p1182
VHeavy Slam
p1183
sVpinmissile
p1184
VPin Missile
p1185
sVkyogreprimal
p1186
VKyogre-Primal
p1187
sVsmellingsalts
p1188
VSmelling Salts
p1189
sVcaptivate
p1190
VCaptivate
p1191
sVflamecharge
p1192
VFlame Charge
p1193
sVswagger
p1194
VSwagger
p1195
sVxatu
p1196
VXatu
p1197
sVrockslide
p1198
VRock Slide
p1199
sVcaterpie
p1200
VCaterpie
p1201
sVhypno
p1202
VHypno
p1203
sVelectrike
p1204
VElectrike
p1205
sVfletchling
p1206
VFletchling
p1207
sVseismictoss
p1208
VSeismic Toss
p1209
sVdarumaka
p1210
VDarumaka
p1211
sVuturn
p1212
VU-turn
p1213
sVflygon
p1214
VFlygon
p1215
sVsandstorm
p1216
VSandstorm
p1217
sVswampertite
p1218
VSwampertite
p1219
sVswablu
p1220
VSwablu
p1221
sVspikyshield
p1222
VSpiky Shield
p1223
sVscolipede
p1224
VScolipede
p1225
sVdwebble
p1226
VDwebble
p1227
sVpignite
p1228
VPignite
p1229
sVsolarpower
p1230
VSolar Power
p1231
sVdonphan
p1232
VDonphan
p1233
sVpalpitoad
p1234
VPalpitoad
p1235
sVchilldrive
p1236
VChill Drive
p1237
sVnormalize
p1238
VNormalize
p1239
sVbanette
p1240
VBanette
p1241
sVtailwind
p1242
VTailwind
p1243
sVdianciemega
p1244
VDiancie-Mega
p1245
sVwideguard
p1246
VWide Guard
p1247
sVeelektrik
p1248
VEelektrik
p1249
sVsandforce
p1250
VSand Force
p1251
sVelectricterrain
p1252
VElectric Terrain
p1253
sVoctillery
p1254
VOctillery
p1255
sVselfdestruct
p1256
VSelf-Destruct
p1257
sVteleport
p1258
VTeleport
p1259
sVdive
p1260
VDive
p1261
sVmamoswine
p1262
VMamoswine
p1263
sVwiseglasses
p1264
VWise Glasses
p1265
sVmilkdrink
p1266
VMilk Drink
p1267
sVpowerwhip
p1268
VPower Whip
p1269
sVancientpower
p1270
VAncient Power
p1271
sVblissey
p1272
VBlissey
p1273
sVcryogonal
p1274
VCryogonal
p1275
sVsupersonic
p1276
VSupersonic
p1277
sVdelibird
p1278
VDelibird
p1279
sVmalamar
p1280
VMalamar
p1281
sVshinx
p1282
VShinx
p1283
sVlitwick
p1284
VLitwick
p1285
sVslowbronite
p1286
VSlowbronite
p1287
sVthunderpunch
p1288
VThunder Punch
p1289
sVlugia
p1290
VLugia
p1291
sVbulletseed
p1292
VBullet Seed
p1293
sVbubblebeam
p1294
VBubble Beam
p1295
sVpachirisu
p1296
VPachirisu
p1297
sVarcanine
p1298
VArcanine
p1299
sVsneasel
p1300
VSneasel
p1301
sVgrassknot
p1302
VGrass Knot
p1303
sVklutz
p1304
VKlutz
p1305
sVbulldoze
p1306
VBulldoze
p1307
sVfocusenergy
p1308
VFocus Energy
p1309
sVslackoff
p1310
VSlack Off
p1311
sVprimordialsea
p1312
VPrimordial Sea
p1313
sVkabuto
p1314
VKabuto
p1315
sVmail
p1316
VMail
p1317
sVfuryswipes
p1318
VFury Swipes
p1319
sS'lonely'
p1320
S'Lonely'
p1321
sVfling
p1322
VFling
p1323
sVrattled
p1324
VRattled
p1325
sS'bashful'
p1326
S'Bashful'
p1327
sVfusionflare
p1328
VFusion Flare
p1329
sVsafariball
p1330
VSafari Ball
p1331
sVeffectspore
p1332
VEffect Spore
p1333
sVboomburst
p1334
VBoomburst
p1335
sVlinoone
p1336
VLinoone
p1337
sValtariamega
p1338
VAltaria-Mega
p1339
sVsynchronize
p1340
VSynchronize
p1341
sVmantine
p1342
VMantine
p1343
sVglalie
p1344
VGlalie
p1345
sVpsyduck
p1346
VPsyduck
p1347
sVmentalherb
p1348
VMental Herb
p1349
sVswalot
p1350
VSwalot
p1351
sVgenesectburn
p1352
VGenesect-Burn
p1353
sVporygonz
p1354
VPorygon-Z
p1355
sVstrugglebug
p1356
VStruggle Bug
p1357
sVpersian
p1358
VPersian
p1359
sVshaymin
p1360
VShaymin
p1361
sVpidove
p1362
VPidove
p1363
sVskillswap
p1364
VSkill Swap
p1365
sVassurance
p1366
VAssurance
p1367
sVpoochyena
p1368
VPoochyena
p1369
sVporygon2
p1370
VPorygon2
p1371
sVtoxicroak
p1372
VToxicroak
p1373
sVsteelwing
p1374
VSteel Wing
p1375
sVdig
p1376
VDig
p1377
sVpetilil
p1378
VPetilil
p1379
sVtelepathy
p1380
VTelepathy
p1381
sVnidorino
p1382
VNidorino
p1383
sVmeloettapirouette
p1384
VMeloetta-Pirouette
p1385
sVnidorina
p1386
VNidorina
p1387
sVhypnosis
p1388
VHypnosis
p1389
sVdurinberry
p1390
VDurin Berry
p1391
sVdragonrage
p1392
VDragon Rage
p1393
sVjolteon
p1394
VJolteon
p1395
sVdefensecurl
p1396
VDefense Curl
p1397
sVchikorita
p1398
VChikorita
p1399
sVrockyhelmet
p1400
VRocky Helmet
p1401
sVwatergem
p1402
VWater Gem
p1403
sVjabocaberry
p1404
VJaboca Berry
p1405
sVhoppip
p1406
VHoppip
p1407
sViceshard
p1408
VIce Shard
p1409
sVgiratina
p1410
VGiratina
p1411
sVteravolt
p1412
VTeravolt
p1413
sVbite
p1414
VBite
p1415
sVduosion
p1416
VDuosion
p1417
sVaromatherapy
p1418
VAromatherapy
p1419
sVsleeptalk
p1420
VSleep Talk
p1421
sVconfuseray
p1422
VConfuse Ray
p1423
sVgliscor
p1424
VGliscor
p1425
sVseedot
p1426
VSeedot
p1427
sVsnatch
p1428
VSnatch
p1429
sVbunnelby
p1430
VBunnelby
p1431
sVdrapion
p1432
VDrapion
p1433
sVpeck
p1434
VPeck
p1435
sVwormadamtrash
p1436
VWormadam-Trash
p1437
sVflashcannon
p1438
VFlash Cannon
p1439
sVgarbodor
p1440
VGarbodor
p1441
sVtrickortreat
p1442
VTrick-or-Treat
p1443
sVvirizion
p1444
VVirizion
p1445
sS'hiddenpowerrock'
p1446
S'Hidden Power Rock'
p1447
sVrazzberry
p1448
VRazz Berry
p1449
sVlick
p1450
VLick
p1451
sVslam
p1452
VSlam
p1453
sVsandstream
p1454
VSand Stream
p1455
sVledyba
p1456
VLedyba
p1457
sVaquatail
p1458
VAqua Tail
p1459
sVkrilowatt
p1460
VKrilowatt
p1461
sVrecover
p1462
VRecover
p1463
sVconversion
p1464
VConversion
p1465
sVelectrode
p1466
VElectrode
p1467
sVreckless
p1468
VReckless
p1469
sS'hiddenpowerdark'
p1470
S'Hidden Power Dark'
p1471
sVmetalsound
p1472
VMetal Sound
p1473
sVarghonaut
p1474
VArghonaut
p1475
sVbeedrill
p1476
VBeedrill
p1477
sVsurf
p1478
VSurf
p1479
sVgriseousorb
p1480
VGriseous Orb
p1481
sVmountaineer
p1482
VMountaineer
p1483
sVstunky
p1484
VStunky
p1485
sVtrace
p1486
VTrace
p1487
sVtynamo
p1488
VTynamo
p1489
sVdarkrai
p1490
VDarkrai
p1491
sVbarrage
p1492
VBarrage
p1493
sVbonemerang
p1494
VBonemerang
p1495
sVstunfisk
p1496
VStunfisk
p1497
sVadaptability
p1498
VAdaptability
p1499
sVespurr
p1500
VEspurr
p1501
sVleaftornado
p1502
VLeaf Tornado
p1503
sVhyperfang
p1504
VHyper Fang
p1505
sVdracoplate
p1506
VDraco Plate
p1507
sVhyperspacefury
p1508
VHyperspace Fury
p1509
sVelectirizer
p1510
VElectirizer
p1511
sVmollux
p1512
VMollux
p1513
sVmuddywater
p1514
VMuddy Water
p1515
sVcompoundeyes
p1516
VCompound Eyes
p1517
sVdelphox
p1518
VDelphox
p1519
sVtintedlens
p1520
VTinted Lens
p1521
sVgolurk
p1522
VGolurk
p1523
sVfigyberry
p1524
VFigy Berry
p1525
sVgoodra
p1526
VGoodra
p1527
sVrevenankh
p1528
VRevenankh
p1529
sVvolbeat
p1530
VVolbeat
p1531
sVburndrive
p1532
VBurn Drive
p1533
sVpartingshot
p1534
VParting Shot
p1535
sVpatrat
p1536
VPatrat
p1537
sVacupressure
p1538
VAcupressure
p1539
sVanalytic
p1540
VAnalytic
p1541
sVprobopass
p1542
VProbopass
p1543
sVoutrage
p1544
VOutrage
p1545
sVleavanny
p1546
VLeavanny
p1547
sVkinesis
p1548
VKinesis
p1549
sVweaknesspolicy
p1550
VWeakness Policy
p1551
sVstomp
p1552
VStomp
p1553
sVboneclub
p1554
VBone Club
p1555
sVtelekinesis
p1556
VTelekinesis
p1557
sVmoxie
p1558
VMoxie
p1559
sVcelebrate
p1560
VCelebrate
p1561
sVshuppet
p1562
VShuppet
p1563
sVparkball
p1564
VPark Ball
p1565
sVlatiasite
p1566
VLatiasite
p1567
sVspewpa
p1568
VSpewpa
p1569
sVwonderskin
p1570
VWonder Skin
p1571
sVfakeout
p1572
VFake Out
p1573
sVimposter
p1574
VImposter
p1575
sVspore
p1576
VSpore
p1577
sVquagsire
p1578
VQuagsire
p1579
sVdetect
p1580
VDetect
p1581
sVsteadfast
p1582
VSteadfast
p1583
sVlimber
p1584
VLimber
p1585
sVbatonpass
p1586
VBaton Pass
p1587
sVforecast
p1588
VForecast
p1589
sVwhiscash
p1590
VWhiscash
p1591
sVsnowwarning
p1592
VSnow Warning
p1593
sVjustified
p1594
VJustified
p1595
sVdamprock
p1596
VDamp Rock
p1597
sVhariyama
p1598
VHariyama
p1599
sVcrawdaunt
p1600
VCrawdaunt
p1601
sVpluck
p1602
VPluck
p1603
sVspark
p1604
VSpark
p1605
sVroseincense
p1606
VRose Incense
p1607
sVspoink
p1608
VSpoink
p1609
sVvictreebel
p1610
VVictreebel
p1611
sVdestinyknot
p1612
VDestiny Knot
p1613
sVluminousmoss
p1614
VLuminous Moss
p1615
sVrhyhorn
p1616
VRhyhorn
p1617
sVsteelix
p1618
VSteelix
p1619
sVnestball
p1620
VNest Ball
p1621
sVkrookodile
p1622
VKrookodile
p1623
sVcellbattery
p1624
VCell Battery
p1625
sVwingattack
p1626
VWing Attack
p1627
sVnormalgem
p1628
VNormal Gem
p1629
sS'hiddenpowersteel'
p1630
S'Hidden Power Steel'
p1631
sVtyranitarite
p1632
VTyranitarite
p1633
sVdodrio
p1634
VDodrio
p1635
sVstancechange
p1636
VStance Change
p1637
sVzapdos
p1638
VZapdos
p1639
sVendeavor
p1640
VEndeavor
p1641
sViceburn
p1642
VIce Burn
p1643
sVrunaway
p1644
VRun Away
p1645
sVlandswrath
p1646
VLand's Wrath
p1647
sVmawilemega
p1648
VMawile-Mega
p1649
sVlightmetal
p1650
VLight Metal
p1651
sVstunspore
p1652
VStun Spore
p1653
sVxerneas
p1654
VXerneas
p1655
sVgigalith
p1656
VGigalith
p1657
sVspiderweb
p1658
VSpider Web
p1659
sVstantler
p1660
VStantler
p1661
sVlopunnymega
p1662
VLopunny-Mega
p1663
sVflamebody
p1664
VFlame Body
p1665
sVhelioptile
p1666
VHelioptile
p1667
sVcresselia
p1668
VCresselia
p1669
sVomanyte
p1670
VOmanyte
p1671
sVbreloom
p1672
VBreloom
p1673
sVstormthrow
p1674
VStorm Throw
p1675
sVhealblock
p1676
VHeal Block
p1677
sVswanna
p1678
VSwanna
p1679
sVskiddo
p1680
VSkiddo
p1681
sS'careful'
p1682
S'Careful'
p1683
sVmudshot
p1684
VMud Shot
p1685
sVdefeatist
p1686
VDefeatist
p1687
sVtrick
p1688
VTrick
p1689
sVlandorus
p1690
VLandorus
p1691
sVgroudon
p1692
VGroudon
p1693
sS'quiet'
p1694
S'Quiet'
p1695
sVgrasswhistle
p1696
VGrass Whistle
p1697
sVshadowclaw
p1698
VShadow Claw
p1699
sVsacredfire
p1700
VSacred Fire
p1701
sVmonferno
p1702
VMonferno
p1703
sVvicegrip
p1704
VVice Grip
p1705
sVgourgeistlarge
p1706
VGourgeist-Large
p1707
sVcubchoo
p1708
VCubchoo
p1709
sS'hiddenpowerice'
p1710
S'Hidden Power Ice'
p1711
sVextremespeed
p1712
VExtreme Speed
p1713
sVangerpoint
p1714
VAnger Point
p1715
sVphantomforce
p1716
VPhantom Force
p1717
sVstrongjaw
p1718
VStrong Jaw
p1719
sVnuzzle
p1720
VNuzzle
p1721
sVthunderbolt
p1722
VThunderbolt
p1723
sVgenesectshock
p1724
VGenesect-Shock
p1725
sVmagnetbomb
p1726
VMagnet Bomb
p1727
sVassist
p1728
VAssist
p1729
sVblaziken
p1730
VBlaziken
p1731
sVbulletproof
p1732
VBulletproof
p1733
sVgligar
p1734
VGligar
p1735
sVpangoro
p1736
VPangoro
p1737
sVhypervoice
p1738
VHyper Voice
p1739
sVminimize
p1740
VMinimize
p1741
sVdoublehit
p1742
VDouble Hit
p1743
sVmedicham
p1744
VMedicham
p1745
sVheatmor
p1746
VHeatmor
p1747
sVrockgem
p1748
VRock Gem
p1749
sVrazorwind
p1750
VRazor Wind
p1751
sVfurcoat
p1752
VFur Coat
p1753
sVhealingwish
p1754
VHealing Wish
p1755
sVquickguard
p1756
VQuick Guard
p1757
sVwingull
p1758
VWingull
p1759
sVrest
p1760
VRest
p1761
sVfurfrou
p1762
VFurfrou
p1763
sVdarkaura
p1764
VDark Aura
p1765
sVrazorclaw
p1766
VRazor Claw
p1767
sVdragonbreath
p1768
VDragon Breath
p1769
sVelgyem
p1770
VElgyem
p1771
sVduskull
p1772
VDuskull
p1773
sVcometpunch
p1774
VComet Punch
p1775
sVaerialace
p1776
VAerial Ace
p1777
sVparas
p1778
VParas
p1779
sVrayquazamega
p1780
VRayquaza-Mega
p1781
sVflareblitz
p1782
VFlare Blitz
p1783
sVtrubbish
p1784
VTrubbish
p1785
sVsnarl
p1786
VSnarl
p1787
sVmachpunch
p1788
VMach Punch
p1789
sVvolkraken
p1790
VVolkraken
p1791
sVsunkern
p1792
VSunkern
p1793
sVcolossoil
p1794
VColossoil
p1795
sVdreamball
p1796
VDream Ball
p1797
sVsnore
p1798
VSnore
p1799
sVfloatstone
p1800
VFloat Stone
p1801
sVskiploom
p1802
VSkiploom
p1803
sVregigigas
p1804
VRegigigas
p1805
sVvoltswitch
p1806
VVolt Switch
p1807
sVarceusrock
p1808
VArceus-Rock
p1809
sVbrightpowder
p1810
VBrightPowder
p1811
sVhypercutter
p1812
VHyper Cutter
p1813
sVvanillite
p1814
VVanillite
p1815
sVchoiceband
p1816
VChoice Band
p1817
sVheartswap
p1818
VHeart Swap
p1819
sVpinapberry
p1820
VPinap Berry
p1821
sVminccino
p1822
VMinccino
p1823
sVrefresh
p1824
VRefresh
p1825
sVprinplup
p1826
VPrinplup
p1827
sVaudinomega
p1828
VAudino-Mega
p1829
sVultraball
p1830
VUltra Ball
p1831
sVcrustle
p1832
VCrustle
p1833
sVpowergem
p1834
VPower Gem
p1835
sVechoedvoice
p1836
VEchoed Voice
p1837
sVbattlearmor
p1838
VBattle Armor
p1839
sVvolcanion
p1840
VVolcanion
p1841
sVcastformsnowy
p1842
VCastform-Snowy
p1843
sVhustle
p1844
VHustle
p1845
sVthroh
p1846
VThroh
p1847
sVmusharna
p1848
VMusharna
p1849
sVinnerfocus
p1850
VInner Focus
p1851
sVbasculinbluestriped
p1852
VBasculin-Blue-Striped
p1853
sVpumpkaboolarge
p1854
VPumpkaboo-Large
p1855
sVzapcannon
p1856
VZap Cannon
p1857
sVroar
p1858
VRoar
p1859
sVlockon
p1860
VLock-On
p1861
sVfloette
p1862
VFloette
p1863
sVgengar
p1864
VGengar
p1865
sVroserade
p1866
VRoserade
p1867
sVgolem
p1868
VGolem
p1869
sVquilava
p1870
VQuilava
p1871
sVcustapberry
p1872
VCustap Berry
p1873
sVsearingshot
p1874
VSearing Shot
p1875
sVstratagem
p1876
VStratagem
p1877
sVpyroar
p1878
VPyroar
p1879
sVshadowpunch
p1880
VShadow Punch
p1881
sVfocuspunch
p1882
VFocus Punch
p1883
sVtoughclaws
p1884
VTough Claws
p1885
sVstruggle
p1886
VStruggle
p1887
sViciclespear
p1888
VIcicle Spear
p1889
sVpyroak
p1890
VPyroak
p1891
sVsacredsword
p1892
VSacred Sword
p1893
sVhex
p1894
VHex
p1895
sVmarill
p1896
VMarill
p1897
sVsymbiosis
p1898
VSymbiosis
p1899
sVhoopaunbound
p1900
VHoopa-Unbound
p1901
sVwillowisp
p1902
VWill-O-Wisp
p1903
sVsandrush
p1904
VSand Rush
p1905
sVbubble
p1906
VBubble
p1907
sVfastball
p1908
VFast Ball
p1909
sVglaciate
p1910
VGlaciate
p1911
sVnightshade
p1912
VNight Shade
p1913
sVfrogadier
p1914
VFrogadier
p1915
sVporygon
p1916
VPorygon
p1917
sVheatrock
p1918
VHeat Rock
p1919
sVvitalspirit
p1920
VVital Spirit
p1921
sVsolosis
p1922
VSolosis
p1923
sVrage
p1924
VRage
p1925
sVvictorystar
p1926
VVictory Star
p1927
sVvinewhip
p1928
VVine Whip
p1929
sVstoneplate
p1930
VStone Plate
p1931
sVember
p1932
VEmber
p1933
sVsplashplate
p1934
VSplash Plate
p1935
sVpowdersnow
p1936
VPowder Snow
p1937
sVclamperl
p1938
VClamperl
p1939
sVchesnaught
p1940
VChesnaught
p1941
sVgrepaberry
p1942
VGrepa Berry
p1943
sVsmokescreen
p1944
VSmokescreen
p1945
sVmoonblast
p1946
VMoonblast
p1947
sVcolburberry
p1948
VColbur Berry
p1949
sVhorndrill
p1950
VHorn Drill
p1951
sVaegislash
p1952
VAegislash
p1953
sVimmunity
p1954
VImmunity
p1955
sVtangela
p1956
VTangela
p1957
sVcharizard
p1958
VCharizard
p1959
sVnincada
p1960
VNincada
p1961
sVaccelgor
p1962
VAccelgor
p1963
sVmirrorcoat
p1964
VMirror Coat
p1965
sVemboar
p1966
VEmboar
p1967
sVmawilite
p1968
VMawilite
p1969
sVdustox
p1970
VDustox
p1971
sVrootfossil
p1972
VRoot Fossil
p1973
sVtackle
p1974
VTackle
p1975
sVrotomwash
p1976
VRotom-Wash
p1977
sVgrudge
p1978
VGrudge
p1979
sVcyndaquil
p1980
VCyndaquil
p1981
sVblueflare
p1982
VBlue Flare
p1983
sVdefog
p1984
VDefog
p1985
sVskyattack
p1986
VSky Attack
p1987
sVmoonlight
p1988
VMoonlight
p1989
sVmimic
p1990
VMimic
p1991
sVstockpile
p1992
VStockpile
p1993
sVoddincense
p1994
VOdd Incense
p1995
sVgardevoirmega
p1996
VGardevoir-Mega
p1997
sVlairon
p1998
VLairon
p1999
sVeerieimpulse
p2000
VEerie Impulse
p2001
sVscrappy
p2002
VScrappy
p2003
sVtogetic
p2004
VTogetic
p2005
sVfirepunch
p2006
VFire Punch
p2007
sVunfezant
p2008
VUnfezant
p2009
sVmicleberry
p2010
VMicle Berry
p2011
sVlightningrod
p2012
VLightning Rod
p2013
sVgigadrain
p2014
VGiga Drain
p2015
sVsilverpowder
p2016
VSilverPowder
p2017
sVvanillish
p2018
VVanillish
p2019
sVvenomdrench
p2020
VVenom Drench
p2021
sVbayleef
p2022
VBayleef
p2023
sVhondewberry
p2024
VHondew Berry
p2025
sVtympole
p2026
VTympole
p2027
sVwigglytuff
p2028
VWigglytuff
p2029
sVtyranitarmega
p2030
VTyranitar-Mega
p2031
sVicepunch
p2032
VIce Punch
p2033
sVgalvantula
p2034
VGalvantula
p2035
sVcombusken
p2036
VCombusken
p2037
sVcloudnine
p2038
VCloud Nine
p2039
sVmienshao
p2040
VMienshao
p2041
sVkeeberry
p2042
VKee Berry
p2043
sVsteameruption
p2044
VSteam Eruption
p2045
sS'mild'
p2046
S'Mild'
p2047
sVscrafty
p2048
VScrafty
p2049
sVsecretpower
p2050
VSecret Power
p2051
sVshadowtag
p2052
VShadow Tag
p2053
sVpidgeotmega
p2054
VPidgeot-Mega
p2055
sVdoublekick
p2056
VDouble Kick
p2057
sViceball
p2058
VIce Ball
p2059
sVflorges
p2060
VFlorges
p2061
sVgourgeistsuper
p2062
VGourgeist-Super
p2063
sVironbarbs
p2064
VIron Barbs
p2065
sValtaria
p2066
VAltaria
p2067
sVcrushgrip
p2068
VCrush Grip
p2069
sVseedbomb
p2070
VSeed Bomb
p2071
sVmeganium
p2072
VMeganium
p2073
sVchipaway
p2074
VChip Away
p2075
sVmetalclaw
p2076
VMetal Claw
p2077
sVfeatherdance
p2078
VFeather Dance
p2079
sVshockwave
p2080
VShock Wave
p2081
sVironplate
p2082
VIron Plate
p2083
sVgreatball
p2084
VGreat Ball
p2085
sVfellstinger
p2086
VFell Stinger
p2087
sVaurorabeam
p2088
VAurora Beam
p2089
sVheartstamp
p2090
VHeart Stamp
p2091
sVboldore
p2092
VBoldore
p2093
sVchoicescarf
p2094
VChoice Scarf
p2095
sVdragonfang
p2096
VDragon Fang
p2097
sVgastly
p2098
VGastly
p2099
sVclearsmog
p2100
VClear Smog
p2101
sVanticipation
p2102
VAnticipation
p2103
sVinfernape
p2104
VInfernape
p2105
sVweezing
p2106
VWeezing
p2107
sVaromatisse
p2108
VAromatisse
p2109
sVkyuremwhite
p2110
VKyurem-White
p2111
sVacidspray
p2112
VAcid Spray
p2113
sVarmaldo
p2114
VArmaldo
p2115
sVkyurem
p2116
VKyurem
p2117
sVwringout
p2118
VWring Out
p2119
sVstarly
p2120
VStarly
p2121
sVhawlucha
p2122
VHawlucha
p2123
sVgolett
p2124
VGolett
p2125
sVgyaradosmega
p2126
VGyarados-Mega
p2127
sVgallade
p2128
VGallade
p2129
sVledian
p2130
VLedian
p2131
sVluvdisc
p2132
VLuvdisc
p2133
sVhelixfossil
p2134
VHelix Fossil
p2135
sVsplash
p2136
VSplash
p2137
sVillumise
p2138
VIllumise
p2139
sVhonedge
p2140
VHonedge
p2141
sVanorith
p2142
VAnorith
p2143
sVdizzypunch
p2144
VDizzy Punch
p2145
sVflyingpress
p2146
VFlying Press
p2147
sVpumpkaboosuper
p2148
VPumpkaboo-Super
p2149
sVhorsea
p2150
VHorsea
p2151
sVstick
p2152
VStick
p2153
sVrazorfang
p2154
VRazor Fang
p2155
sVchilanberry
p2156
VChilan Berry
p2157
sVturboblaze
p2158
VTurboblaze
p2159
sVaegislashblade
p2160
VAegislash-Blade
p2161
sVnaturalgift
p2162
VNatural Gift
p2163
sVenergypowder
p2164
VEnergyPowder
p2165
sVchartiberry
p2166
VCharti Berry
p2167
sVlumberry
p2168
VLum Berry
p2169
sVvoltorb
p2170
VVoltorb
p2171
sVregice
p2172
VRegice
p2173
sVskyplate
p2174
VSky Plate
p2175
sVsableye
p2176
VSableye
p2177
sVseviper
p2178
VSeviper
p2179
sVmarvelscale
p2180
VMarvel Scale
p2181
sVaurumoth
p2182
VAurumoth
p2183
sVslakoth
p2184
VSlakoth
p2185
sVstaryu
p2186
VStaryu
p2187
sVwikiberry
p2188
VWiki Berry
p2189
sVwobbuffet
p2190
VWobbuffet
p2191
sVfilter
p2192
VFilter
p2193
sVshelmet
p2194
VShelmet
p2195
sVglalitite
p2196
VGlalitite
p2197
sVflyinggem
p2198
VFlying Gem
p2199
sVbulkup
p2200
VBulk Up
p2201
sVglaceon
p2202
VGlaceon
p2203
sVwonderguard
p2204
VWonder Guard
p2205
sVelectricgem
p2206
VElectric Gem
p2207
sVrotomfan
p2208
VRotom-Fan
p2209
sVsignalbeam
p2210
VSignal Beam
p2211
sVshuckle
p2212
VShuckle
p2213
sVreflect
p2214
VReflect
p2215
sVdisable
p2216
VDisable
p2217
sVliquidooze
p2218
VLiquid Ooze
p2219
sVfairygem
p2220
VFairy Gem
p2221
sVmedichammega
p2222
VMedicham-Mega
p2223
sVtoxicplate
p2224
VToxic Plate
p2225
sVlanturn
p2226
VLanturn
p2227
sVparaboliccharge
p2228
VParabolic Charge
p2229
sVretaliate
p2230
VRetaliate
p2231
sVphantump
p2232
VPhantump
p2233
sVcorphish
p2234
VCorphish
p2235
sVbastiodon
p2236
VBastiodon
p2237
sVwatmelberry
p2238
VWatmel Berry
p2239
sVarticuno
p2240
VArticuno
p2241
sVfissure
p2242
VFissure
p2243
sVvolcarona
p2244
VVolcarona
p2245
sVblackglasses
p2246
VBlack Glasses
p2247
sVplayrough
p2248
VPlay Rough
p2249
sVhealorder
p2250
VHeal Order
p2251
sVjigglypuff
p2252
VJigglypuff
p2253
sVsandslash
p2254
VSandslash
p2255
sVastonish
p2256
VAstonish
p2257
sVenergyball
p2258
VEnergy Ball
p2259
sVrockpolish
p2260
VRock Polish
p2261
sVlampent
p2262
VLampent
p2263
sVfistplate
p2264
VFist Plate
p2265
sVreturn
p2266
VReturn
p2267
sVmanectricmega
p2268
VManectric-Mega
p2269
sVsnowball
p2270
VSnowball
p2271
sVmrmime
p2272
VMr. Mime
p2273
sVcharizardmegax
p2274
VCharizard-Mega-X
p2275
sVcharizardmegay
p2276
VCharizard-Mega-Y
p2277
sVclefable
p2278
VClefable
p2279
sVskuntank
p2280
VSkuntank
p2281
sVprimeape
p2282
VPrimeape
p2283
sVgabite
p2284
VGabite
p2285
sVmissingno
p2286
VMissingno.
p2287
sVbellsprout
p2288
VBellsprout
p2289
sVlovelykiss
p2290
VLovely Kiss
p2291
sVmeanlook
p2292
VMean Look
p2293
sVclamp
p2294
VClamp
p2295
sVtopsyturvy
p2296
VTopsy-Turvy
p2297
sVquickfeet
p2298
VQuick Feet
p2299
sVwatershuriken
p2300
VWater Shuriken
p2301
sVraichu
p2302
VRaichu
p2303
sVmagnezone
p2304
VMagnezone
p2305
sVtrickroom
p2306
VTrick Room
p2307
sVmist
p2308
VMist
p2309
sS'hiddenpowerpsychic'
p2310
S'Hidden Power Psychic'
p2311
sVelectroweb
p2312
VElectroweb
p2313
sS'jolly'
p2314
S'Jolly'
p2315
sVsalamence
p2316
VSalamence
p2317
sVarceuswater
p2318
VArceus-Water
p2319
sVarceusice
p2320
VArceus-Ice
p2321
sVsuperfang
p2322
VSuper Fang
p2323
sVcombee
p2324
VCombee
p2325
sVroggenrola
p2326
VRoggenrola
p2327
sVironhead
p2328
VIron Head
p2329
sVsentret
p2330
VSentret
p2331
sVpichuspikyeared
p2332
VPichu-Spiky-eared
p2333
sVtyrogue
p2334
VTyrogue
p2335
sVcleffa
p2336
VCleffa
p2337
sVguardsplit
p2338
VGuard Split
p2339
sVwaterabsorb
p2340
VWater Absorb
p2341
sVtoxicboost
p2342
VToxic Boost
p2343
sVninetales
p2344
VNinetales
p2345
sVnidoranf
p2346
VNidoran-F
p2347
sVcottonspore
p2348
VCotton Spore
p2349
sVnidoranm
p2350
VNidoran-M
p2351
sVpineco
p2352
VPineco
p2353
sVscopelens
p2354
VScope Lens
p2355
sVhydreigon
p2356
VHydreigon
p2357
sVaggron
p2358
VAggron
p2359
sVmightyena
p2360
VMightyena
p2361
sVabomasnowmega
p2362
VAbomasnow-Mega
p2363
sVmanaphy
p2364
VManaphy
p2365
sS'brave'
p2366
S'Brave'
p2367
sVstoredpower
p2368
VStored Power
p2369
sVkangaskhanmega
p2370
VKangaskhan-Mega
p2371
sVpetaldance
p2372
VPetal Dance
p2373
sVmeowstic
p2374
VMeowstic
p2375
sVboltstrike
p2376
VBolt Strike
p2377
sVraikou
p2378
VRaikou
p2379
sVswarm
p2380
VSwarm
p2381
sVbibarel
p2382
VBibarel
p2383
sVklinklang
p2384
VKlinklang
p2385
sVlandorustherian
p2386
VLandorus-Therian
p2387
sVshedinja
p2388
VShedinja
p2389
sVbabiriberry
p2390
VBabiri Berry
p2391
sVsuckerpunch
p2392
VSucker Punch
p2393
sVdragonascent
p2394
VDragon Ascent
p2395
sVfreezeshock
p2396
VFreeze Shock
p2397
sVpsywave
p2398
VPsywave
p2399
sVdrillrun
p2400
VDrill Run
p2401
sVwhiteherb
p2402
VWhite Herb
p2403
sVringtarget
p2404
VRing Target
p2405
sVvenipede
p2406
VVenipede
p2407
sVdarkpulse
p2408
VDark Pulse
p2409
sVyamask
p2410
VYamask
p2411
sVstall
p2412
VStall
p2413
sVsharpedonite
p2414
VSharpedonite
p2415
sVdazzlinggleam
p2416
VDazzling Gleam
p2417
sVdoubleedge
p2418
VDouble-Edge
p2419
sVremoraid
p2420
VRemoraid
p2421
sVclefairy
p2422
VClefairy
p2423
sVklink
p2424
VKlink
p2425
sVclearbody
p2426
VClear Body
p2427
sVfirespin
p2428
VFire Spin
p2429
sVgenesectchill
p2430
VGenesect-Chill
p2431
sVsuicune
p2432
VSuicune
p2433
sVpamtreberry
p2434
VPamtre Berry
p2435
sVmegahorn
p2436
VMegahorn
p2437
sVslowbromega
p2438
VSlowbro-Mega
p2439
sVsunflora
p2440
VSunflora
p2441
sVgourgeist
p2442
VGourgeist
p2443
sVbarbaracle
p2444
VBarbaracle
p2445
sVairballoon
p2446
VAir Balloon
p2447
sVswirlix
p2448
VSwirlix
p2449
sVlitleo
p2450
VLitleo
p2451
sVcamouflage
p2452
VCamouflage
p2453
sVfrillish
p2454
VFrillish
p2455
sVroselia
p2456
VRoselia
p2457
sVkangaskhan
p2458
VKangaskhan
p2459
sVregirock
p2460
VRegirock
p2461
sVpansage
p2462
VPansage
p2463
sVswitcheroo
p2464
VSwitcheroo
p2465
sValakazammega
p2466
VAlakazam-Mega
p2467
sVsoundproof
p2468
VSoundproof
p2469
sVeruption
p2470
VEruption
p2471
sVyawn
p2472
VYawn
p2473
sVcharm
p2474
VCharm
p2475
sVdiglett
p2476
VDiglett
p2477
sVbeldum
p2478
VBeldum
p2479
sVhabanberry
p2480
VHaban Berry
p2481
sVcrosspoison
p2482
VCross Poison
p2483
sVcarvanha
p2484
VCarvanha
p2485
sVrefrigerate
p2486
VRefrigerate
p2487
sVlowsweep
p2488
VLow Sweep
p2489
sVsturdy
p2490
VSturdy
p2491
sVcovet
p2492
VCovet
p2493
sVgenesectdouse
p2494
VGenesect-Douse
p2495
sVkaratechop
p2496
VKarate Chop
p2497
sVworryseed
p2498
VWorry Seed
p2499
sVazumarill
p2500
VAzumarill
p2501
sVmetalburst
p2502
VMetal Burst
p2503
sVherdier
p2504
VHerdier
p2505
sVmeloetta
p2506
VMeloetta
p2507
sVnanabberry
p2508
VNanab Berry
p2509
sVzoomlens
p2510
VZoom Lens
p2511
sVblackbelt
p2512
VBlack Belt
p2513
sVhammerarm
p2514
VHammer Arm
p2515
sVmagmaarmor
p2516
VMagma Armor
p2517
sVpayday
p2518
VPay Day
p2519
sVgooey
p2520
VGooey
p2521
sVoblivionwing
p2522
VOblivion Wing
p2523
sVtyrantrum
p2524
VTyrantrum
p2525
sVhealpulse
p2526
VHeal Pulse
p2527
sVmagikarp
p2528
VMagikarp
p2529
sVpawniard
p2530
VPawniard
p2531
sVpoisontail
p2532
VPoison Tail
p2533
sVhitmonchan
p2534
VHitmonchan
p2535
sS'docile'
p2536
S'Docile'
p2537
sVfireblast
p2538
VFire Blast
p2539
sVshroomish
p2540
VShroomish
p2541
sVwhismur
p2542
VWhismur
p2543
sVspikes
p2544
VSpikes
p2545
sVshadowstrike
p2546
VShadow Strike
p2547
sVheatcrash
p2548
VHeat Crash
p2549
sVskorupi
p2550
VSkorupi
p2551
sVgengarite
p2552
VGengarite
p2553
sVblitzle
p2554
VBlitzle
p2555
sVtamatoberry
p2556
VTamato Berry
p2557
sVblazikenite
p2558
VBlazikenite
p2559
sVfarfetchd
p2560
VFarfetch'd
p2561
sVinkay
p2562
VInkay
p2563
sVpickup
p2564
VPickup
p2565
sVcontrary
p2566
VContrary
p2567
sVarceusdark
p2568
VArceus-Dark
p2569
sVmarowak
p2570
VMarowak
p2571
sVmachobrace
p2572
VMacho Brace
p2573
sVelekid
p2574
VElekid
p2575
sVmagmortar
p2576
VMagmortar
p2577
sVchansey
p2578
VChansey
p2579
sVroaroftime
p2580
VRoar of Time
p2581
sVwildcharge
p2582
VWild Charge
p2583
sVrattata
p2584
VRattata
p2585
sVhoundoommega
p2586
VHoundoom-Mega
p2587
sVclaydol
p2588
VClaydol
p2589
sVrelicanth
p2590
VRelicanth
p2591
sVtorchic
p2592
VTorchic
p2593
sVlapras
p2594
VLapras
p2595
sVmankey
p2596
VMankey
p2597
sVfuryattack
p2598
VFury Attack
p2599
sVprankster
p2600
VPrankster
p2601
sVshayminsky
p2602
VShaymin-Sky
p2603
sVwacanberry
p2604
VWacan Berry
p2605
sVsandile
p2606
VSandile
p2607
sVtyphlosion
p2608
VTyphlosion
p2609
sVsimple
p2610
VSimple
p2611
sVdrillpeck
p2612
VDrill Peck
p2613
sVicebody
p2614
VIce Body
p2615
sVfearow
p2616
VFearow
p2617
sVxscissor
p2618
VX-Scissor
p2619
sVbellossom
p2620
VBellossom
p2621
sVquiverdance
p2622
VQuiver Dance
p2623
sVblastoisinite
p2624
VBlastoisinite
p2625
sVmegapunch
p2626
VMega Punch
p2627
sVdamp
p2628
VDamp
p2629
sVskitty
p2630
VSkitty
p2631
sVmienfoo
p2632
VMienfoo
p2633
sVliepard
p2634
VLiepard
p2635
sVamnesia
p2636
VAmnesia
p2637
sVdestinybond
p2638
VDestiny Bond
p2639
sVcastform
p2640
VCastform
p2641
sVdruddigon
p2642
VDruddigon
p2643
sVtaillow
p2644
VTaillow
p2645
sVdragontail
p2646
VDragon Tail
p2647
sVswellow
p2648
VSwellow
p2649
sVstringshot
p2650
VString Shot
p2651
sValomomola
p2652
VAlomomola
p2653
sVwatergun
p2654
VWater Gun
p2655
sVvcreate
p2656
VV-create
p2657
sVnomelberry
p2658
VNomel Berry
p2659
sVdrainingkiss
p2660
VDraining Kiss
p2661
sVbasculin
p2662
VBasculin
p2663
sVescavalier
p2664
VEscavalier
p2665
sVpsychoshift
p2666
VPsycho Shift
p2667
sVbisharp
p2668
VBisharp
p2669
sVhoundoom
p2670
VHoundoom
p2671
sVgulpin
p2672
VGulpin
p2673
sVpancham
p2674
VPancham
p2675
sVmantyke
p2676
VMantyke
p2677
sVpound
p2678
VPound
p2679
sVmedichamite
p2680
VMedichamite
p2681
sVrotommow
p2682
VRotom-Mow
p2683
sVdefendorder
p2684
VDefend Order
p2685
sVsurskit
p2686
VSurskit
p2687
sVmegalauncher
p2688
VMega Launcher
p2689
sVicebeam
p2690
VIce Beam
p2691
sVfacade
p2692
VFacade
p2693
sVzubat
p2694
VZubat
p2695
sVmagikarpsrevenge
p2696
VMagikarp's Revenge
p2697
sVingrain
p2698
VIngrain
p2699
sVcottonee
p2700
VCottonee
p2701
sVpikachuphd
p2702
VPikachu-PhD
p2703
sVpoisonjab
p2704
VPoison Jab
p2705
sVcameruptmega
p2706
VCamerupt-Mega
p2707
sVtaunt
p2708
VTaunt
p2709
sVgorebyss
p2710
VGorebyss
p2711
sVgrotle
p2712
VGrotle
p2713
sVpikachu
p2714
VPikachu
p2715
sVrayquaza
p2716
VRayquaza
p2717
sVfroakie
p2718
VFroakie
p2719
sVloveball
p2720
VLove Ball
p2721
sVjumpluff
p2722
VJumpluff
p2723
sS'timid'
p2724
S'Timid'
p2725
sVmismagius
p2726
VMismagius
p2727
sS'hiddenpowerbug'
p2728
S'Hidden Power Bug'
p2729
sVinfiltrator
p2730
VInfiltrator
p2731
sVpsychup
p2732
VPsych Up
p2733
sVsliggoo
p2734
VSliggoo
p2735
sVfiregem
p2736
VFire Gem
p2737
sVshellder
p2738
VShellder
p2739
sVwithdraw
p2740
VWithdraw
p2741
sVmoonball
p2742
VMoon Ball
p2743
sVpainsplit
p2744
VPain Split
p2745
sVstoneedge
p2746
VStone Edge
p2747
sVhowl
p2748
VHowl
p2749
sVwaterpledge
p2750
VWater Pledge
p2751
sVspearow
p2752
VSpearow
p2753
sVwhirlipede
p2754
VWhirlipede
p2755
sVrockwrecker
p2756
VRock Wrecker
p2757
sVoriginpulse
p2758
VOrigin Pulse
p2759
sVcompetitive
p2760
VCompetitive
p2761
sVsteelgem
p2762
VSteel Gem
p2763
sVzygarde
p2764
VZygarde
p2765
sVsolrock
p2766
VSolrock
p2767
sVthousandarrows
p2768
VThousand Arrows
p2769
sVcut
p2770
VCut
p2771
sVcloyster
p2772
VCloyster
p2773
sVmetapod
p2774
VMetapod
p2775
sVairslash
p2776
VAir Slash
p2777
sVmagiccoat
p2778
VMagic Coat
p2779
sVacrobatics
p2780
VAcrobatics
p2781
sVspheal
p2782
VSpheal
p2783
sVchoicespecs
p2784
VChoice Specs
p2785
sVrebound
p2786
VRebound
p2787
sVsolarbeam
p2788
VSolar Beam
p2789
sVlusterpurge
p2790
VLuster Purge
p2791
sVkeldeoresolute
p2792
VKeldeo-Resolute
p2793
sVmoody
p2794
VMoody
p2795
sVglaliemega
p2796
VGlalie-Mega
p2797
sVgothitelle
p2798
VGothitelle
p2799
sVskilllink
p2800
VSkill Link
p2801
sVponyta
p2802
VPonyta
p2803
sVpaleowave
p2804
VPaleo Wave
p2805
sVsubmission
p2806
VSubmission
p2807
sVstaravia
p2808
VStaravia
p2809
sVtailglow
p2810
VTail Glow
p2811
sVnoibat
p2812
VNoibat
p2813
sVstealthrock
p2814
VStealth Rock
p2815
sVtechnoblast
p2816
VTechno Blast
p2817
sVbaltoy
p2818
VBaltoy
p2819
sVflamewheel
p2820
VFlame Wheel
p2821
sVsketch
p2822
VSketch
p2823
sVbronzor
p2824
VBronzor
p2825
sVbounce
p2826
VBounce
p2827
sVsunnyday
p2828
VSunny Day
p2829
sVsouldew
p2830
VSoul Dew
p2831
sVgigaimpact
p2832
VGiga Impact
p2833
sVsewaddle
p2834
VSewaddle
p2835
sVscald
p2836
VScald
p2837
sVominouswind
p2838
VOminous Wind
p2839
sVdeepseascale
p2840
VDeepSeaScale
p2841
sVmummy
p2842
VMummy
p2843
sVhuntail
p2844
VHuntail
p2845
sVswordsdance
p2846
VSwords Dance
p2847
sVearlybird
p2848
VEarly Bird
p2849
sVslash
p2850
VSlash
p2851
sS'hiddenpowergrass'
p2852
S'Hidden Power Grass'
p2853
sVpidgeotite
p2854
VPidgeotite
p2855
sVgarchompmega
p2856
VGarchomp-Mega
p2857
sVmimejr
p2858
VMime Jr.
p2859
sVaudinite
p2860
VAudinite
p2861
sVseismitoad
p2862
VSeismitoad
p2863
sVodorsleuth
p2864
VOdor Sleuth
p2865
sVmewtwomegax
p2866
VMewtwo-Mega-X
p2867
sVmewtwomegay
p2868
VMewtwo-Mega-Y
p2869
sVfocussash
p2870
VFocus Sash
p2871
sVjellicent
p2872
VJellicent
p2873
sVspelonberry
p2874
VSpelon Berry
p2875
sVnobleroar
p2876
VNoble Roar
p2877
sVkangaskhanite
p2878
VKangaskhanite
p2879
sVblazekick
p2880
VBlaze Kick
p2881
sViapapaberry
p2882
VIapapa Berry
p2883
sVmudkip
p2884
VMudkip
p2885
sVbouffalant
p2886
VBouffalant
p2887
sVarceusghost
p2888
VArceus-Ghost
p2889
sVblock
p2890
VBlock
p2891
sVsharpedo
p2892
VSharpedo
p2893
sVarmthrust
p2894
VArm Thrust
p2895
sVchargebeam
p2896
VCharge Beam
p2897
sVshellos
p2898
VShellos
p2899
sVnidoking
p2900
VNidoking
p2901
sVsablenite
p2902
VSablenite
p2903
sVbarboach
p2904
VBarboach
p2905
sVstench
p2906
VStench
p2907
sViciclecrash
p2908
VIcicle Crash
p2909
sVunown
p2910
VUnown
p2911
sVferrothorn
p2912
VFerrothorn
p2913
sVswampertmega
p2914
VSwampert-Mega
p2915
sVsnorunt
p2916
VSnorunt
p2917
sS'relaxed'
p2918
S'Relaxed'
p2919
sVeevee
p2920
VEevee
p2921
sVpsychocut
p2922
VPsycho Cut
p2923
sVtranquill
p2924
VTranquill
p2925
sVragepowder
p2926
VRage Powder
p2927
sVbuizel
p2928
VBuizel
p2929
sVsharpen
p2930
VSharpen
p2931
sVgrasspledge
p2932
VGrass Pledge
p2933
sVabsolmega
p2934
VAbsol-Mega
p2935
sVwatchog
p2936
VWatchog
p2937
sVspacialrend
p2938
VSpacial Rend
p2939
sVforesight
p2940
VForesight
p2941
sVgrowth
p2942
VGrowth
p2943
sVpoliwrath
p2944
VPoliwrath
p2945
sVhappyhour
p2946
VHappy Hour
p2947
sVmurkrow
p2948
VMurkrow
p2949
sVpechaberry
p2950
VPecha Berry
p2951
sVarceusfairy
p2952
VArceus-Fairy
p2953
sVmiracleseed
p2954
VMiracle Seed
p2955
sVtakedown
p2956
VTake Down
p2957
sVrockhead
p2958
VRock Head
p2959
sVstickybarb
p2960
VSticky Barb
p2961
sVganlonberry
p2962
VGanlon Berry
p2963
sVbulbasaur
p2964
VBulbasaur
p2965
sVpichu
p2966
VPichu
p2967
sVheatwave
p2968
VHeat Wave
p2969
sVaudino
p2970
VAudino
p2971
sVdrifloon
p2972
VDrifloon
p2973
sVsnowcloak
p2974
VSnow Cloak
p2975
sVrazorshell
p2976
VRazor Shell
p2977
sVmetagross
p2978
VMetagross
p2979
sVforcepalm
p2980
VForce Palm
p2981
sVlickilicky
p2982
VLickilicky
p2983
sVzigzagoon
p2984
VZigzagoon
p2985
sVprecipiceblades
p2986
VPrecipice Blades
p2987
sVcinccino
p2988
VCinccino
p2989
sVavalugg
p2990
VAvalugg
p2991
sVscratch
p2992
VScratch
p2993
sVcharmeleon
p2994
VCharmeleon
p2995
sVsandtomb
p2996
VSand Tomb
p2997
sVcharmander
p2998
VCharmander
p2999
sVspeedboost
p3000
VSpeed Boost
p3001
sVwakeupslap
p3002
VWake-Up Slap
p3003
sVcursedbody
p3004
VCursed Body
p3005
sVrivalry
p3006
VRivalry
p3007
sVperishsong
p3008
VPerish Song
p3009
sVpoweruppunch
p3010
VPower-Up Punch
p3011
sVcutecharm
p3012
VCute Charm
p3013
sVblaze
p3014
VBlaze
p3015
sVsniper
p3016
VSniper
p3017
sVtriplekick
p3018
VTriple Kick
p3019
sVfly
p3020
VFly
p3021
sVnightslash
p3022
VNight Slash
p3023
sVextrasensory
p3024
VExtrasensory
p3025
sVteddiursa
p3026
VTeddiursa
p3027
sVthundershock
p3028
VThunder Shock
p3029
sVazurill
p3030
VAzurill
p3031
sVbigpecks
p3032
VBig Pecks
p3033
sVlureball
p3034
VLure Ball
p3035
sVqwilfish
p3036
VQwilfish
p3037
sVhyperbeam
p3038
VHyper Beam
p3039
sVdynamicpunch
p3040
VDynamic Punch
p3041
sVmagnemite
p3042
VMagnemite
p3043
sVtyrunt
p3044
VTyrunt
p3045
sVirondefense
p3046
VIron Defense
p3047
sVmisdreavus
p3048
VMisdreavus
p3049
sVfidgit
p3050
VFidgit
p3051
sVdousedrive
p3052
VDouse Drive
p3053
sVcrushclaw
p3054
VCrush Claw
p3055
sVsoftboiled
p3056
VSoft-Boiled
p3057
sVpoisongem
p3058
VPoison Gem
p3059
sVdownload
p3060
VDownload
p3061
sVacid
p3062
VAcid
p3063
sVvigoroth
p3064
VVigoroth
p3065
sVlombre
p3066
VLombre
p3067
sVdelcatty
p3068
VDelcatty
p3069
sVhoundoominite
p3070
VHoundoominite
p3071
sVtriattack
p3072
VTri Attack
p3073
sVtyranitar
p3074
VTyranitar
p3075
sVturtwig
p3076
VTurtwig
p3077
sVmagmastorm
p3078
VMagma Storm
p3079
sVpansear
p3080
VPansear
p3081
sVdeerling
p3082
VDeerling
p3083
sVswinub
p3084
VSwinub
p3085
sVabomasnow
p3086
VAbomasnow
p3087
sVsing
p3088
VSing
p3089
sVpikachucosplay
p3090
VPikachu-Cosplay
p3091
sVpowersplit
p3092
VPower Split
p3093
sVincinerate
p3094
VIncinerate
p3095
sVmarangaberry
p3096
VMaranga Berry
p3097
sVrampardos
p3098
VRampardos
p3099
sVscreech
p3100
VScreech
p3101
sVtentacruel
p3102
VTentacruel
p3103
sVnaturalcure
p3104
VNatural Cure
p3105
sVforestscurse
p3106
VForest's Curse
p3107
sVblizzard
p3108
VBlizzard
p3109
sVteeterdance
p3110
VTeeter Dance
p3111
sVfoongus
p3112
VFoongus
p3113
sVaquaring
p3114
VAqua Ring
p3115
sS'hardy'
p3116
S'Hardy'
p3117
sVarceusground
p3118
VArceus-Ground
p3119
sVhornattack
p3120
VHorn Attack
p3121
sVkingdra
p3122
VKingdra
p3123
sVaerodactylite
p3124
VAerodactylite
p3125
sVbanettite
p3126
VBanettite
p3127
sVdragongem
p3128
VDragon Gem
p3129
sVheatran
p3130
VHeatran
p3131
sVsteelixite
p3132
VSteelixite
p3133
sVheavyball
p3134
VHeavy Ball
p3135
sVinsomnia
p3136
VInsomnia
p3137
sVcharcoal
p3138
VCharcoal
p3139
sVcranidos
p3140
VCranidos
p3141
sVabsol
p3142
VAbsol
p3143
sVplusle
p3144
VPlusle
p3145
sVaerodactylmega
p3146
VAerodactyl-Mega
p3147
sVharvest
p3148
VHarvest
p3149
sVwatersport
p3150
VWater Sport
p3151
sVicicleplate
p3152
VIcicle Plate
p3153
sVfuturesight
p3154
VFuture Sight
p3155
sVlustrousorb
p3156
VLustrous Orb
p3157
sVarchen
p3158
VArchen
p3159
sVexeggcute
p3160
VExeggcute
p3161
sVlucario
p3162
VLucario
p3163
sVthundurus
p3164
VThundurus
p3165
sVtangrowth
p3166
VTangrowth
p3167
sVvespiquen
p3168
VVespiquen
p3169
sVterrakion
p3170
VTerrakion
p3171
sVblacksludge
p3172
VBlack Sludge
p3173
sVrelicsong
p3174
VRelic Song
p3175
sVheliolisk
p3176
VHeliolisk
p3177
sVblazikenmega
p3178
VBlaziken-Mega
p3179
sVgastrodon
p3180
VGastrodon
p3181
sVbronzong
p3182
VBronzong
p3183
sVweavile
p3184
VWeavile
p3185
sVdewott
p3186
VDewott
p3187
sVchandelure
p3188
VChandelure
p3189
sVhaxorus
p3190
VHaxorus
p3191
sVsecretsword
p3192
VSecret Sword
p3193
sVowntempo
p3194
VOwn Tempo
p3195
sVhiddenpower
p3196
S'Hidden Power'
p3197
sVrazorleaf
p3198
VRazor Leaf
p3199
sVpowerswap
p3200
VPower Swap
p3201
sVdragalge
p3202
VDragalge
p3203
sVheadcharge
p3204
VHead Charge
p3205
sVswampert
p3206
VSwampert
p3207
sVpidgey
p3208
VPidgey
p3209
sVaggronite
p3210
VAggronite
p3211
sVgenesect
p3212
VGenesect
p3213
sVlotad
p3214
VLotad
p3215
sVbind
p3216
VBind
p3217
sVcounter
p3218
VCounter
p3219
sVfullincense
p3220
VFull Incense
p3221
sVweepinbell
p3222
VWeepinbell
p3223
sVwoobat
p3224
VWoobat
p3225
sVaquajet
p3226
VAqua Jet
p3227
sVkrabby
p3228
VKrabby
p3229
sVumbreon
p3230
VUmbreon
p3231
sVhitmontop
p3232
VHitmontop
p3233
sVheatproof
p3234
VHeatproof
p3235
sVguardswap
p3236
VGuard Swap
p3237
sVassaultvest
p3238
VAssault Vest
p3239
sVpetalblizzard
p3240
VPetal Blizzard
p3241
sVkadabra
p3242
VKadabra
p3243
sVpurepower
p3244
VPure Power
p3245
sVironball
p3246
VIron Ball
p3247
sVdreameater
p3248
VDream Eater
p3249
sVhelpinghand
p3250
VHelping Hand
p3251
sVmunchlax
p3252
VMunchlax
p3253
sVzenheadbutt
p3254
VZen Headbutt
p3255
sVbelch
p3256
VBelch
p3257
sVsuperluck
p3258
VSuper Luck
p3259
sVberryjuice
p3260
VBerry Juice
p3261
sS'hiddenpowerflying'
p3262
S'Hidden Power Flying'
p3263
sVflowerveil
p3264
VFlower Veil
p3265
sVmilotic
p3266
VMilotic
p3267
sVarbok
p3268
VArbok
p3269
sVflail
p3270
VFlail
p3271
sVkabutops
p3272
VKabutops
p3273
sVhoothoot
p3274
VHoothoot
p3275
sVchinchou
p3276
VChinchou
p3277
sVforewarn
p3278
VForewarn
p3279
sVmagnitude
p3280
VMagnitude
p3281
sVarceusfighting
p3282
VArceus-Fighting
p3283
sVrapidspin
p3284
VRapid Spin
p3285
sVskullbash
p3286
VSkull Bash
p3287
sVdratini
p3288
VDratini
p3289
sVafteryou
p3290
VAfter You
p3291
sVmaractus
p3292
VMaractus
p3293
sVilluminate
p3294
VIlluminate
p3295
sVgallademega
p3296
VGallade-Mega
p3297
sVmagnetpull
p3298
VMagnet Pull
p3299
sVtepig
p3300
VTepig
p3301
sVkelpsyberry
p3302
VKelpsy Berry
p3303
sVstatic
p3304
VStatic
p3305
sVflameplate
p3306
VFlame Plate
p3307
sVicefang
p3308
VIce Fang
p3309
sVvenonat
p3310
VVenonat
p3311
sVjoltik
p3312
VJoltik
p3313
sVrollingkick
p3314
VRolling Kick
p3315
sVweatherball
p3316
VWeather Ball
p3317
sVmanectric
p3318
VManectric
p3319
sVnaturepower
p3320
VNature Power
p3321
sVregisteel
p3322
VRegisteel
p3323
sVsmog
p3324
VSmog
p3325
sVbabydolleyes
p3326
VBaby-Doll Eyes
p3327
sVleafguard
p3328
VLeaf Guard
p3329
sVicywind
p3330
VIcy Wind
p3331
sVemolga
p3332
VEmolga
p3333
sVconkeldurr
p3334
VConkeldurr
p3335
sVworkup
p3336
VWork Up
p3337
sVmetagrossite
p3338
VMetagrossite
p3339
sVhippowdon
p3340
VHippowdon
p3341
sVenigmaberry
p3342
VEnigma Berry
p3343
sVscatterbug
p3344
VScatterbug
p3345
sVcobalion
p3346
VCobalion
p3347
sVbergmite
p3348
VBergmite
p3349
sVsudowoodo
p3350
VSudowoodo
p3351
sVlarvitar
p3352
VLarvitar
p3353
sVheadbutt
p3354
VHeadbutt
p3355
sVbodyslam
p3356
VBody Slam
p3357
sVexpertbelt
p3358
VExpert Belt
p3359
sVbugbuzz
p3360
VBug Buzz
p3361
sVfirefang
p3362
VFire Fang
p3363
sVmindplate
p3364
VMind Plate
p3365
sVampharosmega
p3366
VAmpharos-Mega
p3367
sVmistball
p3368
VMist Ball
p3369
sVskrelp
p3370
VSkrelp
p3371
sVjumpkick
p3372
VJump Kick
p3373
sVwaterspout
p3374
VWater Spout
p3375
sVloudred
p3376
VLoudred
p3377
sVearthpower
p3378
VEarth Power
p3379
sVpremierball
p3380
VPremier Ball
p3381
sVrotomfrost
p3382
VRotom-Frost
p3383
sVsolidrock
p3384
VSolid Rock
p3385
sVrabutaberry
p3386
VRabuta Berry
p3387
sVagility
p3388
VAgility
p3389
sVelectabuzz
p3390
VElectabuzz
p3391
sVcrobat
p3392
VCrobat
p3393
sVrockblast
p3394
VRock Blast
p3395
sVfeint
p3396
VFeint
p3397
sVsoftsand
p3398
VSoft Sand
p3399
sVsigilyph
p3400
VSigilyph
p3401
sVdeepseatooth
p3402
VDeepSeaTooth
p3403
sVtorkoal
p3404
VTorkoal
p3405
sVwurmple
p3406
VWurmple
p3407
sVmasterball
p3408
VMaster Ball
p3409
sVtimburr
p3410
VTimburr
p3411
sVsealeo
p3412
VSealeo
p3413
sVpoisonfang
p3414
VPoison Fang
p3415
sVinsectplate
p3416
VInsect Plate
p3417
sVtorrent
p3418
VTorrent
p3419
sVencore
p3420
VEncore
p3421
sVquickball
p3422
VQuick Ball
p3423
sVtrapinch
p3424
VTrapinch
p3425
sVbonerush
p3426
VBone Rush
p3427
sS'gentle'
p3428
S'Gentle'
p3429
sVtorment
p3430
VTorment
p3431
sVarceusflying
p3432
VArceus-Flying
p3433
sVzebstrika
p3434
VZebstrika
p3435
sVwhitesmoke
p3436
VWhite Smoke
p3437
sVlevelball
p3438
VLevel Ball
p3439
sVsoak
p3440
VSoak
p3441
sVfusionbolt
p3442
VFusion Bolt
p3443
sVflareon
p3444
VFlareon
p3445
sVcalmmind
p3446
VCalm Mind
p3447
sVdiamondstorm
p3448
VDiamond Storm
p3449
sVgravity
p3450
VGravity
p3451
sVcarnivine
p3452
VCarnivine
p3453
sVmistyterrain
p3454
VMisty Terrain
p3455
sVpsychoboost
p3456
VPsycho Boost
p3457
sVnuzleaf
p3458
VNuzleaf
p3459
sVwidelens
p3460
VWide Lens
p3461
sVshadowball
p3462
VShadow Ball
p3463
sVdrifblim
p3464
VDrifblim
p3465
sVmewtwo
p3466
VMewtwo
p3467
sVrollout
p3468
VRollout
p3469
sVslurpuff
p3470
VSlurpuff
p3471
sVgrassgem
p3472
VGrass Gem
p3473
sVdracometeor
p3474
VDraco Meteor
p3475
sVsludgewave
p3476
VSludge Wave
p3477
sVsceptile
p3478
VSceptile
p3479
sVgardevoirite
p3480
VGardevoirite
p3481
sVexeggutor
p3482
VExeggutor
p3483
sVshedskin
p3484
VShed Skin
p3485
sVcherrimsunshine
p3486
VCherrim-Sunshine
p3487
sVarceus
p3488
VArceus
p3489
sS'impish'
p3490
S'Impish'
p3491
sVservine
p3492
VServine
p3493
sVwailmer
p3494
VWailmer
p3495
sVbrine
p3496
VBrine
p3497
sVzweilous
p3498
VZweilous
p3499
sVsleeppowder
p3500
VSleep Powder
p3501
sVoldamber
p3502
VOld Amber
p3503
sVdurant
p3504
VDurant
p3505
sVsimplebeam
p3506
VSimple Beam
p3507
sVyveltal
p3508
VYveltal
p3509
sVbrickbreak
p3510
VBrick Break
p3511
sS'rash'
p3512
S'Rash'
p3513
sVpiplup
p3514
VPiplup
p3515
sVflashfire
p3516
VFlash Fire
p3517
sVsableyemega
p3518
VSableye-Mega
p3519
sVdeino
p3520
VDeino
p3521
sVcamerupt
p3522
VCamerupt
p3523
sVluckypunch
p3524
VLucky Punch
p3525
sVpsychicgem
p3526
VPsychic Gem
p3527
sVrarebone
p3528
VRare Bone
p3529
sVsnover
p3530
VSnover
p3531
sVtangaberry
p3532
VTanga Berry
p3533
sVbellydrum
p3534
VBelly Drum
p3535
sS'sassy'
p3536
S'Sassy'
p3537
sVdeoxysattack
p3538
VDeoxys-Attack
p3539
sVcroagunk
p3540
VCroagunk
p3541
sVbravebird
p3542
VBrave Bird
p3543
sVgust
p3544
VGust
p3545
sVmagicguard
p3546
VMagic Guard
p3547
sVsandattack
p3548
VSand Attack
p3549
sVkingler
p3550
VKingler
p3551
sVhugepower
p3552
VHuge Power
p3553
sVmudbomb
p3554
VMud Bomb
p3555
sVsheercold
p3556
VSheer Cold
p3557
sVgeomancy
p3558
VGeomancy
p3559
sVcacturne
p3560
VCacturne
p3561
sVpowder
p3562
VPowder
p3563
sVvictini
p3564
VVictini
p3565
sVfinneon
p3566
VFinneon
p3567
sVtwineedle
p3568
VTwineedle
p3569
sVchestoberry
p3570
VChesto Berry
p3571
sVgrumpig
p3572
VGrumpig
p3573
sVnightmare
p3574
VNightmare
p3575
sVgyarados
p3576
VGyarados
p3577
sVvaporeon
p3578
VVaporeon
p3579
sVthunderwave
p3580
VThunder Wave
p3581
sVrockincense
p3582
VRock Incense
p3583
sVfroslass
p3584
VFroslass
p3585
sVconfusion
p3586
VConfusion
p3587
sVaron
p3588
VAron
p3589
sVconversion2
p3590
VConversion 2
p3591
sVmysticalfire
p3592
VMystical Fire
p3593
sVzoroark
p3594
VZoroark
p3595
sVshellsmash
p3596
VShell Smash
p3597
sVhydropump
p3598
VHydro Pump
p3599
sVswift
p3600
VSwift
p3601
sVmemento
p3602
VMemento
p3603
sVmetang
p3604
VMetang
p3605
sVbaddreams
p3606
VBad Dreams
p3607
sVaerodactyl
p3608
VAerodactyl
p3609
sVtailwhip
p3610
VTail Whip
p3611
sVsceptilite
p3612
VSceptilite
p3613
sVsafetygoggles
p3614
VSafety Goggles
p3615
sVklang
p3616
VKlang
p3617
sVswallow
p3618
VSwallow
p3619
sVspritzee
p3620
VSpritzee
p3621
sVflabebe
p3622
VFlabebe
p3623
sVapicotberry
p3624
VApicot Berry
p3625
sVnumel
p3626
VNumel
p3627
sVwoodhammer
p3628
VWood Hammer
p3629
sS'hiddenpowerwater'
p3630
S'Hidden Power Water'
p3631
sVmalaconda
p3632
VMalaconda
p3633
sVgible
p3634
VGible
p3635
sVovercoat
p3636
VOvercoat
p3637
sVekans
p3638
VEkans
p3639
sVsharpedomega
p3640
VSharpedo-Mega
p3641
sVpixieplate
p3642
VPixie Plate
p3643
sVdugtrio
p3644
VDugtrio
p3645
sVdisarmingvoice
p3646
VDisarming Voice
p3647
sVwailord
p3648
VWailord
p3649
sVswoobat
p3650
VSwoobat
p3651
sVelectrify
p3652
VElectrify
p3653
sVbindingband
p3654
VBinding Band
p3655
sVkeldeo
p3656
VKeldeo
p3657
sVtomohawk
p3658
VTomohawk
p3659
sVivysaur
p3660
VIvysaur
p3661
sVgripclaw
p3662
VGrip Claw
p3663
sVadamantorb
p3664
VAdamant Orb
p3665
sVcoverfossil
p3666
VCover Fossil
p3667
sVgraveler
p3668
VGraveler
p3669
sVsmeargle
p3670
VSmeargle
p3671
sVmetagrossmega
p3672
VMetagross-Mega
p3673
sVraindance
p3674
VRain Dance
p3675
sVinfestation
p3676
VInfestation
p3677
sVpresent
p3678
VPresent
p3679
sVgrovyle
p3680
VGrovyle
p3681
sVintimidate
p3682
VIntimidate
p3683
sVharden
p3684
VHarden
p3685
sVbeheeyem
p3686
VBeheeyem
p3687
sVwhirlpool
p3688
VWhirlpool
p3689
sVpelipper
p3690
VPelipper
p3691
sVthickfat
p3692
VThick Fat
p3693
sVcarracosta
p3694
VCarracosta
p3695
sVluxio
p3696
VLuxio
p3697
sVvullaby
p3698
VVullaby
p3699
sS'hiddenpowerghost'
p3700
S'Hidden Power Ghost'
p3701
sVlightball
p3702
VLight Ball
p3703
sVwaterveil
p3704
VWater Veil
p3705
sVspelltag
p3706
VSpell Tag
p3707
sVdeoxysdefense
p3708
VDeoxys-Defense
p3709
sVzekrom
p3710
VZekrom
p3711
sVaipom
p3712
VAipom
p3713
sVdefiant
p3714
VDefiant
p3715
sVhardstone
p3716
VHard Stone
p3717
sVkebiaberry
p3718
VKebia Berry
p3719
sVcascoon
p3720
VCascoon
p3721
sVmagcargo
p3722
VMagcargo
p3723
sVabsorb
p3724
VAbsorb
p3725
sVraindish
p3726
VRain Dish
p3727
sVseaking
p3728
VSeaking
p3729
sVmagician
p3730
VMagician
p3731
sVjudgment
p3732
VJudgment
p3733
sVairlock
p3734
VAir Lock
p3735
sVpsybeam
p3736
VPsybeam
p3737
sVaspearberry
p3738
VAspear Berry
p3739
sVeelektross
p3740
VEelektross
p3741
sVpickpocket
p3742
VPickpocket
p3743
sVsitrusberry
p3744
VSitrus Berry
p3745
sVarceuspsychic
p3746
VArceus-Psychic
p3747
sVbeautifly
p3748
VBeautifly
p3749
sVvenoshock
p3750
VVenoshock
p3751
sVmudsport
p3752
VMud Sport
p3753
sVazelf
p3754
VAzelf
p3755
sVyanmega
p3756
VYanmega
p3757
sS'naviathan'
p3758
S'Naviathan'
p3759
sVfairyaura
p3760
VFairy Aura
p3761
sVkarrablast
p3762
VKarrablast
p3763
sVpinsir
p3764
VPinsir
p3765
sVkoffing
p3766
VKoffing
p3767
sVguts
p3768
VGuts
p3769
sVtauros
p3770
VTauros
p3771
sVnatu
p3772
VNatu
p3773
sVfaketears
p3774
VFake Tears
p3775
sVariados
p3776
VAriados
p3777
sVaromaticmist
p3778
VAromatic Mist
p3779
sVbeedrillite
p3780
VBeedrillite
p3781
sVconfide
p3782
VConfide
p3783
sVleechlife
p3784
VLeech Life
p3785
sVkingsshield
p3786
VKing's Shield
p3787
sVkingsrock
p3788
VKing's Rock
p3789
sVblukberry
p3790
VBluk Berry
p3791
sVflowershield
p3792
VFlower Shield
p3793
sVarenatrap
p3794
VArena Trap
p3795
sVleechseed
p3796
VLeech Seed
p3797
sVgoldeen
p3798
VGoldeen
p3799
sVducklett
p3800
VDucklett
p3801
sVgreninja
p3802
VGreninja
p3803
sVlatios
p3804
VLatios
p3805
sVbudew
p3806
VBudew
p3807
sVgogoat
p3808
VGogoat
p3809
sVlilligant
p3810
VLilligant
p3811
sVhealball
p3812
VHeal Ball
p3813
sVphanpy
p3814
VPhanpy
p3815
sVpikachubelle
p3816
VPikachu-Belle
p3817
sVimprison
p3818
VImprison
p3819
sVrepeatball
p3820
VRepeat Ball
p3821
sVglare
p3822
VGlare
p3823
sVthief
p3824
VThief
p3825
sVhail
p3826
VHail
p3827
sVcofagrigus
p3828
VCofagrigus
p3829
sVwepearberry
p3830
VWepear Berry
p3831
sVskarmory
p3832
VSkarmory
p3833
sVpersimberry
p3834
VPersim Berry
p3835
sVdragonclaw
p3836
VDragon Claw
p3837
sVdrizzle
p3838
VDrizzle
p3839
sVstaraptor
p3840
VStaraptor
p3841
sVmagicalleaf
p3842
VMagical Leaf
p3843
sVmeowsticf
p3844
VMeowstic-F
p3845
sVhurricane
p3846
VHurricane
p3847
sVlileep
p3848
VLileep
p3849
sVpiloswine
p3850
VPiloswine
p3851
sVvenusaurite
p3852
VVenusaurite
p3853
sVcyclohm
p3854
VCyclohm
p3855
sVhappiny
p3856
VHappiny
p3857
sVpressure
p3858
VPressure
p3859
sVsilkscarf
p3860
VSilk Scarf
p3861
sVpidgeotto
p3862
VPidgeotto
p3863
sVdreadplate
p3864
VDread Plate
p3865
sVvenomoth
p3866
VVenomoth
p3867
sVfurret
p3868
VFurret
p3869
sVpsystrike
p3870
VPsystrike
p3871
sVmeteormash
p3872
VMeteor Mash
p3873
sVshucaberry
p3874
VShuca Berry
p3875
sVsweetkiss
p3876
VSweet Kiss
p3877
sVacidarmor
p3878
VAcid Armor
p3879
sVlightclay
p3880
VLight Clay
p3881
sVvoodoom
p3882
VVoodoom
p3883
sVblueorb
p3884
VBlue Orb
p3885
sVfeintattack
p3886
VFeint Attack
p3887
sVburmy
p3888
VBurmy
p3889
sVmagostberry
p3890
VMagost Berry
p3891
sVgrasspelt
p3892
VGrass Pelt
p3893
sVspitup
p3894
VSpit Up
p3895
sVrockthrow
p3896
VRock Throw
p3897
sVroseliberry
p3898
VRoseli Berry
p3899
sVfrustration
p3900
VFrustration
p3901
sVambipom
p3902
VAmbipom
p3903
sVfollowme
p3904
VFollow Me
p3905
sVclauncher
p3906
VClauncher
p3907
sVquickpowder
p3908
VQuick Powder
p3909
sVfrenzyplant
p3910
VFrenzy Plant
p3911
sVfrisk
p3912
VFrisk
p3913
sVmagoberry
p3914
VMago Berry
p3915
sVcroconaw
p3916
VCroconaw
p3917
sVdrowzee
p3918
VDrowzee
p3919
sVserenegrace
p3920
VSerene Grace
p3921
sVheracronite
p3922
VHeracronite
p3923
sVtechnician
p3924
VTechnician
p3925
sVarceusgrass
p3926
VArceus-Grass
p3927
sVembargo
p3928
VEmbargo
p3929
sVmetronome
p3930
VMetronome
p3931
sVattackorder
p3932
VAttack Order
p3933
sVallyswitch
p3934
VAlly Switch
p3935
sVwish
p3936
VWish
p3937
sVmegakick
p3938
VMega Kick
p3939
sVentrainment
p3940
VEntrainment
p3941
sVpoisonheal
p3942
VPoison Heal
p3943
sVscizormega
p3944
VScizor-Mega
p3945
sVhoneclaws
p3946
VHone Claws
p3947
sVfloetteeternalflower
p3948
VFloette-Eternal-Flower
p3949
sVpikachurockstar
p3950
VPikachu-Rock-Star
p3951
sVoranberry
p3952
VOran Berry
p3953
sVninjask
p3954
VNinjask
p3955
sVslowstart
p3956
VSlow Start
p3957
sVweakarmor
p3958
VWeak Armor
p3959
sVaurasphere
p3960
VAura Sphere
p3961
sVshelgon
p3962
VShelgon
p3963
sVrawstberry
p3964
VRawst Berry
p3965
sVvacuumwave
p3966
VVacuum Wave
p3967
sVillusion
p3968
VIllusion
p3969
sVroleplay
p3970
VRole Play
p3971
sVyacheberry
p3972
VYache Berry
p3973
sVtreecko
p3974
VTreecko
p3975
sVdragonair
p3976
VDragonair
p3977
sVbraviary
p3978
VBraviary
p3979
sVvivillon
p3980
VVivillon
p3981
sVnoguard
p3982
VNo Guard
p3983
sVsalamencemega
p3984
VSalamence-Mega
p3985
sVabomasite
p3986
VAbomasite
p3987
sVstarmie
p3988
VStarmie
p3989
sVpersistent
p3990
VPersistent
p3991
sVmagmar
p3992
VMagmar
p3993
sVzangoose
p3994
VZangoose
p3995
sVvanilluxe
p3996
VVanilluxe
p3997
s.